-----------------------------------
AVR DISASSEMBLER LISTING
Address Opcode  Instruction
-----------------------------------
000000  940C    L2:	JMP L1
000001  2E74
000002  940C    	JMP L2
000003  0000
000004  940C    	JMP L2
000005  0000
000006  940C    	JMP L2
000007  0000
000008  940C    	JMP L2
000009  0000
00000A  940C    	JMP L2
00000B  0000
00000C  940C    	JMP L2
00000D  0000
00000E  940C    	JMP L3
00000F  3BB3
000010  940C    	JMP L2
000011  0000
000012  940C    	JMP L2
000013  0000
000014  940C    	JMP L2
000015  0000
000016  940C    	JMP L2
000017  0000
000018  940C    	JMP L2
000019  0000
00001A  940C    	JMP L2
00001B  0000
00001C  940C    	JMP L4
00001D  3B5C
00001E  940C    	JMP L2
00001F  0000
000020  940C    	JMP L5
000021  3AFA
000022  940C    	JMP L2
000023  0000
000024  940C    	JMP L6
000025  338D
000026  940C    	JMP L2
000027  0000
000028  940C    	JMP L7
000029  3362
00002A  940C    	JMP L8
00002B  3C25
00002C  940C    	JMP L2
00002D  0000
00002E  940C    	JMP L2
00002F  0000
000030  940C    	JMP L2
000031  0000
000032  940C    	JMP L2
000033  0000
000034  940C    	JMP L2
000035  0000
000036  940C    	JMP L2
000037  0000
000038  940C    	JMP L2
000039  0000
00003A  940C    	JMP L2
00003B  0000
00003C  940C    	JMP L9
00003D  33D4
00003E  940C    	JMP L2
00003F  0000
000040  940C    	JMP L2
000041  0000
000042  940C    	JMP L2
000043  0000
000044  940C    	JMP L2
000045  0000
000046  CA7D    	RJMP -1411
000047  42A2    	SBCI XL,$22
000048  7C6C    	ANDI R22,$CC
000049  5830    	SUBI R19,$80
00004A  8EB8    	STD Y+24,R11
00004B  285A    	OR R5,R10
00004C  A17D    	LDD R23,Y+37
00004D  7FD2    	ANDI YH,$F2
00004E  E4AE    	LDI XL,$4E
00004F  82FE    	STD Y+6,R15
000050  FEB9    	UNRECOGNIZED
000051  7EB4    	ANDI XH,$E4
000052  D0D0    	RCALL L10
000053  E0FE    	LDI ZH,$0E
000054  FEC6    	SBRS R12,6
000055  FEE4    	SBRS R14,4
000056  4601    	SBCI R16,$61
000057  287C    	OR R7,R12
000058  4929    	SBCI R18,$99
000059  0116    	MOVW R3:R2,R13:R12
00005A  3978    	CPI R23,$98
00005B  1701    	CP R16,R17
00005C  0101    	MOVW R1:R0,R3:R2
00005D  2819    	OR R1,R9
00005E  E4AE    	LDI XL,$4E
00005F  82FE    	STD Y+6,R15
000060  FEB9    	UNRECOGNIZED
000061  7EB9    	ANDI XH,$E9
000062  E6D0    	LDI YH,$60
000063  FEFE    	UNRECOGNIZED
000064  FECD    	UNRECOGNIZED
000065  FEFE    	UNRECOGNIZED
000066  4B01    	SBCI R16,$B1
000067  287C    	OR R7,R12
000068  4929    	SBCI R18,$99
000069  0116    	MOVW R3:R2,R13:R12
00006A  2D78    	MOV R23,R8
00006B  0101    	MOVW R1:R0,R3:R2
00006C  0119    	MOVW R3:R2,R19:R18
00006D  2D2D    	MOV R18,R13
00006E  E1FE    	LDI ZH,$1E
00006F  D2E1    	RCALL L11
000070  FEFE    	UNRECOGNIZED
000071  B9E1    	OUT PINE,ZL
000072  CDCB    	RJMP -565
000073  E6FE    	LDI ZH,$6E
000074  FECD    	UNRECOGNIZED
000075  FEE6    	SBRS R14,6
000076  1901    	SUB R16,R1
000077  1919    	SUB R17,R9
000078  012D    	MOVW R5:R4,R27:R26
000079  5219    	SUBI R17,$29
00007A  0105    	MOVW R1:R0,R11:R10
00007B  1401    	CP R0,R1
00007C  0101    	MOVW R1:R0,R3:R2
00007D  2811    	OR R1,R1
00007E  0100    	MOVW R1:R0,R1:R0
00007F  0302    	MULSU R16,R18
000080  0504    	CPC R16,R4
000081  0706    	CPC R16,R22
000082  0908    	SBC R16,R8
000083  0B0A    	SBC R16,XL
000084  0D0C    	ADD R16,R12
000085  0F0E    	ADD R16,ZL
000086  C97D    	RJMP -1667
000087  43A3    L31:	SBCI XL,$33
000088  7D6C    	ANDI R22,$DC
000089  5930    	SUBI R19,$90
00008A  8EB8    	STD Y+24,R11
00008B  2759    	EOR R21,R25
00008C  A27C    	STD Y+36,R7
00008D  7FD3    	ANDI YH,$F3
00008E  2828    	OR R2,R8
00008F  2828    L33:	OR R2,R8
000090  2828    	OR R2,R8
000091  2828    	OR R2,R8
000092  2828    	OR R2,R8
000093  1414    	CP R1,R4
000094  1414    	CP R1,R4
000095  1414    	CP R1,R4
000096  3C3C    	CPI R19,$CC
000097  3C3C    	CPI R19,$CC
000098  3C3C    	CPI R19,$CC
000099  3C3C    	CPI R19,$CC
00009A  3C3C    	CPI R19,$CC
00009B  1E1E    	ADC R1,ZL
00009C  1E1E    	ADC R1,ZL
00009D  1E1E    	ADC R1,ZL
00009E  0000    	NOP
00009F  0000    	NOP
0000A0  0000    	NOP
0000A1  0000    	NOP
0000A2  0000    	NOP
0000A3  0000    	NOP
0000A4  0000    	NOP
0000A5  0000    	NOP
0000A6  0001    	UNRECOGNIZED
0000A7  0008    	UNRECOGNIZED
0000A8  0001    	UNRECOGNIZED
0000A9  0005    	UNRECOGNIZED
0000AA  000F    	UNRECOGNIZED
0000AB  0046    	UNRECOGNIZED
0000AC  0136    	MOVW R7:R6,R13:R12
0000AD  01A4    	MOVW R21:R20,R9:R8
0000AE  00C8    	UNRECOGNIZED
0000AF  012C    	MOVW R5:R4,R25:R24
0000B0  B37D    	IN R23,EEDR
0000B1  58C7    	SUBI YL,$87
0000B2  7E6C    	ANDI R22,$EC
0000B3  3148    	CPI R20,$18
0000B4  8DA3    	LDD XL,Z+27
0000B5  2F33    	MOV R19,R19
0000B6  C731    L88:	RJMP L12
0000B7  CDCD    L39:	RJMP -563
0000B8  B37D    	IN R23,EEDR
0000B9  58C7    	SUBI YL,$87
0000BA  7E6C    	ANDI R22,$EC
0000BB  3148    	CPI R20,$18
0000BC  8DA3    	LDD XL,Z+27
0000BD  2F33    	MOV R19,R19
0000BE  C731    	RJMP L13
0000BF  CDCD    	RJMP -563
0000C0  A46B    	LDD R6,Y+43
0000C1  6AE9    	ORI ZL,$A9
0000C2  6C5F    	ORI R21,$CF
0000C3  1D50    	ADC R21,R0
0000C4  819B    	LDD R25,Y+3
0000C5  3E38    	CPI R19,$E8
0000C6  A628    	STD Y+40,R2
0000C7  D0CE    	RCALL L14
0000C8  A46B    	LDD R6,Y+43
0000C9  6AE9    	ORI ZL,$A9
0000CA  915F    	POP R21
0000CB  284A    	OR R4,R10
0000CC  9AA3    	SBI DDRC,DDC3
0000CD  7C75    	ANDI R23,$C5
0000CE  A672    	STD Z+42,R7
0000CF  D0CE    	RCALL L15
0000D0  A47E    	LDD R7,Y+46
0000D1  64DE    	ORI YH,$4E
0000D2  7D6B    	ANDI R22,$DB
0000D3  1D50    	ADC R21,R0
0000D4  8E9B    	STD Y+27,R9
0000D5  2C4F    	MOV R4,R15
0000D6  A628    	STD Y+40,R2
0000D7  D0CE    	RCALL L16
0000D8  B37D    	IN R23,EEDR
0000D9  58C7    	SUBI YL,$87
0000DA  7E6C    	ANDI R22,$EC
0000DB  3148    	CPI R20,$18
0000DC  8DA3    	LDD XL,Z+27
0000DD  2F33    	MOV R19,R19
0000DE  C731    	RJMP L17
0000DF  CDCD    	RJMP -563
0000E0  0404    	CPC R0,R4
0000E1  0404    	CPC R0,R4
0000E2  0404    	CPC R0,R4
0000E3  0404    	CPC R0,R4
0000E4  0404    	CPC R0,R4
0000E5  0404    	CPC R0,R4
0000E6  0404    	CPC R0,R4
0000E7  0404    	CPC R0,R4
0000E8  0202    	MULS R16,R18
0000E9  0202    	MULS R16,R18
0000EA  0202    	MULS R16,R18
0000EB  0202    	MULS R16,R18
0000EC  0202    	MULS R16,R18
0000ED  0000    	NOP
0000EE  0000    	NOP
0000EF  0000    	NOP
0000F0  0101    	MOVW R1:R0,R3:R2
0000F1  0101    	MOVW R1:R0,R3:R2
0000F2  0101    	MOVW R1:R0,R3:R2
0000F3  0101    	MOVW R1:R0,R3:R2
0000F4  0101    	MOVW R1:R0,R3:R2
0000F5  0101    	MOVW R1:R0,R3:R2
0000F6  0101    	MOVW R1:R0,R3:R2
0000F7  0101    	MOVW R1:R0,R3:R2
0000F8  0202    	MULS R16,R18
0000F9  0202    	MULS R16,R18
0000FA  0202    	MULS R16,R18
0000FB  0202    	MULS R16,R18
0000FC  0202    	MULS R16,R18
0000FD  0202    	MULS R16,R18
0000FE  0202    	MULS R16,R18
0000FF  0202    	MULS R16,R18
000100  0404    	CPC R0,R4
000101  0404    	CPC R0,R4
000102  0404    	CPC R0,R4
000103  0404    	CPC R0,R4
000104  0404    	CPC R0,R4
000105  0404    	CPC R0,R4
000106  0404    	CPC R0,R4
000107  0404    	CPC R0,R4
000108  0101    	MOVW R1:R0,R3:R2
000109  0101    	MOVW R1:R0,R3:R2
00010A  0001    	UNRECOGNIZED
00010B  0000    	NOP
00010C  0000    	NOP
00010D  0101    	MOVW R1:R0,R3:R2
00010E  0001    	UNRECOGNIZED
00010F  0000    	NOP
000110  0101    	MOVW R1:R0,R3:R2
000111  0101    	MOVW R1:R0,R3:R2
000112  0001    	UNRECOGNIZED
000113  0000    	NOP
000114  0000    	NOP
000115  0101    	MOVW R1:R0,R3:R2
000116  0001    	UNRECOGNIZED
000117  0000    	NOP
000118  0303    	MULSU R16,R19
000119  0303    	MULSU R16,R19
00011A  0003    	UNRECOGNIZED
00011B  0000    	NOP
00011C  0000    	NOP
00011D  0303    	MULSU R16,R19
00011E  0003    	UNRECOGNIZED
00011F  0000    	NOP
000120  0303    	MULSU R16,R19
000121  0303    	MULSU R16,R19
000122  0003    	UNRECOGNIZED
000123  0000    L10:	NOP
000124  0000    	NOP
000125  0303    	MULSU R16,R19
000126  0003    	UNRECOGNIZED
000127  0000    	NOP
000128  0000    	NOP
000129  0000    	NOP
00012A  0000    	NOP
00012B  0000    	NOP
00012C  0000    	NOP
00012D  0000    	NOP
00012E  0000    	NOP
00012F  0000    	NOP
000130  2828    	OR R2,R8
000131  2828    	OR R2,R8
000132  2828    	OR R2,R8
000133  2828    	OR R2,R8
000134  2828    	OR R2,R8
000135  1414    	CP R1,R4
000136  1414    	CP R1,R4
000137  1414    	CP R1,R4
000138  3C3C    	CPI R19,$CC
000139  3C3C    	CPI R19,$CC
00013A  3C3C    	CPI R19,$CC
00013B  3C3C    	CPI R19,$CC
00013C  3C3C    	CPI R19,$CC
00013D  1E1E    	ADC R1,ZL
00013E  1E1E    	ADC R1,ZL
00013F  1E1E    	ADC R1,ZL
000140  0000    	NOP
000141  0000    	NOP
000142  0000    	NOP
000143  0000    L41:	NOP
000144  0000    	NOP
000145  0000    	NOP
000146  0000    	NOP
000147  0000    	NOP
000148  0001    	UNRECOGNIZED
000149  0008    L100:	UNRECOGNIZED
00014A  0001    	UNRECOGNIZED
00014B  0005    L43:	UNRECOGNIZED
00014C  000F    	UNRECOGNIZED
00014D  0046    	UNRECOGNIZED
00014E  0136    	MOVW R7:R6,R13:R12
00014F  01A4    	MOVW R21:R20,R9:R8
000150  00C8    	UNRECOGNIZED
000151  012C    	MOVW R5:R4,R25:R24
000152  B37D    	IN R23,EEDR
000153  58C7    L45:	SUBI YL,$87
000154  7E6C    	ANDI R22,$EC
000155  3148    	CPI R20,$18
000156  8DA3    	LDD XL,Z+27
000157  2F33    	MOV R19,R19
000158  C731    	RJMP L18
000159  CDCD    	RJMP -563
00015A  B37D    	IN R23,EEDR
00015B  58C7    L47:	SUBI YL,$87
00015C  7E6C    	ANDI R22,$EC
00015D  3148    	CPI R20,$18
00015E  8DA3    	LDD XL,Z+27
00015F  2F33    	MOV R19,R19
000160  C731    	RJMP L19
000161  CDCD    	RJMP -563
000162  A38B    	STD Y+35,R24
000163  64E6    L49:	ORI ZL,$46
000164  8E78    	STD Y+24,R7
000165  0E57    	ADD R5,R23
000166  9F96    	MUL R25,R22
000167  2C4F    	MOV R4,R15
000168  B728    	IN R18,EIFR
000169  D0BC    	RCALL L20
00016A  A46C    	LDD R6,Y+44
00016B  61E0    L51:	ORI ZL,$10
00016C  976A    	SBIW YH:YL,26
00016D  1C50    	ADC R5,R0
00016E  A799    	STD Y+41,R25
00016F  2C4F    	MOV R4,R15
000170  9128    	UNRECOGNIZED
000171  8370    	ST Z,R23
000172  A47E    	LDD R7,Y+46
000173  64DE    L53:	ORI YH,$4E
000174  7D6B    	ANDI R22,$DB
000175  1D50    	ADC R21,R0
000176  8E9B    	STD Y+27,R9
000177  2C4F    	MOV R4,R15
000178  A628    	STD Y+40,R2
000179  D0CE    	RCALL L21
00017A  B37D    	IN R23,EEDR
00017B  58C7    L74:	SUBI YL,$87
00017C  7E6C    	ANDI R22,$EC
00017D  3148    	CPI R20,$18
00017E  8DA3    	LDD XL,Z+27
00017F  2F33    	MOV R19,R19
000180  C731    	RJMP L22
000181  CDCD    	RJMP -563
000182  0404    L77:	CPC R0,R4
000183  0404    	CPC R0,R4
000184  0404    	CPC R0,R4
000185  0404    	CPC R0,R4
000186  0404    	CPC R0,R4
000187  0404    	CPC R0,R4
000188  0404    	CPC R0,R4
000189  0404    	CPC R0,R4
00018A  0202    	MULS R16,R18
00018B  0202    	MULS R16,R18
00018C  0202    	MULS R16,R18
00018D  0202    	MULS R16,R18
00018E  0202    	MULS R16,R18
00018F  0000    	NOP
000190  0000    	NOP
000191  0000    	NOP
000192  0101    	MOVW R1:R0,R3:R2
000193  0101    	MOVW R1:R0,R3:R2
000194  0101    	MOVW R1:R0,R3:R2
000195  0101    	MOVW R1:R0,R3:R2
000196  0101    L14:	MOVW R1:R0,R3:R2
000197  0101    	MOVW R1:R0,R3:R2
000198  0101    	MOVW R1:R0,R3:R2
000199  0101    	MOVW R1:R0,R3:R2
00019A  0202    	MULS R16,R18
00019B  0202    	MULS R16,R18
00019C  0202    	MULS R16,R18
00019D  0202    	MULS R16,R18
00019E  0202    L15:	MULS R16,R18
00019F  0202    	MULS R16,R18
0001A0  0202    	MULS R16,R18
0001A1  0202    	MULS R16,R18
0001A2  0404    	CPC R0,R4
0001A3  0404    	CPC R0,R4
0001A4  0404    	CPC R0,R4
0001A5  0404    	CPC R0,R4
0001A6  0404    L16:	CPC R0,R4
0001A7  0404    	CPC R0,R4
0001A8  0404    	CPC R0,R4
0001A9  0404    	CPC R0,R4
0001AA  0000    	NOP
0001AB  0000    	NOP
0001AC  0100    	MOVW R1:R0,R1:R0
0001AD  0101    	MOVW R1:R0,R3:R2
0001AE  0101    	MOVW R1:R0,R3:R2
0001AF  0000    	NOP
0001B0  0100    	MOVW R1:R0,R1:R0
0001B1  0101    L113:	MOVW R1:R0,R3:R2
0001B2  0000    	NOP
0001B3  0000    	NOP
0001B4  0200    	MULS R16,R16
0001B5  0202    	MULS R16,R18
0001B6  0202    	MULS R16,R18
0001B7  0000    	NOP
0001B8  0200    	MULS R16,R16
0001B9  0202    	MULS R16,R18
0001BA  0000    	NOP
0001BB  0000    	NOP
0001BC  0300    	MULSU R16,R16
0001BD  0303    	MULSU R16,R19
0001BE  0203    	MULS R16,R19
0001BF  0000    	NOP
0001C0  0300    	MULSU R16,R16
0001C1  0303    	MULSU R16,R19
0001C2  0000    	NOP
0001C3  0000    	NOP
0001C4  0300    	MULSU R16,R16
0001C5  0303    	MULSU R16,R19
0001C6  0303    	MULSU R16,R19
0001C7  0000    	NOP
0001C8  0300    	MULSU R16,R16
0001C9  0303    	MULSU R16,R19
0001CA  0000    	NOP
0001CB  0000    	NOP
0001CC  0000    	NOP
0001CD  0000    	NOP
0001CE  0000    	NOP
0001CF  0000    	NOP
0001D0  0000    	NOP
0001D1  0000    L117:	NOP
0001D2  2828    	OR R2,R8
0001D3  2828    	OR R2,R8
0001D4  2828    	OR R2,R8
0001D5  2828    	OR R2,R8
0001D6  2828    	OR R2,R8
0001D7  1414    	CP R1,R4
0001D8  1414    	CP R1,R4
0001D9  1414    	CP R1,R4
0001DA  3C3C    	CPI R19,$CC
0001DB  3C3C    	CPI R19,$CC
0001DC  3C3C    	CPI R19,$CC
0001DD  3C3C    	CPI R19,$CC
0001DE  3C3C    	CPI R19,$CC
0001DF  1E1E    	ADC R1,ZL
0001E0  1E1E    	ADC R1,ZL
0001E1  1E1E    	ADC R1,ZL
0001E2  0000    	NOP
0001E3  0000    	NOP
0001E4  0000    	NOP
0001E5  0000    	NOP
0001E6  0000    	NOP
0001E7  0000    	NOP
0001E8  0000    	NOP
0001E9  0000    	NOP
0001EA  0001    	UNRECOGNIZED
0001EB  0005    	UNRECOGNIZED
0001EC  0008    	UNRECOGNIZED
0001ED  0003    	UNRECOGNIZED
0001EE  0001    	UNRECOGNIZED
0001EF  000F    	UNRECOGNIZED
0001F0  0046    	UNRECOGNIZED
0001F1  0096    	UNRECOGNIZED
0001F2  0136    	MOVW R7:R6,R13:R12
0001F3  00FA    	UNRECOGNIZED
0001F4  0078    	UNRECOGNIZED
0001F5  012C    	MOVW R5:R4,R25:R24
0001F6  B37D    	IN R23,EEDR
0001F7  58C7    	SUBI YL,$87
0001F8  7E6C    	ANDI R22,$EC
0001F9  3148    	CPI R20,$18
0001FA  8DA3    	LDD XL,Z+27
0001FB  2F33    	MOV R19,R19
0001FC  C731    	RJMP L23
0001FD  CDCD    	RJMP -563
0001FE  B37D    	IN R23,EEDR
0001FF  58C7    L55:	SUBI YL,$87
000200  7E6C    	ANDI R22,$EC
000201  3148    	CPI R20,$18
000202  8DA3    	LDD XL,Z+27
000203  2F33    	MOV R19,R19
000204  C731    	RJMP L24
000205  CDCD    	RJMP -563
000206  A77E    	STD Y+46,R23
000207  62DE    L57:	ORI YH,$2E
000208  7D6E    	ANDI R22,$DE
000209  1D54    	ADC R21,R4
00020A  8E9B    	STD Y+27,R9
00020B  2C4F    	MOV R4,R15
00020C  A628    	STD Y+40,R2
00020D  D0CE    	RCALL L25
00020E  A46B    	LDD R6,Y+43
00020F  66E9    L60:	ORI ZL,$69
000210  6C5F    	ORI R21,$CF
000211  1D50    	ADC R21,R0
000212  819B    	LDD R25,Y+3
000213  3E38    	CPI R19,$E8
000214  A628    	STD Y+40,R2
000215  D0CE    	RCALL L26
000216  A46B    	LDD R6,Y+43
000217  69E9    L63:	ORI ZL,$99
000218  915F    	POP R21
000219  284A    	OR R4,R10
00021A  9A9D    	SBI PINC,PINC5
00021B  3E38    	CPI R19,$E8
00021C  A628    	STD Y+40,R2
00021D  D0CE    	RCALL L27
00021E  A47E    	LDD R7,Y+46
00021F  5FDE    L65:	SUBI YH,$FE
000220  7D6B    	ANDI R22,$DB
000221  1D54    	ADC R21,R4
000222  8E9B    	STD Y+27,R9
000223  2C4F    	MOV R4,R15
000224  A628    	STD Y+40,R2
000225  D0CE    	RCALL L28
000226  B37D    L20:	IN R23,EEDR
000227  58C7    L67:	SUBI YL,$87
000228  7E6C    	ANDI R22,$EC
000229  3148    	CPI R20,$18
00022A  8DA3    	LDD XL,Z+27
00022B  2F33    	MOV R19,R19
00022C  C731    	RJMP L29
00022D  CDCD    	RJMP -563
00022E  0404    	CPC R0,R4
00022F  0404    L69:	CPC R0,R4
000230  0404    	CPC R0,R4
000231  0404    	CPC R0,R4
000232  0404    	CPC R0,R4
000233  0404    	CPC R0,R4
000234  0404    	CPC R0,R4
000235  0404    	CPC R0,R4
000236  0404    	CPC R0,R4
000237  0404    	CPC R0,R4
000238  0404    	CPC R0,R4
000239  0404    L130:	CPC R0,R4
00023A  0404    	CPC R0,R4
00023B  0404    	CPC R0,R4
00023C  0404    	CPC R0,R4
00023D  0404    	CPC R0,R4
00023E  0202    	MULS R16,R18
00023F  0202    	MULS R16,R18
000240  0202    	MULS R16,R18
000241  0202    	MULS R16,R18
000242  0202    	MULS R16,R18
000243  0000    	NOP
000244  0000    	NOP
000245  0000    	NOP
000246  0202    	MULS R16,R18
000247  0202    	MULS R16,R18
000248  0002    L21:	UNRECOGNIZED
000249  0000    	NOP
00024A  0000    	NOP
00024B  0303    	MULSU R16,R19
00024C  0303    	MULSU R16,R19
00024D  0303    	MULSU R16,R19
00024E  0000    	NOP
00024F  0000    	NOP
000250  0000    	NOP
000251  0000    	NOP
000252  0000    	NOP
000253  0404    	CPC R0,R4
000254  0404    	CPC R0,R4
000255  0304    	MULSU R16,R20
000256  0404    	CPC R0,R4
000257  0404    	CPC R0,R4
000258  0404    	CPC R0,R4
000259  0404    L134:	CPC R0,R4
00025A  0404    	CPC R0,R4
00025B  0404    	CPC R0,R4
00025C  0404    	CPC R0,R4
00025D  0404    	CPC R0,R4
00025E  0000    	NOP
00025F  0000    	NOP
000260  0000    	NOP
000261  0000    	NOP
000262  0000    	NOP
000263  0000    	NOP
000264  0000    	NOP
000265  0000    	NOP
000266  0101    	MOVW R1:R0,R3:R2
000267  0101    	MOVW R1:R0,R3:R2
000268  0001    	UNRECOGNIZED
000269  0000    	NOP
00026A  0000    	NOP
00026B  0101    	MOVW R1:R0,R3:R2
00026C  0001    	UNRECOGNIZED
00026D  0000    	NOP
00026E  0000    	NOP
00026F  0000    	NOP
000270  0000    	NOP
000271  0000    	NOP
000272  0000    	NOP
000273  0000    	NOP
000274  0000    	NOP
000275  0000    	NOP
000276  0101    	MOVW R1:R0,R3:R2
000277  0101    	MOVW R1:R0,R3:R2
000278  0001    	UNRECOGNIZED
000279  0000    	NOP
00027A  0000    	NOP
00027B  0101    	MOVW R1:R0,R3:R2
00027C  0001    	UNRECOGNIZED
00027D  0000    	NOP
00027E  0000    	NOP
00027F  0000    	NOP
000280  0000    	NOP
000281  0000    	NOP
000282  0000    	NOP
000283  0000    	NOP
000284  0000    	NOP
000285  0000    	NOP
000286  0000    	NOP
000287  0000    	NOP
000288  0000    	NOP
000289  0000    	NOP
00028A  0000    	NOP
00028B  0000    	NOP
00028C  0000    	NOP
00028D  0000    	NOP
00028E  2828    	OR R2,R8
00028F  2828    	OR R2,R8
000290  2828    	OR R2,R8
000291  2828    	OR R2,R8
000292  2828    	OR R2,R8
000293  1414    	CP R1,R4
000294  1414    	CP R1,R4
000295  1414    	CP R1,R4
000296  3C3C    	CPI R19,$CC
000297  3C3C    	CPI R19,$CC
000298  3C3C    	CPI R19,$CC
000299  3C3C    	CPI R19,$CC
00029A  3C3C    	CPI R19,$CC
00029B  1E1E    	ADC R1,ZL
00029C  1E1E    	ADC R1,ZL
00029D  1E1E    	ADC R1,ZL
00029E  0000    	NOP
00029F  0000    	NOP
0002A0  0000    	NOP
0002A1  0000    	NOP
0002A2  0000    	NOP
0002A3  0000    	NOP
0002A4  0000    	NOP
0002A5  0000    	NOP
0002A6  0001    	UNRECOGNIZED
0002A7  0005    	UNRECOGNIZED
0002A8  0008    	UNRECOGNIZED
0002A9  0003    	UNRECOGNIZED
0002AA  0001    	UNRECOGNIZED
0002AB  000F    	UNRECOGNIZED
0002AC  0046    	UNRECOGNIZED
0002AD  0096    	UNRECOGNIZED
0002AE  0136    	MOVW R7:R6,R13:R12
0002AF  00C8    	UNRECOGNIZED
0002B0  0078    	UNRECOGNIZED
0002B1  012C    	MOVW R5:R4,R25:R24
0002B2  B37D    	IN R23,EEDR
0002B3  58C7    	SUBI YL,$87
0002B4  7E6C    	ANDI R22,$EC
0002B5  3148    	CPI R20,$18
0002B6  8DA3    	LDD XL,Z+27
0002B7  2F33    	MOV R19,R19
0002B8  C731    	RJMP L30
0002B9  CDCD    	RJMP L31
0002BA  B37D    	IN R23,EEDR
0002BB  58C7    	SUBI YL,$87
0002BC  7E6C    	ANDI R22,$EC
0002BD  3148    	CPI R20,$18
0002BE  8DA3    L89:	LDD XL,Z+27
0002BF  2F33    	MOV R19,R19
0002C0  C731    	RJMP L32
0002C1  CDCD    	RJMP L33
0002C2  A77E    	STD Y+46,R23
0002C3  62DE    L71:	ORI YH,$2E
0002C4  7D6E    	ANDI R22,$DE
0002C5  1D54    	ADC R21,R4
0002C6  8E9B    L91:	STD Y+27,R9
0002C7  2C4F    	MOV R4,R15
0002C8  A628    	STD Y+40,R2
0002C9  D0CE    	RCALL L34
0002CA  A38B    	STD Y+35,R24
0002CB  64E6    L73:	ORI ZL,$46
0002CC  8E78    	STD Y+24,R7
0002CD  0E57    	ADD R5,R23
0002CE  9F96    	MUL R25,R22
0002CF  2C4F    	MOV R4,R15
0002D0  B728    	IN R18,EIFR
0002D1  D0BC    	RCALL L35
0002D2  A46C    	LDD R6,Y+44
0002D3  61E0    L76:	ORI ZL,$10
0002D4  976A    	SBIW YH:YL,26
0002D5  1C50    	ADC R5,R0
0002D6  A799    	STD Y+41,R25
0002D7  2C4F    	MOV R4,R15
0002D8  B728    	IN R18,EIFR
0002D9  D0BC    	RCALL L36
0002DA  A67E    	STD Y+46,R7
0002DB  62DE    	ORI YH,$2E
0002DC  7D71    L25:	ANDI R23,$D1
0002DD  1D54    	ADC R21,R4
0002DE  8E9B    	STD Y+27,R9
0002DF  2C4F    	MOV R4,R15
0002E0  A628    	STD Y+40,R2
0002E1  D0CE    	RCALL L37
0002E2  B37D    	IN R23,EEDR
0002E3  58C7    	SUBI YL,$87
0002E4  7E6C    L26:	ANDI R22,$EC
0002E5  3148    	CPI R20,$18
0002E6  8DA3    	LDD XL,Z+27
0002E7  2F33    	MOV R19,R19
0002E8  C731    	RJMP L38
0002E9  CDCD    	RJMP L39
0002EA  0404    	CPC R0,R4
0002EB  0404    	CPC R0,R4
0002EC  0404    L27:	CPC R0,R4
0002ED  0404    	CPC R0,R4
0002EE  0404    	CPC R0,R4
0002EF  0404    	CPC R0,R4
0002F0  0404    	CPC R0,R4
0002F1  0404    	CPC R0,R4
0002F2  0404    	CPC R0,R4
0002F3  0404    	CPC R0,R4
0002F4  0404    L28:	CPC R0,R4
0002F5  0404    	CPC R0,R4
0002F6  0404    	CPC R0,R4
0002F7  0404    	CPC R0,R4
0002F8  0404    	CPC R0,R4
0002F9  0404    	CPC R0,R4
0002FA  0202    	MULS R16,R18
0002FB  0202    	MULS R16,R18
0002FC  0202    	MULS R16,R18
0002FD  0202    	MULS R16,R18
0002FE  0202    	MULS R16,R18
0002FF  0404    	CPC R0,R4
000300  0404    	CPC R0,R4
000301  0404    	CPC R0,R4
000302  0000    	NOP
000303  0000    	NOP
000304  0200    	MULS R16,R16
000305  0202    L87:	MULS R16,R18
000306  0202    	MULS R16,R18
000307  0404    	CPC R0,R4
000308  0404    	CPC R0,R4
000309  0404    	CPC R0,R4
00030A  0000    	NOP
00030B  0000    	NOP
00030C  0200    	MULS R16,R16
00030D  0202    	MULS R16,R18
00030E  0202    	MULS R16,R18
00030F  0404    	CPC R0,R4
000310  0404    	CPC R0,R4
000311  0404    	CPC R0,R4
000312  0404    	CPC R0,R4
000313  0404    L79:	CPC R0,R4
000314  0404    	CPC R0,R4
000315  0404    	CPC R0,R4
000316  0404    	CPC R0,R4
000317  0404    	CPC R0,R4
000318  0404    	CPC R0,R4
000319  0404    	CPC R0,R4
00031A  0000    	NOP
00031B  0000    	NOP
00031C  0000    	NOP
00031D  0000    	NOP
00031E  0000    	NOP
00031F  0000    	NOP
000320  0000    	NOP
000321  0000    	NOP
000322  0000    	NOP
000323  0000    	NOP
000324  0100    	MOVW R1:R0,R1:R0
000325  0101    	MOVW R1:R0,R3:R2
000326  0101    	MOVW R1:R0,R3:R2
000327  0000    	NOP
000328  0100    	MOVW R1:R0,R1:R0
000329  0101    	MOVW R1:R0,R3:R2
00032A  0000    	NOP
00032B  0000    	NOP
00032C  0000    	NOP
00032D  0000    	NOP
00032E  0000    	NOP
00032F  0000    	NOP
000330  0000    	NOP
000331  0000    	NOP
000332  0000    	NOP
000333  0000    	NOP
000334  0100    	MOVW R1:R0,R1:R0
000335  0101    	MOVW R1:R0,R3:R2
000336  0101    	MOVW R1:R0,R3:R2
000337  0000    	NOP
000338  0100    	MOVW R1:R0,R1:R0
000339  0101    	MOVW R1:R0,R3:R2
00033A  0000    	NOP
00033B  0000    	NOP
00033C  0000    	NOP
00033D  0000    	NOP
00033E  0000    	NOP
00033F  0000    	NOP
000340  0000    	NOP
000341  0000    	NOP
000342  0000    	NOP
000343  0000    	NOP
000344  0000    	NOP
000345  0000    	NOP
000346  0000    	NOP
000347  0000    	NOP
000348  0000    	NOP
000349  0000    	NOP
00034A  1414    	CP R1,R4
00034B  1414    	CP R1,R4
00034C  1414    	CP R1,R4
00034D  1414    	CP R1,R4
00034E  1414    	CP R1,R4
00034F  1414    	CP R1,R4
000350  1414    	CP R1,R4
000351  1414    L11:	CP R1,R4
000352  1E1E    	ADC R1,ZL
000353  1E1E    	ADC R1,ZL
000354  1E1E    	ADC R1,ZL
000355  1E1E    	ADC R1,ZL
000356  1E1E    	ADC R1,ZL
000357  1E1E    	ADC R1,ZL
000358  1E1E    	ADC R1,ZL
000359  1E1E    	ADC R1,ZL
00035A  0000    	NOP
00035B  0000    	NOP
00035C  0000    	NOP
00035D  0000    	NOP
00035E  0000    	NOP
00035F  0000    	NOP
000360  0000    	NOP
000361  0000    	NOP
000362  000A    	UNRECOGNIZED
000363  0005    	UNRECOGNIZED
000364  000A    	UNRECOGNIZED
000365  0001    	UNRECOGNIZED
000366  0005    	UNRECOGNIZED
000367  000A    	UNRECOGNIZED
000368  00C8    	UNRECOGNIZED
000369  00C8    	UNRECOGNIZED
00036A  0190    	MOVW R19:R18,R1:R0
00036B  0078    	UNRECOGNIZED
00036C  00C8    	UNRECOGNIZED
00036D  0190    	MOVW R19:R18,R1:R0
00036E  B37D    	IN R23,EEDR
00036F  58C7    	SUBI YL,$87
000370  7E6C    	ANDI R22,$EC
000371  3148    	CPI R20,$18
000372  8DA3    	LDD XL,Z+27
000373  2F33    	MOV R19,R19
000374  C731    	RJMP L40
000375  CDCD    	RJMP L41
000376  B37D    	IN R23,EEDR
000377  58C7    	SUBI YL,$87
000378  7E6C    	ANDI R22,$EC
000379  3148    	CPI R20,$18
00037A  8DA3    	LDD XL,Z+27
00037B  2F33    	MOV R19,R19
00037C  C731    	RJMP L42
00037D  CDCD    	RJMP L43
00037E  A27D    	STD Y+37,R7
00037F  48C7    	SBCI YL,$87
000380  7E6C    	ANDI R22,$EC
000381  313B    	CPI R19,$1B
000382  8D97    	LDD R25,Z+31
000383  2F33    	MOV R19,R19
000384  C731    	RJMP L44
000385  CDCD    	RJMP L45
000386  A988    	LDD R24,Y+48
000387  5DD2    	SUBI YH,$D2
000388  8B79    	STD Y+17,R23
000389  3D24    	CPI R18,$D4
00038A  9D90    	MUL R25,R0
00038B  2F33    	MOV R19,R19
00038C  C731    	RJMP L46
00038D  CDCD    	RJMP L47
00038E  AD7D    L35:	LDD R23,Y+61
00038F  5DD2    	SUBI YH,$D2
000390  8B7B    	STD Y+19,R23
000391  0E50    	ADD R5,R16
000392  9D89    	MUL R24,R9
000393  2F33    	MOV R19,R19
000394  C731    	RJMP L48
000395  CDCD    	RJMP L49
000396  AD86    L36:	LDD R24,Z+62
000397  5DD2    	SUBI YH,$D2
000398  8B7B    L34:	STD Y+19,R23
000399  1F50    	ADC R21,R16
00039A  9D9D    	MUL R25,R13
00039B  2F33    	MOV R19,R19
00039C  C731    	RJMP L50
00039D  CDCD    	RJMP L51
00039E  B37D    	IN R23,EEDR
00039F  58C7    	SUBI YL,$87
0003A0  7E6C    	ANDI R22,$EC
0003A1  3148    	CPI R20,$18
0003A2  8DA3    	LDD XL,Z+27
0003A3  2F33    	MOV R19,R19
0003A4  C731    	RJMP L52
0003A5  CDCD    	RJMP L53
0003A6  0404    	CPC R0,R4
0003A7  0404    	CPC R0,R4
0003A8  0404    	CPC R0,R4
0003A9  0404    	CPC R0,R4
0003AA  0404    	CPC R0,R4
0003AB  0404    	CPC R0,R4
0003AC  0404    	CPC R0,R4
0003AD  0404    	CPC R0,R4
0003AE  0101    	MOVW R1:R0,R3:R2
0003AF  0101    	MOVW R1:R0,R3:R2
0003B0  0101    L37:	MOVW R1:R0,R3:R2
0003B1  0101    	MOVW R1:R0,R3:R2
0003B2  0101    	MOVW R1:R0,R3:R2
0003B3  0404    	CPC R0,R4
0003B4  0404    	CPC R0,R4
0003B5  0404    	CPC R0,R4
0003B6  0101    	MOVW R1:R0,R3:R2
0003B7  0101    	MOVW R1:R0,R3:R2
0003B8  0101    	MOVW R1:R0,R3:R2
0003B9  0101    	MOVW R1:R0,R3:R2
0003BA  0101    	MOVW R1:R0,R3:R2
0003BB  0404    	CPC R0,R4
0003BC  0404    	CPC R0,R4
0003BD  0404    	CPC R0,R4
0003BE  0202    	MULS R16,R18
0003BF  0202    	MULS R16,R18
0003C0  0202    	MULS R16,R18
0003C1  0202    	MULS R16,R18
0003C2  0202    	MULS R16,R18
0003C3  0404    	CPC R0,R4
0003C4  0404    	CPC R0,R4
0003C5  0404    	CPC R0,R4
0003C6  0101    	MOVW R1:R0,R3:R2
0003C7  0101    	MOVW R1:R0,R3:R2
0003C8  0101    	MOVW R1:R0,R3:R2
0003C9  0101    	MOVW R1:R0,R3:R2
0003CA  0101    	MOVW R1:R0,R3:R2
0003CB  0404    	CPC R0,R4
0003CC  0404    	CPC R0,R4
0003CD  0404    	CPC R0,R4
0003CE  0303    	MULSU R16,R19
0003CF  0303    	MULSU R16,R19
0003D0  0303    	MULSU R16,R19
0003D1  0303    	MULSU R16,R19
0003D2  0303    	MULSU R16,R19
0003D3  0404    	CPC R0,R4
0003D4  0404    	CPC R0,R4
0003D5  0404    	CPC R0,R4
0003D6  0101    	MOVW R1:R0,R3:R2
0003D7  0101    	MOVW R1:R0,R3:R2
0003D8  0001    	UNRECOGNIZED
0003D9  0000    	NOP
0003DA  0000    	NOP
0003DB  0101    	MOVW R1:R0,R3:R2
0003DC  0001    	UNRECOGNIZED
0003DD  0000    	NOP
0003DE  0101    	MOVW R1:R0,R3:R2
0003DF  0101    	MOVW R1:R0,R3:R2
0003E0  0001    	UNRECOGNIZED
0003E1  0000    	NOP
0003E2  0000    	NOP
0003E3  0101    	MOVW R1:R0,R3:R2
0003E4  0001    	UNRECOGNIZED
0003E5  0000    L81:	NOP
0003E6  0000    	NOP
0003E7  0000    	NOP
0003E8  0000    	NOP
0003E9  0000    	NOP
0003EA  0000    	NOP
0003EB  0000    	NOP
0003EC  0000    	NOP
0003ED  0000    L83:	NOP
0003EE  0000    	NOP
0003EF  0000    	NOP
0003F0  0000    	NOP
0003F1  0000    	NOP
0003F2  0000    	NOP
0003F3  0000    	NOP
0003F4  0000    	NOP
0003F5  0000    L84:	NOP
0003F6  0000    	NOP
0003F7  0000    	NOP
0003F8  0000    	NOP
0003F9  0000    	NOP
0003FA  0000    	NOP
0003FB  0000    	NOP
0003FC  0000    	NOP
0003FD  0000    L85:	NOP
0003FE  0000    	NOP
0003FF  0000    	NOP
000400  0000    	NOP
000401  0000    	NOP
000402  0000    	NOP
000403  0000    	NOP
000404  0000    	NOP
000405  0000    	NOP
000406  1414    	CP R1,R4
000407  1414    	CP R1,R4
000408  1414    	CP R1,R4
000409  1414    	CP R1,R4
00040A  1414    	CP R1,R4
00040B  1414    	CP R1,R4
00040C  1414    	CP R1,R4
00040D  1414    	CP R1,R4
00040E  1E1E    	ADC R1,ZL
00040F  1E1E    	ADC R1,ZL
000410  1E1E    	ADC R1,ZL
000411  1E1E    	ADC R1,ZL
000412  1E1E    	ADC R1,ZL
000413  1E1E    	ADC R1,ZL
000414  1E1E    	ADC R1,ZL
000415  1E1E    	ADC R1,ZL
000416  0000    	NOP
000417  0000    	NOP
000418  0000    	NOP
000419  0000    	NOP
00041A  0000    	NOP
00041B  0000    	NOP
00041C  0000    	NOP
00041D  0000    	NOP
00041E  000A    	UNRECOGNIZED
00041F  0005    	UNRECOGNIZED
000420  000A    	UNRECOGNIZED
000421  0001    	UNRECOGNIZED
000422  0005    	UNRECOGNIZED
000423  000A    	UNRECOGNIZED
000424  00C8    	UNRECOGNIZED
000425  00C8    	UNRECOGNIZED
000426  0190    	MOVW R19:R18,R1:R0
000427  0078    	UNRECOGNIZED
000428  00C8    	UNRECOGNIZED
000429  0190    	MOVW R19:R18,R1:R0
00042A  B37D    	IN R23,EEDR
00042B  58C7    	SUBI YL,$87
00042C  7E6C    	ANDI R22,$EC
00042D  3148    L93:	CPI R20,$18
00042E  8DA3    	LDD XL,Z+27
00042F  2F33    	MOV R19,R19
000430  C731    	RJMP L54
000431  CDCD    	RJMP L55
000432  B37D    	IN R23,EEDR
000433  58C7    	SUBI YL,$87
000434  7E6C    	ANDI R22,$EC
000435  3148    	CPI R20,$18
000436  8DA3    	LDD XL,Z+27
000437  2F33    	MOV R19,R19
000438  C731    	RJMP L56
000439  CDCD    	RJMP L57
00043A  C17D    	RJMP L58
00043B  6BCD    	ORI YL,$BD
00043C  7E6C    	ANDI R22,$EC
00043D  3159    	CPI R21,$19
00043E  8DB4    	LDD XH,Z+28
00043F  2F33    	MOV R19,R19
000440  C731    	RJMP L59
000441  CDCD    	RJMP L60
000442  D177    	RCALL L61
000443  6AC3    	ORI YL,$A3
000444  7760    	ANDI R22,$70
000445  1F51    	ADC R21,R17
000446  849D    	LDD R9,Y+13
000447  2F33    	MOV R19,R19
000448  C731    	RJMP L62
000449  CDCD    	RJMP L63
00044A  A275    	STD Z+37,R7
00044B  62E3    	ORI ZL,$23
00044C  7D67    	ANDI R22,$D7
00044D  314E    	CPI R20,$1E
00044E  7FA3    	ANDI XL,$F3
00044F  2F33    	MOV R19,R19
000450  C731    	RJMP L64
000451  CDCD    	RJMP L65
000452  A86E    	LDD R6,Y+54
000453  55CC    	SUBI YL,$5C
000454  755C    	ANDI R21,$5C
000455  3151    	CPI R21,$11
000456  80A3    	LDD R10,Z+3
000457  2F33    	MOV R19,R19
000458  C731    	RJMP L66
000459  CDCD    	RJMP L67
00045A  B37D    	IN R23,EEDR
00045B  58C7    	SUBI YL,$87
00045C  7E6C    	ANDI R22,$EC
00045D  3148    	CPI R20,$18
00045E  8DA3    	LDD XL,Z+27
00045F  2F33    	MOV R19,R19
000460  C731    	RJMP L68
000461  CDCD    	RJMP L69
000462  0404    	CPC R0,R4
000463  0404    	CPC R0,R4
000464  0404    	CPC R0,R4
000465  0404    	CPC R0,R4
000466  0404    	CPC R0,R4
000467  0404    	CPC R0,R4
000468  0404    	CPC R0,R4
000469  0404    	CPC R0,R4
00046A  0101    	MOVW R1:R0,R3:R2
00046B  0101    	MOVW R1:R0,R3:R2
00046C  0101    	MOVW R1:R0,R3:R2
00046D  0101    	MOVW R1:R0,R3:R2
00046E  0101    	MOVW R1:R0,R3:R2
00046F  0404    	CPC R0,R4
000470  0404    	CPC R0,R4
000471  0404    	CPC R0,R4
000472  0101    	MOVW R1:R0,R3:R2
000473  0101    	MOVW R1:R0,R3:R2
000474  0101    	MOVW R1:R0,R3:R2
000475  0101    	MOVW R1:R0,R3:R2
000476  0101    	MOVW R1:R0,R3:R2
000477  0404    	CPC R0,R4
000478  0404    	CPC R0,R4
000479  0404    	CPC R0,R4
00047A  0202    	MULS R16,R18
00047B  0202    	MULS R16,R18
00047C  0202    	MULS R16,R18
00047D  0202    	MULS R16,R18
00047E  0202    	MULS R16,R18
00047F  0404    	CPC R0,R4
000480  0404    	CPC R0,R4
000481  0404    	CPC R0,R4
000482  0202    	MULS R16,R18
000483  0202    	MULS R16,R18
000484  0202    	MULS R16,R18
000485  0202    	MULS R16,R18
000486  0202    	MULS R16,R18
000487  0404    	CPC R0,R4
000488  0404    	CPC R0,R4
000489  0404    	CPC R0,R4
00048A  0303    	MULSU R16,R19
00048B  0303    	MULSU R16,R19
00048C  0303    	MULSU R16,R19
00048D  0303    	MULSU R16,R19
00048E  0303    	MULSU R16,R19
00048F  0303    	MULSU R16,R19
000490  0303    	MULSU R16,R19
000491  0303    	MULSU R16,R19
000492  0000    	NOP
000493  0000    	NOP
000494  0100    	MOVW R1:R0,R1:R0
000495  0101    	MOVW R1:R0,R3:R2
000496  0101    	MOVW R1:R0,R3:R2
000497  0000    	NOP
000498  0100    	MOVW R1:R0,R1:R0
000499  0101    	MOVW R1:R0,R3:R2
00049A  0000    	NOP
00049B  0000    	NOP
00049C  0100    	MOVW R1:R0,R1:R0
00049D  0101    	MOVW R1:R0,R3:R2
00049E  0101    	MOVW R1:R0,R3:R2
00049F  0000    	NOP
0004A0  0100    	MOVW R1:R0,R1:R0
0004A1  0001    	UNRECOGNIZED
0004A2  0000    	NOP
0004A3  0000    	NOP
0004A4  0000    	NOP
0004A5  0000    	NOP
0004A6  0000    	NOP
0004A7  0000    	NOP
0004A8  0000    	NOP
0004A9  0000    	NOP
0004AA  0000    	NOP
0004AB  0000    	NOP
0004AC  0000    	NOP
0004AD  0000    	NOP
0004AE  0000    	NOP
0004AF  0000    	NOP
0004B0  0000    	NOP
0004B1  0000    	NOP
0004B2  0000    	NOP
0004B3  0000    	NOP
0004B4  0000    	NOP
0004B5  0000    	NOP
0004B6  0000    	NOP
0004B7  0000    	NOP
0004B8  0000    	NOP
0004B9  0000    	NOP
0004BA  0000    	NOP
0004BB  0000    	NOP
0004BC  0000    	NOP
0004BD  0000    	NOP
0004BE  0000    	NOP
0004BF  0000    	NOP
0004C0  0000    	NOP
0004C1  0000    	NOP
0004C2  2828    	OR R2,R8
0004C3  2828    	OR R2,R8
0004C4  2828    	OR R2,R8
0004C5  2828    	OR R2,R8
0004C6  2828    	OR R2,R8
0004C7  1E1E    	ADC R1,ZL
0004C8  1E1E    	ADC R1,ZL
0004C9  1E1E    	ADC R1,ZL
0004CA  3C3C    	CPI R19,$CC
0004CB  3C3C    	CPI R19,$CC
0004CC  3C3C    	CPI R19,$CC
0004CD  3C3C    	CPI R19,$CC
0004CE  3C3C    	CPI R19,$CC
0004CF  3232    	CPI R19,$22
0004D0  3232    	CPI R19,$22
0004D1  3232    	CPI R19,$22
0004D2  0000    	NOP
0004D3  0000    	NOP
0004D4  0000    	NOP
0004D5  0000    	NOP
0004D6  0000    	NOP
0004D7  0000    	NOP
0004D8  0000    	NOP
0004D9  0000    L90:	NOP
0004DA  000F    	UNRECOGNIZED
0004DB  001E    	UNRECOGNIZED
0004DC  002D    	UNRECOGNIZED
0004DD  002D    	UNRECOGNIZED
0004DE  002D    	UNRECOGNIZED
0004DF  001E    	UNRECOGNIZED
0004E0  001E    	UNRECOGNIZED
0004E1  001E    	UNRECOGNIZED
0004E2  001E    	UNRECOGNIZED
0004E3  001E    	UNRECOGNIZED
0004E4  012C    	MOVW R5:R4,R25:R24
0004E5  0258    	MULS R21,R24
0004E6  0384    	FMULS R16,R20
0004E7  0384    	FMULS R16,R20
0004E8  0384    	FMULS R16,R20
0004E9  0258    	MULS R21,R24
0004EA  0258    	MULS R21,R24
0004EB  0258    	MULS R21,R24
0004EC  0258    	MULS R21,R24
0004ED  0258    	MULS R21,R24
0004EE  B37D    	IN R23,EEDR
0004EF  58C7    	SUBI YL,$87
0004F0  7E6C    	ANDI R22,$EC
0004F1  3148    	CPI R20,$18
0004F2  8DA3    	LDD XL,Z+27
0004F3  2F33    	MOV R19,R19
0004F4  C731    	RJMP L70
0004F5  CDCD    	RJMP L71
0004F6  B37D    	IN R23,EEDR
0004F7  58C7    	SUBI YL,$87
0004F8  7E6C    	ANDI R22,$EC
0004F9  3148    	CPI R20,$18
0004FA  8DA3    	LDD XL,Z+27
0004FB  2F33    	MOV R19,R19
0004FC  C731    	RJMP L72
0004FD  CDCD    	RJMP L73
0004FE  DC7C    	RCALL L74
0004FF  7DF7    	ANDI ZH,$D7
000500  7E6C    	ANDI R22,$EC
000501  041D    	CPC R1,R13
000502  8C7F    	LDD R7,Y+31
000503  2F33    	MOV R19,R19
000504  C731    	RJMP L75
000505  CDCD    	RJMP L76
000506  DC7B    	RCALL L77
000507  56F6    	SUBI ZH,$66
000508  7E70    	ANDI R23,$E0
000509  071D    	CPC R17,YH
00050A  8BA9    	STD Y+17,XL
00050B  3B01    	CPI R16,$B1
00050C  FD4A    	UNRECOGNIZED
00050D  B5BF    	IN XH,TCCR1A
00050E  5382    	SUBI R24,$32
00050F  3F90    	CPI R25,$F0
000510  7D6C    	ANDI R22,$DC
000511  67AA    	ORI XL,$7A
000512  8BBF    	STD Y+23,XH
000513  3B01    	CPI R16,$B1
000514  FDA3    	SBRC XL,3
000515  58BF    	SUBI XH,$8F
000516  5382    	SUBI R24,$32
000517  3F90    	CPI R25,$F0
000518  7D6C    	ANDI R22,$DC
000519  67AA    	ORI XL,$7A
00051A  8BBF    	STD Y+23,XH
00051B  7DEA    	ANDI ZL,$DA
00051C  055A    	CPC R21,R10
00051D  A681    	STD Z+41,R8
00051E  5E81    	SUBI R24,$E1
00051F  64B7    	ORI XH,$47
000520  806E    	LDD R6,Y+6
000521  6EA2    	ORI XL,$E2
000522  88BA    	LDD R11,Y+18
000523  2DA0    	MOV XL,R0
000524  5A51    	SUBI R21,$A1
000525  A7CD    	STD Y+45,YL
000526  5781    	SUBI R24,$71
000527  3CBF    	CPI XH,$CF
000528  806E    	LDD R6,Y+6
000529  3BA2    	CPI XL,$B2
00052A  88C1    	LDD R12,Z+17
00052B  2E8A    	MOV R8,XL
00052C  7459    	ANDI R21,$49
00052D  A7CB    L95:	STD Y+43,YL
00052E  8181    	LDD R24,Z+1
00052F  41BE    	SBCI XH,$1E
000530  806E    	LDD R6,Y+6
000531  3B78    	CPI R23,$B8
000532  8CBB    	LDD R11,Y+27
000533  2D85    	MOV R24,R5
000534  7451    	ANDI R21,$41
000535  A7CB    L97:	STD Y+43,YL
000536  A181    	LDD R24,Z+33
000537  47C5    	SBCI YL,$75
000538  806E    	LDD R6,Y+6
000539  3559    	CPI R21,$59
00053A  8FB5    	STD Z+29,XH
00053B  248F    	EOR R8,R15
00053C  7459    	ANDI R21,$49
00053D  A7CB    L99:	STD Y+43,YL
00053E  B37D    	IN R23,EEDR
00053F  58C7    	SUBI YL,$87
000540  7E6C    	ANDI R22,$EC
000541  3148    	CPI R20,$18
000542  8DA3    	LDD XL,Z+27
000543  2F33    	MOV R19,R19
000544  C731    	RJMP L78
000545  CDCD    	RJMP L79
000546  0404    	CPC R0,R4
000547  0404    	CPC R0,R4
000548  0404    	CPC R0,R4
000549  0404    	CPC R0,R4
00054A  0404    	CPC R0,R4
00054B  0404    	CPC R0,R4
00054C  0404    	CPC R0,R4
00054D  0404    	CPC R0,R4
00054E  0404    	CPC R0,R4
00054F  0404    	CPC R0,R4
000550  0404    	CPC R0,R4
000551  0404    	CPC R0,R4
000552  0404    	CPC R0,R4
000553  0404    	CPC R0,R4
000554  0404    	CPC R0,R4
000555  0404    	CPC R0,R4
000556  0303    	MULSU R16,R19
000557  0303    	MULSU R16,R19
000558  0303    	MULSU R16,R19
000559  0303    	MULSU R16,R19
00055A  0303    	MULSU R16,R19
00055B  0303    	MULSU R16,R19
00055C  0303    	MULSU R16,R19
00055D  0303    	MULSU R16,R19
00055E  0000    	NOP
00055F  0000    	NOP
000560  0000    	NOP
000561  0000    	NOP
000562  0000    	NOP
000563  0404    	CPC R0,R4
000564  0404    	CPC R0,R4
000565  0404    	CPC R0,R4
000566  0303    	MULSU R16,R19
000567  0303    	MULSU R16,R19
000568  0303    	MULSU R16,R19
000569  0303    	MULSU R16,R19
00056A  0303    	MULSU R16,R19
00056B  0303    	MULSU R16,R19
00056C  0303    	MULSU R16,R19
00056D  0303    	MULSU R16,R19
00056E  0202    	MULS R16,R18
00056F  0202    	MULS R16,R18
000570  0202    	MULS R16,R18
000571  0202    	MULS R16,R18
000572  0202    	MULS R16,R18
000573  0404    	CPC R0,R4
000574  0404    	CPC R0,R4
000575  0404    	CPC R0,R4
000576  0202    	MULS R16,R18
000577  0202    	MULS R16,R18
000578  0202    	MULS R16,R18
000579  0202    	MULS R16,R18
00057A  0202    	MULS R16,R18
00057B  0404    	CPC R0,R4
00057C  0404    	CPC R0,R4
00057D  0404    	CPC R0,R4
00057E  0202    	MULS R16,R18
00057F  0202    	MULS R16,R18
000580  0202    	MULS R16,R18
000581  0202    	MULS R16,R18
000582  0202    	MULS R16,R18
000583  0404    	CPC R0,R4
000584  0404    	CPC R0,R4
000585  0404    	CPC R0,R4
000586  0202    	MULS R16,R18
000587  0202    	MULS R16,R18
000588  0202    	MULS R16,R18
000589  0202    	MULS R16,R18
00058A  0202    	MULS R16,R18
00058B  0404    	CPC R0,R4
00058C  0404    	CPC R0,R4
00058D  0404    	CPC R0,R4
00058E  0303    	MULSU R16,R19
00058F  0303    	MULSU R16,R19
000590  0303    	MULSU R16,R19
000591  0303    	MULSU R16,R19
000592  0303    	MULSU R16,R19
000593  0303    	MULSU R16,R19
000594  0303    	MULSU R16,R19
000595  0303    	MULSU R16,R19
000596  0000    	NOP
000597  0000    	NOP
000598  0000    	NOP
000599  0000    	NOP
00059A  0000    	NOP
00059B  0000    	NOP
00059C  0000    	NOP
00059D  0000    	NOP
00059E  0303    	MULSU R16,R19
00059F  0303    	MULSU R16,R19
0005A0  0303    	MULSU R16,R19
0005A1  0303    	MULSU R16,R19
0005A2  0303    	MULSU R16,R19
0005A3  0303    	MULSU R16,R19
0005A4  0303    	MULSU R16,R19
0005A5  0303    	MULSU R16,R19
0005A6  0000    	NOP
0005A7  0000    	NOP
0005A8  0000    	NOP
0005A9  0000    	NOP
0005AA  0000    	NOP
0005AB  0000    	NOP
0005AC  0000    	NOP
0005AD  0000    	NOP
0005AE  0202    	MULS R16,R18
0005AF  0202    	MULS R16,R18
0005B0  0202    	MULS R16,R18
0005B1  0202    	MULS R16,R18
0005B2  0202    	MULS R16,R18
0005B3  0202    	MULS R16,R18
0005B4  0202    	MULS R16,R18
0005B5  0202    	MULS R16,R18
0005B6  0000    	NOP
0005B7  0000    	NOP
0005B8  0000    L58:	NOP
0005B9  0000    	NOP
0005BA  0000    L61:	NOP
0005BB  0000    	NOP
0005BC  0000    	NOP
0005BD  0000    	NOP
0005BE  0101    	MOVW R1:R0,R3:R2
0005BF  0101    	MOVW R1:R0,R3:R2
0005C0  0101    	MOVW R1:R0,R3:R2
0005C1  0101    	MOVW R1:R0,R3:R2
0005C2  0101    	MOVW R1:R0,R3:R2
0005C3  0101    	MOVW R1:R0,R3:R2
0005C4  0101    	MOVW R1:R0,R3:R2
0005C5  0101    	MOVW R1:R0,R3:R2
0005C6  0000    	NOP
0005C7  0000    	NOP
0005C8  0000    	NOP
0005C9  0000    	NOP
0005CA  0000    	NOP
0005CB  0000    	NOP
0005CC  0000    	NOP
0005CD  0000    	NOP
0005CE  0303    	MULSU R16,R19
0005CF  0303    	MULSU R16,R19
0005D0  0303    	MULSU R16,R19
0005D1  0303    	MULSU R16,R19
0005D2  0303    	MULSU R16,R19
0005D3  0303    	MULSU R16,R19
0005D4  0303    	MULSU R16,R19
0005D5  0303    	MULSU R16,R19
0005D6  0000    	NOP
0005D7  0000    	NOP
0005D8  0000    	NOP
0005D9  0000    	NOP
0005DA  0000    	NOP
0005DB  0000    	NOP
0005DC  0000    	NOP
0005DD  0000    	NOP
0005DE  0000    	NOP
0005DF  0000    	NOP
0005E0  0000    	NOP
0005E1  0000    	NOP
0005E2  0000    	NOP
0005E3  0000    	NOP
0005E4  0000    	NOP
0005E5  0000    	NOP
0005E6  2828    	OR R2,R8
0005E7  2828    	OR R2,R8
0005E8  2828    	OR R2,R8
0005E9  2828    	OR R2,R8
0005EA  2828    	OR R2,R8
0005EB  1414    	CP R1,R4
0005EC  1414    	CP R1,R4
0005ED  1414    	CP R1,R4
0005EE  3C3C    	CPI R19,$CC
0005EF  3C3C    	CPI R19,$CC
0005F0  3C3C    	CPI R19,$CC
0005F1  3C3C    	CPI R19,$CC
0005F2  3C3C    	CPI R19,$CC
0005F3  1E1E    	ADC R1,ZL
0005F4  1E1E    	ADC R1,ZL
0005F5  1E1E    	ADC R1,ZL
0005F6  0000    	NOP
0005F7  0000    	NOP
0005F8  0000    	NOP
0005F9  0000    	NOP
0005FA  0000    	NOP
0005FB  0000    	NOP
0005FC  0000    	NOP
0005FD  0000    	NOP
0005FE  000A    	UNRECOGNIZED
0005FF  000A    	UNRECOGNIZED
000600  000A    	UNRECOGNIZED
000601  000A    	UNRECOGNIZED
000602  0001    	UNRECOGNIZED
000603  0023    	UNRECOGNIZED
000604  001E    	UNRECOGNIZED
000605  0028    	UNRECOGNIZED
000606  001E    	UNRECOGNIZED
000607  012C    	MOVW R5:R4,R25:R24
000608  01F4    	MOVW R31:R30,R9:R8
000609  01F4    	MOVW R31:R30,R9:R8
00060A  02BC    	MULS XH,YL
00060B  0334    	MULSU R19,R20
00060C  02BC    	MULS XH,YL
00060D  0258    	MULS R21,R24
00060E  0320    	MULSU R18,R16
00060F  0258    	MULS R21,R24
000610  B37D    	IN R23,EEDR
000611  58C7    	SUBI YL,$87
000612  7E6C    	ANDI R22,$EC
000613  3148    	CPI R20,$18
000614  8DA3    	LDD XL,Z+27
000615  2F33    	MOV R19,R19
000616  C731    	RJMP L80
000617  CDCD    	RJMP L81
000618  B37D    	IN R23,EEDR
000619  58C7    	SUBI YL,$87
00061A  7E6C    	ANDI R22,$EC
00061B  3148    	CPI R20,$18
00061C  8DA3    	LDD XL,Z+27
00061D  2F33    	MOV R19,R19
00061E  C731    	RJMP L82
00061F  CDCD    	RJMP L83
000620  527D    	SUBI R23,$2D
000621  59D6    	SUBI YH,$96
000622  7E6C    	ANDI R22,$EC
000623  3148    	CPI R20,$18
000624  8DA3    	LDD XL,Z+27
000625  2F8F    	MOV R24,ZH
000626  7231    	ANDI R19,$21
000627  CDCD    	RJMP L84
000628  527D    	SUBI R23,$2D
000629  65DA    	ORI YH,$5A
00062A  7D72    	ANDI R23,$D2
00062B  22A6    	AND R10,R22
00062C  8F97    	STD Z+31,R25
00062D  2F8D    	MOV R24,YH
00062E  7231    	ANDI R19,$21
00062F  CDCD    	RJMP L85
000630  D27D    	RCALL L86
000631  50E4    	SUBI ZL,$04
000632  7C71    	ANDI R23,$C1
000633  1923    	SUB R18,R3
000634  8EAC    	STD Y+28,R10
000635  2FA7    	MOV XL,R23
000636  522F    	SUBI R18,$2F
000637  CCCD    	RJMP L87
000638  DA7D    	RCALL L88
000639  56F7    	SUBI ZH,$67
00063A  7B71    	ANDI R23,$B1
00063B  051F    	CPC R17,R15
00063C  8DA8    	LDD XL,Y+24
00063D  5709    	SUBI R16,$79
00063E  FE92    	SBRS R9,2
00063F  6CA2    	ORI XL,$C2
000640  DC7D    	RCALL L89
000641  7AF4    	ANDI ZH,$A4
000642  7B6D    	ANDI R22,$BD
000643  051D    	CPC R17,R13
000644  8D80    	LDD R24,Z+24
000645  2A21    	OR R2,R17
000646  DE92    	RCALL L90
000647  6CD2    	ORI YH,$C2
000648  DC7D    	RCALL L91
000649  7ADE    	ANDI YH,$AE
00064A  7B71    	ANDI R23,$B1
00064B  1C1D    	ADC R1,R13
00064C  8D87    	LDD R24,Z+31
00064D  3262    	CPI R22,$22
00064E  924E    	ST -X,R4
00064F  A9C5    	LDD YL,Z+53
000650  A07D    	LDD R7,Y+37
000651  72F2    L101:	ANDI ZH,$22
000652  7B71    	ANDI R23,$B1
000653  0857    	SBC R5,R7
000654  8D87    	LDD R24,Z+31
000655  2F52    	MOV R21,R18
000656  AD45    	LDD R20,Z+61
000657  BFCD    	OUT SPL,YL
000658  B37D    	IN R23,EEDR
000659  58C7    	SUBI YL,$87
00065A  7E6C    	ANDI R22,$EC
00065B  3148    	CPI R20,$18
00065C  8DA3    	LDD XL,Z+27
00065D  2F33    	MOV R19,R19
00065E  C731    	RJMP L92
00065F  CDCD    	RJMP L93
000660  0404    	CPC R0,R4
000661  0404    	CPC R0,R4
000662  0404    	CPC R0,R4
000663  0404    	CPC R0,R4
000664  0404    	CPC R0,R4
000665  0404    L137:	CPC R0,R4
000666  0404    	CPC R0,R4
000667  0404    	CPC R0,R4
000668  0101    	MOVW R1:R0,R3:R2
000669  0101    	MOVW R1:R0,R3:R2
00066A  0101    	MOVW R1:R0,R3:R2
00066B  0101    	MOVW R1:R0,R3:R2
00066C  0101    	MOVW R1:R0,R3:R2
00066D  0404    L139:	CPC R0,R4
00066E  0404    	CPC R0,R4
00066F  0404    	CPC R0,R4
000670  0404    	CPC R0,R4
000671  0404    	CPC R0,R4
000672  0404    	CPC R0,R4
000673  0404    	CPC R0,R4
000674  0404    	CPC R0,R4
000675  0404    	CPC R0,R4
000676  0404    	CPC R0,R4
000677  0404    	CPC R0,R4
000678  0101    	MOVW R1:R0,R3:R2
000679  0101    	MOVW R1:R0,R3:R2
00067A  0101    	MOVW R1:R0,R3:R2
00067B  0101    	MOVW R1:R0,R3:R2
00067C  0101    	MOVW R1:R0,R3:R2
00067D  0101    	MOVW R1:R0,R3:R2
00067E  0101    	MOVW R1:R0,R3:R2
00067F  0101    	MOVW R1:R0,R3:R2
000680  0101    	MOVW R1:R0,R3:R2
000681  0101    	MOVW R1:R0,R3:R2
000682  0101    	MOVW R1:R0,R3:R2
000683  0101    	MOVW R1:R0,R3:R2
000684  0101    	MOVW R1:R0,R3:R2
000685  0101    	MOVW R1:R0,R3:R2
000686  0101    	MOVW R1:R0,R3:R2
000687  0101    	MOVW R1:R0,R3:R2
000688  0202    	MULS R16,R18
000689  0202    	MULS R16,R18
00068A  0202    	MULS R16,R18
00068B  0202    	MULS R16,R18
00068C  0202    	MULS R16,R18
00068D  0202    	MULS R16,R18
00068E  0202    	MULS R16,R18
00068F  0202    	MULS R16,R18
000690  0202    	MULS R16,R18
000691  0202    	MULS R16,R18
000692  0202    	MULS R16,R18
000693  0202    	MULS R16,R18
000694  0202    	MULS R16,R18
000695  0202    	MULS R16,R18
000696  0202    	MULS R16,R18
000697  0202    	MULS R16,R18
000698  0202    	MULS R16,R18
000699  0202    	MULS R16,R18
00069A  0202    	MULS R16,R18
00069B  0202    	MULS R16,R18
00069C  0202    	MULS R16,R18
00069D  0202    	MULS R16,R18
00069E  0202    	MULS R16,R18
00069F  0202    	MULS R16,R18
0006A0  0404    	CPC R0,R4
0006A1  0404    	CPC R0,R4
0006A2  0404    	CPC R0,R4
0006A3  0404    	CPC R0,R4
0006A4  0404    	CPC R0,R4
0006A5  0404    	CPC R0,R4
0006A6  0404    	CPC R0,R4
0006A7  0404    	CPC R0,R4
0006A8  0000    	NOP
0006A9  0000    L112:	NOP
0006AA  0000    	NOP
0006AB  0000    	NOP
0006AC  0000    	NOP
0006AD  0000    	NOP
0006AE  0000    	NOP
0006AF  0000    	NOP
0006B0  0303    	MULSU R16,R19
0006B1  0303    	MULSU R16,R19
0006B2  0303    	MULSU R16,R19
0006B3  0303    	MULSU R16,R19
0006B4  0303    	MULSU R16,R19
0006B5  0303    L156:	MULSU R16,R19
0006B6  0303    	MULSU R16,R19
0006B7  0303    	MULSU R16,R19
0006B8  0000    	NOP
0006B9  0000    	NOP
0006BA  0000    	NOP
0006BB  0000    	NOP
0006BC  0000    	NOP
0006BD  0000    L158:	NOP
0006BE  0000    	NOP
0006BF  0000    	NOP
0006C0  0202    	MULS R16,R18
0006C1  0202    	MULS R16,R18
0006C2  0202    	MULS R16,R18
0006C3  0202    	MULS R16,R18
0006C4  0202    	MULS R16,R18
0006C5  0202    	MULS R16,R18
0006C6  0202    	MULS R16,R18
0006C7  0202    	MULS R16,R18
0006C8  0000    	NOP
0006C9  0000    	NOP
0006CA  0000    	NOP
0006CB  0000    	NOP
0006CC  0000    	NOP
0006CD  0000    	NOP
0006CE  0000    	NOP
0006CF  0000    	NOP
0006D0  0101    	MOVW R1:R0,R3:R2
0006D1  0101    	MOVW R1:R0,R3:R2
0006D2  0101    	MOVW R1:R0,R3:R2
0006D3  0101    	MOVW R1:R0,R3:R2
0006D4  0101    	MOVW R1:R0,R3:R2
0006D5  0101    	MOVW R1:R0,R3:R2
0006D6  0101    	MOVW R1:R0,R3:R2
0006D7  0101    	MOVW R1:R0,R3:R2
0006D8  0000    	NOP
0006D9  0000    L118:	NOP
0006DA  0000    	NOP
0006DB  0000    	NOP
0006DC  0000    	NOP
0006DD  0000    	NOP
0006DE  0000    	NOP
0006DF  0000    	NOP
0006E0  0303    	MULSU R16,R19
0006E1  0303    	MULSU R16,R19
0006E2  0303    	MULSU R16,R19
0006E3  0303    	MULSU R16,R19
0006E4  0303    	MULSU R16,R19
0006E5  0303    	MULSU R16,R19
0006E6  0303    	MULSU R16,R19
0006E7  0303    	MULSU R16,R19
0006E8  0000    	NOP
0006E9  0000    	NOP
0006EA  0000    	NOP
0006EB  0000    	NOP
0006EC  0000    	NOP
0006ED  0000    	NOP
0006EE  0000    	NOP
0006EF  0000    	NOP
0006F0  2929    	OR R18,R9
0006F1  2929    	OR R18,R9
0006F2  2929    	OR R18,R9
0006F3  2929    	OR R18,R9
0006F4  2929    	OR R18,R9
0006F5  1414    	CP R1,R4
0006F6  1414    	CP R1,R4
0006F7  1414    	CP R1,R4
0006F8  3D3D    	CPI R19,$DD
0006F9  3D3D    	CPI R19,$DD
0006FA  3D3D    	CPI R19,$DD
0006FB  3D3D    	CPI R19,$DD
0006FC  3D3D    	CPI R19,$DD
0006FD  1E1E    	ADC R1,ZL
0006FE  1E1E    	ADC R1,ZL
0006FF  1E1E    	ADC R1,ZL
000700  0000    	NOP
000701  0000    	NOP
000702  0000    	NOP
000703  0000    	NOP
000704  0000    	NOP
000705  0000    	NOP
000706  0000    	NOP
000707  0000    	NOP
000708  0005    	UNRECOGNIZED
000709  0001    	UNRECOGNIZED
00070A  0001    	UNRECOGNIZED
00070B  0001    	UNRECOGNIZED
00070C  0001    	UNRECOGNIZED
00070D  0001    	UNRECOGNIZED
00070E  0001    	UNRECOGNIZED
00070F  0001    	UNRECOGNIZED
000710  0001    	UNRECOGNIZED
000711  0001    	UNRECOGNIZED
000712  0001    	UNRECOGNIZED
000713  0001    	UNRECOGNIZED
000714  0001    	UNRECOGNIZED
000715  0001    	UNRECOGNIZED
000716  0001    	UNRECOGNIZED
000717  0001    	UNRECOGNIZED
000718  0001    	UNRECOGNIZED
000719  0001    	UNRECOGNIZED
00071A  0001    	UNRECOGNIZED
00071B  0001    	UNRECOGNIZED
00071C  0001    	UNRECOGNIZED
00071D  0001    	UNRECOGNIZED
00071E  0001    	UNRECOGNIZED
00071F  0001    	UNRECOGNIZED
000720  0001    	UNRECOGNIZED
000721  0001    	UNRECOGNIZED
000722  0001    	UNRECOGNIZED
000723  0001    	UNRECOGNIZED
000724  0001    	UNRECOGNIZED
000725  0001    	UNRECOGNIZED
000726  0001    	UNRECOGNIZED
000727  0001    	UNRECOGNIZED
000728  0001    	UNRECOGNIZED
000729  0001    	UNRECOGNIZED
00072A  0001    	UNRECOGNIZED
00072B  0001    	UNRECOGNIZED
00072C  0001    	UNRECOGNIZED
00072D  0001    	UNRECOGNIZED
00072E  000A    	UNRECOGNIZED
00072F  000F    	UNRECOGNIZED
000730  00C8    	UNRECOGNIZED
000731  0019    L129:	UNRECOGNIZED
000732  0019    	UNRECOGNIZED
000733  0019    	UNRECOGNIZED
000734  0019    	UNRECOGNIZED
000735  0019    	UNRECOGNIZED
000736  0019    	UNRECOGNIZED
000737  0019    	UNRECOGNIZED
000738  0019    	UNRECOGNIZED
000739  0019    	UNRECOGNIZED
00073A  0019    	UNRECOGNIZED
00073B  0019    	UNRECOGNIZED
00073C  0019    	UNRECOGNIZED
00073D  0019    L180:	UNRECOGNIZED
00073E  0019    	UNRECOGNIZED
00073F  0019    	UNRECOGNIZED
000740  0019    	UNRECOGNIZED
000741  0019    	UNRECOGNIZED
000742  0019    	UNRECOGNIZED
000743  0019    	UNRECOGNIZED
000744  0019    	UNRECOGNIZED
000745  0019    L182:	UNRECOGNIZED
000746  0019    	UNRECOGNIZED
000747  0019    	UNRECOGNIZED
000748  0019    	UNRECOGNIZED
000749  0019    	UNRECOGNIZED
00074A  0019    	UNRECOGNIZED
00074B  0019    	UNRECOGNIZED
00074C  0019    	UNRECOGNIZED
00074D  0019    	UNRECOGNIZED
00074E  0019    	UNRECOGNIZED
00074F  0019    	UNRECOGNIZED
000750  0019    	UNRECOGNIZED
000751  0019    	UNRECOGNIZED
000752  0019    	UNRECOGNIZED
000753  0019    	UNRECOGNIZED
000754  0019    	UNRECOGNIZED
000755  0019    	UNRECOGNIZED
000756  00C8    	UNRECOGNIZED
000757  012C    	MOVW R5:R4,R25:R24
000758  B37D    	IN R23,EEDR
000759  58C7    	SUBI YL,$87
00075A  7E6C    	ANDI R22,$EC
00075B  3148    	CPI R20,$18
00075C  8DA3    	LDD XL,Z+27
00075D  2F33    	MOV R19,R19
00075E  C731    	RJMP L94
00075F  CDCD    	RJMP L95
000760  B37D    	IN R23,EEDR
000761  58C7    L135:	SUBI YL,$87
000762  7E6C    	ANDI R22,$EC
000763  3148    	CPI R20,$18
000764  8DA3    	LDD XL,Z+27
000765  2F33    	MOV R19,R19
000766  C731    	RJMP L96
000767  CDCD    	RJMP L97
000768  B37D    	IN R23,EEDR
000769  58C7    	SUBI YL,$87
00076A  7E6C    	ANDI R22,$EC
00076B  3148    	CPI R20,$18
00076C  8DA3    	LDD XL,Z+27
00076D  2F33    	MOV R19,R19
00076E  C731    	RJMP L98
00076F  CDCD    	RJMP L99
000770  A582    	LDD R24,Z+42
000771  51C9    	SUBI YL,$19
000772  8673    	STD Z+11,R7
000773  1F51    	ADC R21,R17
000774  9593    	INC R25
000775  2C48    	MOV R4,R8
000776  9128    	UNRECOGNIZED
000777  C9D1    	RJMP L100
000778  AB84    	STD Z+52,R24
000779  53C5    	SUBI YL,$35
00077A  8975    	LDD R23,Z+21
00077B  1C56    	ADC R5,R6
00077C  9894    	CBI PORTD,PD4
00077D  2B4E    	OR R20,ZL
00077E  9A29    	SBI ADCH,ADCH1
00077F  CED1    	RJMP L101
000780  AF84    	STD Z+60,R24
000781  57C3    	SUBI YL,$73
000782  8B75    	STD Z+21,R23
000783  1B5B    	SUB R21,XH
000784  9A98    	SBI PINC,PINC0
000785  2B57    	OR R21,R23
000786  A42B    	LDD R2,Y+43
000787  D3D1    	RCALL L102
000788  B284    	IN R8,DDRC
000789  5BC5    	SUBI YL,$B5
00078A  8975    	LDD R23,Z+21
00078B  1C5F    	ADC R5,R15
00078C  989D    	CBI PINC,PINC5
00078D  2B61    	OR R22,R17
00078E  AC30    	LDD R3,Z+56
00078F  D5D1    	RCALL L103
000790  B382    	IN R24,PORTD
000791  5FC9    	SUBI YL,$F9
000792  8673    	STD Z+11,R7
000793  1F60    	ADC R22,R16
000794  95A1    	NEG XL
000795  2B69    	OR R22,R25
000796  B335    	IN R19,PORTC
000797  D6D2    	RCALL L104
000798  B27F    	IN R7,EEARH
000799  62CE    	ORI YL,$2E
00079A  8270    	ST Z,R7
00079B  235F    	AND R21,ZH
00079C  91A6    	ELPM XL,Z
00079D  2A6F    	OR R6,ZH
00079E  B639    	IN R3,EIMSK
00079F  D6D2    	RCALL L105
0007A0  AF7C    	STD Y+60,R23
0007A1  64D4    	ORI YH,$44
0007A2  7F6D    	ANDI R22,$FD
0007A3  285C    	OR R5,R12
0007A4  8EAA    	STD Y+26,R10
0007A5  2A71    	OR R7,R17
0007A6  B73B    	IN R19,RAMPZ
0007A7  D6D2    	RCALL L106
0007A8  AF7C    	STD Y+60,R23
0007A9  64D4    	ORI YH,$44
0007AA  7F6D    	ANDI R22,$FD
0007AB  285C    	OR R5,R12
0007AC  8EAA    	STD Y+26,R10
0007AD  2A71    L154:	OR R7,R17
0007AE  B73B    	IN R19,RAMPZ
0007AF  D6D2    	RCALL L107
0007B0  AC78    	LDD R7,Y+56
0007B1  66D9    	ORI YH,$69
0007B2  7B69    	ANDI R22,$B9
0007B3  2E58    	MOV R5,R24
0007B4  8AAA    	STD Y+18,R10
0007B5  2A6F    	OR R6,ZH
0007B6  B639    	IN R3,EIMSK
0007B7  D6D2    	RCALL L108
0007B8  A774    	STD Z+44,R23
0007B9  67DD    	ORI YH,$7D
0007BA  7865    	ANDI R22,$85
0007BB  3353    	CPI R21,$33
0007BC  87A9    	STD Y+9,XL
0007BD  2B6A    	OR R22,XL
0007BE  B335    	IN R19,PORTC
0007BF  D6D2    	RCALL L109
0007C0  A271    	STD Z+33,R7
0007C1  66E0    	ORI ZL,$60
0007C2  7662    	ANDI R22,$62
0007C3  374D    	CPI R20,$7D
0007C4  85A7    	LDD XL,Z+15
0007C5  2B61    L160:	OR R22,R17
0007C6  AD30    	LDD R19,Z+56
0007C7  D5D1    	RCALL L110
0007C8  9D6F    	MUL R22,R15
0007C9  62E1    	ORI ZL,$21
0007CA  7660    	ANDI R22,$60
0007CB  3949    	CPI R20,$99
0007CC  85A3    	LDD XL,Z+11
0007CD  2B57    	OR R21,R23
0007CE  A42B    	LDD R2,Y+43
0007CF  D3D1    	RCALL L111
0007D0  9971    	SBIC SPSR,1
0007D1  5DE0    	SUBI ZL,$D0
0007D2  7662    	ANDI R22,$62
0007D3  3746    	CPI R20,$76
0007D4  859F    	LDD R25,Y+15
0007D5  2B4F    	OR R20,ZH
0007D6  9A29    	SBI ADCH,ADCH1
0007D7  CED1    	RJMP L112
0007D8  9874    	CBI SPSR,4
0007D9  59DD    	SUBI YH,$9D
0007DA  7865    	ANDI R22,$85
0007DB  3345    	CPI R20,$35
0007DC  879B    	STD Y+11,R25
0007DD  2C48    	MOV R4,R8
0007DE  9228    	UNRECOGNIZED
0007DF  C9D1    	RJMP L113
0007E0  9978    	SBIC SPDR,SPDR0
0007E1  54D9    	SUBI YH,$49
0007E2  7B69    	ANDI R22,$B9
0007E3  2E46    	MOV R4,R22
0007E4  8A98    	STD Y+16,R9
0007E5  2C45    	MOV R4,R5
0007E6  8C28    	LDD R2,Y+24
0007E7  C5D0    	RJMP L114
0007E8  9C7B    L12:	MUL R7,R11
0007E9  50D4    	SUBI YH,$04
0007EA  7E6C    	ANDI R22,$EC
0007EB  2849    	OR R4,R9
0007EC  8D96    	LDD R25,Z+30
0007ED  2C44    	MOV R4,R4
0007EE  8A28    	STD Y+16,R2
0007EF  C3D0    	RJMP L115
0007F0  9C7B    L13:	MUL R7,R11
0007F1  50D4    	SUBI YH,$04
0007F2  7E6C    	ANDI R22,$EC
0007F3  2849    	OR R4,R9
0007F4  8D96    	LDD R25,Z+30
0007F5  2C44    	MOV R4,R4
0007F6  8A28    	STD Y+16,R2
0007F7  C3D0    	RJMP L116
0007F8  A582    	LDD R24,Z+42
0007F9  51C9    	SUBI YL,$19
0007FA  8673    	STD Z+11,R7
0007FB  1F51    	ADC R21,R17
0007FC  9593    	INC R25
0007FD  2C48    	MOV R4,R8
0007FE  9128    	UNRECOGNIZED
0007FF  C9D1    	RJMP L117
000800  AB84    	STD Z+52,R24
000801  53C5    	SUBI YL,$35
000802  8975    	LDD R23,Z+21
000803  1C56    	ADC R5,R6
000804  9894    	CBI PORTD,PD4
000805  2B4E    	OR R20,ZL
000806  9A29    	SBI ADCH,ADCH1
000807  CED1    	RJMP L118
000808  AF84    	STD Z+60,R24
000809  57C3    	SUBI YL,$73
00080A  8B75    	STD Z+21,R23
00080B  1B5B    	SUB R21,XH
00080C  9A98    	SBI PINC,PINC0
00080D  2B57    	OR R21,R23
00080E  A42B    	LDD R2,Y+43
00080F  D3D1    	RCALL L119
000810  B284    L17:	IN R8,DDRC
000811  5BC5    	SUBI YL,$B5
000812  8975    	LDD R23,Z+21
000813  1C5F    	ADC R5,R15
000814  989D    	CBI PINC,PINC5
000815  2B61    	OR R22,R17
000816  AC30    	LDD R3,Z+56
000817  D5D1    	RCALL L120
000818  B382    	IN R24,PORTD
000819  5FC9    	SUBI YL,$F9
00081A  8673    	STD Z+11,R7
00081B  1F60    	ADC R22,R16
00081C  95A1    	NEG XL
00081D  2B69    	OR R22,R25
00081E  B335    	IN R19,PORTC
00081F  D6D2    	RCALL L121
000820  B27F    	IN R7,EEARH
000821  62CE    	ORI YL,$2E
000822  8270    	ST Z,R7
000823  235F    	AND R21,ZH
000824  91A6    	ELPM XL,Z
000825  2A6F    	OR R6,ZH
000826  B639    	IN R3,EIMSK
000827  D6D2    	RCALL L122
000828  AF7C    	STD Y+60,R23
000829  64D4    	ORI YH,$44
00082A  7F6D    	ANDI R22,$FD
00082B  285C    	OR R5,R12
00082C  8EAA    	STD Y+26,R10
00082D  2A71    	OR R7,R17
00082E  B73B    	IN R19,RAMPZ
00082F  D6D2    	RCALL L123
000830  AF7C    	STD Y+60,R23
000831  64D4    	ORI YH,$44
000832  7F6D    	ANDI R22,$FD
000833  285C    	OR R5,R12
000834  8EAA    	STD Y+26,R10
000835  2A71    L178:	OR R7,R17
000836  B73B    	IN R19,RAMPZ
000837  D6D2    	RCALL L124
000838  AC78    	LDD R7,Y+56
000839  66D9    	ORI YH,$69
00083A  7B69    	ANDI R22,$B9
00083B  2E58    	MOV R5,R24
00083C  8AAA    	STD Y+18,R10
00083D  2A6F    	OR R6,ZH
00083E  B639    	IN R3,EIMSK
00083F  D6D2    	RCALL L125
000840  A774    	STD Z+44,R23
000841  67DD    	ORI YH,$7D
000842  7865    	ANDI R22,$85
000843  3353    	CPI R21,$33
000844  87A9    	STD Y+9,XL
000845  2B6A    	OR R22,XL
000846  B335    	IN R19,PORTC
000847  D6D2    	RCALL L126
000848  A271    	STD Z+33,R7
000849  66E0    	ORI ZL,$60
00084A  7662    	ANDI R22,$62
00084B  374D    	CPI R20,$7D
00084C  85A7    	LDD XL,Z+15
00084D  2B61    L184:	OR R22,R17
00084E  AD30    	LDD R19,Z+56
00084F  D5D1    	RCALL L127
000850  9D6F    	MUL R22,R15
000851  62E1    	ORI ZL,$21
000852  7660    	ANDI R22,$60
000853  3949    	CPI R20,$99
000854  85A3    	LDD XL,Z+11
000855  2B57    	OR R21,R23
000856  A42B    	LDD R2,Y+43
000857  D3D1    	RCALL L128
000858  9971    	SBIC SPSR,1
000859  5DE0    	SUBI ZL,$D0
00085A  7662    	ANDI R22,$62
00085B  3746    	CPI R20,$76
00085C  859F    	LDD R25,Y+15
00085D  2B4F    	OR R20,ZH
00085E  9A29    	SBI ADCH,ADCH1
00085F  CED1    	RJMP L129
000860  9874    	CBI SPSR,4
000861  59DD    	SUBI YH,$9D
000862  7865    	ANDI R22,$85
000863  3345    	CPI R20,$35
000864  879B    	STD Y+11,R25
000865  2C48    	MOV R4,R8
000866  9228    	UNRECOGNIZED
000867  C9D1    	RJMP L130
000868  9978    	SBIC SPDR,SPDR0
000869  54D9    	SUBI YH,$49
00086A  7B69    	ANDI R22,$B9
00086B  2E46    	MOV R4,R22
00086C  8A98    	STD Y+16,R9
00086D  2C45    	MOV R4,R5
00086E  8C28    	LDD R2,Y+24
00086F  C5D0    	RJMP L131
000870  9C7B    	MUL R7,R11
000871  50D4    	SUBI YH,$04
000872  7E6C    	ANDI R22,$EC
000873  2849    	OR R4,R9
000874  8D96    	LDD R25,Z+30
000875  2C44    	MOV R4,R4
000876  8A28    	STD Y+16,R2
000877  C3D0    	RJMP L132
000878  9C7B    	MUL R7,R11
000879  50D4    	SUBI YH,$04
00087A  7E6C    	ANDI R22,$EC
00087B  2849    	OR R4,R9
00087C  8D96    	LDD R25,Z+30
00087D  2C44    	MOV R4,R4
00087E  8A28    	STD Y+16,R2
00087F  C3D0    	RJMP L133
000880  A582    	LDD R24,Z+42
000881  51C9    	SUBI YL,$19
000882  8673    	STD Z+11,R7
000883  1F51    	ADC R21,R17
000884  9593    	INC R25
000885  2C48    	MOV R4,R8
000886  9128    	UNRECOGNIZED
000887  C9D1    	RJMP L134
000888  AB84    	STD Z+52,R24
000889  53C5    	SUBI YL,$35
00088A  8975    L18:	LDD R23,Z+21
00088B  1C56    	ADC R5,R6
00088C  9894    	CBI PORTD,PD4
00088D  2B4E    	OR R20,ZL
00088E  9A29    	SBI ADCH,ADCH1
00088F  CED1    	RJMP L135
000890  A67D    	STD Y+45,R7
000891  6AE5    	ORI ZL,$A5
000892  7E6C    L19:	ANDI R22,$EC
000893  1756    	CP R21,R22
000894  8D96    	LDD R25,Z+30
000895  2F33    	MOV R19,R19
000896  C731    	RJMP L136
000897  CDCD    	RJMP L137
000898  B37D    	IN R23,EEDR
000899  58C7    	SUBI YL,$87
00089A  7E6C    	ANDI R22,$EC
00089B  3148    	CPI R20,$18
00089C  8DA3    	LDD XL,Z+27
00089D  2F33    	MOV R19,R19
00089E  C731    	RJMP L138
00089F  CDCD    	RJMP L139
0008A0  0303    	MULSU R16,R19
0008A1  0303    	MULSU R16,R19
0008A2  0303    	MULSU R16,R19
0008A3  0303    	MULSU R16,R19
0008A4  0303    	MULSU R16,R19
0008A5  0303    	MULSU R16,R19
0008A6  0303    	MULSU R16,R19
0008A7  0303    	MULSU R16,R19
0008A8  0303    	MULSU R16,R19
0008A9  0303    	MULSU R16,R19
0008AA  0303    	MULSU R16,R19
0008AB  0303    	MULSU R16,R19
0008AC  0303    	MULSU R16,R19
0008AD  0303    	MULSU R16,R19
0008AE  0303    L86:	MULSU R16,R19
0008AF  0303    	MULSU R16,R19
0008B0  0303    	MULSU R16,R19
0008B1  0303    	MULSU R16,R19
0008B2  0303    L22:	MULSU R16,R19
0008B3  0303    	MULSU R16,R19
0008B4  0303    	MULSU R16,R19
0008B5  0303    	MULSU R16,R19
0008B6  0303    	MULSU R16,R19
0008B7  0303    	MULSU R16,R19
0008B8  0202    	MULS R16,R18
0008B9  0202    	MULS R16,R18
0008BA  0202    	MULS R16,R18
0008BB  0202    	MULS R16,R18
0008BC  0202    	MULS R16,R18
0008BD  0202    	MULS R16,R18
0008BE  0202    	MULS R16,R18
0008BF  0202    	MULS R16,R18
0008C0  0101    	MOVW R1:R0,R3:R2
0008C1  0101    	MOVW R1:R0,R3:R2
0008C2  0101    	MOVW R1:R0,R3:R2
0008C3  0101    	MOVW R1:R0,R3:R2
0008C4  0101    	MOVW R1:R0,R3:R2
0008C5  0101    	MOVW R1:R0,R3:R2
0008C6  0101    	MOVW R1:R0,R3:R2
0008C7  0101    	MOVW R1:R0,R3:R2
0008C8  0000    	NOP
0008C9  0000    	NOP
0008CA  0000    	NOP
0008CB  0000    	NOP
0008CC  0000    	NOP
0008CD  0000    	NOP
0008CE  0000    	NOP
0008CF  0000    	NOP
0008D0  0000    	NOP
0008D1  0000    	NOP
0008D2  0000    	NOP
0008D3  0000    	NOP
0008D4  0000    	NOP
0008D5  0000    	NOP
0008D6  0000    	NOP
0008D7  0000    	NOP
0008D8  0101    	MOVW R1:R0,R3:R2
0008D9  0101    	MOVW R1:R0,R3:R2
0008DA  0101    	MOVW R1:R0,R3:R2
0008DB  0101    	MOVW R1:R0,R3:R2
0008DC  0101    	MOVW R1:R0,R3:R2
0008DD  0101    	MOVW R1:R0,R3:R2
0008DE  0101    	MOVW R1:R0,R3:R2
0008DF  0101    	MOVW R1:R0,R3:R2
0008E0  0202    	MULS R16,R18
0008E1  0202    	MULS R16,R18
0008E2  0202    	MULS R16,R18
0008E3  0202    	MULS R16,R18
0008E4  0202    	MULS R16,R18
0008E5  0202    	MULS R16,R18
0008E6  0202    	MULS R16,R18
0008E7  0202    	MULS R16,R18
0008E8  0303    	MULSU R16,R19
0008E9  0303    	MULSU R16,R19
0008EA  0303    	MULSU R16,R19
0008EB  0303    	MULSU R16,R19
0008EC  0303    	MULSU R16,R19
0008ED  0303    	MULSU R16,R19
0008EE  0303    	MULSU R16,R19
0008EF  0303    	MULSU R16,R19
0008F0  0303    	MULSU R16,R19
0008F1  0303    	MULSU R16,R19
0008F2  0303    	MULSU R16,R19
0008F3  0303    	MULSU R16,R19
0008F4  0303    	MULSU R16,R19
0008F5  0303    	MULSU R16,R19
0008F6  0303    	MULSU R16,R19
0008F7  0303    	MULSU R16,R19
0008F8  0303    	MULSU R16,R19
0008F9  0303    	MULSU R16,R19
0008FA  0303    	MULSU R16,R19
0008FB  0303    	MULSU R16,R19
0008FC  0303    	MULSU R16,R19
0008FD  0303    	MULSU R16,R19
0008FE  0303    	MULSU R16,R19
0008FF  0303    	MULSU R16,R19
000900  0202    	MULS R16,R18
000901  0202    	MULS R16,R18
000902  0202    	MULS R16,R18
000903  0202    	MULS R16,R18
000904  0202    	MULS R16,R18
000905  0202    	MULS R16,R18
000906  0202    	MULS R16,R18
000907  0202    	MULS R16,R18
000908  0101    	MOVW R1:R0,R3:R2
000909  0101    	MOVW R1:R0,R3:R2
00090A  0101    	MOVW R1:R0,R3:R2
00090B  0101    	MOVW R1:R0,R3:R2
00090C  0101    	MOVW R1:R0,R3:R2
00090D  0101    	MOVW R1:R0,R3:R2
00090E  0101    	MOVW R1:R0,R3:R2
00090F  0101    	MOVW R1:R0,R3:R2
000910  0000    	NOP
000911  0000    	NOP
000912  0000    	NOP
000913  0000    	NOP
000914  0000    	NOP
000915  0000    	NOP
000916  0000    	NOP
000917  0000    	NOP
000918  0000    	NOP
000919  0000    	NOP
00091A  0000    	NOP
00091B  0000    	NOP
00091C  0000    	NOP
00091D  0000    	NOP
00091E  0000    	NOP
00091F  0000    	NOP
000920  0101    	MOVW R1:R0,R3:R2
000921  0101    	MOVW R1:R0,R3:R2
000922  0101    	MOVW R1:R0,R3:R2
000923  0101    	MOVW R1:R0,R3:R2
000924  0101    	MOVW R1:R0,R3:R2
000925  0101    	MOVW R1:R0,R3:R2
000926  0101    	MOVW R1:R0,R3:R2
000927  0101    	MOVW R1:R0,R3:R2
000928  0202    	MULS R16,R18
000929  0202    	MULS R16,R18
00092A  0202    	MULS R16,R18
00092B  0202    	MULS R16,R18
00092C  0202    	MULS R16,R18
00092D  0202    	MULS R16,R18
00092E  0202    L23:	MULS R16,R18
00092F  0202    	MULS R16,R18
000930  0303    	MULSU R16,R19
000931  0303    	MULSU R16,R19
000932  0303    	MULSU R16,R19
000933  0303    	MULSU R16,R19
000934  0303    	MULSU R16,R19
000935  0303    	MULSU R16,R19
000936  0303    L24:	MULSU R16,R19
000937  0303    	MULSU R16,R19
000938  0303    	MULSU R16,R19
000939  0303    	MULSU R16,R19
00093A  0303    	MULSU R16,R19
00093B  0303    	MULSU R16,R19
00093C  0303    	MULSU R16,R19
00093D  0303    	MULSU R16,R19
00093E  0303    	MULSU R16,R19
00093F  0303    	MULSU R16,R19
000940  0202    	MULS R16,R18
000941  0202    	MULS R16,R18
000942  0202    	MULS R16,R18
000943  0202    	MULS R16,R18
000944  0202    	MULS R16,R18
000945  0202    	MULS R16,R18
000946  0202    	MULS R16,R18
000947  0202    	MULS R16,R18
000948  0101    	MOVW R1:R0,R3:R2
000949  0101    	MOVW R1:R0,R3:R2
00094A  0101    	MOVW R1:R0,R3:R2
00094B  0101    	MOVW R1:R0,R3:R2
00094C  0101    	MOVW R1:R0,R3:R2
00094D  0101    	MOVW R1:R0,R3:R2
00094E  0101    	MOVW R1:R0,R3:R2
00094F  0101    	MOVW R1:R0,R3:R2
000950  0000    	NOP
000951  0000    	NOP
000952  0000    	NOP
000953  0000    	NOP
000954  0000    	NOP
000955  0000    	NOP
000956  0000    	NOP
000957  0000    	NOP
000958  0000    	NOP
000959  0000    	NOP
00095A  0000    	NOP
00095B  0000    	NOP
00095C  0000    	NOP
00095D  0000    	NOP
00095E  0000    L29:	NOP
00095F  0000    	NOP
000960  0101    	MOVW R1:R0,R3:R2
000961  0101    L141:	MOVW R1:R0,R3:R2
000962  0101    	MOVW R1:R0,R3:R2
000963  0101    	MOVW R1:R0,R3:R2
000964  0101    	MOVW R1:R0,R3:R2
000965  0101    	MOVW R1:R0,R3:R2
000966  0101    	MOVW R1:R0,R3:R2
000967  0101    	MOVW R1:R0,R3:R2
000968  0202    	MULS R16,R18
000969  0202    L143:	MULS R16,R18
00096A  0202    	MULS R16,R18
00096B  0202    	MULS R16,R18
00096C  0202    	MULS R16,R18
00096D  0202    	MULS R16,R18
00096E  0202    	MULS R16,R18
00096F  0202    	MULS R16,R18
000970  0303    	MULSU R16,R19
000971  0303    L145:	MULSU R16,R19
000972  0303    	MULSU R16,R19
000973  0303    	MULSU R16,R19
000974  0303    	MULSU R16,R19
000975  0303    	MULSU R16,R19
000976  0303    	MULSU R16,R19
000977  0303    	MULSU R16,R19
000978  0303    	MULSU R16,R19
000979  0303    	MULSU R16,R19
00097A  0303    	MULSU R16,R19
00097B  0303    	MULSU R16,R19
00097C  0303    	MULSU R16,R19
00097D  0303    	MULSU R16,R19
00097E  0303    	MULSU R16,R19
00097F  0303    	MULSU R16,R19
000980  0303    	MULSU R16,R19
000981  0303    	MULSU R16,R19
000982  0303    	MULSU R16,R19
000983  0303    	MULSU R16,R19
000984  0303    	MULSU R16,R19
000985  0303    	MULSU R16,R19
000986  0303    	MULSU R16,R19
000987  0303    	MULSU R16,R19
000988  0202    	MULS R16,R18
000989  0202    	MULS R16,R18
00098A  0202    	MULS R16,R18
00098B  0202    	MULS R16,R18
00098C  0202    	MULS R16,R18
00098D  0202    	MULS R16,R18
00098E  0202    	MULS R16,R18
00098F  0202    	MULS R16,R18
000990  0101    	MOVW R1:R0,R3:R2
000991  0101    	MOVW R1:R0,R3:R2
000992  0101    	MOVW R1:R0,R3:R2
000993  0101    	MOVW R1:R0,R3:R2
000994  0101    	MOVW R1:R0,R3:R2
000995  0101    	MOVW R1:R0,R3:R2
000996  0101    	MOVW R1:R0,R3:R2
000997  0101    	MOVW R1:R0,R3:R2
000998  0000    	NOP
000999  0000    	NOP
00099A  0000    	NOP
00099B  0000    	NOP
00099C  0000    	NOP
00099D  0000    	NOP
00099E  0000    	NOP
00099F  0000    	NOP
0009A0  0000    	NOP
0009A1  0000    	NOP
0009A2  0000    	NOP
0009A3  0000    	NOP
0009A4  0000    	NOP
0009A5  0000    	NOP
0009A6  0000    	NOP
0009A7  0000    	NOP
0009A8  0101    	MOVW R1:R0,R3:R2
0009A9  0101    	MOVW R1:R0,R3:R2
0009AA  0101    	MOVW R1:R0,R3:R2
0009AB  0101    	MOVW R1:R0,R3:R2
0009AC  0101    	MOVW R1:R0,R3:R2
0009AD  0101    	MOVW R1:R0,R3:R2
0009AE  0101    	MOVW R1:R0,R3:R2
0009AF  0101    	MOVW R1:R0,R3:R2
0009B0  0202    	MULS R16,R18
0009B1  0202    	MULS R16,R18
0009B2  0202    	MULS R16,R18
0009B3  0202    	MULS R16,R18
0009B4  0202    	MULS R16,R18
0009B5  0202    	MULS R16,R18
0009B6  0202    	MULS R16,R18
0009B7  0202    	MULS R16,R18
0009B8  0303    	MULSU R16,R19
0009B9  0303    	MULSU R16,R19
0009BA  0303    	MULSU R16,R19
0009BB  0303    	MULSU R16,R19
0009BC  0303    	MULSU R16,R19
0009BD  0303    	MULSU R16,R19
0009BE  0303    	MULSU R16,R19
0009BF  0303    	MULSU R16,R19
0009C0  0303    	MULSU R16,R19
0009C1  0303    	MULSU R16,R19
0009C2  0303    	MULSU R16,R19
0009C3  0303    	MULSU R16,R19
0009C4  0303    	MULSU R16,R19
0009C5  0303    	MULSU R16,R19
0009C6  0303    	MULSU R16,R19
0009C7  0303    	MULSU R16,R19
0009C8  0202    	MULS R16,R18
0009C9  0202    	MULS R16,R18
0009CA  0202    	MULS R16,R18
0009CB  0202    	MULS R16,R18
0009CC  0202    	MULS R16,R18
0009CD  0202    	MULS R16,R18
0009CE  0202    	MULS R16,R18
0009CF  0202    	MULS R16,R18
0009D0  0101    	MOVW R1:R0,R3:R2
0009D1  0101    	MOVW R1:R0,R3:R2
0009D2  0101    	MOVW R1:R0,R3:R2
0009D3  0101    	MOVW R1:R0,R3:R2
0009D4  0101    	MOVW R1:R0,R3:R2
0009D5  0101    	MOVW R1:R0,R3:R2
0009D6  0101    	MOVW R1:R0,R3:R2
0009D7  0101    	MOVW R1:R0,R3:R2
0009D8  0404    	CPC R0,R4
0009D9  0404    	CPC R0,R4
0009DA  0404    	CPC R0,R4
0009DB  0404    	CPC R0,R4
0009DC  0404    	CPC R0,R4
0009DD  0404    	CPC R0,R4
0009DE  0404    	CPC R0,R4
0009DF  0404    	CPC R0,R4
0009E0  0000    	NOP
0009E1  0000    	NOP
0009E2  0000    	NOP
0009E3  0000    	NOP
0009E4  0000    	NOP
0009E5  0000    	NOP
0009E6  0000    	NOP
0009E7  0000    	NOP
0009E8  0303    	MULSU R16,R19
0009E9  0303    	MULSU R16,R19
0009EA  0303    L30:	MULSU R16,R19
0009EB  0303    	MULSU R16,R19
0009EC  0303    	MULSU R16,R19
0009ED  0303    	MULSU R16,R19
0009EE  0303    	MULSU R16,R19
0009EF  0303    	MULSU R16,R19
0009F0  0303    	MULSU R16,R19
0009F1  0303    	MULSU R16,R19
0009F2  0303    L32:	MULSU R16,R19
0009F3  0303    	MULSU R16,R19
0009F4  0303    	MULSU R16,R19
0009F5  0303    	MULSU R16,R19
0009F6  0303    	MULSU R16,R19
0009F7  0303    	MULSU R16,R19
0009F8  0202    	MULS R16,R18
0009F9  0202    	MULS R16,R18
0009FA  0202    	MULS R16,R18
0009FB  0202    	MULS R16,R18
0009FC  0202    	MULS R16,R18
0009FD  0202    	MULS R16,R18
0009FE  0202    	MULS R16,R18
0009FF  0202    	MULS R16,R18
000A00  0101    	MOVW R1:R0,R3:R2
000A01  0101    	MOVW R1:R0,R3:R2
000A02  0101    	MOVW R1:R0,R3:R2
000A03  0101    	MOVW R1:R0,R3:R2
000A04  0101    	MOVW R1:R0,R3:R2
000A05  0101    	MOVW R1:R0,R3:R2
000A06  0101    	MOVW R1:R0,R3:R2
000A07  0101    	MOVW R1:R0,R3:R2
000A08  0000    	NOP
000A09  0000    	NOP
000A0A  0000    	NOP
000A0B  0000    	NOP
000A0C  0000    	NOP
000A0D  0000    	NOP
000A0E  0000    	NOP
000A0F  0000    	NOP
000A10  0000    	NOP
000A11  0000    	NOP
000A12  0000    	NOP
000A13  0000    	NOP
000A14  0000    	NOP
000A15  0000    	NOP
000A16  0000    	NOP
000A17  0000    	NOP
000A18  0101    	MOVW R1:R0,R3:R2
000A19  0101    	MOVW R1:R0,R3:R2
000A1A  0101    L38:	MOVW R1:R0,R3:R2
000A1B  0101    	MOVW R1:R0,R3:R2
000A1C  0101    	MOVW R1:R0,R3:R2
000A1D  0101    	MOVW R1:R0,R3:R2
000A1E  0101    	MOVW R1:R0,R3:R2
000A1F  0101    	MOVW R1:R0,R3:R2
000A20  0202    	MULS R16,R18
000A21  0202    	MULS R16,R18
000A22  0202    	MULS R16,R18
000A23  0202    	MULS R16,R18
000A24  0202    	MULS R16,R18
000A25  0202    	MULS R16,R18
000A26  0202    	MULS R16,R18
000A27  0202    	MULS R16,R18
000A28  0303    	MULSU R16,R19
000A29  0303    	MULSU R16,R19
000A2A  0303    	MULSU R16,R19
000A2B  0303    	MULSU R16,R19
000A2C  0303    	MULSU R16,R19
000A2D  0303    	MULSU R16,R19
000A2E  0303    	MULSU R16,R19
000A2F  0303    	MULSU R16,R19
000A30  0303    	MULSU R16,R19
000A31  0303    	MULSU R16,R19
000A32  0303    	MULSU R16,R19
000A33  0303    	MULSU R16,R19
000A34  0303    	MULSU R16,R19
000A35  0303    	MULSU R16,R19
000A36  0303    	MULSU R16,R19
000A37  0303    	MULSU R16,R19
000A38  0303    	MULSU R16,R19
000A39  0303    	MULSU R16,R19
000A3A  0303    	MULSU R16,R19
000A3B  0303    	MULSU R16,R19
000A3C  0303    	MULSU R16,R19
000A3D  0303    	MULSU R16,R19
000A3E  0303    	MULSU R16,R19
000A3F  0303    	MULSU R16,R19
000A40  0202    	MULS R16,R18
000A41  0202    	MULS R16,R18
000A42  0202    	MULS R16,R18
000A43  0202    	MULS R16,R18
000A44  0202    	MULS R16,R18
000A45  0202    	MULS R16,R18
000A46  0202    	MULS R16,R18
000A47  0202    	MULS R16,R18
000A48  0101    	MOVW R1:R0,R3:R2
000A49  0101    	MOVW R1:R0,R3:R2
000A4A  0101    	MOVW R1:R0,R3:R2
000A4B  0101    	MOVW R1:R0,R3:R2
000A4C  0101    	MOVW R1:R0,R3:R2
000A4D  0101    	MOVW R1:R0,R3:R2
000A4E  0101    	MOVW R1:R0,R3:R2
000A4F  0101    	MOVW R1:R0,R3:R2
000A50  0000    	NOP
000A51  0000    	NOP
000A52  0000    	NOP
000A53  0000    	NOP
000A54  0000    	NOP
000A55  0000    	NOP
000A56  0000    	NOP
000A57  0000    	NOP
000A58  0000    	NOP
000A59  0000    	NOP
000A5A  0000    	NOP
000A5B  0000    	NOP
000A5C  0000    	NOP
000A5D  0000    	NOP
000A5E  0000    	NOP
000A5F  0000    	NOP
000A60  0101    	MOVW R1:R0,R3:R2
000A61  0101    	MOVW R1:R0,R3:R2
000A62  0101    	MOVW R1:R0,R3:R2
000A63  0101    	MOVW R1:R0,R3:R2
000A64  0101    	MOVW R1:R0,R3:R2
000A65  0101    	MOVW R1:R0,R3:R2
000A66  0101    	MOVW R1:R0,R3:R2
000A67  0101    	MOVW R1:R0,R3:R2
000A68  0202    	MULS R16,R18
000A69  0202    	MULS R16,R18
000A6A  0202    	MULS R16,R18
000A6B  0202    	MULS R16,R18
000A6C  0202    	MULS R16,R18
000A6D  0202    	MULS R16,R18
000A6E  0202    	MULS R16,R18
000A6F  0202    	MULS R16,R18
000A70  0303    	MULSU R16,R19
000A71  0303    	MULSU R16,R19
000A72  0303    	MULSU R16,R19
000A73  0303    	MULSU R16,R19
000A74  0303    	MULSU R16,R19
000A75  0303    	MULSU R16,R19
000A76  0303    	MULSU R16,R19
000A77  0303    	MULSU R16,R19
000A78  0303    	MULSU R16,R19
000A79  0303    	MULSU R16,R19
000A7A  0303    	MULSU R16,R19
000A7B  0303    	MULSU R16,R19
000A7C  0303    	MULSU R16,R19
000A7D  0303    	MULSU R16,R19
000A7E  0303    	MULSU R16,R19
000A7F  0303    	MULSU R16,R19
000A80  0202    	MULS R16,R18
000A81  0202    	MULS R16,R18
000A82  0202    	MULS R16,R18
000A83  0202    	MULS R16,R18
000A84  0202    	MULS R16,R18
000A85  0202    	MULS R16,R18
000A86  0202    	MULS R16,R18
000A87  0202    	MULS R16,R18
000A88  0101    	MOVW R1:R0,R3:R2
000A89  0101    	MOVW R1:R0,R3:R2
000A8A  0101    	MOVW R1:R0,R3:R2
000A8B  0101    	MOVW R1:R0,R3:R2
000A8C  0101    	MOVW R1:R0,R3:R2
000A8D  0101    	MOVW R1:R0,R3:R2
000A8E  0101    	MOVW R1:R0,R3:R2
000A8F  0101    	MOVW R1:R0,R3:R2
000A90  0000    	NOP
000A91  0000    	NOP
000A92  0000    	NOP
000A93  0000    	NOP
000A94  0000    	NOP
000A95  0000    	NOP
000A96  0000    	NOP
000A97  0000    	NOP
000A98  0000    	NOP
000A99  0000    	NOP
000A9A  0000    	NOP
000A9B  0000    	NOP
000A9C  0000    	NOP
000A9D  0000    	NOP
000A9E  0000    	NOP
000A9F  0000    	NOP
000AA0  0101    	MOVW R1:R0,R3:R2
000AA1  0101    	MOVW R1:R0,R3:R2
000AA2  0101    	MOVW R1:R0,R3:R2
000AA3  0101    	MOVW R1:R0,R3:R2
000AA4  0101    	MOVW R1:R0,R3:R2
000AA5  0101    L152:	MOVW R1:R0,R3:R2
000AA6  0101    L40:	MOVW R1:R0,R3:R2
000AA7  0101    	MOVW R1:R0,R3:R2
000AA8  0202    	MULS R16,R18
000AA9  0202    	MULS R16,R18
000AAA  0202    	MULS R16,R18
000AAB  0202    	MULS R16,R18
000AAC  0202    	MULS R16,R18
000AAD  0202    	MULS R16,R18
000AAE  0202    L42:	MULS R16,R18
000AAF  0202    	MULS R16,R18
000AB0  0303    	MULSU R16,R19
000AB1  0303    L200:	MULSU R16,R19
000AB2  0303    	MULSU R16,R19
000AB3  0303    	MULSU R16,R19
000AB4  0303    	MULSU R16,R19
000AB5  0303    	MULSU R16,R19
000AB6  0303    L44:	MULSU R16,R19
000AB7  0303    	MULSU R16,R19
000AB8  0303    	MULSU R16,R19
000AB9  0303    	MULSU R16,R19
000ABA  0303    	MULSU R16,R19
000ABB  0303    	MULSU R16,R19
000ABC  0303    	MULSU R16,R19
000ABD  0303    	MULSU R16,R19
000ABE  0303    L46:	MULSU R16,R19
000ABF  0303    	MULSU R16,R19
000AC0  0303    	MULSU R16,R19
000AC1  0303    	MULSU R16,R19
000AC2  0303    	MULSU R16,R19
000AC3  0303    	MULSU R16,R19
000AC4  0303    	MULSU R16,R19
000AC5  0303    	MULSU R16,R19
000AC6  0303    L48:	MULSU R16,R19
000AC7  0303    	MULSU R16,R19
000AC8  0202    	MULS R16,R18
000AC9  0202    	MULS R16,R18
000ACA  0202    	MULS R16,R18
000ACB  0202    	MULS R16,R18
000ACC  0202    	MULS R16,R18
000ACD  0202    L162:	MULS R16,R18
000ACE  0202    L50:	MULS R16,R18
000ACF  0202    	MULS R16,R18
000AD0  0101    	MOVW R1:R0,R3:R2
000AD1  0101    	MOVW R1:R0,R3:R2
000AD2  0101    	MOVW R1:R0,R3:R2
000AD3  0101    	MOVW R1:R0,R3:R2
000AD4  0101    	MOVW R1:R0,R3:R2
000AD5  0101    	MOVW R1:R0,R3:R2
000AD6  0101    L52:	MOVW R1:R0,R3:R2
000AD7  0101    	MOVW R1:R0,R3:R2
000AD8  0000    	NOP
000AD9  0000    	NOP
000ADA  0000    	NOP
000ADB  0000    	NOP
000ADC  0000    	NOP
000ADD  0000    	NOP
000ADE  0000    	NOP
000ADF  0000    	NOP
000AE0  0000    	NOP
000AE1  0000    	NOP
000AE2  0000    	NOP
000AE3  0000    	NOP
000AE4  0000    	NOP
000AE5  0000    	NOP
000AE6  0000    	NOP
000AE7  0000    	NOP
000AE8  0101    	MOVW R1:R0,R3:R2
000AE9  0101    	MOVW R1:R0,R3:R2
000AEA  0101    	MOVW R1:R0,R3:R2
000AEB  0101    	MOVW R1:R0,R3:R2
000AEC  0101    	MOVW R1:R0,R3:R2
000AED  0101    	MOVW R1:R0,R3:R2
000AEE  0101    	MOVW R1:R0,R3:R2
000AEF  0101    	MOVW R1:R0,R3:R2
000AF0  0202    	MULS R16,R18
000AF1  0202    	MULS R16,R18
000AF2  0202    	MULS R16,R18
000AF3  0202    	MULS R16,R18
000AF4  0202    	MULS R16,R18
000AF5  0202    	MULS R16,R18
000AF6  0202    	MULS R16,R18
000AF7  0202    	MULS R16,R18
000AF8  0303    	MULSU R16,R19
000AF9  0303    	MULSU R16,R19
000AFA  0303    	MULSU R16,R19
000AFB  0303    	MULSU R16,R19
000AFC  0303    	MULSU R16,R19
000AFD  0303    	MULSU R16,R19
000AFE  0303    	MULSU R16,R19
000AFF  0303    	MULSU R16,R19
000B00  0303    	MULSU R16,R19
000B01  0303    	MULSU R16,R19
000B02  0303    	MULSU R16,R19
000B03  0303    	MULSU R16,R19
000B04  0303    	MULSU R16,R19
000B05  0303    	MULSU R16,R19
000B06  0303    	MULSU R16,R19
000B07  0303    	MULSU R16,R19
000B08  0202    	MULS R16,R18
000B09  0202    	MULS R16,R18
000B0A  0202    	MULS R16,R18
000B0B  0202    	MULS R16,R18
000B0C  0202    	MULS R16,R18
000B0D  0202    	MULS R16,R18
000B0E  0202    	MULS R16,R18
000B0F  0202    	MULS R16,R18
000B10  0101    	MOVW R1:R0,R3:R2
000B11  0101    	MOVW R1:R0,R3:R2
000B12  0101    	MOVW R1:R0,R3:R2
000B13  0101    	MOVW R1:R0,R3:R2
000B14  0101    	MOVW R1:R0,R3:R2
000B15  0101    	MOVW R1:R0,R3:R2
000B16  0101    	MOVW R1:R0,R3:R2
000B17  0101    	MOVW R1:R0,R3:R2
000B18  0000    	NOP
000B19  0000    	NOP
000B1A  0000    	NOP
000B1B  0000    	NOP
000B1C  0000    	NOP
000B1D  0000    	NOP
000B1E  0000    	NOP
000B1F  0000    	NOP
000B20  2929    	OR R18,R9
000B21  2929    	OR R18,R9
000B22  2929    	OR R18,R9
000B23  2929    	OR R18,R9
000B24  2929    	OR R18,R9
000B25  1414    	CP R1,R4
000B26  1414    	CP R1,R4
000B27  1414    	CP R1,R4
000B28  3D3D    	CPI R19,$DD
000B29  3D3D    	CPI R19,$DD
000B2A  3D3D    	CPI R19,$DD
000B2B  3D3D    	CPI R19,$DD
000B2C  3D3D    	CPI R19,$DD
000B2D  1E1E    L176:	ADC R1,ZL
000B2E  1E1E    	ADC R1,ZL
000B2F  1E1E    	ADC R1,ZL
000B30  0000    	NOP
000B31  0000    	NOP
000B32  0000    	NOP
000B33  0000    	NOP
000B34  0000    	NOP
000B35  0000    	NOP
000B36  0000    	NOP
000B37  0000    	NOP
000B38  0005    	UNRECOGNIZED
000B39  0014    	UNRECOGNIZED
000B3A  0001    	UNRECOGNIZED
000B3B  0001    	UNRECOGNIZED
000B3C  0001    	UNRECOGNIZED
000B3D  0001    	UNRECOGNIZED
000B3E  0001    	UNRECOGNIZED
000B3F  0001    	UNRECOGNIZED
000B40  0001    	UNRECOGNIZED
000B41  0001    	UNRECOGNIZED
000B42  0001    	UNRECOGNIZED
000B43  0001    	UNRECOGNIZED
000B44  0001    	UNRECOGNIZED
000B45  0001    	UNRECOGNIZED
000B46  0001    	UNRECOGNIZED
000B47  0001    	UNRECOGNIZED
000B48  0001    	UNRECOGNIZED
000B49  0001    	UNRECOGNIZED
000B4A  0001    	UNRECOGNIZED
000B4B  0001    	UNRECOGNIZED
000B4C  0001    	UNRECOGNIZED
000B4D  0001    	UNRECOGNIZED
000B4E  0001    	UNRECOGNIZED
000B4F  0001    	UNRECOGNIZED
000B50  0001    	UNRECOGNIZED
000B51  0001    	UNRECOGNIZED
000B52  0001    	UNRECOGNIZED
000B53  0001    	UNRECOGNIZED
000B54  0001    	UNRECOGNIZED
000B55  0001    L186:	UNRECOGNIZED
000B56  0001    	UNRECOGNIZED
000B57  0001    	UNRECOGNIZED
000B58  0001    	UNRECOGNIZED
000B59  0001    L102:	UNRECOGNIZED
000B5A  0001    	UNRECOGNIZED
000B5B  0001    	UNRECOGNIZED
000B5C  0001    	UNRECOGNIZED
000B5D  0001    	UNRECOGNIZED
000B5E  0001    	UNRECOGNIZED
000B5F  0001    	UNRECOGNIZED
000B60  000A    	UNRECOGNIZED
000B61  0014    	UNRECOGNIZED
000B62  012C    L54:	MOVW R5:R4,R25:R24
000B63  0190    	MOVW R19:R18,R1:R0
000B64  0019    	UNRECOGNIZED
000B65  0019    	UNRECOGNIZED
000B66  0019    	UNRECOGNIZED
000B67  0019    	UNRECOGNIZED
000B68  0019    	UNRECOGNIZED
000B69  0019    	UNRECOGNIZED
000B6A  0019    L56:	UNRECOGNIZED
000B6B  0019    	UNRECOGNIZED
000B6C  0019    	UNRECOGNIZED
000B6D  0019    	UNRECOGNIZED
000B6E  0019    	UNRECOGNIZED
000B6F  0019    	UNRECOGNIZED
000B70  0019    	UNRECOGNIZED
000B71  0019    	UNRECOGNIZED
000B72  0019    L59:	UNRECOGNIZED
000B73  0019    	UNRECOGNIZED
000B74  0019    	UNRECOGNIZED
000B75  0019    	UNRECOGNIZED
000B76  0019    	UNRECOGNIZED
000B77  0019    	UNRECOGNIZED
000B78  0019    	UNRECOGNIZED
000B79  0019    	UNRECOGNIZED
000B7A  0019    L62:	UNRECOGNIZED
000B7B  0019    	UNRECOGNIZED
000B7C  0019    	UNRECOGNIZED
000B7D  0019    	UNRECOGNIZED
000B7E  0019    	UNRECOGNIZED
000B7F  0019    	UNRECOGNIZED
000B80  0019    	UNRECOGNIZED
000B81  0019    	UNRECOGNIZED
000B82  0019    L64:	UNRECOGNIZED
000B83  0019    	UNRECOGNIZED
000B84  0019    	UNRECOGNIZED
000B85  0019    	UNRECOGNIZED
000B86  0019    	UNRECOGNIZED
000B87  0019    	UNRECOGNIZED
000B88  0019    	UNRECOGNIZED
000B89  0019    	UNRECOGNIZED
000B8A  0190    L66:	MOVW R19:R18,R1:R0
000B8B  0190    	MOVW R19:R18,R1:R0
000B8C  B37D    	IN R23,EEDR
000B8D  58C7    	SUBI YL,$87
000B8E  7E6C    	ANDI R22,$EC
000B8F  3148    	CPI R20,$18
000B90  8DA3    	LDD XL,Z+27
000B91  2F33    	MOV R19,R19
000B92  C731    L68:	RJMP L140
000B93  CDCD    	RJMP L141
000B94  B37D    	IN R23,EEDR
000B95  58C7    	SUBI YL,$87
000B96  7E6C    	ANDI R22,$EC
000B97  3148    	CPI R20,$18
000B98  8DA3    	LDD XL,Z+27
000B99  2F33    	MOV R19,R19
000B9A  C731    	RJMP L142
000B9B  CDCD    	RJMP L143
000B9C  A07D    	LDD R7,Y+37
000B9D  6BDC    	ORI YH,$BC
000B9E  7E6C    	ANDI R22,$EC
000B9F  1F58    	ADC R21,R24
000BA0  8D92    	LDD R25,Z+26
000BA1  2F33    L111:	MOV R19,R19
000BA2  C731    	RJMP L144
000BA3  CDCD    	RJMP L145
000BA4  9978    	SBIC SPDR,SPDR0
000BA5  58DA    	SUBI YH,$8A
000BA6  7B69    	ANDI R22,$B9
000BA7  2E48    	MOV R4,R24
000BA8  8A97    	STD Z+23,R9
000BA9  2B39    	OR R19,R25
000BAA  AE33    	STD Z+59,R3
000BAB  D6D2    	RCALL L146
000BAC  9774    	SBIW ZH:ZL,20
000BAD  5BDF    	SUBI YH,$BF
000BAE  7865    	ANDI R22,$85
000BAF  3446    	CPI R20,$46
000BB0  879B    	STD Y+11,R25
000BB1  2B3A    	OR R19,XL
000BB2  B130    	IN R19,PINF
000BB3  D6D2    	RCALL L147
000BB4  9870    	CBI SPSR,SPI2X
000BB5  5EE2    	SUBI ZL,$E2
000BB6  7761    	ANDI R22,$71
000BB7  3946    	CPI R20,$96
000BB8  86A0    	STD Z+8,R10
000BB9  2B3B    	OR R19,XH
000BBA  B62D    	IN R2,SPL
000BBB  D6D2    	RCALL L148
000BBC  9B6F    	SBIS SPCR,SPIE
000BBD  63E3    	ORI ZL,$33
000BBE  7660    	ANDI R22,$60
000BBF  3C48    	CPI R20,$C8
000BC0  85A5    L115:	LDD XL,Z+13
000BC1  2B3F    	OR R19,ZH
000BC2  BC29    	OUT OCR1BH,R2
000BC3  D5D1    	RCALL L149
000BC4  A070    	LDD R7,Z+32
000BC5  66E2    	ORI ZL,$62
000BC6  7661    	ANDI R22,$61
000BC7  3A4C    	CPI R20,$AC
000BC8  85A7    L116:	LDD XL,Z+15
000BC9  2C44    	MOV R4,R4
000BCA  BF28    	OUT EIFR,R18
000BCB  D1D1    	RCALL L150
000BCC  A573    	LDD R23,Z+43
000BCD  68DF    	ORI YH,$8F
000BCE  7864    	ANDI R22,$84
000BCF  3452    	CPI R21,$42
000BD0  87A8    	STD Y+8,XL
000BD1  2C49    	MOV R4,R9
000BD2  C128    	RJMP L151
000BD3  CED1    	RJMP L152
000BD4  A978    	LDD R23,Y+48
000BD5  68DA    	ORI YH,$8A
000BD6  7B69    	ANDI R22,$B9
000BD7  2E58    	MOV R5,R24
000BD8  8AA7    	STD Z+23,R10
000BD9  2C4D    	MOV R4,R13
000BDA  C228    	RJMP L153
000BDB  CBD1    	RJMP L154
000BDC  AD7B    	LDD R23,Y+59
000BDD  67D4    	ORI YH,$74
000BDE  7E6C    	ANDI R22,$EC
000BDF  285C    	OR R5,R12
000BE0  8DA5    	LDD XL,Z+29
000BE1  2B4E    L119:	OR R20,ZL
000BE2  C228    	RJMP L155
000BE3  CAD1    	RJMP L156
000BE4  AD7B    	LDD R23,Y+59
000BE5  67D4    	ORI YH,$74
000BE6  7E6C    	ANDI R22,$EC
000BE7  285C    	OR R5,R12
000BE8  8DA5    	LDD XL,Z+29
000BE9  2B4E    	OR R20,ZL
000BEA  C228    	RJMP L157
000BEB  CAD1    	RJMP L158
000BEC  B07F    	IN R7,SPDR
000BED  63CE    	ORI YL,$3E
000BEE  8270    	ST Z,R7
000BEF  225F    	AND R5,ZH
000BF0  91A2    	LD XL,-Z
000BF1  2C4D    	MOV R4,R13
000BF2  C228    	RJMP L159
000BF3  CBD1    	RJMP L160
000BF4  B282    	IN R8,PORTD
000BF5  5FC8    	SUBI YL,$F8
000BF6  8673    	STD Z+11,R7
000BF7  1D61    	ADC R22,R1
000BF8  959F    	CALL $332C4A
000BF9  2C4A
000BFA  C128    	RJMP L161
000BFB  CED1    	RJMP L162
000BFC  B283    	IN R8,PINC
000BFD  5AC3    	SUBI YL,$A3
000BFE  8A74    	STD Z+20,R7
000BFF  1A60    	SUB R6,R16
000C00  999C    	SBIC PINC,PINC4
000C01  2C45    	MOV R4,R5
000C02  C028    	RJMP L163
000C03  D1D1    	RCALL L164
000C04  B084    	IN R8,ADCL
000C05  55C0    	SUBI YL,$50
000C06  8B75    	STD Z+21,R23
000C07  195D    	SUB R21,R13
000C08  9A97    	SBI PORTD,PD7
000C09  2B3F    	OR R19,ZH
000C0A  BC29    	OUT OCR1BH,R2
000C0B  D5D1    	RCALL L165
000C0C  AC84    	LDD R8,Z+60
000C0D  53C2    	SUBI YL,$32
000C0E  8A75    	STD Z+21,R7
000C0F  1A58    	SUB R5,R24
000C10  9994    	SBIC PORTD,PD4
000C11  2B3C    	OR R19,YL
000C12  B72D    	IN R18,SPL
000C13  D6D2    	RCALL L166
000C14  A682    	STD Z+42,R8
000C15  52C8    	SUBI YL,$28
000C16  8773    	STD Z+11,R23
000C17  1D53    	ADC R21,R3
000C18  9692    	ADIW XH:XL,34
000C19  2B3A    	OR R19,XL
000C1A  B230    	IN R3,PIND
000C1B  D6D2    	RCALL L167
000C1C  A07F    	LDD R7,Y+39
000C1D  53CE    	SUBI YL,$3E
000C1E  8270    	ST Z,R7
000C1F  224F    	AND R4,ZH
000C20  9192    	LD R25,-Z
000C21  2B39    	OR R19,R25
000C22  AE33    	STD Z+59,R3
000C23  D6D2    	RCALL L168
000C24  9C7C    	MUL R7,R12
000C25  55D4    	SUBI YH,$54
000C26  7F6D    L70:	ANDI R22,$FD
000C27  284B    	OR R4,R11
000C28  8E93    	STD Z+27,R9
000C29  2B39    L128:	OR R19,R25
000C2A  AD34    	LDD R19,Z+60
000C2B  D6D1    L163:	RCALL L169
000C2C  9C7C    	MUL R7,R12
000C2D  55D4    	SUBI YH,$54
000C2E  7F6D    L72:	ANDI R22,$FD
000C2F  284B    	OR R4,R11
000C30  8E93    	STD Z+27,R9
000C31  2B39    	OR R19,R25
000C32  AD34    	LDD R19,Z+60
000C33  D6D1    	RCALL L170
000C34  9774    	SBIW ZH:ZL,20
000C35  5BDF    	SUBI YH,$BF
000C36  7865    L75:	ANDI R22,$85
000C37  3446    	CPI R20,$46
000C38  879B    	STD Y+11,R25
000C39  2B3A    	OR R19,XL
000C3A  B130    	IN R19,PINF
000C3B  D6D2    	RCALL L171
000C3C  9870    	CBI SPSR,SPI2X
000C3D  5EE2    	SUBI ZL,$E2
000C3E  7761    	ANDI R22,$71
000C3F  3946    	CPI R20,$96
000C40  86A0    	STD Z+8,R10
000C41  2B3B    	OR R19,XH
000C42  B62D    	IN R2,SPL
000C43  D6D2    	RCALL L172
000C44  9B6F    	SBIS SPCR,SPIE
000C45  63E3    	ORI ZL,$33
000C46  7660    	ANDI R22,$60
000C47  3C48    	CPI R20,$C8
000C48  85A5    L132:	LDD XL,Z+13
000C49  2B3F    	OR R19,ZH
000C4A  BC29    	OUT OCR1BH,R2
000C4B  D5D1    	RCALL L173
000C4C  A070    	LDD R7,Z+32
000C4D  66E2    	ORI ZL,$62
000C4E  7661    	ANDI R22,$61
000C4F  3A4C    	CPI R20,$AC
000C50  85A7    L133:	LDD XL,Z+15
000C51  2C44    	MOV R4,R4
000C52  BF28    	OUT EIFR,R18
000C53  D1D1    	RCALL L174
000C54  A573    	LDD R23,Z+43
000C55  68DF    	ORI YH,$8F
000C56  7864    	ANDI R22,$84
000C57  3452    	CPI R21,$42
000C58  87A8    	STD Y+8,XL
000C59  2C49    	MOV R4,R9
000C5A  C128    	RJMP L175
000C5B  CED1    	RJMP L176
000C5C  A978    	LDD R23,Y+48
000C5D  68DA    	ORI YH,$8A
000C5E  7B69    	ANDI R22,$B9
000C5F  2E58    	MOV R5,R24
000C60  8AA7    	STD Z+23,R10
000C61  2C4D    	MOV R4,R13
000C62  C228    	RJMP L177
000C63  CBD1    	RJMP L178
000C64  AD7B    	LDD R23,Y+59
000C65  67D4    	ORI YH,$74
000C66  7E6C    	ANDI R22,$EC
000C67  285C    	OR R5,R12
000C68  8DA5    	LDD XL,Z+29
000C69  2B4E    	OR R20,ZL
000C6A  C228    	RJMP L179
000C6B  CAD1    	RJMP L180
000C6C  AD7B    	LDD R23,Y+59
000C6D  67D4    	ORI YH,$74
000C6E  7E6C    	ANDI R22,$EC
000C6F  285C    	OR R5,R12
000C70  8DA5    	LDD XL,Z+29
000C71  2B4E    	OR R20,ZL
000C72  C228    	RJMP L181
000C73  CAD1    	RJMP L182
000C74  B07F    	IN R7,SPDR
000C75  63CE    	ORI YL,$3E
000C76  8270    L78:	ST Z,R7
000C77  225F    	AND R5,ZH
000C78  91A2    	LD XL,-Z
000C79  2C4D    	MOV R4,R13
000C7A  C228    	RJMP L183
000C7B  CBD1    	RJMP L184
000C7C  B282    	IN R8,PORTD
000C7D  5FC8    	SUBI YL,$F8
000C7E  8673    	STD Z+11,R7
000C7F  1D61    	ADC R22,R1
000C80  959F    	CALL $332C4A
000C81  2C4A
000C82  C128    	RJMP L185
000C83  CED1    	RJMP L186
000C84  B283    	IN R8,PINC
000C85  5AC3    	SUBI YL,$A3
000C86  8A74    	STD Z+20,R7
000C87  1A60    	SUB R6,R16
000C88  999C    	SBIC PINC,PINC4
000C89  2C45    	MOV R4,R5
000C8A  C028    	RJMP L187
000C8B  D1D1    	RCALL L188
000C8C  B084    	IN R8,ADCL
000C8D  55C0    	SUBI YL,$50
000C8E  8B75    	STD Z+21,R23
000C8F  195D    	SUB R21,R13
000C90  9A97    	SBI PORTD,PD7
000C91  2B3F    	OR R19,ZH
000C92  BC29    	OUT OCR1BH,R2
000C93  D5D1    	RCALL L189
000C94  AC84    	LDD R8,Z+60
000C95  53C2    	SUBI YL,$32
000C96  8A75    	STD Z+21,R7
000C97  1A58    	SUB R5,R24
000C98  9994    	SBIC PORTD,PD4
000C99  2B3C    	OR R19,YL
000C9A  B72D    	IN R18,SPL
000C9B  D6D2    	RCALL L190
000C9C  A682    	STD Z+42,R8
000C9D  52C8    	SUBI YL,$28
000C9E  8773    	STD Z+11,R23
000C9F  1D53    	ADC R21,R3
000CA0  9692    	ADIW XH:XL,34
000CA1  2B3A    	OR R19,XL
000CA2  B230    	IN R3,PIND
000CA3  D6D2    	RCALL L191
000CA4  A07F    	LDD R7,Y+39
000CA5  53CE    	SUBI YL,$3E
000CA6  8270    	ST Z,R7
000CA7  224F    	AND R4,ZH
000CA8  9192    	LD R25,-Z
000CA9  2B39    	OR R19,R25
000CAA  AE33    	STD Z+59,R3
000CAB  D6D2    	RCALL L192
000CAC  9C7C    	MUL R7,R12
000CAD  55D4    	SUBI YH,$54
000CAE  7F6D    	ANDI R22,$FD
000CAF  284B    	OR R4,R11
000CB0  8E93    	STD Z+27,R9
000CB1  2B39    	OR R19,R25
000CB2  AD34    	LDD R19,Z+60
000CB3  D6D1    L187:	RCALL L193
000CB4  9C7C    	MUL R7,R12
000CB5  55D4    	SUBI YH,$54
000CB6  7F6D    	ANDI R22,$FD
000CB7  284B    	OR R4,R11
000CB8  8E93    	STD Z+27,R9
000CB9  2B39    	OR R19,R25
000CBA  AD34    	LDD R19,Z+60
000CBB  D6D1    	RCALL L194
000CBC  9774    	SBIW ZH:ZL,20
000CBD  5BDF    	SUBI YH,$BF
000CBE  7865    	ANDI R22,$85
000CBF  3446    	CPI R20,$46
000CC0  879B    	STD Y+11,R25
000CC1  2B3A    	OR R19,XL
000CC2  B130    	IN R19,PINF
000CC3  D6D2    	RCALL L195
000CC4  9870    	CBI SPSR,SPI2X
000CC5  5EE2    	SUBI ZL,$E2
000CC6  7761    	ANDI R22,$71
000CC7  3946    	CPI R20,$96
000CC8  86A0    	STD Z+8,R10
000CC9  2B3B    	OR R19,XH
000CCA  B62D    	IN R2,SPL
000CCB  D6D2    	RCALL L196
000CCC  9B6F    	SBIS SPCR,SPIE
000CCD  63E3    	ORI ZL,$33
000CCE  7660    	ANDI R22,$60
000CCF  3C48    	CPI R20,$C8
000CD0  85A5    	LDD XL,Z+13
000CD1  2B3F    	OR R19,ZH
000CD2  BC29    	OUT OCR1BH,R2
000CD3  D5D1    	RCALL L197
000CD4  9B6F    	SBIS SPCR,SPIE
000CD5  62E3    	ORI ZL,$23
000CD6  7660    	ANDI R22,$60
000CD7  1959    	SUB R21,R9
000CD8  859B    	LDD R25,Y+11
000CD9  2B3F    	OR R19,ZH
000CDA  BC29    	OUT OCR1BH,R2
000CDB  D5D1    	RCALL L198
000CDC  B37D    	IN R23,EEDR
000CDD  58C7    	SUBI YL,$87
000CDE  7E6C    	ANDI R22,$EC
000CDF  3148    	CPI R20,$18
000CE0  8DA3    	LDD XL,Z+27
000CE1  2F33    	MOV R19,R19
000CE2  C731    	RJMP L199
000CE3  CDCD    	RJMP L200
000CE4  0404    	CPC R0,R4
000CE5  0404    	CPC R0,R4
000CE6  0404    	CPC R0,R4
000CE7  0404    	CPC R0,R4
000CE8  0404    	CPC R0,R4
000CE9  0404    	CPC R0,R4
000CEA  0404    	CPC R0,R4
000CEB  0404    	CPC R0,R4
000CEC  0303    	MULSU R16,R19
000CED  0303    	MULSU R16,R19
000CEE  0303    	MULSU R16,R19
000CEF  0303    	MULSU R16,R19
000CF0  0303    	MULSU R16,R19
000CF1  0303    	MULSU R16,R19
000CF2  0303    	MULSU R16,R19
000CF3  0303    	MULSU R16,R19
000CF4  0202    	MULS R16,R18
000CF5  0202    	MULS R16,R18
000CF6  0202    	MULS R16,R18
000CF7  0202    	MULS R16,R18
000CF8  0202    	MULS R16,R18
000CF9  0202    	MULS R16,R18
000CFA  0202    	MULS R16,R18
000CFB  0202    L151:	MULS R16,R18
000CFC  0303    	MULSU R16,R19
000CFD  0303    	MULSU R16,R19
000CFE  0303    	MULSU R16,R19
000CFF  0303    	MULSU R16,R19
000D00  0303    	MULSU R16,R19
000D01  0303    	MULSU R16,R19
000D02  0303    	MULSU R16,R19
000D03  0303    	MULSU R16,R19
000D04  0202    	MULS R16,R18
000D05  0202    	MULS R16,R18
000D06  0202    	MULS R16,R18
000D07  0202    	MULS R16,R18
000D08  0202    	MULS R16,R18
000D09  0202    	MULS R16,R18
000D0A  0202    	MULS R16,R18
000D0B  0202    	MULS R16,R18
000D0C  0101    	MOVW R1:R0,R3:R2
000D0D  0101    	MOVW R1:R0,R3:R2
000D0E  0101    	MOVW R1:R0,R3:R2
000D0F  0101    	MOVW R1:R0,R3:R2
000D10  0101    	MOVW R1:R0,R3:R2
000D11  0101    	MOVW R1:R0,R3:R2
000D12  0101    	MOVW R1:R0,R3:R2
000D13  0101    	MOVW R1:R0,R3:R2
000D14  0000    	NOP
000D15  0000    	NOP
000D16  0000    	NOP
000D17  0000    	NOP
000D18  0000    	NOP
000D19  0000    	NOP
000D1A  0000    	NOP
000D1B  0000    	NOP
000D1C  0000    	NOP
000D1D  0000    	NOP
000D1E  0000    	NOP
000D1F  0000    	NOP
000D20  0000    	NOP
000D21  0000    	NOP
000D22  0000    	NOP
000D23  0000    L161:	NOP
000D24  0101    	MOVW R1:R0,R3:R2
000D25  0101    	MOVW R1:R0,R3:R2
000D26  0101    	MOVW R1:R0,R3:R2
000D27  0101    	MOVW R1:R0,R3:R2
000D28  0101    	MOVW R1:R0,R3:R2
000D29  0101    	MOVW R1:R0,R3:R2
000D2A  0101    	MOVW R1:R0,R3:R2
000D2B  0101    	MOVW R1:R0,R3:R2
000D2C  0202    	MULS R16,R18
000D2D  0202    	MULS R16,R18
000D2E  0202    	MULS R16,R18
000D2F  0202    	MULS R16,R18
000D30  0202    	MULS R16,R18
000D31  0202    	MULS R16,R18
000D32  0202    	MULS R16,R18
000D33  0202    	MULS R16,R18
000D34  0303    	MULSU R16,R19
000D35  0303    	MULSU R16,R19
000D36  0303    	MULSU R16,R19
000D37  0303    	MULSU R16,R19
000D38  0303    	MULSU R16,R19
000D39  0303    	MULSU R16,R19
000D3A  0303    	MULSU R16,R19
000D3B  0303    	MULSU R16,R19
000D3C  0303    	MULSU R16,R19
000D3D  0303    	MULSU R16,R19
000D3E  0303    	MULSU R16,R19
000D3F  0303    	MULSU R16,R19
000D40  0303    	MULSU R16,R19
000D41  0303    	MULSU R16,R19
000D42  0303    	MULSU R16,R19
000D43  0303    	MULSU R16,R19
000D44  0303    	MULSU R16,R19
000D45  0303    	MULSU R16,R19
000D46  0303    	MULSU R16,R19
000D47  0303    	MULSU R16,R19
000D48  0303    L80:	MULSU R16,R19
000D49  0303    	MULSU R16,R19
000D4A  0303    	MULSU R16,R19
000D4B  0303    	MULSU R16,R19
000D4C  0202    	MULS R16,R18
000D4D  0202    	MULS R16,R18
000D4E  0202    	MULS R16,R18
000D4F  0202    	MULS R16,R18
000D50  0202    L82:	MULS R16,R18
000D51  0202    	MULS R16,R18
000D52  0202    	MULS R16,R18
000D53  0202    	MULS R16,R18
000D54  0101    	MOVW R1:R0,R3:R2
000D55  0101    	MOVW R1:R0,R3:R2
000D56  0101    	MOVW R1:R0,R3:R2
000D57  0101    	MOVW R1:R0,R3:R2
000D58  0101    	MOVW R1:R0,R3:R2
000D59  0101    	MOVW R1:R0,R3:R2
000D5A  0101    	MOVW R1:R0,R3:R2
000D5B  0101    	MOVW R1:R0,R3:R2
000D5C  0000    	NOP
000D5D  0000    	NOP
000D5E  0000    	NOP
000D5F  0000    	NOP
000D60  0000    	NOP
000D61  0000    L103:	NOP
000D62  0000    	NOP
000D63  0000    	NOP
000D64  0000    	NOP
000D65  0000    	NOP
000D66  0000    	NOP
000D67  0000    	NOP
000D68  0000    	NOP
000D69  0000    	NOP
000D6A  0000    	NOP
000D6B  0000    	NOP
000D6C  0101    	MOVW R1:R0,R3:R2
000D6D  0101    	MOVW R1:R0,R3:R2
000D6E  0101    	MOVW R1:R0,R3:R2
000D6F  0101    	MOVW R1:R0,R3:R2
000D70  0101    	MOVW R1:R0,R3:R2
000D71  0101    	MOVW R1:R0,R3:R2
000D72  0101    	MOVW R1:R0,R3:R2
000D73  0101    	MOVW R1:R0,R3:R2
000D74  0202    	MULS R16,R18
000D75  0202    	MULS R16,R18
000D76  0202    	MULS R16,R18
000D77  0202    	MULS R16,R18
000D78  0202    	MULS R16,R18
000D79  0202    	MULS R16,R18
000D7A  0202    	MULS R16,R18
000D7B  0202    	MULS R16,R18
000D7C  0303    	MULSU R16,R19
000D7D  0303    	MULSU R16,R19
000D7E  0303    	MULSU R16,R19
000D7F  0303    	MULSU R16,R19
000D80  0303    	MULSU R16,R19
000D81  0303    	MULSU R16,R19
000D82  0303    	MULSU R16,R19
000D83  0303    L175:	MULSU R16,R19
000D84  0303    	MULSU R16,R19
000D85  0303    	MULSU R16,R19
000D86  0303    	MULSU R16,R19
000D87  0303    	MULSU R16,R19
000D88  0303    	MULSU R16,R19
000D89  0303    	MULSU R16,R19
000D8A  0303    	MULSU R16,R19
000D8B  0303    	MULSU R16,R19
000D8C  0202    	MULS R16,R18
000D8D  0202    	MULS R16,R18
000D8E  0202    	MULS R16,R18
000D8F  0202    	MULS R16,R18
000D90  0202    L92:	MULS R16,R18
000D91  0202    	MULS R16,R18
000D92  0202    	MULS R16,R18
000D93  0202    	MULS R16,R18
000D94  0101    	MOVW R1:R0,R3:R2
000D95  0101    	MOVW R1:R0,R3:R2
000D96  0101    	MOVW R1:R0,R3:R2
000D97  0101    	MOVW R1:R0,R3:R2
000D98  0101    	MOVW R1:R0,R3:R2
000D99  0101    L110:	MOVW R1:R0,R3:R2
000D9A  0101    	MOVW R1:R0,R3:R2
000D9B  0101    	MOVW R1:R0,R3:R2
000D9C  0000    	NOP
000D9D  0000    L150:	NOP
000D9E  0000    	NOP
000D9F  0000    	NOP
000DA0  0000    	NOP
000DA1  0000    	NOP
000DA2  0000    	NOP
000DA3  0000    	NOP
000DA4  0000    	NOP
000DA5  0000    	NOP
000DA6  0000    	NOP
000DA7  0000    	NOP
000DA8  0000    	NOP
000DA9  0000    	NOP
000DAA  0000    	NOP
000DAB  0000    L185:	NOP
000DAC  0101    	MOVW R1:R0,R3:R2
000DAD  0101    	MOVW R1:R0,R3:R2
000DAE  0101    	MOVW R1:R0,R3:R2
000DAF  0101    	MOVW R1:R0,R3:R2
000DB0  0101    	MOVW R1:R0,R3:R2
000DB1  0101    	MOVW R1:R0,R3:R2
000DB2  0101    	MOVW R1:R0,R3:R2
000DB3  0101    	MOVW R1:R0,R3:R2
000DB4  0202    	MULS R16,R18
000DB5  0202    	MULS R16,R18
000DB6  0202    	MULS R16,R18
000DB7  0202    	MULS R16,R18
000DB8  0202    L114:	MULS R16,R18
000DB9  0202    	MULS R16,R18
000DBA  0202    	MULS R16,R18
000DBB  0202    	MULS R16,R18
000DBC  0303    	MULSU R16,R19
000DBD  0303    	MULSU R16,R19
000DBE  0303    	MULSU R16,R19
000DBF  0303    	MULSU R16,R19
000DC0  0303    	MULSU R16,R19
000DC1  0303    	MULSU R16,R19
000DC2  0303    	MULSU R16,R19
000DC3  0303    	MULSU R16,R19
000DC4  0303    	MULSU R16,R19
000DC5  0303    	MULSU R16,R19
000DC6  0303    	MULSU R16,R19
000DC7  0303    	MULSU R16,R19
000DC8  0303    	MULSU R16,R19
000DC9  0303    	MULSU R16,R19
000DCA  0303    	MULSU R16,R19
000DCB  0303    	MULSU R16,R19
000DCC  0303    	MULSU R16,R19
000DCD  0303    	MULSU R16,R19
000DCE  0303    	MULSU R16,R19
000DCF  0303    	MULSU R16,R19
000DD0  0303    	MULSU R16,R19
000DD1  0303    	MULSU R16,R19
000DD2  0303    	MULSU R16,R19
000DD3  0303    	MULSU R16,R19
000DD4  0202    	MULS R16,R18
000DD5  0202    L164:	MULS R16,R18
000DD6  0202    	MULS R16,R18
000DD7  0202    	MULS R16,R18
000DD8  0202    	MULS R16,R18
000DD9  0202    	MULS R16,R18
000DDA  0202    	MULS R16,R18
000DDB  0202    	MULS R16,R18
000DDC  0101    	MOVW R1:R0,R3:R2
000DDD  0101    	MOVW R1:R0,R3:R2
000DDE  0101    	MOVW R1:R0,R3:R2
000DDF  0101    	MOVW R1:R0,R3:R2
000DE0  0101    	MOVW R1:R0,R3:R2
000DE1  0101    	MOVW R1:R0,R3:R2
000DE2  0101    	MOVW R1:R0,R3:R2
000DE3  0101    	MOVW R1:R0,R3:R2
000DE4  0000    	NOP
000DE5  0000    	NOP
000DE6  0000    	NOP
000DE7  0000    	NOP
000DE8  0000    	NOP
000DE9  0000    L120:	NOP
000DEA  0000    	NOP
000DEB  0000    	NOP
000DEC  0000    	NOP
000DED  0000    	NOP
000DEE  0000    	NOP
000DEF  0000    	NOP
000DF0  0000    	NOP
000DF1  0000    	NOP
000DF2  0000    	NOP
000DF3  0000    	NOP
000DF4  0101    	MOVW R1:R0,R3:R2
000DF5  0101    	MOVW R1:R0,R3:R2
000DF6  0101    	MOVW R1:R0,R3:R2
000DF7  0101    	MOVW R1:R0,R3:R2
000DF8  0101    	MOVW R1:R0,R3:R2
000DF9  0101    	MOVW R1:R0,R3:R2
000DFA  0101    	MOVW R1:R0,R3:R2
000DFB  0101    	MOVW R1:R0,R3:R2
000DFC  0202    	MULS R16,R18
000DFD  0202    	MULS R16,R18
000DFE  0202    	MULS R16,R18
000DFF  0202    	MULS R16,R18
000E00  0202    	MULS R16,R18
000E01  0202    	MULS R16,R18
000E02  0202    	MULS R16,R18
000E03  0202    L153:	MULS R16,R18
000E04  0303    	MULSU R16,R19
000E05  0303    	MULSU R16,R19
000E06  0303    	MULSU R16,R19
000E07  0303    	MULSU R16,R19
000E08  0303    	MULSU R16,R19
000E09  0303    	MULSU R16,R19
000E0A  0303    	MULSU R16,R19
000E0B  0303    L155:	MULSU R16,R19
000E0C  0303    	MULSU R16,R19
000E0D  0303    	MULSU R16,R19
000E0E  0303    	MULSU R16,R19
000E0F  0303    	MULSU R16,R19
000E10  0303    	MULSU R16,R19
000E11  0303    	MULSU R16,R19
000E12  0303    	MULSU R16,R19
000E13  0303    L157:	MULSU R16,R19
000E14  0202    	MULS R16,R18
000E15  0202    	MULS R16,R18
000E16  0202    	MULS R16,R18
000E17  0202    	MULS R16,R18
000E18  0202    	MULS R16,R18
000E19  0202    	MULS R16,R18
000E1A  0202    	MULS R16,R18
000E1B  0202    L159:	MULS R16,R18
000E1C  0101    	MOVW R1:R0,R3:R2
000E1D  0101    	MOVW R1:R0,R3:R2
000E1E  0101    	MOVW R1:R0,R3:R2
000E1F  0101    	MOVW R1:R0,R3:R2
000E20  0101    	MOVW R1:R0,R3:R2
000E21  0101    L127:	MOVW R1:R0,R3:R2
000E22  0101    	MOVW R1:R0,R3:R2
000E23  0101    	MOVW R1:R0,R3:R2
000E24  0202    	MULS R16,R18
000E25  0202    L174:	MULS R16,R18
000E26  0202    	MULS R16,R18
000E27  0202    	MULS R16,R18
000E28  0202    	MULS R16,R18
000E29  0202    	MULS R16,R18
000E2A  0202    	MULS R16,R18
000E2B  0202    	MULS R16,R18
000E2C  0404    	CPC R0,R4
000E2D  0404    	CPC R0,R4
000E2E  0404    	CPC R0,R4
000E2F  0404    	CPC R0,R4
000E30  0404    	CPC R0,R4
000E31  0404    	CPC R0,R4
000E32  0404    	CPC R0,R4
000E33  0404    	CPC R0,R4
000E34  0000    	NOP
000E35  0000    	NOP
000E36  0000    	NOP
000E37  0000    	NOP
000E38  0000    	NOP
000E39  0000    	NOP
000E3A  0000    	NOP
000E3B  0000    	NOP
000E3C  0000    	NOP
000E3D  0000    	NOP
000E3E  0000    	NOP
000E3F  0000    	NOP
000E40  0000    L131:	NOP
000E41  0000    	NOP
000E42  0000    	NOP
000E43  0000    	NOP
000E44  0000    	NOP
000E45  0000    	NOP
000E46  0000    	NOP
000E47  0000    	NOP
000E48  0000    	NOP
000E49  0000    	NOP
000E4A  0000    	NOP
000E4B  0000    	NOP
000E4C  0303    	MULSU R16,R19
000E4D  0303    	MULSU R16,R19
000E4E  0303    	MULSU R16,R19
000E4F  0303    	MULSU R16,R19
000E50  0303    	MULSU R16,R19
000E51  0303    	MULSU R16,R19
000E52  0303    	MULSU R16,R19
000E53  0303    	MULSU R16,R19
000E54  0202    	MULS R16,R18
000E55  0202    	MULS R16,R18
000E56  0202    	MULS R16,R18
000E57  0202    	MULS R16,R18
000E58  0202    	MULS R16,R18
000E59  0202    	MULS R16,R18
000E5A  0202    	MULS R16,R18
000E5B  0202    	MULS R16,R18
000E5C  0101    	MOVW R1:R0,R3:R2
000E5D  0101    L188:	MOVW R1:R0,R3:R2
000E5E  0101    	MOVW R1:R0,R3:R2
000E5F  0101    	MOVW R1:R0,R3:R2
000E60  0101    	MOVW R1:R0,R3:R2
000E61  0101    	MOVW R1:R0,R3:R2
000E62  0101    	MOVW R1:R0,R3:R2
000E63  0101    	MOVW R1:R0,R3:R2
000E64  0000    	NOP
000E65  0000    	NOP
000E66  0000    	NOP
000E67  0000    	NOP
000E68  0000    	NOP
000E69  0000    	NOP
000E6A  0000    L104:	NOP
000E6B  0000    	NOP
000E6C  0000    	NOP
000E6D  0000    	NOP
000E6E  0000    	NOP
000E6F  0000    	NOP
000E70  0000    	NOP
000E71  0000    	NOP
000E72  0000    L105:	NOP
000E73  0000    	NOP
000E74  0101    	MOVW R1:R0,R3:R2
000E75  0101    	MOVW R1:R0,R3:R2
000E76  0101    	MOVW R1:R0,R3:R2
000E77  0101    	MOVW R1:R0,R3:R2
000E78  0101    	MOVW R1:R0,R3:R2
000E79  0101    	MOVW R1:R0,R3:R2
000E7A  0101    L106:	MOVW R1:R0,R3:R2
000E7B  0101    	MOVW R1:R0,R3:R2
000E7C  0202    	MULS R16,R18
000E7D  0202    	MULS R16,R18
000E7E  0202    	MULS R16,R18
000E7F  0202    	MULS R16,R18
000E80  0202    	MULS R16,R18
000E81  0202    	MULS R16,R18
000E82  0202    L107:	MULS R16,R18
000E83  0202    	MULS R16,R18
000E84  0303    	MULSU R16,R19
000E85  0303    	MULSU R16,R19
000E86  0303    	MULSU R16,R19
000E87  0303    	MULSU R16,R19
000E88  0303    	MULSU R16,R19
000E89  0303    	MULSU R16,R19
000E8A  0303    L108:	MULSU R16,R19
000E8B  0303    L177:	MULSU R16,R19
000E8C  0303    	MULSU R16,R19
000E8D  0303    	MULSU R16,R19
000E8E  0303    	MULSU R16,R19
000E8F  0303    	MULSU R16,R19
000E90  0303    L94:	MULSU R16,R19
000E91  0303    	MULSU R16,R19
000E92  0303    L109:	MULSU R16,R19
000E93  0303    L179:	MULSU R16,R19
000E94  0303    	MULSU R16,R19
000E95  0303    	MULSU R16,R19
000E96  0303    	MULSU R16,R19
000E97  0303    	MULSU R16,R19
000E98  0303    L96:	MULSU R16,R19
000E99  0303    	MULSU R16,R19
000E9A  0303    	MULSU R16,R19
000E9B  0303    L181:	MULSU R16,R19
000E9C  0202    	MULS R16,R18
000E9D  0202    	MULS R16,R18
000E9E  0202    	MULS R16,R18
000E9F  0202    	MULS R16,R18
000EA0  0202    L98:	MULS R16,R18
000EA1  0202    	MULS R16,R18
000EA2  0202    	MULS R16,R18
000EA3  0202    L183:	MULS R16,R18
000EA4  0101    	MOVW R1:R0,R3:R2
000EA5  0101    	MOVW R1:R0,R3:R2
000EA6  0101    	MOVW R1:R0,R3:R2
000EA7  0101    	MOVW R1:R0,R3:R2
000EA8  0101    	MOVW R1:R0,R3:R2
000EA9  0101    	MOVW R1:R0,R3:R2
000EAA  0101    	MOVW R1:R0,R3:R2
000EAB  0101    	MOVW R1:R0,R3:R2
000EAC  0000    	NOP
000EAD  0000    	NOP
000EAE  0000    	NOP
000EAF  0000    	NOP
000EB0  0000    	NOP
000EB1  0000    	NOP
000EB2  0000    	NOP
000EB3  0000    	NOP
000EB4  0000    	NOP
000EB5  0000    	NOP
000EB6  0000    	NOP
000EB7  0000    	NOP
000EB8  0000    	NOP
000EB9  0000    	NOP
000EBA  0000    	NOP
000EBB  0000    	NOP
000EBC  0101    	MOVW R1:R0,R3:R2
000EBD  0101    	MOVW R1:R0,R3:R2
000EBE  0101    	MOVW R1:R0,R3:R2
000EBF  0101    	MOVW R1:R0,R3:R2
000EC0  0101    	MOVW R1:R0,R3:R2
000EC1  0101    	MOVW R1:R0,R3:R2
000EC2  0101    	MOVW R1:R0,R3:R2
000EC3  0101    	MOVW R1:R0,R3:R2
000EC4  0202    	MULS R16,R18
000EC5  0202    	MULS R16,R18
000EC6  0202    	MULS R16,R18
000EC7  0202    	MULS R16,R18
000EC8  0202    	MULS R16,R18
000EC9  0202    	MULS R16,R18
000ECA  0202    	MULS R16,R18
000ECB  0202    	MULS R16,R18
000ECC  0303    	MULSU R16,R19
000ECD  0303    	MULSU R16,R19
000ECE  0303    	MULSU R16,R19
000ECF  0303    	MULSU R16,R19
000ED0  0303    	MULSU R16,R19
000ED1  0303    	MULSU R16,R19
000ED2  0303    	MULSU R16,R19
000ED3  0303    	MULSU R16,R19
000ED4  0303    	MULSU R16,R19
000ED5  0303    	MULSU R16,R19
000ED6  0303    	MULSU R16,R19
000ED7  0303    	MULSU R16,R19
000ED8  0303    	MULSU R16,R19
000ED9  0303    	MULSU R16,R19
000EDA  0303    	MULSU R16,R19
000EDB  0303    	MULSU R16,R19
000EDC  0202    	MULS R16,R18
000EDD  0202    	MULS R16,R18
000EDE  0202    	MULS R16,R18
000EDF  0202    	MULS R16,R18
000EE0  0202    	MULS R16,R18
000EE1  0202    	MULS R16,R18
000EE2  0202    	MULS R16,R18
000EE3  0202    	MULS R16,R18
000EE4  0101    	MOVW R1:R0,R3:R2
000EE5  0101    	MOVW R1:R0,R3:R2
000EE6  0101    	MOVW R1:R0,R3:R2
000EE7  0101    	MOVW R1:R0,R3:R2
000EE8  0101    	MOVW R1:R0,R3:R2
000EE9  0101    	MOVW R1:R0,R3:R2
000EEA  0101    	MOVW R1:R0,R3:R2
000EEB  0101    	MOVW R1:R0,R3:R2
000EEC  0000    	NOP
000EED  0000    	NOP
000EEE  0000    	NOP
000EEF  0000    	NOP
000EF0  0000    	NOP
000EF1  0000    	NOP
000EF2  0000    L121:	NOP
000EF3  0000    	NOP
000EF4  0000    	NOP
000EF5  0000    	NOP
000EF6  0000    	NOP
000EF7  0000    	NOP
000EF8  0000    	NOP
000EF9  0000    	NOP
000EFA  0000    L122:	NOP
000EFB  0000    	NOP
000EFC  0101    	MOVW R1:R0,R3:R2
000EFD  0101    	MOVW R1:R0,R3:R2
000EFE  0101    	MOVW R1:R0,R3:R2
000EFF  0101    	MOVW R1:R0,R3:R2
000F00  0101    	MOVW R1:R0,R3:R2
000F01  0101    	MOVW R1:R0,R3:R2
000F02  0101    L123:	MOVW R1:R0,R3:R2
000F03  0101    	MOVW R1:R0,R3:R2
000F04  0202    	MULS R16,R18
000F05  0202    	MULS R16,R18
000F06  0202    	MULS R16,R18
000F07  0202    	MULS R16,R18
000F08  0202    	MULS R16,R18
000F09  0202    	MULS R16,R18
000F0A  0202    L124:	MULS R16,R18
000F0B  0202    	MULS R16,R18
000F0C  0303    	MULSU R16,R19
000F0D  0303    	MULSU R16,R19
000F0E  0303    	MULSU R16,R19
000F0F  0303    	MULSU R16,R19
000F10  0303    	MULSU R16,R19
000F11  0303    	MULSU R16,R19
000F12  0303    L125:	MULSU R16,R19
000F13  0303    	MULSU R16,R19
000F14  0303    	MULSU R16,R19
000F15  0303    	MULSU R16,R19
000F16  0303    	MULSU R16,R19
000F17  0303    	MULSU R16,R19
000F18  0303    	MULSU R16,R19
000F19  0303    	MULSU R16,R19
000F1A  0303    L126:	MULSU R16,R19
000F1B  0303    	MULSU R16,R19
000F1C  0303    	MULSU R16,R19
000F1D  0303    	MULSU R16,R19
000F1E  0303    	MULSU R16,R19
000F1F  0303    	MULSU R16,R19
000F20  0303    	MULSU R16,R19
000F21  0303    	MULSU R16,R19
000F22  0303    	MULSU R16,R19
000F23  0303    	MULSU R16,R19
000F24  0202    	MULS R16,R18
000F25  0202    	MULS R16,R18
000F26  0202    	MULS R16,R18
000F27  0202    	MULS R16,R18
000F28  0202    	MULS R16,R18
000F29  0202    	MULS R16,R18
000F2A  0202    	MULS R16,R18
000F2B  0202    	MULS R16,R18
000F2C  0101    	MOVW R1:R0,R3:R2
000F2D  0101    	MOVW R1:R0,R3:R2
000F2E  0101    	MOVW R1:R0,R3:R2
000F2F  0101    	MOVW R1:R0,R3:R2
000F30  0101    	MOVW R1:R0,R3:R2
000F31  0101    	MOVW R1:R0,R3:R2
000F32  0101    	MOVW R1:R0,R3:R2
000F33  0101    	MOVW R1:R0,R3:R2
000F34  0000    	NOP
000F35  0000    	NOP
000F36  0000    	NOP
000F37  0000    	NOP
000F38  0000    	NOP
000F39  0000    	NOP
000F3A  0000    	NOP
000F3B  0000    	NOP
000F3C  0000    	NOP
000F3D  0000    	NOP
000F3E  0000    	NOP
000F3F  0000    	NOP
000F40  0000    	NOP
000F41  0000    	NOP
000F42  0000    	NOP
000F43  0000    	NOP
000F44  0101    	MOVW R1:R0,R3:R2
000F45  0101    	MOVW R1:R0,R3:R2
000F46  0101    	MOVW R1:R0,R3:R2
000F47  0101    	MOVW R1:R0,R3:R2
000F48  0101    	MOVW R1:R0,R3:R2
000F49  0101    	MOVW R1:R0,R3:R2
000F4A  0101    	MOVW R1:R0,R3:R2
000F4B  0101    	MOVW R1:R0,R3:R2
000F4C  0202    	MULS R16,R18
000F4D  0202    	MULS R16,R18
000F4E  0202    	MULS R16,R18
000F4F  0202    	MULS R16,R18
000F50  0202    	MULS R16,R18
000F51  0202    	MULS R16,R18
000F52  0202    	MULS R16,R18
000F53  0202    	MULS R16,R18
000F54  0303    	MULSU R16,R19
000F55  0303    	MULSU R16,R19
000F56  0303    	MULSU R16,R19
000F57  0303    	MULSU R16,R19
000F58  0303    	MULSU R16,R19
000F59  0303    	MULSU R16,R19
000F5A  0303    	MULSU R16,R19
000F5B  0303    	MULSU R16,R19
000F5C  0303    	MULSU R16,R19
000F5D  0303    	MULSU R16,R19
000F5E  0303    	MULSU R16,R19
000F5F  0303    	MULSU R16,R19
000F60  0303    	MULSU R16,R19
000F61  0303    	MULSU R16,R19
000F62  0303    	MULSU R16,R19
000F63  0303    	MULSU R16,R19
000F64  0202    	MULS R16,R18
000F65  0202    	MULS R16,R18
000F66  0202    	MULS R16,R18
000F67  0202    	MULS R16,R18
000F68  0202    	MULS R16,R18
000F69  0202    	MULS R16,R18
000F6A  0202    	MULS R16,R18
000F6B  0202    	MULS R16,R18
000F6C  0101    	MOVW R1:R0,R3:R2
000F6D  0101    	MOVW R1:R0,R3:R2
000F6E  0101    	MOVW R1:R0,R3:R2
000F6F  0101    	MOVW R1:R0,R3:R2
000F70  0101    	MOVW R1:R0,R3:R2
000F71  0101    	MOVW R1:R0,R3:R2
000F72  0101    	MOVW R1:R0,R3:R2
000F73  0101    	MOVW R1:R0,R3:R2
000F74  0000    	NOP
000F75  0000    	NOP
000F76  0000    	NOP
000F77  0000    	NOP
000F78  0000    	NOP
000F79  0000    	NOP
000F7A  0000    	NOP
000F7B  0000    	NOP
000F7C  0000    	NOP
000F7D  0000    	NOP
000F7E  0000    	NOP
000F7F  0000    	NOP
000F80  0000    	NOP
000F81  0000    	NOP
000F82  0000    	NOP
000F83  0000    	NOP
000F84  2828    	OR R2,R8
000F85  2828    	OR R2,R8
000F86  2828    	OR R2,R8
000F87  2828    	OR R2,R8
000F88  2828    	OR R2,R8
000F89  2828    	OR R2,R8
000F8A  2828    	OR R2,R8
000F8B  2828    	OR R2,R8
000F8C  3C3C    	CPI R19,$CC
000F8D  3C3C    	CPI R19,$CC
000F8E  3C3C    	CPI R19,$CC
000F8F  3C3C    	CPI R19,$CC
000F90  3C3C    	CPI R19,$CC
000F91  3C3C    	CPI R19,$CC
000F92  3C3C    	CPI R19,$CC
000F93  3C3C    	CPI R19,$CC
000F94  0000    	NOP
000F95  0000    	NOP
000F96  0000    	NOP
000F97  0000    	NOP
000F98  0000    	NOP
000F99  0000    	NOP
000F9A  0000    	NOP
000F9B  0000    	NOP
000F9C  001E    	UNRECOGNIZED
000F9D  0001    	UNRECOGNIZED
000F9E  0001    	UNRECOGNIZED
000F9F  0001    	UNRECOGNIZED
000FA0  0001    	UNRECOGNIZED
000FA1  0001    	UNRECOGNIZED
000FA2  0001    	UNRECOGNIZED
000FA3  0001    	UNRECOGNIZED
000FA4  0001    	UNRECOGNIZED
000FA5  0001    	UNRECOGNIZED
000FA6  0001    	UNRECOGNIZED
000FA7  0001    	UNRECOGNIZED
000FA8  0001    	UNRECOGNIZED
000FA9  0001    	UNRECOGNIZED
000FAA  0001    	UNRECOGNIZED
000FAB  0001    	UNRECOGNIZED
000FAC  0001    	UNRECOGNIZED
000FAD  0001    	UNRECOGNIZED
000FAE  0001    	UNRECOGNIZED
000FAF  0001    	UNRECOGNIZED
000FB0  0001    	UNRECOGNIZED
000FB1  0001    	UNRECOGNIZED
000FB2  0001    	UNRECOGNIZED
000FB3  0001    	UNRECOGNIZED
000FB4  0001    	UNRECOGNIZED
000FB5  0001    	UNRECOGNIZED
000FB6  0001    	UNRECOGNIZED
000FB7  0001    	UNRECOGNIZED
000FB8  0001    	UNRECOGNIZED
000FB9  0001    	UNRECOGNIZED
000FBA  0001    	UNRECOGNIZED
000FBB  0001    	UNRECOGNIZED
000FBC  0001    	UNRECOGNIZED
000FBD  0001    	UNRECOGNIZED
000FBE  0001    	UNRECOGNIZED
000FBF  0001    	UNRECOGNIZED
000FC0  0001    	UNRECOGNIZED
000FC1  0001    	UNRECOGNIZED
000FC2  0001    	UNRECOGNIZED
000FC3  0001    	UNRECOGNIZED
000FC4  0001    	UNRECOGNIZED
000FC5  0019    	UNRECOGNIZED
000FC6  03E8    	FMULSU R22,R16
000FC7  0019    	UNRECOGNIZED
000FC8  0019    L136:	UNRECOGNIZED
000FC9  0019    	UNRECOGNIZED
000FCA  0019    	UNRECOGNIZED
000FCB  0019    	UNRECOGNIZED
000FCC  0019    	UNRECOGNIZED
000FCD  0019    	UNRECOGNIZED
000FCE  0019    	UNRECOGNIZED
000FCF  0019    	UNRECOGNIZED
000FD0  0019    L138:	UNRECOGNIZED
000FD1  0019    	UNRECOGNIZED
000FD2  0019    	UNRECOGNIZED
000FD3  0019    	UNRECOGNIZED
000FD4  0019    	UNRECOGNIZED
000FD5  0019    	UNRECOGNIZED
000FD6  0019    	UNRECOGNIZED
000FD7  0019    	UNRECOGNIZED
000FD8  0019    	UNRECOGNIZED
000FD9  0019    	UNRECOGNIZED
000FDA  0019    	UNRECOGNIZED
000FDB  0019    	UNRECOGNIZED
000FDC  0019    	UNRECOGNIZED
000FDD  0019    	UNRECOGNIZED
000FDE  0019    	UNRECOGNIZED
000FDF  0019    	UNRECOGNIZED
000FE0  0019    	UNRECOGNIZED
000FE1  0019    	UNRECOGNIZED
000FE2  0019    	UNRECOGNIZED
000FE3  0019    	UNRECOGNIZED
000FE4  0019    	UNRECOGNIZED
000FE5  0019    	UNRECOGNIZED
000FE6  0019    	UNRECOGNIZED
000FE7  0019    	UNRECOGNIZED
000FE8  0019    	UNRECOGNIZED
000FE9  0019    	UNRECOGNIZED
000FEA  0019    	UNRECOGNIZED
000FEB  0019    	UNRECOGNIZED
000FEC  0019    	UNRECOGNIZED
000FED  0019    	UNRECOGNIZED
000FEE  0019    	UNRECOGNIZED
000FEF  01F4    	MOVW R31:R30,R9:R8
000FF0  B37D    	IN R23,EEDR
000FF1  58C7    	SUBI YL,$87
000FF2  7E6C    	ANDI R22,$EC
000FF3  3148    	CPI R20,$18
000FF4  8DA3    	LDD XL,Z+27
000FF5  7F59    	ANDI R21,$F9
000FF6  9F2F    	MUL R18,ZH
000FF7  AB70    	STD Z+48,R23
000FF8  B37D    	IN R23,EEDR
000FF9  58C7    	SUBI YL,$87
000FFA  7E6C    	ANDI R22,$EC
000FFB  3148    	CPI R20,$18
000FFC  8DA3    	LDD XL,Z+27
000FFD  7F59    	ANDI R21,$F9
000FFE  9F2F    	MUL R18,ZH
000FFF  AB70    	STD Z+48,R23
001000  8D7C    	LDD R23,Y+28
001001  56DF    	SUBI YH,$6F
001002  7D6B    	ANDI R22,$DB
001003  1B5A    	SUB R21,XL
001004  8B91    	STD Z+17,R25
001005  7F59    	ANDI R21,$F9
001006  9F2F    	MUL R18,ZH
001007  AB70    	STD Z+48,R23
001008  9281    	ST Z+,R8
001009  56D8    	SUBI YH,$68
00100A  8370    	ST Z,R23
00100B  145F    	CP R5,R15
00100C  918F    	POP R24
00100D  7F59    	ANDI R21,$F9
00100E  9F2F    	MUL R18,ZH
00100F  AB70    	STD Z+48,R23
001010  9683    	ADIW R25:R24,35
001011  57D5    	SUBI YH,$75
001012  8672    	STD Z+10,R7
001013  1263    	CPSE R6,R19
001014  9490    	COM R9
001015  7F59    	ANDI R21,$F9
001016  9F2F    	MUL R18,ZH
001017  AB70    	STD Z+48,R23
001018  9A84    	SBI PIND,PIND4
001019  59D4    	SUBI YH,$94
00101A  8873    	LDD R7,Z+19
00101B  1067    	CPSE R6,R7
00101C  9692    	ADIW XH:XL,34
00101D  7F59    	ANDI R21,$F9
00101E  9F2F    	MUL R18,ZH
00101F  AB70    	STD Z+48,R23
001020  9D84    	MUL R24,R4
001021  5CD3    	SUBI YH,$C3
001022  8873    	LDD R7,Z+19
001023  0F6B    	ADD R22,XH
001024  9695    	ADIW XH:XL,37
001025  7F59    	ANDI R21,$F9
001026  9F2F    	MUL R18,ZH
001027  AB70    	STD Z+48,R23
001028  A084    	LDD R8,Z+36
001029  5FD4    	SUBI YH,$F4
00102A  8873    	LDD R7,Z+19
00102B  106E    	CPSE R6,R14
00102C  9698    	ADIW XH:XL,40
00102D  7F59    	ANDI R21,$F9
00102E  9F2F    	MUL R18,ZH
00102F  AB70    	STD Z+48,R23
001030  A183    	LDD R24,Z+35
001031  62D5    	ORI YH,$25
001032  8672    	STD Z+10,R7
001033  126F    	CPSE R6,ZH
001034  949C    	JMP $127F59
001035  7F59
001036  9F2F    	MUL R18,ZH
001037  AB70    	STD Z+48,R23
001038  A181    	LDD R24,Z+33
001039  65D8    	ORI YH,$58
00103A  8370    	ST Z,R23
00103B  146F    	CP R6,R15
00103C  919F    	POP R25
00103D  7F59    	ANDI R21,$F9
00103E  9F2F    	MUL R18,ZH
00103F  AB70    	STD Z+48,R23
001040  A17F    	LDD R23,Y+39
001041  67DB    	ORI YH,$7B
001042  806E    	LDD R6,Y+6
001043  186E    	SUB R6,R14
001044  8EA2    	STD Z+26,R10
001045  7F59    	ANDI R21,$F9
001046  9F2F    	MUL R18,ZH
001047  AB70    	STD Z+48,R23
001048  9F7D    	MUL R23,YH
001049  69DF    	ORI YH,$9F
00104A  7E6C    	ANDI R22,$EC
00104B  1B6C    	SUB R22,YL
00104C  8CA4    	LDD R10,Z+28
00104D  7F59    	ANDI R21,$F9
00104E  9F2F    	MUL R18,ZH
00104F  AB70    	STD Z+48,R23
001050  9D7A    	MUL R23,R10
001051  6AE2    	ORI ZL,$A2
001052  7B69    	ANDI R22,$B9
001053  1F6A    	ADC R22,XL
001054  89A4    	LDD XL,Z+20
001055  7F59    	ANDI R21,$F9
001056  9F2F    	MUL R18,ZH
001057  AB70    	STD Z+48,R23
001058  9A77    	SBI SPSR,SPIF
001059  6BE6    	ORI ZL,$B6
00105A  7966    	ANDI R22,$96
00105B  2267    	AND R6,R23
00105C  87A4    	STD Z+12,XL
00105D  7F59    	ANDI R21,$F9
00105E  9F2F    	MUL R18,ZH
00105F  AB70    	STD Z+48,R23
001060  9674    	ADIW ZH:ZL,20
001061  6AE8    	ORI ZL,$A8
001062  7763    	ANDI R22,$73
001063  2563    	EOR R22,R3
001064  85A3    	LDD XL,Z+11
001065  7F59    	ANDI R21,$F9
001066  9F2F    	MUL R18,ZH
001067  AB70    	STD Z+48,R23
001068  9272    	ST -Z,R7
001069  68EA    	ORI ZL,$8A
00106A  7661    	ANDI R22,$61
00106B  265F    	EOR R5,ZH
00106C  84A1    	LDD R10,Z+9
00106D  7F59    	ANDI R21,$F9
00106E  9F2F    	MUL R18,ZH
00106F  AB70    	STD Z+48,R23
001070  8E72    	STD Z+26,R7
001071  65EB    	ORI ZL,$5B
001072  7661    	ANDI R22,$61
001073  275C    	EOR R21,YL
001074  849E    	LDD R9,Y+14
001075  7F59    	ANDI R21,$F9
001076  9F2F    	MUL R18,ZH
001077  AB70    	STD Z+48,R23
001078  8B72    	STD Z+18,R23
001079  62EA    	ORI ZL,$2A
00107A  7661    	ANDI R22,$61
00107B  2659    	EOR R5,R25
00107C  849B    	LDD R9,Y+11
00107D  7F59    	ANDI R21,$F9
00107E  9F2F    	MUL R18,ZH
00107F  AB70    	STD Z+48,R23
001080  8A74    	STD Z+20,R7
001081  5EE8    	SUBI ZL,$E8
001082  7763    	ANDI R22,$73
001083  2558    	EOR R21,R8
001084  8598    	LDD R25,Y+8
001085  7F59    	ANDI R21,$F9
001086  9F2F    	MUL R18,ZH
001087  AB70    	STD Z+48,R23
001088  8A77    	STD Z+23,R7
001089  5BE6    	SUBI ZL,$B6
00108A  7966    	ANDI R22,$96
00108B  2258    	AND R5,R24
00108C  8795    	STD Z+13,R25
00108D  7F59    	ANDI R21,$F9
00108E  9F2F    	MUL R18,ZH
00108F  AB70    	STD Z+48,R23
001090  8B7A    	STD Y+18,R23
001091  58E2    	SUBI ZL,$82
001092  7B69    	ANDI R22,$B9
001093  1F58    	ADC R21,R24
001094  8993    	LDD R25,Z+19
001095  7F59    	ANDI R21,$F9
001096  9F2F    	MUL R18,ZH
001097  AB70    	STD Z+48,R23
001098  8B7A    	STD Y+18,R23
001099  58E2    	SUBI ZL,$82
00109A  7B69    	ANDI R22,$B9
00109B  1F58    	ADC R21,R24
00109C  8993    	LDD R25,Z+19
00109D  7F59    	ANDI R21,$F9
00109E  9F2F    	MUL R18,ZH
00109F  AB70    	STD Z+48,R23
0010A0  8D7C    	LDD R23,Y+28
0010A1  56DF    	SUBI YH,$6F
0010A2  7D6B    	ANDI R22,$DB
0010A3  1B5A    	SUB R21,XL
0010A4  8B91    	STD Z+17,R25
0010A5  7F59    	ANDI R21,$F9
0010A6  9F2F    	MUL R18,ZH
0010A7  AB70    	STD Z+48,R23
0010A8  9281    	ST Z+,R8
0010A9  56D8    	SUBI YH,$68
0010AA  8370    	ST Z,R23
0010AB  145F    	CP R5,R15
0010AC  918F    	POP R24
0010AD  7F59    	ANDI R21,$F9
0010AE  9F2F    	MUL R18,ZH
0010AF  AB70    	STD Z+48,R23
0010B0  9683    	ADIW R25:R24,35
0010B1  57D5    	SUBI YH,$75
0010B2  8672    	STD Z+10,R7
0010B3  1263    	CPSE R6,R19
0010B4  9490    	COM R9
0010B5  7F59    	ANDI R21,$F9
0010B6  9F2F    	MUL R18,ZH
0010B7  AB70    	STD Z+48,R23
0010B8  9A84    	SBI PIND,PIND4
0010B9  59D4    	SUBI YH,$94
0010BA  8873    	LDD R7,Z+19
0010BB  1067    	CPSE R6,R7
0010BC  9692    	ADIW XH:XL,34
0010BD  7F59    	ANDI R21,$F9
0010BE  9F2F    	MUL R18,ZH
0010BF  AB70    	STD Z+48,R23
0010C0  9D84    	MUL R24,R4
0010C1  5CD3    	SUBI YH,$C3
0010C2  8873    	LDD R7,Z+19
0010C3  0F6B    	ADD R22,XH
0010C4  9695    	ADIW XH:XL,37
0010C5  7F59    	ANDI R21,$F9
0010C6  9F2F    	MUL R18,ZH
0010C7  AB70    	STD Z+48,R23
0010C8  A084    	LDD R8,Z+36
0010C9  5FD4    	SUBI YH,$F4
0010CA  8873    	LDD R7,Z+19
0010CB  106E    	CPSE R6,R14
0010CC  9698    	ADIW XH:XL,40
0010CD  7F59    	ANDI R21,$F9
0010CE  9F2F    	MUL R18,ZH
0010CF  AB70    	STD Z+48,R23
0010D0  A183    	LDD R24,Z+35
0010D1  62D5    	ORI YH,$25
0010D2  8672    	STD Z+10,R7
0010D3  126F    	CPSE R6,ZH
0010D4  949C    	JMP $127F59
0010D5  7F59
0010D6  9F2F    	MUL R18,ZH
0010D7  AB70    	STD Z+48,R23
0010D8  A181    	LDD R24,Z+33
0010D9  65D8    	ORI YH,$58
0010DA  8370    	ST Z,R23
0010DB  146F    	CP R6,R15
0010DC  919F    	POP R25
0010DD  7F59    	ANDI R21,$F9
0010DE  9F2F    	MUL R18,ZH
0010DF  AB70    	STD Z+48,R23
0010E0  A17F    	LDD R23,Y+39
0010E1  67DB    	ORI YH,$7B
0010E2  806E    	LDD R6,Y+6
0010E3  186E    	SUB R6,R14
0010E4  8EA2    	STD Z+26,R10
0010E5  7F59    	ANDI R21,$F9
0010E6  9F2F    	MUL R18,ZH
0010E7  AB70    	STD Z+48,R23
0010E8  9F7D    	MUL R23,YH
0010E9  69DF    	ORI YH,$9F
0010EA  7E6C    	ANDI R22,$EC
0010EB  1B6C    	SUB R22,YL
0010EC  8CA4    	LDD R10,Z+28
0010ED  7F59    	ANDI R21,$F9
0010EE  9F2F    	MUL R18,ZH
0010EF  AB70    	STD Z+48,R23
0010F0  9D7A    	MUL R23,R10
0010F1  6AE2    	ORI ZL,$A2
0010F2  7B69    	ANDI R22,$B9
0010F3  1F6A    	ADC R22,XL
0010F4  89A4    	LDD XL,Z+20
0010F5  7F59    	ANDI R21,$F9
0010F6  9F2F    	MUL R18,ZH
0010F7  AB70    	STD Z+48,R23
0010F8  9A77    	SBI SPSR,SPIF
0010F9  6BE6    	ORI ZL,$B6
0010FA  7966    	ANDI R22,$96
0010FB  2267    	AND R6,R23
0010FC  87A4    	STD Z+12,XL
0010FD  7F59    	ANDI R21,$F9
0010FE  9F2F    	MUL R18,ZH
0010FF  AB70    	STD Z+48,R23
001100  9674    	ADIW ZH:ZL,20
001101  6AE8    	ORI ZL,$A8
001102  7763    	ANDI R22,$73
001103  2563    	EOR R22,R3
001104  85A3    	LDD XL,Z+11
001105  7F59    	ANDI R21,$F9
001106  9F2F    	MUL R18,ZH
001107  AB70    	STD Z+48,R23
001108  9272    	ST -Z,R7
001109  68EA    	ORI ZL,$8A
00110A  7661    	ANDI R22,$61
00110B  265F    	EOR R5,ZH
00110C  84A1    	LDD R10,Z+9
00110D  7F59    	ANDI R21,$F9
00110E  9F2F    	MUL R18,ZH
00110F  AB70    	STD Z+48,R23
001110  8E72    	STD Z+26,R7
001111  65EB    	ORI ZL,$5B
001112  7661    	ANDI R22,$61
001113  275C    	EOR R21,YL
001114  849E    	LDD R9,Y+14
001115  7F59    	ANDI R21,$F9
001116  9F2F    	MUL R18,ZH
001117  AB70    	STD Z+48,R23
001118  8B72    	STD Z+18,R23
001119  62EA    	ORI ZL,$2A
00111A  7661    	ANDI R22,$61
00111B  2659    	EOR R5,R25
00111C  849B    	LDD R9,Y+11
00111D  7F59    	ANDI R21,$F9
00111E  9F2F    	MUL R18,ZH
00111F  AB70    	STD Z+48,R23
001120  8A74    	STD Z+20,R7
001121  5EE8    	SUBI ZL,$E8
001122  7763    	ANDI R22,$73
001123  2558    	EOR R21,R8
001124  8598    	LDD R25,Y+8
001125  7F59    	ANDI R21,$F9
001126  9F2F    	MUL R18,ZH
001127  AB70    	STD Z+48,R23
001128  8A77    	STD Z+23,R7
001129  5BE6    	SUBI ZL,$B6
00112A  7966    	ANDI R22,$96
00112B  2258    	AND R5,R24
00112C  8795    	STD Z+13,R25
00112D  7F59    	ANDI R21,$F9
00112E  9F2F    	MUL R18,ZH
00112F  AB70    	STD Z+48,R23
001130  8B7A    	STD Y+18,R23
001131  58E2    	SUBI ZL,$82
001132  7B69    	ANDI R22,$B9
001133  1F58    	ADC R21,R24
001134  8993    	LDD R25,Z+19
001135  7F59    	ANDI R21,$F9
001136  9F2F    	MUL R18,ZH
001137  AB70    	STD Z+48,R23
001138  8B7A    	STD Y+18,R23
001139  58E2    	SUBI ZL,$82
00113A  7B69    	ANDI R22,$B9
00113B  1F58    	ADC R21,R24
00113C  8993    	LDD R25,Z+19
00113D  7F59    	ANDI R21,$F9
00113E  9F2F    	MUL R18,ZH
00113F  AB70    	STD Z+48,R23
001140  B37D    	IN R23,EEDR
001141  58C7    	SUBI YL,$87
001142  7E6C    	ANDI R22,$EC
001143  3148    	CPI R20,$18
001144  8DA3    	LDD XL,Z+27
001145  7F59    	ANDI R21,$F9
001146  9F2F    	MUL R18,ZH
001147  AB70    	STD Z+48,R23
001148  0202    	MULS R16,R18
001149  0202    	MULS R16,R18
00114A  0202    	MULS R16,R18
00114B  0202    	MULS R16,R18
00114C  0202    	MULS R16,R18
00114D  0202    	MULS R16,R18
00114E  0202    	MULS R16,R18
00114F  0202    	MULS R16,R18
001150  0000    	NOP
001151  0000    	NOP
001152  0000    	NOP
001153  0000    	NOP
001154  0000    	NOP
001155  0000    	NOP
001156  0000    	NOP
001157  0000    	NOP
001158  0303    	MULSU R16,R19
001159  0303    	MULSU R16,R19
00115A  0303    	MULSU R16,R19
00115B  0303    	MULSU R16,R19
00115C  0303    	MULSU R16,R19
00115D  0303    	MULSU R16,R19
00115E  0303    	MULSU R16,R19
00115F  0303    	MULSU R16,R19
001160  0202    	MULS R16,R18
001161  0202    	MULS R16,R18
001162  0202    	MULS R16,R18
001163  0202    	MULS R16,R18
001164  0202    	MULS R16,R18
001165  0202    	MULS R16,R18
001166  0202    	MULS R16,R18
001167  0202    	MULS R16,R18
001168  0202    	MULS R16,R18
001169  0202    	MULS R16,R18
00116A  0202    	MULS R16,R18
00116B  0202    	MULS R16,R18
00116C  0202    	MULS R16,R18
00116D  0202    	MULS R16,R18
00116E  0202    	MULS R16,R18
00116F  0202    	MULS R16,R18
001170  0101    	MOVW R1:R0,R3:R2
001171  0101    	MOVW R1:R0,R3:R2
001172  0101    	MOVW R1:R0,R3:R2
001173  0101    	MOVW R1:R0,R3:R2
001174  0101    	MOVW R1:R0,R3:R2
001175  0101    	MOVW R1:R0,R3:R2
001176  0101    	MOVW R1:R0,R3:R2
001177  0101    	MOVW R1:R0,R3:R2
001178  0000    	NOP
001179  0000    	NOP
00117A  0000    	NOP
00117B  0000    	NOP
00117C  0000    	NOP
00117D  0000    	NOP
00117E  0000    	NOP
00117F  0000    	NOP
001180  0000    	NOP
001181  0000    	NOP
001182  0000    	NOP
001183  0000    	NOP
001184  0000    	NOP
001185  0000    	NOP
001186  0000    	NOP
001187  0000    	NOP
001188  0101    	MOVW R1:R0,R3:R2
001189  0101    	MOVW R1:R0,R3:R2
00118A  0101    	MOVW R1:R0,R3:R2
00118B  0101    	MOVW R1:R0,R3:R2
00118C  0101    	MOVW R1:R0,R3:R2
00118D  0101    	MOVW R1:R0,R3:R2
00118E  0101    	MOVW R1:R0,R3:R2
00118F  0101    	MOVW R1:R0,R3:R2
001190  0101    	MOVW R1:R0,R3:R2
001191  0101    	MOVW R1:R0,R3:R2
001192  0101    	MOVW R1:R0,R3:R2
001193  0101    	MOVW R1:R0,R3:R2
001194  0101    	MOVW R1:R0,R3:R2
001195  0101    L149:	MOVW R1:R0,R3:R2
001196  0101    	MOVW R1:R0,R3:R2
001197  0101    	MOVW R1:R0,R3:R2
001198  0202    	MULS R16,R18
001199  0202    	MULS R16,R18
00119A  0202    	MULS R16,R18
00119B  0202    	MULS R16,R18
00119C  0202    	MULS R16,R18
00119D  0202    	MULS R16,R18
00119E  0202    	MULS R16,R18
00119F  0202    	MULS R16,R18
0011A0  0303    	MULSU R16,R19
0011A1  0303    	MULSU R16,R19
0011A2  0303    	MULSU R16,R19
0011A3  0303    	MULSU R16,R19
0011A4  0303    	MULSU R16,R19
0011A5  0303    	MULSU R16,R19
0011A6  0303    	MULSU R16,R19
0011A7  0303    	MULSU R16,R19
0011A8  0303    	MULSU R16,R19
0011A9  0303    	MULSU R16,R19
0011AA  0303    	MULSU R16,R19
0011AB  0303    	MULSU R16,R19
0011AC  0303    	MULSU R16,R19
0011AD  0303    	MULSU R16,R19
0011AE  0303    	MULSU R16,R19
0011AF  0303    	MULSU R16,R19
0011B0  0202    	MULS R16,R18
0011B1  0202    	MULS R16,R18
0011B2  0202    	MULS R16,R18
0011B3  0202    	MULS R16,R18
0011B4  0202    	MULS R16,R18
0011B5  0202    	MULS R16,R18
0011B6  0202    	MULS R16,R18
0011B7  0202    	MULS R16,R18
0011B8  0202    	MULS R16,R18
0011B9  0202    	MULS R16,R18
0011BA  0202    	MULS R16,R18
0011BB  0202    	MULS R16,R18
0011BC  0202    	MULS R16,R18
0011BD  0202    	MULS R16,R18
0011BE  0202    	MULS R16,R18
0011BF  0202    	MULS R16,R18
0011C0  0101    	MOVW R1:R0,R3:R2
0011C1  0101    	MOVW R1:R0,R3:R2
0011C2  0101    	MOVW R1:R0,R3:R2
0011C3  0101    	MOVW R1:R0,R3:R2
0011C4  0101    	MOVW R1:R0,R3:R2
0011C5  0101    	MOVW R1:R0,R3:R2
0011C6  0101    	MOVW R1:R0,R3:R2
0011C7  0101    	MOVW R1:R0,R3:R2
0011C8  0000    	NOP
0011C9  0000    	NOP
0011CA  0000    	NOP
0011CB  0000    	NOP
0011CC  0000    	NOP
0011CD  0000    	NOP
0011CE  0000    	NOP
0011CF  0000    	NOP
0011D0  0000    	NOP
0011D1  0000    	NOP
0011D2  0000    	NOP
0011D3  0000    	NOP
0011D4  0000    	NOP
0011D5  0000    	NOP
0011D6  0000    	NOP
0011D7  0000    	NOP
0011D8  0101    	MOVW R1:R0,R3:R2
0011D9  0101    	MOVW R1:R0,R3:R2
0011DA  0101    	MOVW R1:R0,R3:R2
0011DB  0101    	MOVW R1:R0,R3:R2
0011DC  0101    	MOVW R1:R0,R3:R2
0011DD  0101    L165:	MOVW R1:R0,R3:R2
0011DE  0101    	MOVW R1:R0,R3:R2
0011DF  0101    	MOVW R1:R0,R3:R2
0011E0  0101    	MOVW R1:R0,R3:R2
0011E1  0101    	MOVW R1:R0,R3:R2
0011E2  0101    	MOVW R1:R0,R3:R2
0011E3  0101    	MOVW R1:R0,R3:R2
0011E4  0101    	MOVW R1:R0,R3:R2
0011E5  0101    	MOVW R1:R0,R3:R2
0011E6  0101    	MOVW R1:R0,R3:R2
0011E7  0101    	MOVW R1:R0,R3:R2
0011E8  0202    	MULS R16,R18
0011E9  0202    	MULS R16,R18
0011EA  0202    	MULS R16,R18
0011EB  0202    	MULS R16,R18
0011EC  0202    	MULS R16,R18
0011ED  0202    	MULS R16,R18
0011EE  0202    	MULS R16,R18
0011EF  0202    	MULS R16,R18
0011F0  0000    	NOP
0011F1  0000    	NOP
0011F2  0000    	NOP
0011F3  0000    	NOP
0011F4  0000    	NOP
0011F5  0000    	NOP
0011F6  0000    	NOP
0011F7  0000    	NOP
0011F8  0303    	MULSU R16,R19
0011F9  0303    	MULSU R16,R19
0011FA  0303    	MULSU R16,R19
0011FB  0303    	MULSU R16,R19
0011FC  0303    	MULSU R16,R19
0011FD  0303    	MULSU R16,R19
0011FE  0303    	MULSU R16,R19
0011FF  0303    	MULSU R16,R19
001200  0202    	MULS R16,R18
001201  0202    	MULS R16,R18
001202  0202    	MULS R16,R18
001203  0202    	MULS R16,R18
001204  0202    	MULS R16,R18
001205  0202    	MULS R16,R18
001206  0202    	MULS R16,R18
001207  0202    	MULS R16,R18
001208  0202    	MULS R16,R18
001209  0202    	MULS R16,R18
00120A  0202    	MULS R16,R18
00120B  0202    	MULS R16,R18
00120C  0202    	MULS R16,R18
00120D  0202    	MULS R16,R18
00120E  0202    	MULS R16,R18
00120F  0202    	MULS R16,R18
001210  0101    	MOVW R1:R0,R3:R2
001211  0101    	MOVW R1:R0,R3:R2
001212  0101    	MOVW R1:R0,R3:R2
001213  0101    	MOVW R1:R0,R3:R2
001214  0101    	MOVW R1:R0,R3:R2
001215  0101    	MOVW R1:R0,R3:R2
001216  0101    	MOVW R1:R0,R3:R2
001217  0101    	MOVW R1:R0,R3:R2
001218  0000    	NOP
001219  0000    	NOP
00121A  0000    	NOP
00121B  0000    	NOP
00121C  0000    	NOP
00121D  0000    L173:	NOP
00121E  0000    	NOP
00121F  0000    	NOP
001220  0000    	NOP
001221  0000    	NOP
001222  0000    	NOP
001223  0000    	NOP
001224  0000    	NOP
001225  0000    	NOP
001226  0000    	NOP
001227  0000    	NOP
001228  0101    	MOVW R1:R0,R3:R2
001229  0101    	MOVW R1:R0,R3:R2
00122A  0101    	MOVW R1:R0,R3:R2
00122B  0101    	MOVW R1:R0,R3:R2
00122C  0101    	MOVW R1:R0,R3:R2
00122D  0101    	MOVW R1:R0,R3:R2
00122E  0101    	MOVW R1:R0,R3:R2
00122F  0101    	MOVW R1:R0,R3:R2
001230  0101    	MOVW R1:R0,R3:R2
001231  0101    	MOVW R1:R0,R3:R2
001232  0101    	MOVW R1:R0,R3:R2
001233  0101    	MOVW R1:R0,R3:R2
001234  0101    	MOVW R1:R0,R3:R2
001235  0101    	MOVW R1:R0,R3:R2
001236  0101    	MOVW R1:R0,R3:R2
001237  0101    	MOVW R1:R0,R3:R2
001238  0202    	MULS R16,R18
001239  0202    	MULS R16,R18
00123A  0202    	MULS R16,R18
00123B  0202    	MULS R16,R18
00123C  0202    	MULS R16,R18
00123D  0202    	MULS R16,R18
00123E  0202    	MULS R16,R18
00123F  0202    	MULS R16,R18
001240  0303    	MULSU R16,R19
001241  0303    	MULSU R16,R19
001242  0303    	MULSU R16,R19
001243  0303    	MULSU R16,R19
001244  0303    	MULSU R16,R19
001245  0303    	MULSU R16,R19
001246  0303    	MULSU R16,R19
001247  0303    	MULSU R16,R19
001248  0303    	MULSU R16,R19
001249  0303    	MULSU R16,R19
00124A  0303    	MULSU R16,R19
00124B  0303    	MULSU R16,R19
00124C  0303    	MULSU R16,R19
00124D  0303    	MULSU R16,R19
00124E  0303    	MULSU R16,R19
00124F  0303    	MULSU R16,R19
001250  0202    	MULS R16,R18
001251  0202    	MULS R16,R18
001252  0202    	MULS R16,R18
001253  0202    	MULS R16,R18
001254  0202    	MULS R16,R18
001255  0202    	MULS R16,R18
001256  0202    	MULS R16,R18
001257  0202    	MULS R16,R18
001258  0202    	MULS R16,R18
001259  0202    	MULS R16,R18
00125A  0202    	MULS R16,R18
00125B  0202    	MULS R16,R18
00125C  0202    	MULS R16,R18
00125D  0202    	MULS R16,R18
00125E  0202    	MULS R16,R18
00125F  0202    	MULS R16,R18
001260  0101    	MOVW R1:R0,R3:R2
001261  0101    	MOVW R1:R0,R3:R2
001262  0101    	MOVW R1:R0,R3:R2
001263  0101    	MOVW R1:R0,R3:R2
001264  0101    	MOVW R1:R0,R3:R2
001265  0101    L189:	MOVW R1:R0,R3:R2
001266  0101    	MOVW R1:R0,R3:R2
001267  0101    	MOVW R1:R0,R3:R2
001268  0000    	NOP
001269  0000    	NOP
00126A  0000    	NOP
00126B  0000    	NOP
00126C  0000    	NOP
00126D  0000    	NOP
00126E  0000    	NOP
00126F  0000    	NOP
001270  0000    	NOP
001271  0000    	NOP
001272  0000    	NOP
001273  0000    	NOP
001274  0000    	NOP
001275  0000    	NOP
001276  0000    	NOP
001277  0000    	NOP
001278  0101    	MOVW R1:R0,R3:R2
001279  0101    	MOVW R1:R0,R3:R2
00127A  0101    	MOVW R1:R0,R3:R2
00127B  0101    	MOVW R1:R0,R3:R2
00127C  0101    	MOVW R1:R0,R3:R2
00127D  0101    	MOVW R1:R0,R3:R2
00127E  0101    L146:	MOVW R1:R0,R3:R2
00127F  0101    	MOVW R1:R0,R3:R2
001280  0101    	MOVW R1:R0,R3:R2
001281  0101    	MOVW R1:R0,R3:R2
001282  0101    	MOVW R1:R0,R3:R2
001283  0101    	MOVW R1:R0,R3:R2
001284  0101    	MOVW R1:R0,R3:R2
001285  0101    	MOVW R1:R0,R3:R2
001286  0101    L147:	MOVW R1:R0,R3:R2
001287  0101    	MOVW R1:R0,R3:R2
001288  0202    	MULS R16,R18
001289  0202    	MULS R16,R18
00128A  0202    	MULS R16,R18
00128B  0202    	MULS R16,R18
00128C  0202    	MULS R16,R18
00128D  0202    	MULS R16,R18
00128E  0202    L148:	MULS R16,R18
00128F  0202    	MULS R16,R18
001290  0303    	MULSU R16,R19
001291  0303    	MULSU R16,R19
001292  0303    	MULSU R16,R19
001293  0303    	MULSU R16,R19
001294  0303    	MULSU R16,R19
001295  0303    	MULSU R16,R19
001296  0303    	MULSU R16,R19
001297  0303    	MULSU R16,R19
001298  0000    	NOP
001299  0000    	NOP
00129A  0000    	NOP
00129B  0000    	NOP
00129C  0000    	NOP
00129D  0000    	NOP
00129E  0000    	NOP
00129F  0000    	NOP
0012A0  0000    	NOP
0012A1  0000    	NOP
0012A2  0000    	NOP
0012A3  0000    	NOP
0012A4  0000    	NOP
0012A5  0000    L197:	NOP
0012A6  0000    	NOP
0012A7  0000    	NOP
0012A8  0303    	MULSU R16,R19
0012A9  0303    	MULSU R16,R19
0012AA  0303    	MULSU R16,R19
0012AB  0303    	MULSU R16,R19
0012AC  0303    	MULSU R16,R19
0012AD  0303    L198:	MULSU R16,R19
0012AE  0303    	MULSU R16,R19
0012AF  0303    	MULSU R16,R19
0012B0  0202    	MULS R16,R18
0012B1  0202    	MULS R16,R18
0012B2  0202    	MULS R16,R18
0012B3  0202    	MULS R16,R18
0012B4  0202    	MULS R16,R18
0012B5  0202    	MULS R16,R18
0012B6  0202    	MULS R16,R18
0012B7  0202    	MULS R16,R18
0012B8  0202    	MULS R16,R18
0012B9  0202    	MULS R16,R18
0012BA  0202    	MULS R16,R18
0012BB  0202    	MULS R16,R18
0012BC  0202    	MULS R16,R18
0012BD  0202    	MULS R16,R18
0012BE  0202    	MULS R16,R18
0012BF  0202    	MULS R16,R18
0012C0  0101    	MOVW R1:R0,R3:R2
0012C1  0101    	MOVW R1:R0,R3:R2
0012C2  0101    	MOVW R1:R0,R3:R2
0012C3  0101    	MOVW R1:R0,R3:R2
0012C4  0101    L140:	MOVW R1:R0,R3:R2
0012C5  0101    	MOVW R1:R0,R3:R2
0012C6  0101    	MOVW R1:R0,R3:R2
0012C7  0101    	MOVW R1:R0,R3:R2
0012C8  0000    	NOP
0012C9  0000    	NOP
0012CA  0000    	NOP
0012CB  0000    	NOP
0012CC  0000    L142:	NOP
0012CD  0000    	NOP
0012CE  0000    	NOP
0012CF  0000    	NOP
0012D0  0000    	NOP
0012D1  0000    	NOP
0012D2  0000    	NOP
0012D3  0000    	NOP
0012D4  0000    L144:	NOP
0012D5  0000    	NOP
0012D6  0000    	NOP
0012D7  0000    	NOP
0012D8  0101    	MOVW R1:R0,R3:R2
0012D9  0101    	MOVW R1:R0,R3:R2
0012DA  0101    	MOVW R1:R0,R3:R2
0012DB  0101    	MOVW R1:R0,R3:R2
0012DC  0101    	MOVW R1:R0,R3:R2
0012DD  0101    	MOVW R1:R0,R3:R2
0012DE  0101    	MOVW R1:R0,R3:R2
0012DF  0101    	MOVW R1:R0,R3:R2
0012E0  0101    	MOVW R1:R0,R3:R2
0012E1  0101    	MOVW R1:R0,R3:R2
0012E2  0101    	MOVW R1:R0,R3:R2
0012E3  0101    	MOVW R1:R0,R3:R2
0012E4  0101    	MOVW R1:R0,R3:R2
0012E5  0101    	MOVW R1:R0,R3:R2
0012E6  0101    L166:	MOVW R1:R0,R3:R2
0012E7  0101    	MOVW R1:R0,R3:R2
0012E8  0202    	MULS R16,R18
0012E9  0202    	MULS R16,R18
0012EA  0202    	MULS R16,R18
0012EB  0202    	MULS R16,R18
0012EC  0202    	MULS R16,R18
0012ED  0202    	MULS R16,R18
0012EE  0202    L167:	MULS R16,R18
0012EF  0202    	MULS R16,R18
0012F0  0303    	MULSU R16,R19
0012F1  0303    	MULSU R16,R19
0012F2  0303    	MULSU R16,R19
0012F3  0303    	MULSU R16,R19
0012F4  0303    	MULSU R16,R19
0012F5  0303    	MULSU R16,R19
0012F6  0303    L168:	MULSU R16,R19
0012F7  0303    	MULSU R16,R19
0012F8  0303    	MULSU R16,R19
0012F9  0303    	MULSU R16,R19
0012FA  0303    	MULSU R16,R19
0012FB  0303    	MULSU R16,R19
0012FC  0303    	MULSU R16,R19
0012FD  0303    L169:	MULSU R16,R19
0012FE  0303    	MULSU R16,R19
0012FF  0303    	MULSU R16,R19
001300  0202    	MULS R16,R18
001301  0202    	MULS R16,R18
001302  0202    	MULS R16,R18
001303  0202    	MULS R16,R18
001304  0202    	MULS R16,R18
001305  0202    L170:	MULS R16,R18
001306  0202    	MULS R16,R18
001307  0202    	MULS R16,R18
001308  0202    	MULS R16,R18
001309  0202    	MULS R16,R18
00130A  0202    	MULS R16,R18
00130B  0202    	MULS R16,R18
00130C  0202    	MULS R16,R18
00130D  0202    	MULS R16,R18
00130E  0202    L171:	MULS R16,R18
00130F  0202    	MULS R16,R18
001310  0001    	UNRECOGNIZED
001311  0000    	NOP
001312  0000    	NOP
001313  0000    	NOP
001314  0000    	NOP
001315  0000    	NOP
001316  0000    L172:	NOP
001317  0000    	NOP
001318  0000    	NOP
001319  0000    	NOP
00131A  0000    	NOP
00131B  0000    	NOP
00131C  0000    	NOP
00131D  0000    	NOP
00131E  0000    	NOP
00131F  0000    	NOP
001320  0000    	NOP
001321  0000    	NOP
001322  0000    	NOP
001323  0000    	NOP
001324  0000    	NOP
001325  0000    	NOP
001326  0000    	NOP
001327  0000    	NOP
001328  0101    	MOVW R1:R0,R3:R2
001329  0101    	MOVW R1:R0,R3:R2
00132A  0101    	MOVW R1:R0,R3:R2
00132B  0101    	MOVW R1:R0,R3:R2
00132C  0101    	MOVW R1:R0,R3:R2
00132D  0101    	MOVW R1:R0,R3:R2
00132E  0101    	MOVW R1:R0,R3:R2
00132F  0101    	MOVW R1:R0,R3:R2
001330  0101    	MOVW R1:R0,R3:R2
001331  0101    	MOVW R1:R0,R3:R2
001332  0101    	MOVW R1:R0,R3:R2
001333  0101    	MOVW R1:R0,R3:R2
001334  0101    	MOVW R1:R0,R3:R2
001335  0101    	MOVW R1:R0,R3:R2
001336  0101    	MOVW R1:R0,R3:R2
001337  0101    	MOVW R1:R0,R3:R2
001338  0202    	MULS R16,R18
001339  0202    	MULS R16,R18
00133A  0202    	MULS R16,R18
00133B  0202    	MULS R16,R18
00133C  0202    	MULS R16,R18
00133D  0202    	MULS R16,R18
00133E  0202    	MULS R16,R18
00133F  0202    	MULS R16,R18
001340  0000    	NOP
001341  0000    	NOP
001342  0000    	NOP
001343  0000    	NOP
001344  0000    	NOP
001345  0000    	NOP
001346  0000    	NOP
001347  0000    	NOP
001348  0303    	MULSU R16,R19
001349  0303    	MULSU R16,R19
00134A  0303    	MULSU R16,R19
00134B  0303    	MULSU R16,R19
00134C  0303    	MULSU R16,R19
00134D  0303    	MULSU R16,R19
00134E  0303    	MULSU R16,R19
00134F  0303    	MULSU R16,R19
001350  0202    	MULS R16,R18
001351  0202    	MULS R16,R18
001352  0202    	MULS R16,R18
001353  0202    	MULS R16,R18
001354  0202    	MULS R16,R18
001355  0202    	MULS R16,R18
001356  0202    	MULS R16,R18
001357  0202    	MULS R16,R18
001358  0202    	MULS R16,R18
001359  0202    	MULS R16,R18
00135A  0202    	MULS R16,R18
00135B  0202    	MULS R16,R18
00135C  0202    	MULS R16,R18
00135D  0202    	MULS R16,R18
00135E  0202    	MULS R16,R18
00135F  0202    	MULS R16,R18
001360  0101    	MOVW R1:R0,R3:R2
001361  0101    	MOVW R1:R0,R3:R2
001362  0101    	MOVW R1:R0,R3:R2
001363  0101    	MOVW R1:R0,R3:R2
001364  0101    	MOVW R1:R0,R3:R2
001365  0101    	MOVW R1:R0,R3:R2
001366  0101    	MOVW R1:R0,R3:R2
001367  0101    	MOVW R1:R0,R3:R2
001368  0000    	NOP
001369  0000    	NOP
00136A  0000    	NOP
00136B  0000    	NOP
00136C  0000    	NOP
00136D  0000    	NOP
00136E  0000    L190:	NOP
00136F  0000    	NOP
001370  0000    	NOP
001371  0000    	NOP
001372  0000    	NOP
001373  0000    	NOP
001374  0000    	NOP
001375  0000    	NOP
001376  0000    L191:	NOP
001377  0000    	NOP
001378  0101    	MOVW R1:R0,R3:R2
001379  0101    	MOVW R1:R0,R3:R2
00137A  0101    	MOVW R1:R0,R3:R2
00137B  0101    	MOVW R1:R0,R3:R2
00137C  0101    	MOVW R1:R0,R3:R2
00137D  0101    	MOVW R1:R0,R3:R2
00137E  0101    L192:	MOVW R1:R0,R3:R2
00137F  0101    	MOVW R1:R0,R3:R2
001380  0101    	MOVW R1:R0,R3:R2
001381  0101    	MOVW R1:R0,R3:R2
001382  0101    	MOVW R1:R0,R3:R2
001383  0101    	MOVW R1:R0,R3:R2
001384  0101    	MOVW R1:R0,R3:R2
001385  0101    L193:	MOVW R1:R0,R3:R2
001386  0101    	MOVW R1:R0,R3:R2
001387  0101    	MOVW R1:R0,R3:R2
001388  0202    	MULS R16,R18
001389  0202    	MULS R16,R18
00138A  0202    	MULS R16,R18
00138B  0202    	MULS R16,R18
00138C  0202    	MULS R16,R18
00138D  0202    L194:	MULS R16,R18
00138E  0202    	MULS R16,R18
00138F  0202    	MULS R16,R18
001390  0303    	MULSU R16,R19
001391  0303    	MULSU R16,R19
001392  0303    	MULSU R16,R19
001393  0303    	MULSU R16,R19
001394  0303    	MULSU R16,R19
001395  0303    	MULSU R16,R19
001396  0303    L195:	MULSU R16,R19
001397  0303    	MULSU R16,R19
001398  0303    	MULSU R16,R19
001399  0303    	MULSU R16,R19
00139A  0303    	MULSU R16,R19
00139B  0303    	MULSU R16,R19
00139C  0303    	MULSU R16,R19
00139D  0303    	MULSU R16,R19
00139E  0303    L196:	MULSU R16,R19
00139F  0303    	MULSU R16,R19
0013A0  0202    	MULS R16,R18
0013A1  0202    	MULS R16,R18
0013A2  0202    	MULS R16,R18
0013A3  0202    	MULS R16,R18
0013A4  0202    	MULS R16,R18
0013A5  0202    	MULS R16,R18
0013A6  0202    	MULS R16,R18
0013A7  0202    	MULS R16,R18
0013A8  0202    	MULS R16,R18
0013A9  0202    	MULS R16,R18
0013AA  0202    	MULS R16,R18
0013AB  0202    	MULS R16,R18
0013AC  0202    	MULS R16,R18
0013AD  0202    	MULS R16,R18
0013AE  0202    	MULS R16,R18
0013AF  0202    	MULS R16,R18
0013B0  0001    	UNRECOGNIZED
0013B1  0000    	NOP
0013B2  0000    	NOP
0013B3  0000    	NOP
0013B4  0000    	NOP
0013B5  0000    	NOP
0013B6  0000    	NOP
0013B7  0000    	NOP
0013B8  0000    	NOP
0013B9  0000    	NOP
0013BA  0000    	NOP
0013BB  0000    	NOP
0013BC  0000    	NOP
0013BD  0000    	NOP
0013BE  0000    	NOP
0013BF  0000    	NOP
0013C0  0000    	NOP
0013C1  0000    	NOP
0013C2  0000    	NOP
0013C3  0000    	NOP
0013C4  0000    	NOP
0013C5  0000    	NOP
0013C6  0000    	NOP
0013C7  0000    	NOP
0013C8  0101    	MOVW R1:R0,R3:R2
0013C9  0101    	MOVW R1:R0,R3:R2
0013CA  0101    	MOVW R1:R0,R3:R2
0013CB  0101    	MOVW R1:R0,R3:R2
0013CC  0101    	MOVW R1:R0,R3:R2
0013CD  0101    	MOVW R1:R0,R3:R2
0013CE  0101    	MOVW R1:R0,R3:R2
0013CF  0101    	MOVW R1:R0,R3:R2
0013D0  0101    	MOVW R1:R0,R3:R2
0013D1  0101    	MOVW R1:R0,R3:R2
0013D2  0101    	MOVW R1:R0,R3:R2
0013D3  0101    	MOVW R1:R0,R3:R2
0013D4  0101    	MOVW R1:R0,R3:R2
0013D5  0101    	MOVW R1:R0,R3:R2
0013D6  0101    	MOVW R1:R0,R3:R2
0013D7  0101    	MOVW R1:R0,R3:R2
0013D8  0202    	MULS R16,R18
0013D9  0202    	MULS R16,R18
0013DA  0202    	MULS R16,R18
0013DB  0202    	MULS R16,R18
0013DC  0202    	MULS R16,R18
0013DD  0202    	MULS R16,R18
0013DE  0202    	MULS R16,R18
0013DF  0202    	MULS R16,R18
0013E0  0000    	NOP
0013E1  0000    	NOP
0013E2  0000    	NOP
0013E3  0000    	NOP
0013E4  0000    	NOP
0013E5  0000    	NOP
0013E6  0000    	NOP
0013E7  0000    	NOP
0013E8  2828    	OR R2,R8
0013E9  2828    	OR R2,R8
0013EA  2828    	OR R2,R8
0013EB  2828    	OR R2,R8
0013EC  2828    	OR R2,R8
0013ED  2828    	OR R2,R8
0013EE  2828    	OR R2,R8
0013EF  2828    	OR R2,R8
0013F0  3C3C    	CPI R19,$CC
0013F1  3C3C    	CPI R19,$CC
0013F2  3C3C    	CPI R19,$CC
0013F3  3C3C    	CPI R19,$CC
0013F4  3C3C    	CPI R19,$CC
0013F5  3C3C    	CPI R19,$CC
0013F6  3C3C    	CPI R19,$CC
0013F7  3C3C    	CPI R19,$CC
0013F8  0000    	NOP
0013F9  0000    	NOP
0013FA  0000    	NOP
0013FB  0000    	NOP
0013FC  0000    	NOP
0013FD  0000    	NOP
0013FE  0000    	NOP
0013FF  0000    	NOP
001400  001E    	UNRECOGNIZED
001401  0001    	UNRECOGNIZED
001402  0001    	UNRECOGNIZED
001403  0001    	UNRECOGNIZED
001404  0001    	UNRECOGNIZED
001405  0001    	UNRECOGNIZED
001406  0001    	UNRECOGNIZED
001407  0001    	UNRECOGNIZED
001408  0001    	UNRECOGNIZED
001409  0001    	UNRECOGNIZED
00140A  0001    	UNRECOGNIZED
00140B  0001    	UNRECOGNIZED
00140C  0001    	UNRECOGNIZED
00140D  0001    	UNRECOGNIZED
00140E  0001    	UNRECOGNIZED
00140F  0001    	UNRECOGNIZED
001410  0001    	UNRECOGNIZED
001411  0001    	UNRECOGNIZED
001412  0001    	UNRECOGNIZED
001413  0001    	UNRECOGNIZED
001414  0001    L199:	UNRECOGNIZED
001415  0001    	UNRECOGNIZED
001416  0001    	UNRECOGNIZED
001417  0001    	UNRECOGNIZED
001418  0001    	UNRECOGNIZED
001419  0001    	UNRECOGNIZED
00141A  0001    	UNRECOGNIZED
00141B  0001    	UNRECOGNIZED
00141C  0001    	UNRECOGNIZED
00141D  0001    	UNRECOGNIZED
00141E  0001    	UNRECOGNIZED
00141F  0001    	UNRECOGNIZED
001420  0001    	UNRECOGNIZED
001421  0001    	UNRECOGNIZED
001422  0001    	UNRECOGNIZED
001423  0001    	UNRECOGNIZED
001424  0001    	UNRECOGNIZED
001425  0001    	UNRECOGNIZED
001426  0001    	UNRECOGNIZED
001427  0001    	UNRECOGNIZED
001428  0001    	UNRECOGNIZED
001429  000A    	UNRECOGNIZED
00142A  03E8    	FMULSU R22,R16
00142B  0019    	UNRECOGNIZED
00142C  0019    	UNRECOGNIZED
00142D  0019    	UNRECOGNIZED
00142E  0019    	UNRECOGNIZED
00142F  0019    	UNRECOGNIZED
001430  0019    	UNRECOGNIZED
001431  0019    	UNRECOGNIZED
001432  0019    	UNRECOGNIZED
001433  0019    	UNRECOGNIZED
001434  0019    	UNRECOGNIZED
001435  0019    	UNRECOGNIZED
001436  0019    	UNRECOGNIZED
001437  0019    	UNRECOGNIZED
001438  0019    	UNRECOGNIZED
001439  0019    	UNRECOGNIZED
00143A  0019    	UNRECOGNIZED
00143B  0019    	UNRECOGNIZED
00143C  0019    	UNRECOGNIZED
00143D  0019    	UNRECOGNIZED
00143E  0019    	UNRECOGNIZED
00143F  0019    	UNRECOGNIZED
001440  0019    	UNRECOGNIZED
001441  0019    	UNRECOGNIZED
001442  0019    	UNRECOGNIZED
001443  0019    	UNRECOGNIZED
001444  0019    	UNRECOGNIZED
001445  0019    	UNRECOGNIZED
001446  0019    	UNRECOGNIZED
001447  0019    	UNRECOGNIZED
001448  0019    	UNRECOGNIZED
001449  0019    	UNRECOGNIZED
00144A  0019    	UNRECOGNIZED
00144B  0019    	UNRECOGNIZED
00144C  0019    	UNRECOGNIZED
00144D  0019    	UNRECOGNIZED
00144E  0019    	UNRECOGNIZED
00144F  0019    	UNRECOGNIZED
001450  0019    	UNRECOGNIZED
001451  0019    	UNRECOGNIZED
001452  0019    	UNRECOGNIZED
001453  01F4    	MOVW R31:R30,R9:R8
001454  B37D    	IN R23,EEDR
001455  58C7    	SUBI YL,$87
001456  7E6C    	ANDI R22,$EC
001457  3148    	CPI R20,$18
001458  8DA3    	LDD XL,Z+27
001459  7F59    	ANDI R21,$F9
00145A  9F2F    	MUL R18,ZH
00145B  AB70    	STD Z+48,R23
00145C  B37D    	IN R23,EEDR
00145D  58C7    	SUBI YL,$87
00145E  7E6C    	ANDI R22,$EC
00145F  3148    	CPI R20,$18
001460  8DA3    	LDD XL,Z+27
001461  7F59    	ANDI R21,$F9
001462  9F2F    	MUL R18,ZH
001463  AB70    	STD Z+48,R23
001464  8D7D    	LDD R23,Y+29
001465  5ADF    	SUBI YH,$AF
001466  7E6C    	ANDI R22,$EC
001467  1B5A    	SUB R21,XL
001468  8C8D    	LDD R8,Y+29
001469  7F59    	ANDI R21,$F9
00146A  9F2F    	MUL R18,ZH
00146B  AB70    	STD Z+48,R23
00146C  8A77    	STD Z+23,R7
00146D  5EE6    	SUBI ZL,$E6
00146E  7966    	ANDI R22,$96
00146F  2258    	AND R5,R24
001470  8792    	STD Z+10,R25
001471  7F59    	ANDI R21,$F9
001472  9F2F    	MUL R18,ZH
001473  AB70    	STD Z+48,R23
001474  8A74    	STD Z+20,R7
001475  61E8    	ORI ZL,$18
001476  7763    	ANDI R22,$73
001477  2558    	EOR R21,R8
001478  8595    	LDD R25,Z+13
001479  7F59    	ANDI R21,$F9
00147A  9F2F    	MUL R18,ZH
00147B  AB70    	STD Z+48,R23
00147C  8B72    	STD Z+18,R23
00147D  64EA    	ORI ZL,$4A
00147E  7661    	ANDI R22,$61
00147F  2659    	EOR R5,R25
001480  8498    	LDD R9,Y+8
001481  7F59    	ANDI R21,$F9
001482  9F2F    	MUL R18,ZH
001483  AB70    	STD Z+48,R23
001484  8E72    	STD Z+26,R7
001485  67EB    	ORI ZL,$7B
001486  7661    	ANDI R22,$61
001487  275C    	EOR R21,YL
001488  849C    	LDD R9,Y+12
001489  7F59    	ANDI R21,$F9
00148A  9F2F    	MUL R18,ZH
00148B  AB70    	STD Z+48,R23
00148C  9272    	ST -Z,R7
00148D  6BEA    	ORI ZL,$BA
00148E  7661    	ANDI R22,$61
00148F  265F    	EOR R5,ZH
001490  849E    	LDD R9,Y+14
001491  7F59    	ANDI R21,$F9
001492  9F2F    	MUL R18,ZH
001493  AB70    	STD Z+48,R23
001494  9674    	ADIW ZH:ZL,20
001495  6DE8    	ORI ZL,$D8
001496  7763    	ANDI R22,$73
001497  2563    	EOR R22,R3
001498  85A0    	LDD XL,Z+8
001499  7F59    	ANDI R21,$F9
00149A  9F2F    	MUL R18,ZH
00149B  AB70    	STD Z+48,R23
00149C  9A77    	SBI SPSR,SPIF
00149D  6EE6    	ORI ZL,$E6
00149E  7966    	ANDI R22,$96
00149F  2267    	AND R6,R23
0014A0  87A1    	STD Z+9,XL
0014A1  7F59    	ANDI R21,$F9
0014A2  9F2F    	MUL R18,ZH
0014A3  AB70    	STD Z+48,R23
0014A4  9D7A    	MUL R23,R10
0014A5  6EE2    	ORI ZL,$E2
0014A6  7B69    	ANDI R22,$B9
0014A7  1F6A    	ADC R22,XL
0014A8  89A1    	LDD XL,Z+17
0014A9  7F59    	ANDI R21,$F9
0014AA  9F2F    	MUL R18,ZH
0014AB  AB70    	STD Z+48,R23
0014AC  9F7C    	MUL R23,YL
0014AD  6DDF    L202:	ORI YH,$DF
0014AE  7D6B    	ANDI R22,$DB
0014AF  1B6C    	SUB R22,YL
0014B0  8BA0    	STD Z+16,XL
0014B1  7F59    	ANDI R21,$F9
0014B2  9F2F    	MUL R18,ZH
0014B3  AB70    	STD Z+48,R23
0014B4  A17F    	LDD R23,Y+39
0014B5  6BDB    	ORI YH,$BB
0014B6  806E    	LDD R6,Y+6
0014B7  186E    	SUB R6,R14
0014B8  8E9E    	STD Y+30,R9
0014B9  7F59    	ANDI R21,$F9
0014BA  9F2F    	MUL R18,ZH
0014BB  AB70    	STD Z+48,R23
0014BC  A181    	LDD R24,Z+33
0014BD  68D8    	ORI YH,$88
0014BE  8370    	ST Z,R23
0014BF  146F    	CP R6,R15
0014C0  919C    	LD R25,X
0014C1  7F59    	ANDI R21,$F9
0014C2  9F2F    	MUL R18,ZH
0014C3  AB70    	STD Z+48,R23
0014C4  A183    	LDD R24,Z+35
0014C5  65D5    	ORI YH,$55
0014C6  8672    	STD Z+10,R7
0014C7  126F    	CPSE R6,ZH
0014C8  9499    	UNRECOGNIZED
0014C9  7F59    	ANDI R21,$F9
0014CA  9F2F    	MUL R18,ZH
0014CB  AB70    	STD Z+48,R23
0014CC  A084    	LDD R8,Z+36
0014CD  62D4    	ORI YH,$24
0014CE  8873    	LDD R7,Z+19
0014CF  106E    	CPSE R6,R14
0014D0  9696    	ADIW XH:XL,38
0014D1  7F59    	ANDI R21,$F9
0014D2  9F2F    	MUL R18,ZH
0014D3  AB70    	STD Z+48,R23
0014D4  9D84    	MUL R24,R4
0014D5  5ED3    	SUBI YH,$E3
0014D6  8873    	LDD R7,Z+19
0014D7  0F6B    	ADD R22,XH
0014D8  9693    	ADIW XH:XL,35
0014D9  7F59    	ANDI R21,$F9
0014DA  9F2F    	MUL R18,ZH
0014DB  AB70    	STD Z+48,R23
0014DC  9A84    	SBI PIND,PIND4
0014DD  5CD4    	SUBI YH,$C4
0014DE  8873    	LDD R7,Z+19
0014DF  1067    	CPSE R6,R7
0014E0  968F    	ADIW R25:R24,47
0014E1  7F59    	ANDI R21,$F9
0014E2  9F2F    	MUL R18,ZH
0014E3  AB70    	STD Z+48,R23
0014E4  9683    	ADIW R25:R24,35
0014E5  5AD5    	SUBI YH,$A5
0014E6  8672    	STD Z+10,R7
0014E7  1263    	CPSE R6,R19
0014E8  948D    	JMP $117F59
0014E9  7F59
0014EA  9F2F    	MUL R18,ZH
0014EB  AB70    	STD Z+48,R23
0014EC  9281    	ST Z+,R8
0014ED  59D8    	SUBI YH,$98
0014EE  8370    	ST Z,R23
0014EF  145F    	CP R5,R15
0014F0  918C    	LD R24,X
0014F1  7F59    	ANDI R21,$F9
0014F2  9F2F    	MUL R18,ZH
0014F3  AB70    	STD Z+48,R23
0014F4  8F7F    	STD Y+31,R23
0014F5  59DB    	SUBI YH,$9B
0014F6  806E    	LDD R6,Y+6
0014F7  185C    	SUB R5,R12
0014F8  8E8C    	STD Y+28,R8
0014F9  7F59    	ANDI R21,$F9
0014FA  9F2F    	MUL R18,ZH
0014FB  AB70    	STD Z+48,R23
0014FC  8F7F    	STD Y+31,R23
0014FD  59DB    	SUBI YH,$9B
0014FE  806E    	LDD R6,Y+6
0014FF  185C    	SUB R5,R12
001500  8E8C    	STD Y+28,R8
001501  7F59    	ANDI R21,$F9
001502  9F2F    	MUL R18,ZH
001503  AB70    	STD Z+48,R23
001504  8D7D    	LDD R23,Y+29
001505  5ADF    	SUBI YH,$AF
001506  7E6C    	ANDI R22,$EC
001507  1B5A    	SUB R21,XL
001508  8C8D    	LDD R8,Y+29
001509  7F59    	ANDI R21,$F9
00150A  9F2F    	MUL R18,ZH
00150B  AB70    	STD Z+48,R23
00150C  8A77    	STD Z+23,R7
00150D  5EE6    	SUBI ZL,$E6
00150E  7966    	ANDI R22,$96
00150F  2258    	AND R5,R24
001510  8792    	STD Z+10,R25
001511  7F59    	ANDI R21,$F9
001512  9F2F    	MUL R18,ZH
001513  AB70    	STD Z+48,R23
001514  8A74    	STD Z+20,R7
001515  61E8    	ORI ZL,$18
001516  7763    	ANDI R22,$73
001517  2558    	EOR R21,R8
001518  8595    	LDD R25,Z+13
001519  7F59    	ANDI R21,$F9
00151A  9F2F    	MUL R18,ZH
00151B  AB70    	STD Z+48,R23
00151C  8B72    	STD Z+18,R23
00151D  64EA    	ORI ZL,$4A
00151E  7661    	ANDI R22,$61
00151F  2659    	EOR R5,R25
001520  8498    	LDD R9,Y+8
001521  7F59    	ANDI R21,$F9
001522  9F2F    	MUL R18,ZH
001523  AB70    	STD Z+48,R23
001524  8E72    	STD Z+26,R7
001525  67EB    	ORI ZL,$7B
001526  7661    	ANDI R22,$61
001527  275C    	EOR R21,YL
001528  849C    	LDD R9,Y+12
001529  7F59    	ANDI R21,$F9
00152A  9F2F    	MUL R18,ZH
00152B  AB70    	STD Z+48,R23
00152C  9272    	ST -Z,R7
00152D  6BEA    	ORI ZL,$BA
00152E  7661    	ANDI R22,$61
00152F  265F    	EOR R5,ZH
001530  849E    	LDD R9,Y+14
001531  7F59    	ANDI R21,$F9
001532  9F2F    	MUL R18,ZH
001533  AB70    	STD Z+48,R23
001534  9674    	ADIW ZH:ZL,20
001535  6DE8    	ORI ZL,$D8
001536  7763    	ANDI R22,$73
001537  2563    	EOR R22,R3
001538  85A0    	LDD XL,Z+8
001539  7F59    	ANDI R21,$F9
00153A  9F2F    	MUL R18,ZH
00153B  AB70    	STD Z+48,R23
00153C  9A77    	SBI SPSR,SPIF
00153D  6EE6    	ORI ZL,$E6
00153E  7966    	ANDI R22,$96
00153F  2267    	AND R6,R23
001540  87A1    	STD Z+9,XL
001541  7F59    	ANDI R21,$F9
001542  9F2F    	MUL R18,ZH
001543  AB70    	STD Z+48,R23
001544  9D7A    	MUL R23,R10
001545  6EE2    	ORI ZL,$E2
001546  7B69    	ANDI R22,$B9
001547  1F6A    	ADC R22,XL
001548  89A1    	LDD XL,Z+17
001549  7F59    	ANDI R21,$F9
00154A  9F2F    	MUL R18,ZH
00154B  AB70    	STD Z+48,R23
00154C  9F7C    	MUL R23,YL
00154D  6DDF    	ORI YH,$DF
00154E  7D6B    	ANDI R22,$DB
00154F  1B6C    	SUB R22,YL
001550  8BA0    	STD Z+16,XL
001551  7F59    	ANDI R21,$F9
001552  9F2F    	MUL R18,ZH
001553  AB70    	STD Z+48,R23
001554  A17F    	LDD R23,Y+39
001555  6BDB    	ORI YH,$BB
001556  806E    	LDD R6,Y+6
001557  186E    	SUB R6,R14
001558  8E9E    	STD Y+30,R9
001559  7F59    	ANDI R21,$F9
00155A  9F2F    	MUL R18,ZH
00155B  AB70    	STD Z+48,R23
00155C  A181    	LDD R24,Z+33
00155D  68D8    	ORI YH,$88
00155E  8370    	ST Z,R23
00155F  146F    	CP R6,R15
001560  919C    	LD R25,X
001561  7F59    	ANDI R21,$F9
001562  9F2F    	MUL R18,ZH
001563  AB70    	STD Z+48,R23
001564  A183    	LDD R24,Z+35
001565  65D5    	ORI YH,$55
001566  8672    	STD Z+10,R7
001567  126F    	CPSE R6,ZH
001568  9499    	UNRECOGNIZED
001569  7F59    	ANDI R21,$F9
00156A  9F2F    	MUL R18,ZH
00156B  AB70    	STD Z+48,R23
00156C  A084    	LDD R8,Z+36
00156D  62D4    	ORI YH,$24
00156E  8873    	LDD R7,Z+19
00156F  106E    	CPSE R6,R14
001570  9696    	ADIW XH:XL,38
001571  7F59    	ANDI R21,$F9
001572  9F2F    	MUL R18,ZH
001573  AB70    	STD Z+48,R23
001574  9D84    	MUL R24,R4
001575  5ED3    	SUBI YH,$E3
001576  8873    	LDD R7,Z+19
001577  0F6B    	ADD R22,XH
001578  9693    	ADIW XH:XL,35
001579  7F59    	ANDI R21,$F9
00157A  9F2F    	MUL R18,ZH
00157B  AB70    	STD Z+48,R23
00157C  9A84    	SBI PIND,PIND4
00157D  5CD4    	SUBI YH,$C4
00157E  8873    	LDD R7,Z+19
00157F  1067    	CPSE R6,R7
001580  968F    	ADIW R25:R24,47
001581  7F59    	ANDI R21,$F9
001582  9F2F    	MUL R18,ZH
001583  AB70    	STD Z+48,R23
001584  9683    	ADIW R25:R24,35
001585  5AD5    	SUBI YH,$A5
001586  8672    	STD Z+10,R7
001587  1263    	CPSE R6,R19
001588  948D    	JMP $117F59
001589  7F59
00158A  9F2F    	MUL R18,ZH
00158B  AB70    	STD Z+48,R23
00158C  9281    	ST Z+,R8
00158D  59D8    	SUBI YH,$98
00158E  8370    	ST Z,R23
00158F  145F    	CP R5,R15
001590  918C    	LD R24,X
001591  7F59    	ANDI R21,$F9
001592  9F2F    	MUL R18,ZH
001593  AB70    	STD Z+48,R23
001594  8F7F    	STD Y+31,R23
001595  59DB    	SUBI YH,$9B
001596  806E    	LDD R6,Y+6
001597  185C    	SUB R5,R12
001598  8E8C    	STD Y+28,R8
001599  7F59    	ANDI R21,$F9
00159A  9F2F    	MUL R18,ZH
00159B  AB70    	STD Z+48,R23
00159C  8F7F    	STD Y+31,R23
00159D  59DB    	SUBI YH,$9B
00159E  806E    	LDD R6,Y+6
00159F  185C    	SUB R5,R12
0015A0  8E8C    	STD Y+28,R8
0015A1  7F59    	ANDI R21,$F9
0015A2  9F2F    	MUL R18,ZH
0015A3  AB70    	STD Z+48,R23
0015A4  B37D    	IN R23,EEDR
0015A5  58C7    	SUBI YL,$87
0015A6  7E6C    	ANDI R22,$EC
0015A7  3148    	CPI R20,$18
0015A8  8DA3    	LDD XL,Z+27
0015A9  7F59    	ANDI R21,$F9
0015AA  9F2F    	MUL R18,ZH
0015AB  AB70    	STD Z+48,R23
0015AC  0202    	MULS R16,R18
0015AD  0202    	MULS R16,R18
0015AE  0202    	MULS R16,R18
0015AF  0202    	MULS R16,R18
0015B0  0202    	MULS R16,R18
0015B1  0202    	MULS R16,R18
0015B2  0202    	MULS R16,R18
0015B3  0202    	MULS R16,R18
0015B4  0303    	MULSU R16,R19
0015B5  0303    	MULSU R16,R19
0015B6  0303    	MULSU R16,R19
0015B7  0303    	MULSU R16,R19
0015B8  0303    	MULSU R16,R19
0015B9  0303    	MULSU R16,R19
0015BA  0303    	MULSU R16,R19
0015BB  0303    	MULSU R16,R19
0015BC  0303    	MULSU R16,R19
0015BD  0303    	MULSU R16,R19
0015BE  0303    	MULSU R16,R19
0015BF  0303    	MULSU R16,R19
0015C0  0303    	MULSU R16,R19
0015C1  0303    	MULSU R16,R19
0015C2  0303    	MULSU R16,R19
0015C3  0303    	MULSU R16,R19
0015C4  0202    	MULS R16,R18
0015C5  0202    	MULS R16,R18
0015C6  0202    	MULS R16,R18
0015C7  0202    	MULS R16,R18
0015C8  0202    	MULS R16,R18
0015C9  0202    	MULS R16,R18
0015CA  0202    	MULS R16,R18
0015CB  0202    	MULS R16,R18
0015CC  0202    	MULS R16,R18
0015CD  0202    	MULS R16,R18
0015CE  0202    	MULS R16,R18
0015CF  0202    	MULS R16,R18
0015D0  0202    	MULS R16,R18
0015D1  0202    	MULS R16,R18
0015D2  0202    	MULS R16,R18
0015D3  0202    	MULS R16,R18
0015D4  0101    	MOVW R1:R0,R3:R2
0015D5  0101    	MOVW R1:R0,R3:R2
0015D6  0101    	MOVW R1:R0,R3:R2
0015D7  0101    	MOVW R1:R0,R3:R2
0015D8  0101    	MOVW R1:R0,R3:R2
0015D9  0101    	MOVW R1:R0,R3:R2
0015DA  0101    	MOVW R1:R0,R3:R2
0015DB  0101    	MOVW R1:R0,R3:R2
0015DC  0000    	NOP
0015DD  0000    	NOP
0015DE  0000    	NOP
0015DF  0000    	NOP
0015E0  0000    	NOP
0015E1  0000    	NOP
0015E2  0000    	NOP
0015E3  0000    	NOP
0015E4  0000    	NOP
0015E5  0000    	NOP
0015E6  0000    	NOP
0015E7  0000    	NOP
0015E8  0000    	NOP
0015E9  0000    	NOP
0015EA  0000    	NOP
0015EB  0000    	NOP
0015EC  0101    	MOVW R1:R0,R3:R2
0015ED  0101    	MOVW R1:R0,R3:R2
0015EE  0101    	MOVW R1:R0,R3:R2
0015EF  0101    	MOVW R1:R0,R3:R2
0015F0  0101    	MOVW R1:R0,R3:R2
0015F1  0101    	MOVW R1:R0,R3:R2
0015F2  0101    	MOVW R1:R0,R3:R2
0015F3  0101    	MOVW R1:R0,R3:R2
0015F4  0101    	MOVW R1:R0,R3:R2
0015F5  0101    	MOVW R1:R0,R3:R2
0015F6  0101    	MOVW R1:R0,R3:R2
0015F7  0101    	MOVW R1:R0,R3:R2
0015F8  0101    	MOVW R1:R0,R3:R2
0015F9  0101    	MOVW R1:R0,R3:R2
0015FA  0101    	MOVW R1:R0,R3:R2
0015FB  0101    	MOVW R1:R0,R3:R2
0015FC  0202    	MULS R16,R18
0015FD  0202    	MULS R16,R18
0015FE  0202    	MULS R16,R18
0015FF  0202    	MULS R16,R18
001600  0202    	MULS R16,R18
001601  0202    	MULS R16,R18
001602  0202    	MULS R16,R18
001603  0202    	MULS R16,R18
001604  0303    	MULSU R16,R19
001605  0303    	MULSU R16,R19
001606  0303    	MULSU R16,R19
001607  0303    	MULSU R16,R19
001608  0303    	MULSU R16,R19
001609  0303    	MULSU R16,R19
00160A  0303    	MULSU R16,R19
00160B  0303    	MULSU R16,R19
00160C  0303    	MULSU R16,R19
00160D  0303    	MULSU R16,R19
00160E  0303    	MULSU R16,R19
00160F  0303    	MULSU R16,R19
001610  0303    	MULSU R16,R19
001611  0303    	MULSU R16,R19
001612  0303    	MULSU R16,R19
001613  0303    	MULSU R16,R19
001614  0202    	MULS R16,R18
001615  0202    	MULS R16,R18
001616  0202    	MULS R16,R18
001617  0202    	MULS R16,R18
001618  0202    	MULS R16,R18
001619  0202    	MULS R16,R18
00161A  0202    	MULS R16,R18
00161B  0202    	MULS R16,R18
00161C  0202    	MULS R16,R18
00161D  0202    	MULS R16,R18
00161E  0202    	MULS R16,R18
00161F  0202    	MULS R16,R18
001620  0202    	MULS R16,R18
001621  0202    	MULS R16,R18
001622  0202    	MULS R16,R18
001623  0202    	MULS R16,R18
001624  0101    	MOVW R1:R0,R3:R2
001625  0101    	MOVW R1:R0,R3:R2
001626  0101    	MOVW R1:R0,R3:R2
001627  0101    	MOVW R1:R0,R3:R2
001628  0101    	MOVW R1:R0,R3:R2
001629  0101    	MOVW R1:R0,R3:R2
00162A  0101    	MOVW R1:R0,R3:R2
00162B  0101    	MOVW R1:R0,R3:R2
00162C  0000    	NOP
00162D  0000    	NOP
00162E  0000    	NOP
00162F  0000    	NOP
001630  0000    	NOP
001631  0000    	NOP
001632  0000    	NOP
001633  0000    	NOP
001634  0000    	NOP
001635  0000    	NOP
001636  0000    	NOP
001637  0000    	NOP
001638  0000    	NOP
001639  0000    	NOP
00163A  0000    	NOP
00163B  0000    	NOP
00163C  0101    	MOVW R1:R0,R3:R2
00163D  0101    	MOVW R1:R0,R3:R2
00163E  0101    	MOVW R1:R0,R3:R2
00163F  0101    	MOVW R1:R0,R3:R2
001640  0101    	MOVW R1:R0,R3:R2
001641  0101    	MOVW R1:R0,R3:R2
001642  0101    	MOVW R1:R0,R3:R2
001643  0101    	MOVW R1:R0,R3:R2
001644  0101    	MOVW R1:R0,R3:R2
001645  0101    	MOVW R1:R0,R3:R2
001646  0101    	MOVW R1:R0,R3:R2
001647  0101    	MOVW R1:R0,R3:R2
001648  0101    	MOVW R1:R0,R3:R2
001649  0101    	MOVW R1:R0,R3:R2
00164A  0101    	MOVW R1:R0,R3:R2
00164B  0101    	MOVW R1:R0,R3:R2
00164C  0202    	MULS R16,R18
00164D  0202    	MULS R16,R18
00164E  0202    	MULS R16,R18
00164F  0202    	MULS R16,R18
001650  0202    	MULS R16,R18
001651  0202    	MULS R16,R18
001652  0202    	MULS R16,R18
001653  0202    	MULS R16,R18
001654  0303    	MULSU R16,R19
001655  0303    	MULSU R16,R19
001656  0303    	MULSU R16,R19
001657  0303    	MULSU R16,R19
001658  0303    	MULSU R16,R19
001659  0303    	MULSU R16,R19
00165A  0303    	MULSU R16,R19
00165B  0303    	MULSU R16,R19
00165C  0303    	MULSU R16,R19
00165D  0303    	MULSU R16,R19
00165E  0303    	MULSU R16,R19
00165F  0303    	MULSU R16,R19
001660  0303    	MULSU R16,R19
001661  0303    	MULSU R16,R19
001662  0303    	MULSU R16,R19
001663  0303    	MULSU R16,R19
001664  0202    	MULS R16,R18
001665  0202    	MULS R16,R18
001666  0202    	MULS R16,R18
001667  0202    	MULS R16,R18
001668  0202    	MULS R16,R18
001669  0202    	MULS R16,R18
00166A  0202    	MULS R16,R18
00166B  0202    	MULS R16,R18
00166C  0202    	MULS R16,R18
00166D  0202    	MULS R16,R18
00166E  0202    	MULS R16,R18
00166F  0202    	MULS R16,R18
001670  0202    	MULS R16,R18
001671  0202    	MULS R16,R18
001672  0202    	MULS R16,R18
001673  0202    	MULS R16,R18
001674  0101    	MOVW R1:R0,R3:R2
001675  0101    	MOVW R1:R0,R3:R2
001676  0101    	MOVW R1:R0,R3:R2
001677  0101    	MOVW R1:R0,R3:R2
001678  0101    	MOVW R1:R0,R3:R2
001679  0101    	MOVW R1:R0,R3:R2
00167A  0101    	MOVW R1:R0,R3:R2
00167B  0101    	MOVW R1:R0,R3:R2
00167C  0000    	NOP
00167D  0000    	NOP
00167E  0000    L201:	NOP
00167F  0000    	NOP
001680  0000    	NOP
001681  0000    	NOP
001682  0000    	NOP
001683  0000    	NOP
001684  0000    	NOP
001685  0000    	NOP
001686  0000    	NOP
001687  0000    	NOP
001688  0000    	NOP
001689  0000    	NOP
00168A  0000    	NOP
00168B  0000    	NOP
00168C  0101    	MOVW R1:R0,R3:R2
00168D  0101    	MOVW R1:R0,R3:R2
00168E  0101    	MOVW R1:R0,R3:R2
00168F  0101    	MOVW R1:R0,R3:R2
001690  0101    	MOVW R1:R0,R3:R2
001691  0101    	MOVW R1:R0,R3:R2
001692  0101    	MOVW R1:R0,R3:R2
001693  0101    	MOVW R1:R0,R3:R2
001694  0101    	MOVW R1:R0,R3:R2
001695  0101    	MOVW R1:R0,R3:R2
001696  0101    	MOVW R1:R0,R3:R2
001697  0101    	MOVW R1:R0,R3:R2
001698  0101    	MOVW R1:R0,R3:R2
001699  0101    	MOVW R1:R0,R3:R2
00169A  0101    	MOVW R1:R0,R3:R2
00169B  0101    	MOVW R1:R0,R3:R2
00169C  0202    	MULS R16,R18
00169D  0202    	MULS R16,R18
00169E  0202    	MULS R16,R18
00169F  0202    	MULS R16,R18
0016A0  0202    	MULS R16,R18
0016A1  0202    	MULS R16,R18
0016A2  0202    	MULS R16,R18
0016A3  0202    	MULS R16,R18
0016A4  0303    	MULSU R16,R19
0016A5  0303    	MULSU R16,R19
0016A6  0303    	MULSU R16,R19
0016A7  0303    	MULSU R16,R19
0016A8  0303    	MULSU R16,R19
0016A9  0303    	MULSU R16,R19
0016AA  0303    	MULSU R16,R19
0016AB  0303    	MULSU R16,R19
0016AC  0303    	MULSU R16,R19
0016AD  0303    	MULSU R16,R19
0016AE  0303    	MULSU R16,R19
0016AF  0303    	MULSU R16,R19
0016B0  0303    	MULSU R16,R19
0016B1  0303    	MULSU R16,R19
0016B2  0303    	MULSU R16,R19
0016B3  0303    	MULSU R16,R19
0016B4  0202    	MULS R16,R18
0016B5  0202    	MULS R16,R18
0016B6  0202    	MULS R16,R18
0016B7  0202    	MULS R16,R18
0016B8  0202    	MULS R16,R18
0016B9  0202    	MULS R16,R18
0016BA  0202    	MULS R16,R18
0016BB  0202    	MULS R16,R18
0016BC  0202    	MULS R16,R18
0016BD  0202    	MULS R16,R18
0016BE  0202    	MULS R16,R18
0016BF  0202    	MULS R16,R18
0016C0  0202    	MULS R16,R18
0016C1  0202    	MULS R16,R18
0016C2  0202    	MULS R16,R18
0016C3  0202    	MULS R16,R18
0016C4  0101    	MOVW R1:R0,R3:R2
0016C5  0101    	MOVW R1:R0,R3:R2
0016C6  0101    	MOVW R1:R0,R3:R2
0016C7  0101    	MOVW R1:R0,R3:R2
0016C8  0101    	MOVW R1:R0,R3:R2
0016C9  0101    	MOVW R1:R0,R3:R2
0016CA  0101    	MOVW R1:R0,R3:R2
0016CB  0101    	MOVW R1:R0,R3:R2
0016CC  0000    	NOP
0016CD  0000    	NOP
0016CE  0000    	NOP
0016CF  0000    	NOP
0016D0  0000    	NOP
0016D1  0000    	NOP
0016D2  0000    	NOP
0016D3  0000    	NOP
0016D4  0000    	NOP
0016D5  0000    	NOP
0016D6  0000    	NOP
0016D7  0000    	NOP
0016D8  0000    	NOP
0016D9  0000    	NOP
0016DA  0000    	NOP
0016DB  0000    	NOP
0016DC  0101    	MOVW R1:R0,R3:R2
0016DD  0101    	MOVW R1:R0,R3:R2
0016DE  0101    	MOVW R1:R0,R3:R2
0016DF  0101    	MOVW R1:R0,R3:R2
0016E0  0101    	MOVW R1:R0,R3:R2
0016E1  0101    	MOVW R1:R0,R3:R2
0016E2  0101    	MOVW R1:R0,R3:R2
0016E3  0101    	MOVW R1:R0,R3:R2
0016E4  0101    	MOVW R1:R0,R3:R2
0016E5  0101    	MOVW R1:R0,R3:R2
0016E6  0101    	MOVW R1:R0,R3:R2
0016E7  0101    	MOVW R1:R0,R3:R2
0016E8  0101    	MOVW R1:R0,R3:R2
0016E9  0101    	MOVW R1:R0,R3:R2
0016EA  0101    	MOVW R1:R0,R3:R2
0016EB  0101    	MOVW R1:R0,R3:R2
0016EC  0202    	MULS R16,R18
0016ED  0202    	MULS R16,R18
0016EE  0202    	MULS R16,R18
0016EF  0202    	MULS R16,R18
0016F0  0202    	MULS R16,R18
0016F1  0202    	MULS R16,R18
0016F2  0202    	MULS R16,R18
0016F3  0202    	MULS R16,R18
0016F4  0303    	MULSU R16,R19
0016F5  0303    	MULSU R16,R19
0016F6  0303    	MULSU R16,R19
0016F7  0303    	MULSU R16,R19
0016F8  0303    	MULSU R16,R19
0016F9  0303    	MULSU R16,R19
0016FA  0303    	MULSU R16,R19
0016FB  0303    	MULSU R16,R19
0016FC  0000    	NOP
0016FD  0000    	NOP
0016FE  0000    	NOP
0016FF  0000    	NOP
001700  0000    	NOP
001701  0000    	NOP
001702  0000    	NOP
001703  0000    	NOP
001704  0303    	MULSU R16,R19
001705  0303    	MULSU R16,R19
001706  0303    	MULSU R16,R19
001707  0303    	MULSU R16,R19
001708  0303    	MULSU R16,R19
001709  0303    	MULSU R16,R19
00170A  0303    	MULSU R16,R19
00170B  0303    	MULSU R16,R19
00170C  0303    	MULSU R16,R19
00170D  0303    	MULSU R16,R19
00170E  0303    	MULSU R16,R19
00170F  0303    	MULSU R16,R19
001710  0303    	MULSU R16,R19
001711  0303    	MULSU R16,R19
001712  0303    	MULSU R16,R19
001713  0303    	MULSU R16,R19
001714  0202    	MULS R16,R18
001715  0202    	MULS R16,R18
001716  0202    	MULS R16,R18
001717  0202    	MULS R16,R18
001718  0202    	MULS R16,R18
001719  0202    	MULS R16,R18
00171A  0202    	MULS R16,R18
00171B  0202    	MULS R16,R18
00171C  0202    	MULS R16,R18
00171D  0202    	MULS R16,R18
00171E  0202    	MULS R16,R18
00171F  0202    	MULS R16,R18
001720  0202    	MULS R16,R18
001721  0202    	MULS R16,R18
001722  0202    	MULS R16,R18
001723  0202    	MULS R16,R18
001724  0101    	MOVW R1:R0,R3:R2
001725  0101    	MOVW R1:R0,R3:R2
001726  0101    	MOVW R1:R0,R3:R2
001727  0101    	MOVW R1:R0,R3:R2
001728  0101    	MOVW R1:R0,R3:R2
001729  0101    	MOVW R1:R0,R3:R2
00172A  0101    	MOVW R1:R0,R3:R2
00172B  0101    	MOVW R1:R0,R3:R2
00172C  0000    	NOP
00172D  0000    	NOP
00172E  0000    	NOP
00172F  0000    	NOP
001730  0000    	NOP
001731  0000    	NOP
001732  0000    	NOP
001733  0000    	NOP
001734  0000    	NOP
001735  0000    	NOP
001736  0000    L211:	NOP
001737  0000    	NOP
001738  0000    	NOP
001739  0000    	NOP
00173A  0000    	NOP
00173B  0000    	NOP
00173C  0101    	MOVW R1:R0,R3:R2
00173D  0101    	MOVW R1:R0,R3:R2
00173E  0101    L213:	MOVW R1:R0,R3:R2
00173F  0101    	MOVW R1:R0,R3:R2
001740  0101    	MOVW R1:R0,R3:R2
001741  0101    	MOVW R1:R0,R3:R2
001742  0101    	MOVW R1:R0,R3:R2
001743  0101    	MOVW R1:R0,R3:R2
001744  0101    	MOVW R1:R0,R3:R2
001745  0101    	MOVW R1:R0,R3:R2
001746  0101    	MOVW R1:R0,R3:R2
001747  0101    	MOVW R1:R0,R3:R2
001748  0101    	MOVW R1:R0,R3:R2
001749  0101    	MOVW R1:R0,R3:R2
00174A  0101    	MOVW R1:R0,R3:R2
00174B  0101    	MOVW R1:R0,R3:R2
00174C  0202    	MULS R16,R18
00174D  0202    	MULS R16,R18
00174E  0202    	MULS R16,R18
00174F  0202    	MULS R16,R18
001750  0202    	MULS R16,R18
001751  0202    	MULS R16,R18
001752  0202    	MULS R16,R18
001753  0202    	MULS R16,R18
001754  0303    	MULSU R16,R19
001755  0303    	MULSU R16,R19
001756  0303    	MULSU R16,R19
001757  0303    	MULSU R16,R19
001758  0303    	MULSU R16,R19
001759  0303    	MULSU R16,R19
00175A  0303    	MULSU R16,R19
00175B  0303    	MULSU R16,R19
00175C  0303    	MULSU R16,R19
00175D  0303    	MULSU R16,R19
00175E  0303    	MULSU R16,R19
00175F  0303    	MULSU R16,R19
001760  0303    	MULSU R16,R19
001761  0303    	MULSU R16,R19
001762  0303    	MULSU R16,R19
001763  0303    	MULSU R16,R19
001764  0202    	MULS R16,R18
001765  0202    	MULS R16,R18
001766  0202    	MULS R16,R18
001767  0202    	MULS R16,R18
001768  0202    	MULS R16,R18
001769  0202    	MULS R16,R18
00176A  0202    	MULS R16,R18
00176B  0202    	MULS R16,R18
00176C  0202    	MULS R16,R18
00176D  0202    	MULS R16,R18
00176E  0202    	MULS R16,R18
00176F  0202    	MULS R16,R18
001770  0202    	MULS R16,R18
001771  0202    	MULS R16,R18
001772  0202    	MULS R16,R18
001773  0202    	MULS R16,R18
001774  0101    	MOVW R1:R0,R3:R2
001775  0101    	MOVW R1:R0,R3:R2
001776  0101    	MOVW R1:R0,R3:R2
001777  0101    	MOVW R1:R0,R3:R2
001778  0101    	MOVW R1:R0,R3:R2
001779  0101    	MOVW R1:R0,R3:R2
00177A  0101    L203:	MOVW R1:R0,R3:R2
00177B  0101    	MOVW R1:R0,R3:R2
00177C  0000    	NOP
00177D  0000    	NOP
00177E  0000    L229:	NOP
00177F  0000    	NOP
001780  0000    	NOP
001781  0000    	NOP
001782  0000    	NOP
001783  0000    	NOP
001784  0000    	NOP
001785  0000    	NOP
001786  0000    L231:	NOP
001787  0000    	NOP
001788  0000    	NOP
001789  0000    	NOP
00178A  0000    	NOP
00178B  0000    	NOP
00178C  0101    	MOVW R1:R0,R3:R2
00178D  0101    	MOVW R1:R0,R3:R2
00178E  0101    	MOVW R1:R0,R3:R2
00178F  0101    	MOVW R1:R0,R3:R2
001790  0101    	MOVW R1:R0,R3:R2
001791  0101    	MOVW R1:R0,R3:R2
001792  0101    	MOVW R1:R0,R3:R2
001793  0101    	MOVW R1:R0,R3:R2
001794  0101    	MOVW R1:R0,R3:R2
001795  0101    	MOVW R1:R0,R3:R2
001796  0101    	MOVW R1:R0,R3:R2
001797  0101    	MOVW R1:R0,R3:R2
001798  0101    	MOVW R1:R0,R3:R2
001799  0101    	MOVW R1:R0,R3:R2
00179A  0101    	MOVW R1:R0,R3:R2
00179B  0101    	MOVW R1:R0,R3:R2
00179C  0202    	MULS R16,R18
00179D  0202    L209:	MULS R16,R18
00179E  0202    	MULS R16,R18
00179F  0202    	MULS R16,R18
0017A0  0202    	MULS R16,R18
0017A1  0202    	MULS R16,R18
0017A2  0202    	MULS R16,R18
0017A3  0202    	MULS R16,R18
0017A4  0303    	MULSU R16,R19
0017A5  0303    	MULSU R16,R19
0017A6  0303    	MULSU R16,R19
0017A7  0303    	MULSU R16,R19
0017A8  0303    	MULSU R16,R19
0017A9  0303    	MULSU R16,R19
0017AA  0303    	MULSU R16,R19
0017AB  0303    	MULSU R16,R19
0017AC  0303    	MULSU R16,R19
0017AD  0303    	MULSU R16,R19
0017AE  0303    	MULSU R16,R19
0017AF  0303    	MULSU R16,R19
0017B0  0303    	MULSU R16,R19
0017B1  0303    	MULSU R16,R19
0017B2  0303    	MULSU R16,R19
0017B3  0303    	MULSU R16,R19
0017B4  0202    	MULS R16,R18
0017B5  0202    	MULS R16,R18
0017B6  0202    	MULS R16,R18
0017B7  0202    	MULS R16,R18
0017B8  0202    	MULS R16,R18
0017B9  0202    	MULS R16,R18
0017BA  0202    	MULS R16,R18
0017BB  0202    	MULS R16,R18
0017BC  0202    	MULS R16,R18
0017BD  0202    	MULS R16,R18
0017BE  0202    	MULS R16,R18
0017BF  0202    	MULS R16,R18
0017C0  0202    	MULS R16,R18
0017C1  0202    	MULS R16,R18
0017C2  0202    	MULS R16,R18
0017C3  0202    	MULS R16,R18
0017C4  0101    	MOVW R1:R0,R3:R2
0017C5  0101    	MOVW R1:R0,R3:R2
0017C6  0101    L247:	MOVW R1:R0,R3:R2
0017C7  0101    	MOVW R1:R0,R3:R2
0017C8  0101    	MOVW R1:R0,R3:R2
0017C9  0101    	MOVW R1:R0,R3:R2
0017CA  0101    	MOVW R1:R0,R3:R2
0017CB  0101    	MOVW R1:R0,R3:R2
0017CC  0000    	NOP
0017CD  0000    	NOP
0017CE  0000    	NOP
0017CF  0000    	NOP
0017D0  0000    	NOP
0017D1  0000    	NOP
0017D2  0000    	NOP
0017D3  0000    	NOP
0017D4  0000    	NOP
0017D5  0000    	NOP
0017D6  0000    	NOP
0017D7  0000    	NOP
0017D8  0000    	NOP
0017D9  0000    	NOP
0017DA  0000    	NOP
0017DB  0000    	NOP
0017DC  0101    	MOVW R1:R0,R3:R2
0017DD  0101    	MOVW R1:R0,R3:R2
0017DE  0101    L253:	MOVW R1:R0,R3:R2
0017DF  0101    	MOVW R1:R0,R3:R2
0017E0  0101    	MOVW R1:R0,R3:R2
0017E1  0101    	MOVW R1:R0,R3:R2
0017E2  0101    	MOVW R1:R0,R3:R2
0017E3  0101    	MOVW R1:R0,R3:R2
0017E4  0101    	MOVW R1:R0,R3:R2
0017E5  0101    	MOVW R1:R0,R3:R2
0017E6  0101    	MOVW R1:R0,R3:R2
0017E7  0101    	MOVW R1:R0,R3:R2
0017E8  0101    	MOVW R1:R0,R3:R2
0017E9  0101    	MOVW R1:R0,R3:R2
0017EA  0101    	MOVW R1:R0,R3:R2
0017EB  0101    	MOVW R1:R0,R3:R2
0017EC  0202    	MULS R16,R18
0017ED  0202    	MULS R16,R18
0017EE  0202    	MULS R16,R18
0017EF  0202    	MULS R16,R18
0017F0  0202    	MULS R16,R18
0017F1  0202    	MULS R16,R18
0017F2  0202    	MULS R16,R18
0017F3  0202    	MULS R16,R18
0017F4  0303    	MULSU R16,R19
0017F5  0303    	MULSU R16,R19
0017F6  0303    	MULSU R16,R19
0017F7  0303    	MULSU R16,R19
0017F8  0303    	MULSU R16,R19
0017F9  0303    	MULSU R16,R19
0017FA  0303    	MULSU R16,R19
0017FB  0303    	MULSU R16,R19
0017FC  0303    	MULSU R16,R19
0017FD  0303    	MULSU R16,R19
0017FE  0303    	MULSU R16,R19
0017FF  0303    	MULSU R16,R19
001800  0303    	MULSU R16,R19
001801  0303    	MULSU R16,R19
001802  0303    	MULSU R16,R19
001803  0303    	MULSU R16,R19
001804  0202    	MULS R16,R18
001805  0202    	MULS R16,R18
001806  0202    	MULS R16,R18
001807  0202    	MULS R16,R18
001808  0202    	MULS R16,R18
001809  0202    	MULS R16,R18
00180A  0202    	MULS R16,R18
00180B  0202    	MULS R16,R18
00180C  0202    	MULS R16,R18
00180D  0202    	MULS R16,R18
00180E  0202    	MULS R16,R18
00180F  0202    	MULS R16,R18
001810  0202    	MULS R16,R18
001811  0202    	MULS R16,R18
001812  0202    	MULS R16,R18
001813  0202    	MULS R16,R18
001814  0101    	MOVW R1:R0,R3:R2
001815  0101    	MOVW R1:R0,R3:R2
001816  0101    	MOVW R1:R0,R3:R2
001817  0101    	MOVW R1:R0,R3:R2
001818  0101    	MOVW R1:R0,R3:R2
001819  0101    L206:	MOVW R1:R0,R3:R2
00181A  0101    	MOVW R1:R0,R3:R2
00181B  0101    	MOVW R1:R0,R3:R2
00181C  0000    	NOP
00181D  0000    	NOP
00181E  0000    L269:	NOP
00181F  0000    	NOP
001820  0000    	NOP
001821  0000    	NOP
001822  0000    	NOP
001823  0000    	NOP
001824  0000    	NOP
001825  0000    	NOP
001826  0000    L271:	NOP
001827  0000    	NOP
001828  0000    	NOP
001829  0000    	NOP
00182A  0000    	NOP
00182B  0000    	NOP
00182C  0101    	MOVW R1:R0,R3:R2
00182D  0101    	MOVW R1:R0,R3:R2
00182E  0101    	MOVW R1:R0,R3:R2
00182F  0101    	MOVW R1:R0,R3:R2
001830  0101    	MOVW R1:R0,R3:R2
001831  0101    	MOVW R1:R0,R3:R2
001832  0101    	MOVW R1:R0,R3:R2
001833  0101    	MOVW R1:R0,R3:R2
001834  0101    	MOVW R1:R0,R3:R2
001835  0101    	MOVW R1:R0,R3:R2
001836  0101    	MOVW R1:R0,R3:R2
001837  0101    	MOVW R1:R0,R3:R2
001838  0101    	MOVW R1:R0,R3:R2
001839  0101    	MOVW R1:R0,R3:R2
00183A  0101    	MOVW R1:R0,R3:R2
00183B  0101    	MOVW R1:R0,R3:R2
00183C  0202    	MULS R16,R18
00183D  0202    	MULS R16,R18
00183E  0202    	MULS R16,R18
00183F  0202    	MULS R16,R18
001840  0202    	MULS R16,R18
001841  0202    	MULS R16,R18
001842  0202    	MULS R16,R18
001843  0202    	MULS R16,R18
001844  0000    	NOP
001845  0000    	NOP
001846  0000    	NOP
001847  0000    	NOP
001848  0000    	NOP
001849  0000    	NOP
00184A  0000    	NOP
00184B  0000    	NOP
00184C  2828    	OR R2,R8
00184D  2828    	OR R2,R8
00184E  2828    	OR R2,R8
00184F  2828    	OR R2,R8
001850  2828    	OR R2,R8
001851  1414    	CP R1,R4
001852  1414    	CP R1,R4
001853  1414    	CP R1,R4
001854  3C3C    	CPI R19,$CC
001855  3C3C    	CPI R19,$CC
001856  3C3C    	CPI R19,$CC
001857  3C3C    	CPI R19,$CC
001858  3C3C    	CPI R19,$CC
001859  1E1E    	ADC R1,ZL
00185A  1E1E    	ADC R1,ZL
00185B  1E1E    	ADC R1,ZL
00185C  0000    	NOP
00185D  0000    	NOP
00185E  0000    	NOP
00185F  0000    	NOP
001860  0000    	NOP
001861  0000    	NOP
001862  0000    	NOP
001863  0000    	NOP
001864  001E    	UNRECOGNIZED
001865  0005    	UNRECOGNIZED
001866  0008    L287:	UNRECOGNIZED
001867  0003    	UNRECOGNIZED
001868  0001    	UNRECOGNIZED
001869  000F    	UNRECOGNIZED
00186A  03E8    	FMULSU R22,R16
00186B  0096    	UNRECOGNIZED
00186C  0136    	MOVW R7:R6,R13:R12
00186D  00FA    	UNRECOGNIZED
00186E  0078    	UNRECOGNIZED
00186F  012C    	MOVW R5:R4,R25:R24
001870  B37D    	IN R23,EEDR
001871  58C7    	SUBI YL,$87
001872  7E6C    	ANDI R22,$EC
001873  3148    	CPI R20,$18
001874  8DA3    	LDD XL,Z+27
001875  7F59    	ANDI R21,$F9
001876  9F2F    	MUL R18,ZH
001877  AB70    	STD Z+48,R23
001878  B37D    	IN R23,EEDR
001879  58C7    	SUBI YL,$87
00187A  7E6C    	ANDI R22,$EC
00187B  3148    	CPI R20,$18
00187C  8DA3    	LDD XL,Z+27
00187D  7F59    	ANDI R21,$F9
00187E  9F2F    L293:	MUL R18,ZH
00187F  AB70    	STD Z+48,R23
001880  A77E    	STD Y+46,R23
001881  62DE    	ORI YH,$2E
001882  7D6E    	ANDI R22,$DE
001883  1D54    	ADC R21,R4
001884  8E9B    	STD Y+27,R9
001885  7F59    	ANDI R21,$F9
001886  9F2F    	MUL R18,ZH
001887  AB70    	STD Z+48,R23
001888  A46B    	LDD R6,Y+43
001889  66E9    	ORI ZL,$69
00188A  6C5F    	ORI R21,$CF
00188B  1D50    	ADC R21,R0
00188C  819B    	LDD R25,Y+3
00188D  7F59    	ANDI R21,$F9
00188E  9F2F    	MUL R18,ZH
00188F  AB70    	STD Z+48,R23
001890  A46B    	LDD R6,Y+43
001891  69E9    	ORI ZL,$99
001892  915F    	POP R21
001893  284A    	OR R4,R10
001894  9A9D    	SBI PINC,PINC5
001895  7F59    	ANDI R21,$F9
001896  9F2F    	MUL R18,ZH
001897  AB70    	STD Z+48,R23
001898  A47E    	LDD R7,Y+46
001899  5FDE    	SUBI YH,$FE
00189A  7D6B    	ANDI R22,$DB
00189B  1D54    	ADC R21,R4
00189C  8E9B    	STD Y+27,R9
00189D  7F59    	ANDI R21,$F9
00189E  9F2F    	MUL R18,ZH
00189F  AB70    	STD Z+48,R23
0018A0  B37D    	IN R23,EEDR
0018A1  58C7    	SUBI YL,$87
0018A2  7E6C    	ANDI R22,$EC
0018A3  3148    	CPI R20,$18
0018A4  8DA3    	LDD XL,Z+27
0018A5  7F59    	ANDI R21,$F9
0018A6  9F2F    	MUL R18,ZH
0018A7  AB70    	STD Z+48,R23
0018A8  0202    	MULS R16,R18
0018A9  0202    	MULS R16,R18
0018AA  0202    	MULS R16,R18
0018AB  0202    	MULS R16,R18
0018AC  0202    	MULS R16,R18
0018AD  0202    	MULS R16,R18
0018AE  0202    	MULS R16,R18
0018AF  0202    	MULS R16,R18
0018B0  0404    	CPC R0,R4
0018B1  0404    	CPC R0,R4
0018B2  0404    	CPC R0,R4
0018B3  0404    	CPC R0,R4
0018B4  0404    	CPC R0,R4
0018B5  0404    	CPC R0,R4
0018B6  0404    	CPC R0,R4
0018B7  0404    	CPC R0,R4
0018B8  0202    	MULS R16,R18
0018B9  0202    	MULS R16,R18
0018BA  0202    	MULS R16,R18
0018BB  0202    	MULS R16,R18
0018BC  0202    	MULS R16,R18
0018BD  0000    	NOP
0018BE  0000    L309:	NOP
0018BF  0000    	NOP
0018C0  0202    	MULS R16,R18
0018C1  0202    	MULS R16,R18
0018C2  0002    	UNRECOGNIZED
0018C3  0000    	NOP
0018C4  0000    	NOP
0018C5  0303    	MULSU R16,R19
0018C6  0303    L311:	MULSU R16,R19
0018C7  0303    	MULSU R16,R19
0018C8  0101    	MOVW R1:R0,R3:R2
0018C9  0101    	MOVW R1:R0,R3:R2
0018CA  0101    	MOVW R1:R0,R3:R2
0018CB  0101    	MOVW R1:R0,R3:R2
0018CC  0101    	MOVW R1:R0,R3:R2
0018CD  0303    	MULSU R16,R19
0018CE  0303    L313:	MULSU R16,R19
0018CF  0303    	MULSU R16,R19
0018D0  0404    	CPC R0,R4
0018D1  0404    	CPC R0,R4
0018D2  0404    	CPC R0,R4
0018D3  0404    	CPC R0,R4
0018D4  0404    	CPC R0,R4
0018D5  0404    	CPC R0,R4
0018D6  0404    	CPC R0,R4
0018D7  0404    	CPC R0,R4
0018D8  0101    	MOVW R1:R0,R3:R2
0018D9  0101    	MOVW R1:R0,R3:R2
0018DA  0001    	UNRECOGNIZED
0018DB  0000    	NOP
0018DC  0000    	NOP
0018DD  0101    	MOVW R1:R0,R3:R2
0018DE  0001    	UNRECOGNIZED
0018DF  0000    	NOP
0018E0  0101    	MOVW R1:R0,R3:R2
0018E1  0101    	MOVW R1:R0,R3:R2
0018E2  0001    	UNRECOGNIZED
0018E3  0000    	NOP
0018E4  0000    	NOP
0018E5  0101    	MOVW R1:R0,R3:R2
0018E6  0001    	UNRECOGNIZED
0018E7  0000    	NOP
0018E8  0000    	NOP
0018E9  0000    	NOP
0018EA  0000    	NOP
0018EB  0000    	NOP
0018EC  0000    	NOP
0018ED  0000    	NOP
0018EE  0000    	NOP
0018EF  0000    	NOP
0018F0  0101    	MOVW R1:R0,R3:R2
0018F1  0101    	MOVW R1:R0,R3:R2
0018F2  0001    	UNRECOGNIZED
0018F3  0000    	NOP
0018F4  0000    	NOP
0018F5  0101    	MOVW R1:R0,R3:R2
0018F6  0001    	UNRECOGNIZED
0018F7  0000    	NOP
0018F8  0000    	NOP
0018F9  0000    	NOP
0018FA  0000    	NOP
0018FB  0000    	NOP
0018FC  0000    	NOP
0018FD  0000    	NOP
0018FE  0000    	NOP
0018FF  0000    	NOP
001900  0000    	NOP
001901  0000    	NOP
001902  0000    	NOP
001903  0000    	NOP
001904  0000    	NOP
001905  0000    	NOP
001906  0000    	NOP
001907  0000    	NOP
001908  2828    	OR R2,R8
001909  2828    	OR R2,R8
00190A  2828    	OR R2,R8
00190B  2828    	OR R2,R8
00190C  2828    	OR R2,R8
00190D  1414    	CP R1,R4
00190E  1414    	CP R1,R4
00190F  1414    	CP R1,R4
001910  3C3C    	CPI R19,$CC
001911  3C3C    	CPI R19,$CC
001912  3C3C    	CPI R19,$CC
001913  3C3C    	CPI R19,$CC
001914  3C3C    	CPI R19,$CC
001915  1E1E    	ADC R1,ZL
001916  1E1E    	ADC R1,ZL
001917  1E1E    	ADC R1,ZL
001918  0000    	NOP
001919  0000    	NOP
00191A  0000    	NOP
00191B  0000    	NOP
00191C  0000    	NOP
00191D  0000    	NOP
00191E  0000    	NOP
00191F  0000    	NOP
001920  001E    	UNRECOGNIZED
001921  0005    	UNRECOGNIZED
001922  0008    	UNRECOGNIZED
001923  0003    	UNRECOGNIZED
001924  0001    	UNRECOGNIZED
001925  000F    	UNRECOGNIZED
001926  03E8    	FMULSU R22,R16
001927  0096    	UNRECOGNIZED
001928  0136    	MOVW R7:R6,R13:R12
001929  00C8    	UNRECOGNIZED
00192A  0078    	UNRECOGNIZED
00192B  012C    	MOVW R5:R4,R25:R24
00192C  B37D    	IN R23,EEDR
00192D  58C7    	SUBI YL,$87
00192E  7E6C    	ANDI R22,$EC
00192F  3148    	CPI R20,$18
001930  8DA3    	LDD XL,Z+27
001931  7F59    	ANDI R21,$F9
001932  9F2F    	MUL R18,ZH
001933  AB70    	STD Z+48,R23
001934  B37D    	IN R23,EEDR
001935  58C7    	SUBI YL,$87
001936  7E6C    	ANDI R22,$EC
001937  3148    	CPI R20,$18
001938  8DA3    L207:	LDD XL,Z+27
001939  7F59    	ANDI R21,$F9
00193A  9F2F    	MUL R18,ZH
00193B  AB70    	STD Z+48,R23
00193C  A77E    	STD Y+46,R23
00193D  62DE    	ORI YH,$2E
00193E  7D6E    	ANDI R22,$DE
00193F  1D54    	ADC R21,R4
001940  8E9B    	STD Y+27,R9
001941  7F59    	ANDI R21,$F9
001942  9F2F    	MUL R18,ZH
001943  AB70    	STD Z+48,R23
001944  A38B    	STD Y+35,R24
001945  64E6    	ORI ZL,$46
001946  8E78    	STD Y+24,R7
001947  0E57    	ADD R5,R23
001948  9F96    	MUL R25,R22
001949  7F59    	ANDI R21,$F9
00194A  9F2F    	MUL R18,ZH
00194B  AB70    	STD Z+48,R23
00194C  A46C    	LDD R6,Y+44
00194D  61E0    	ORI ZL,$10
00194E  976A    	SBIW YH:YL,26
00194F  1C50    	ADC R5,R0
001950  A799    	STD Y+41,R25
001951  7F59    	ANDI R21,$F9
001952  9F2F    	MUL R18,ZH
001953  AB70    	STD Z+48,R23
001954  A67E    	STD Y+46,R7
001955  62DE    	ORI YH,$2E
001956  7D71    	ANDI R23,$D1
001957  1D54    	ADC R21,R4
001958  8E9B    	STD Y+27,R9
001959  7F59    	ANDI R21,$F9
00195A  9F2F    	MUL R18,ZH
00195B  AB70    	STD Z+48,R23
00195C  B37D    	IN R23,EEDR
00195D  58C7    	SUBI YL,$87
00195E  7E6C    	ANDI R22,$EC
00195F  3148    	CPI R20,$18
001960  8DA3    	LDD XL,Z+27
001961  7F59    	ANDI R21,$F9
001962  9F2F    	MUL R18,ZH
001963  AB70    	STD Z+48,R23
001964  0202    	MULS R16,R18
001965  0202    	MULS R16,R18
001966  0202    	MULS R16,R18
001967  0202    	MULS R16,R18
001968  0202    	MULS R16,R18
001969  0202    	MULS R16,R18
00196A  0202    	MULS R16,R18
00196B  0202    	MULS R16,R18
00196C  0404    	CPC R0,R4
00196D  0404    	CPC R0,R4
00196E  0404    	CPC R0,R4
00196F  0404    	CPC R0,R4
001970  0404    	CPC R0,R4
001971  0404    	CPC R0,R4
001972  0404    	CPC R0,R4
001973  0404    	CPC R0,R4
001974  0202    	MULS R16,R18
001975  0202    	MULS R16,R18
001976  0202    	MULS R16,R18
001977  0202    	MULS R16,R18
001978  0202    	MULS R16,R18
001979  0404    	CPC R0,R4
00197A  0404    	CPC R0,R4
00197B  0404    	CPC R0,R4
00197C  0000    	NOP
00197D  0000    	NOP
00197E  0200    	MULS R16,R16
00197F  0202    	MULS R16,R18
001980  0202    	MULS R16,R18
001981  0404    	CPC R0,R4
001982  0404    	CPC R0,R4
001983  0404    	CPC R0,R4
001984  0000    	NOP
001985  0000    	NOP
001986  0200    	MULS R16,R16
001987  0202    	MULS R16,R18
001988  0202    	MULS R16,R18
001989  0404    	CPC R0,R4
00198A  0404    	CPC R0,R4
00198B  0404    	CPC R0,R4
00198C  0404    	CPC R0,R4
00198D  0404    	CPC R0,R4
00198E  0404    	CPC R0,R4
00198F  0404    	CPC R0,R4
001990  0404    	CPC R0,R4
001991  0404    	CPC R0,R4
001992  0404    	CPC R0,R4
001993  0404    	CPC R0,R4
001994  0000    	NOP
001995  0000    	NOP
001996  0100    	MOVW R1:R0,R1:R0
001997  0101    	MOVW R1:R0,R3:R2
001998  0101    	MOVW R1:R0,R3:R2
001999  0000    	NOP
00199A  0100    	MOVW R1:R0,R1:R0
00199B  0101    	MOVW R1:R0,R3:R2
00199C  0000    	NOP
00199D  0000    	NOP
00199E  0100    	MOVW R1:R0,R1:R0
00199F  0101    	MOVW R1:R0,R3:R2
0019A0  0101    	MOVW R1:R0,R3:R2
0019A1  0000    	NOP
0019A2  0100    	MOVW R1:R0,R1:R0
0019A3  0101    	MOVW R1:R0,R3:R2
0019A4  0000    	NOP
0019A5  0000    	NOP
0019A6  0000    	NOP
0019A7  0000    	NOP
0019A8  0000    	NOP
0019A9  0000    	NOP
0019AA  0000    	NOP
0019AB  0000    	NOP
0019AC  0000    	NOP
0019AD  0000    	NOP
0019AE  0100    	MOVW R1:R0,R1:R0
0019AF  0101    	MOVW R1:R0,R3:R2
0019B0  0101    	MOVW R1:R0,R3:R2
0019B1  0000    	NOP
0019B2  0100    	MOVW R1:R0,R1:R0
0019B3  0101    	MOVW R1:R0,R3:R2
0019B4  0000    	NOP
0019B5  0000    	NOP
0019B6  0000    L243:	NOP
0019B7  0000    	NOP
0019B8  0000    	NOP
0019B9  0000    	NOP
0019BA  0000    	NOP
0019BB  0000    	NOP
0019BC  0000    	NOP
0019BD  0000    	NOP
0019BE  0000    	NOP
0019BF  0000    	NOP
0019C0  0000    	NOP
0019C1  0000    	NOP
0019C2  0000    	NOP
0019C3  0000    	NOP
0019C4  1414    	CP R1,R4
0019C5  1414    	CP R1,R4
0019C6  1414    	CP R1,R4
0019C7  1414    	CP R1,R4
0019C8  1414    	CP R1,R4
0019C9  1414    	CP R1,R4
0019CA  1414    	CP R1,R4
0019CB  1414    	CP R1,R4
0019CC  1E1E    	ADC R1,ZL
0019CD  1E1E    	ADC R1,ZL
0019CE  1E1E    	ADC R1,ZL
0019CF  1E1E    	ADC R1,ZL
0019D0  1E1E    	ADC R1,ZL
0019D1  1E1E    	ADC R1,ZL
0019D2  1E1E    	ADC R1,ZL
0019D3  1E1E    	ADC R1,ZL
0019D4  0000    	NOP
0019D5  0000    	NOP
0019D6  0000    	NOP
0019D7  0000    	NOP
0019D8  0000    	NOP
0019D9  0000    	NOP
0019DA  0000    	NOP
0019DB  0000    	NOP
0019DC  001E    	UNRECOGNIZED
0019DD  0001    	UNRECOGNIZED
0019DE  0001    	UNRECOGNIZED
0019DF  000A    	UNRECOGNIZED
0019E0  000A    	UNRECOGNIZED
0019E1  000A    	UNRECOGNIZED
0019E2  03E8    	FMULSU R22,R16
0019E3  00C8    	UNRECOGNIZED
0019E4  00C8    	UNRECOGNIZED
0019E5  01F4    	MOVW R31:R30,R9:R8
0019E6  01F4    	MOVW R31:R30,R9:R8
0019E7  01F4    	MOVW R31:R30,R9:R8
0019E8  B37D    	IN R23,EEDR
0019E9  58C7    	SUBI YL,$87
0019EA  7E6C    	ANDI R22,$EC
0019EB  3148    	CPI R20,$18
0019EC  8DA3    	LDD XL,Z+27
0019ED  7F59    	ANDI R21,$F9
0019EE  9F2F    L257:	MUL R18,ZH
0019EF  AB70    	STD Z+48,R23
0019F0  B37D    	IN R23,EEDR
0019F1  58C7    	SUBI YL,$87
0019F2  7E6C    	ANDI R22,$EC
0019F3  3148    	CPI R20,$18
0019F4  8DA3    	LDD XL,Z+27
0019F5  7F59    	ANDI R21,$F9
0019F6  9F2F    	MUL R18,ZH
0019F7  AB70    	STD Z+48,R23
0019F8  B77D    	IN R23,SPL
0019F9  69D8    	ORI YH,$98
0019FA  7E6C    	ANDI R22,$EC
0019FB  3148    	CPI R20,$18
0019FC  84A3    	LDD R10,Z+11
0019FD  7F59    	ANDI R21,$F9
0019FE  9F2F    	MUL R18,ZH
0019FF  AB70    	STD Z+48,R23
001A00  CC7D    	RJMP L201
001A01  5DB8    	SUBI XH,$D8
001A02  7E6C    	ANDI R22,$EC
001A03  3148    	CPI R20,$18
001A04  8DA3    	LDD XL,Z+27
001A05  7F59    	ANDI R21,$F9
001A06  9F2F    	MUL R18,ZH
001A07  AB70    	STD Z+48,R23
001A08  B37D    	IN R23,EEDR
001A09  58C7    	SUBI YL,$87
001A0A  7E6C    	ANDI R22,$EC
001A0B  3148    	CPI R20,$18
001A0C  8DA3    	LDD XL,Z+27
001A0D  9B59    	SBIS UCSR0A,U2X0
001A0E  9F1E    	MUL R17,ZL
001A0F  7D8C    	ANDI R24,$DC
001A10  B37D    	IN R23,EEDR
001A11  58C7    	SUBI YL,$87
001A12  7E6C    	ANDI R22,$EC
001A13  3148    	CPI R20,$18
001A14  8DA3    	LDD XL,Z+27
001A15  8559    	LDD R21,Y+9
001A16  9F1E    	MUL R17,ZL
001A17  CA95    	RJMP L202
001A18  B37D    	IN R23,EEDR
001A19  58C7    	SUBI YL,$87
001A1A  7E6C    	ANDI R22,$EC
001A1B  3148    	CPI R20,$18
001A1C  8DA3    	LDD XL,Z+27
001A1D  7F59    	ANDI R21,$F9
001A1E  9F2F    	MUL R18,ZH
001A1F  AB70    	STD Z+48,R23
001A20  0202    	MULS R16,R18
001A21  0202    	MULS R16,R18
001A22  0202    	MULS R16,R18
001A23  0202    	MULS R16,R18
001A24  0202    	MULS R16,R18
001A25  0202    	MULS R16,R18
001A26  0202    	MULS R16,R18
001A27  0202    	MULS R16,R18
001A28  0202    	MULS R16,R18
001A29  0202    	MULS R16,R18
001A2A  0202    	MULS R16,R18
001A2B  0202    	MULS R16,R18
001A2C  0202    	MULS R16,R18
001A2D  0202    	MULS R16,R18
001A2E  0202    	MULS R16,R18
001A2F  0202    	MULS R16,R18
001A30  0202    	MULS R16,R18
001A31  0202    	MULS R16,R18
001A32  0202    	MULS R16,R18
001A33  0202    	MULS R16,R18
001A34  0202    	MULS R16,R18
001A35  0202    	MULS R16,R18
001A36  0202    	MULS R16,R18
001A37  0202    	MULS R16,R18
001A38  0202    	MULS R16,R18
001A39  0202    	MULS R16,R18
001A3A  0202    	MULS R16,R18
001A3B  0202    	MULS R16,R18
001A3C  0202    	MULS R16,R18
001A3D  0202    	MULS R16,R18
001A3E  0202    	MULS R16,R18
001A3F  0202    	MULS R16,R18
001A40  0202    	MULS R16,R18
001A41  0202    	MULS R16,R18
001A42  0202    	MULS R16,R18
001A43  0202    	MULS R16,R18
001A44  0202    	MULS R16,R18
001A45  0202    	MULS R16,R18
001A46  0202    	MULS R16,R18
001A47  0202    	MULS R16,R18
001A48  0303    	MULSU R16,R19
001A49  0303    	MULSU R16,R19
001A4A  0303    	MULSU R16,R19
001A4B  0303    	MULSU R16,R19
001A4C  0303    	MULSU R16,R19
001A4D  0303    	MULSU R16,R19
001A4E  0303    	MULSU R16,R19
001A4F  0303    	MULSU R16,R19
001A50  0101    	MOVW R1:R0,R3:R2
001A51  0101    	MOVW R1:R0,R3:R2
001A52  0001    	UNRECOGNIZED
001A53  0000    	NOP
001A54  0000    	NOP
001A55  0101    	MOVW R1:R0,R3:R2
001A56  0001    L283:	UNRECOGNIZED
001A57  0000    	NOP
001A58  0000    	NOP
001A59  0000    	NOP
001A5A  0000    	NOP
001A5B  0000    	NOP
001A5C  0000    	NOP
001A5D  0000    	NOP
001A5E  0000    	NOP
001A5F  0000    	NOP
001A60  0000    	NOP
001A61  0000    	NOP
001A62  0000    	NOP
001A63  0000    	NOP
001A64  0000    	NOP
001A65  0000    	NOP
001A66  0000    	NOP
001A67  0000    	NOP
001A68  0000    	NOP
001A69  0000    	NOP
001A6A  0000    	NOP
001A6B  0000    	NOP
001A6C  0000    	NOP
001A6D  0000    	NOP
001A6E  0000    	NOP
001A6F  0000    	NOP
001A70  0000    	NOP
001A71  0000    	NOP
001A72  0000    	NOP
001A73  0000    	NOP
001A74  0000    	NOP
001A75  0000    	NOP
001A76  0000    	NOP
001A77  0000    	NOP
001A78  0000    	NOP
001A79  0000    	NOP
001A7A  0000    	NOP
001A7B  0000    	NOP
001A7C  0000    	NOP
001A7D  0000    	NOP
001A7E  0000    	NOP
001A7F  0000    	NOP
001A80  1414    	CP R1,R4
001A81  1414    	CP R1,R4
001A82  1414    	CP R1,R4
001A83  1414    	CP R1,R4
001A84  1414    	CP R1,R4
001A85  1414    	CP R1,R4
001A86  1414    	CP R1,R4
001A87  1414    	CP R1,R4
001A88  1E1E    	ADC R1,ZL
001A89  1E1E    	ADC R1,ZL
001A8A  1E1E    	ADC R1,ZL
001A8B  1E1E    	ADC R1,ZL
001A8C  1E1E    	ADC R1,ZL
001A8D  1E1E    	ADC R1,ZL
001A8E  1E1E    L297:	ADC R1,ZL
001A8F  1E1E    	ADC R1,ZL
001A90  0000    	NOP
001A91  0000    	NOP
001A92  0000    	NOP
001A93  0000    	NOP
001A94  0000    	NOP
001A95  0000    	NOP
001A96  0000    	NOP
001A97  0000    	NOP
001A98  000A    	UNRECOGNIZED
001A99  000A    	UNRECOGNIZED
001A9A  0001    	UNRECOGNIZED
001A9B  0005    	UNRECOGNIZED
001A9C  000A    	UNRECOGNIZED
001A9D  000A    	UNRECOGNIZED
001A9E  000A    	UNRECOGNIZED
001A9F  01F4    	MOVW R31:R30,R9:R8
001AA0  00C8    	UNRECOGNIZED
001AA1  00C8    	UNRECOGNIZED
001AA2  00C8    	UNRECOGNIZED
001AA3  01F4    	MOVW R31:R30,R9:R8
001AA4  01F4    	MOVW R31:R30,R9:R8
001AA5  01F4    	MOVW R31:R30,R9:R8
001AA6  B37D    	IN R23,EEDR
001AA7  58C7    	SUBI YL,$87
001AA8  7E6C    	ANDI R22,$EC
001AA9  3148    	CPI R20,$18
001AAA  8DA3    	LDD XL,Z+27
001AAB  7F59    	ANDI R21,$F9
001AAC  9F2F    	MUL R18,ZH
001AAD  AB70    	STD Z+48,R23
001AAE  B37D    	IN R23,EEDR
001AAF  58C7    	SUBI YL,$87
001AB0  7E6C    	ANDI R22,$EC
001AB1  3148    	CPI R20,$18
001AB2  8DA3    	LDD XL,Z+27
001AB3  7F59    	ANDI R21,$F9
001AB4  9F2F    	MUL R18,ZH
001AB5  AB70    	STD Z+48,R23
001AB6  B383    	IN R24,PINC
001AB7  58C7    	SUBI YL,$87
001AB8  7E72    	ANDI R23,$E2
001AB9  3148    	CPI R20,$18
001ABA  8DA3    	LDD XL,Z+27
001ABB  7A59    	ANDI R21,$A9
001ABC  9F2F    	MUL R18,ZH
001ABD  AB70    	STD Z+48,R23
001ABE  B37C    	IN R23,EECR
001ABF  58C7    	SUBI YL,$87
001AC0  8678    	STD Y+8,R7
001AC1  0F4A    	ADD R20,XL
001AC2  917E    	LD R23,-X
001AC3  7A59    	ANDI R21,$A9
001AC4  9F2F    	MUL R18,ZH
001AC5  AB70    	STD Z+48,R23
001AC6  B37C    	IN R23,EECR
001AC7  58C7    	SUBI YL,$87
001AC8  7C6C    	ANDI R22,$CC
001AC9  3937    	CPI R19,$97
001ACA  8E98    	STD Y+24,R9
001ACB  7A59    	ANDI R21,$A9
001ACC  9F2F    	MUL R18,ZH
001ACD  AB71    	STD Z+49,R23
001ACE  B37D    	IN R23,EEDR
001ACF  58C7    	SUBI YL,$87
001AD0  7E6C    	ANDI R22,$EC
001AD1  3148    	CPI R20,$18
001AD2  8DA3    	LDD XL,Z+27
001AD3  6359    	ORI R21,$39
001AD4  9F22    	MUL R18,R18
001AD5  8289    	STD Y+1,R8
001AD6  B37D    	IN R23,EEDR
001AD7  58C7    	SUBI YL,$87
001AD8  7E6C    	ANDI R22,$EC
001AD9  3148    	CPI R20,$18
001ADA  8DA3    	LDD XL,Z+27
001ADB  7D59    	ANDI R21,$D9
001ADC  9F1E    	MUL R17,ZL
001ADD  CC9C    	RJMP L203
001ADE  B37D    	IN R23,EEDR
001ADF  58C7    	SUBI YL,$87
001AE0  7E6C    	ANDI R22,$EC
001AE1  3148    	CPI R20,$18
001AE2  8DA3    	LDD XL,Z+27
001AE3  7F59    	ANDI R21,$F9
001AE4  9F2F    	MUL R18,ZH
001AE5  AB70    	STD Z+48,R23
001AE6  0202    	MULS R16,R18
001AE7  0202    	MULS R16,R18
001AE8  0202    	MULS R16,R18
001AE9  0202    	MULS R16,R18
001AEA  0202    	MULS R16,R18
001AEB  0202    	MULS R16,R18
001AEC  0202    	MULS R16,R18
001AED  0202    	MULS R16,R18
001AEE  0202    	MULS R16,R18
001AEF  0202    	MULS R16,R18
001AF0  0202    	MULS R16,R18
001AF1  0202    	MULS R16,R18
001AF2  0202    	MULS R16,R18
001AF3  0202    	MULS R16,R18
001AF4  0202    	MULS R16,R18
001AF5  0202    	MULS R16,R18
001AF6  0202    	MULS R16,R18
001AF7  0202    	MULS R16,R18
001AF8  0202    	MULS R16,R18
001AF9  0202    	MULS R16,R18
001AFA  0202    	MULS R16,R18
001AFB  0202    	MULS R16,R18
001AFC  0202    	MULS R16,R18
001AFD  0202    	MULS R16,R18
001AFE  0202    	MULS R16,R18
001AFF  0202    	MULS R16,R18
001B00  0202    	MULS R16,R18
001B01  0202    	MULS R16,R18
001B02  0202    	MULS R16,R18
001B03  0202    	MULS R16,R18
001B04  0202    	MULS R16,R18
001B05  0202    	MULS R16,R18
001B06  0202    	MULS R16,R18
001B07  0202    	MULS R16,R18
001B08  0202    	MULS R16,R18
001B09  0202    	MULS R16,R18
001B0A  0202    	MULS R16,R18
001B0B  0202    	MULS R16,R18
001B0C  0202    	MULS R16,R18
001B0D  0202    	MULS R16,R18
001B0E  0202    	MULS R16,R18
001B0F  0202    	MULS R16,R18
001B10  0202    	MULS R16,R18
001B11  0202    	MULS R16,R18
001B12  0202    	MULS R16,R18
001B13  0202    	MULS R16,R18
001B14  0202    	MULS R16,R18
001B15  0202    	MULS R16,R18
001B16  0202    	MULS R16,R18
001B17  0202    	MULS R16,R18
001B18  0202    	MULS R16,R18
001B19  0202    	MULS R16,R18
001B1A  0202    	MULS R16,R18
001B1B  0202    	MULS R16,R18
001B1C  0202    	MULS R16,R18
001B1D  0202    	MULS R16,R18
001B1E  0000    	NOP
001B1F  0000    	NOP
001B20  0000    	NOP
001B21  0000    	NOP
001B22  0000    	NOP
001B23  0000    	NOP
001B24  0000    	NOP
001B25  0000    	NOP
001B26  0000    	NOP
001B27  0000    	NOP
001B28  0000    	NOP
001B29  0000    	NOP
001B2A  0000    	NOP
001B2B  0000    	NOP
001B2C  0000    	NOP
001B2D  0000    	NOP
001B2E  0000    	NOP
001B2F  0000    	NOP
001B30  0000    	NOP
001B31  0000    	NOP
001B32  0000    	NOP
001B33  0000    	NOP
001B34  0000    	NOP
001B35  0000    	NOP
001B36  0000    	NOP
001B37  0000    	NOP
001B38  0000    	NOP
001B39  0000    	NOP
001B3A  0000    	NOP
001B3B  0000    	NOP
001B3C  0000    	NOP
001B3D  0000    	NOP
001B3E  0000    	NOP
001B3F  0000    	NOP
001B40  0000    	NOP
001B41  0000    	NOP
001B42  0000    	NOP
001B43  0000    	NOP
001B44  0000    	NOP
001B45  0000    	NOP
001B46  0000    	NOP
001B47  0000    	NOP
001B48  0000    	NOP
001B49  0000    	NOP
001B4A  0000    	NOP
001B4B  0000    	NOP
001B4C  0000    	NOP
001B4D  0000    	NOP
001B4E  0000    	NOP
001B4F  0000    	NOP
001B50  0000    	NOP
001B51  0000    	NOP
001B52  0000    	NOP
001B53  0000    	NOP
001B54  0000    	NOP
001B55  0000    	NOP
001B56  1414    	CP R1,R4
001B57  1414    	CP R1,R4
001B58  1414    	CP R1,R4
001B59  1414    	CP R1,R4
001B5A  1414    	CP R1,R4
001B5B  1414    	CP R1,R4
001B5C  1414    	CP R1,R4
001B5D  1414    	CP R1,R4
001B5E  1E1E    	ADC R1,ZL
001B5F  1E1E    	ADC R1,ZL
001B60  1E1E    	ADC R1,ZL
001B61  1E1E    	ADC R1,ZL
001B62  1E1E    	ADC R1,ZL
001B63  1E1E    	ADC R1,ZL
001B64  1E1E    	ADC R1,ZL
001B65  1E1E    	ADC R1,ZL
001B66  0000    	NOP
001B67  0000    	NOP
001B68  0000    	NOP
001B69  0000    	NOP
001B6A  0000    	NOP
001B6B  0000    	NOP
001B6C  0000    	NOP
001B6D  0000    	NOP
001B6E  001E    	UNRECOGNIZED
001B6F  000A    	UNRECOGNIZED
001B70  0001    	UNRECOGNIZED
001B71  0032    	UNRECOGNIZED
001B72  03E8    	FMULSU R22,R16
001B73  01F4    	MOVW R31:R30,R9:R8
001B74  01F4    	MOVW R31:R30,R9:R8
001B75  03E8    	FMULSU R22,R16
001B76  B37D    	IN R23,EEDR
001B77  58C7    	SUBI YL,$87
001B78  7E6C    	ANDI R22,$EC
001B79  3148    	CPI R20,$18
001B7A  8DA3    	LDD XL,Z+27
001B7B  7F59    	ANDI R21,$F9
001B7C  9F2F    	MUL R18,ZH
001B7D  AB70    	STD Z+48,R23
001B7E  B37D    	IN R23,EEDR
001B7F  58C7    	SUBI YL,$87
001B80  7E6C    	ANDI R22,$EC
001B81  3148    	CPI R20,$18
001B82  8DA3    	LDD XL,Z+27
001B83  7F59    	ANDI R21,$F9
001B84  9F2F    	MUL R18,ZH
001B85  AB70    	STD Z+48,R23
001B86  9C7C    	MUL R7,R12
001B87  58C7    	SUBI YL,$87
001B88  7D6C    	ANDI R22,$DC
001B89  3163    	CPI R22,$13
001B8A  8DA3    	LDD XL,Z+27
001B8B  7F59    	ANDI R21,$F9
001B8C  9F2F    	MUL R18,ZH
001B8D  AB70    	STD Z+48,R23
001B8E  9C7C    	MUL R7,R12
001B8F  58C7    	SUBI YL,$87
001B90  7D6C    	ANDI R22,$DC
001B91  3163    	CPI R22,$13
001B92  8DA3    	LDD XL,Z+27
001B93  D559    	RCALL L204
001B94  9F20    	MUL R18,R16
001B95  8E6F    	STD Y+31,R6
001B96  B37D    	IN R23,EEDR
001B97  58C7    	SUBI YL,$87
001B98  7E6C    	ANDI R22,$EC
001B99  3148    	CPI R20,$18
001B9A  8DA3    	LDD XL,Z+27
001B9B  7F59    	ANDI R21,$F9
001B9C  9F2F    	MUL R18,ZH
001B9D  AB70    	STD Z+48,R23
001B9E  0202    	MULS R16,R18
001B9F  0202    	MULS R16,R18
001BA0  0202    	MULS R16,R18
001BA1  0202    	MULS R16,R18
001BA2  0202    	MULS R16,R18
001BA3  0202    	MULS R16,R18
001BA4  0202    	MULS R16,R18
001BA5  0202    	MULS R16,R18
001BA6  0202    	MULS R16,R18
001BA7  0202    	MULS R16,R18
001BA8  0202    	MULS R16,R18
001BA9  0202    	MULS R16,R18
001BAA  0202    	MULS R16,R18
001BAB  0202    	MULS R16,R18
001BAC  0202    	MULS R16,R18
001BAD  0202    	MULS R16,R18
001BAE  0202    	MULS R16,R18
001BAF  0202    	MULS R16,R18
001BB0  0202    	MULS R16,R18
001BB1  0202    	MULS R16,R18
001BB2  0202    	MULS R16,R18
001BB3  0202    	MULS R16,R18
001BB4  0202    	MULS R16,R18
001BB5  0202    	MULS R16,R18
001BB6  0303    	MULSU R16,R19
001BB7  0303    	MULSU R16,R19
001BB8  0303    	MULSU R16,R19
001BB9  0303    	MULSU R16,R19
001BBA  0303    	MULSU R16,R19
001BBB  0303    	MULSU R16,R19
001BBC  0303    	MULSU R16,R19
001BBD  0303    	MULSU R16,R19
001BBE  0000    	NOP
001BBF  0000    	NOP
001BC0  0000    	NOP
001BC1  0000    	NOP
001BC2  0000    	NOP
001BC3  0000    	NOP
001BC4  0000    	NOP
001BC5  0000    	NOP
001BC6  0303    	MULSU R16,R19
001BC7  0303    	MULSU R16,R19
001BC8  0303    	MULSU R16,R19
001BC9  0303    	MULSU R16,R19
001BCA  0303    	MULSU R16,R19
001BCB  0303    	MULSU R16,R19
001BCC  0303    	MULSU R16,R19
001BCD  0303    	MULSU R16,R19
001BCE  0303    	MULSU R16,R19
001BCF  0303    	MULSU R16,R19
001BD0  0303    	MULSU R16,R19
001BD1  0303    	MULSU R16,R19
001BD2  0303    	MULSU R16,R19
001BD3  0303    	MULSU R16,R19
001BD4  0303    	MULSU R16,R19
001BD5  0303    	MULSU R16,R19
001BD6  0000    	NOP
001BD7  0000    	NOP
001BD8  0000    	NOP
001BD9  0000    	NOP
001BDA  0000    	NOP
001BDB  0000    	NOP
001BDC  0000    	NOP
001BDD  0000    	NOP
001BDE  1414    	CP R1,R4
001BDF  1414    	CP R1,R4
001BE0  1414    	CP R1,R4
001BE1  1414    	CP R1,R4
001BE2  1414    	CP R1,R4
001BE3  1414    	CP R1,R4
001BE4  1414    	CP R1,R4
001BE5  1414    	CP R1,R4
001BE6  1E1E    	ADC R1,ZL
001BE7  1E1E    	ADC R1,ZL
001BE8  1E1E    	ADC R1,ZL
001BE9  1E1E    	ADC R1,ZL
001BEA  1E1E    	ADC R1,ZL
001BEB  1E1E    	ADC R1,ZL
001BEC  1E1E    	ADC R1,ZL
001BED  1E1E    	ADC R1,ZL
001BEE  0000    	NOP
001BEF  0000    	NOP
001BF0  0000    	NOP
001BF1  0000    	NOP
001BF2  0000    	NOP
001BF3  0000    	NOP
001BF4  0000    	NOP
001BF5  0000    	NOP
001BF6  0014    	UNRECOGNIZED
001BF7  000A    	UNRECOGNIZED
001BF8  0001    	UNRECOGNIZED
001BF9  0032    	UNRECOGNIZED
001BFA  01F4    	MOVW R31:R30,R9:R8
001BFB  01F4    	MOVW R31:R30,R9:R8
001BFC  01F4    	MOVW R31:R30,R9:R8
001BFD  03E8    	FMULSU R22,R16
001BFE  B37D    	IN R23,EEDR
001BFF  58C7    	SUBI YL,$87
001C00  7E6C    	ANDI R22,$EC
001C01  3148    	CPI R20,$18
001C02  8DA3    	LDD XL,Z+27
001C03  7F59    	ANDI R21,$F9
001C04  9F2F    	MUL R18,ZH
001C05  AB70    	STD Z+48,R23
001C06  B37D    	IN R23,EEDR
001C07  58C7    	SUBI YL,$87
001C08  7E6C    	ANDI R22,$EC
001C09  3148    	CPI R20,$18
001C0A  8DA3    	LDD XL,Z+27
001C0B  7F59    	ANDI R21,$F9
001C0C  9F2F    	MUL R18,ZH
001C0D  AB70    	STD Z+48,R23
001C0E  9C7D    	MUL R7,R13
001C0F  58C7    	SUBI YL,$87
001C10  7E6C    	ANDI R22,$EC
001C11  3163    	CPI R22,$13
001C12  8DA3    	LDD XL,Z+27
001C13  7F59    	ANDI R21,$F9
001C14  9F2F    	MUL R18,ZH
001C15  AB70    	STD Z+48,R23
001C16  9C7D    	MUL R7,R13
001C17  58C7    	SUBI YL,$87
001C18  7E6C    	ANDI R22,$EC
001C19  3163    	CPI R22,$13
001C1A  8DA3    	LDD XL,Z+27
001C1B  2B59    	OR R21,R25
001C1C  9F2F    	MUL R18,ZH
001C1D  A070    	LDD R7,Z+32
001C1E  B37D    	IN R23,EEDR
001C1F  58C7    	SUBI YL,$87
001C20  7E6C    	ANDI R22,$EC
001C21  3148    	CPI R20,$18
001C22  8DA3    	LDD XL,Z+27
001C23  7F59    	ANDI R21,$F9
001C24  9F2F    	MUL R18,ZH
001C25  AB70    	STD Z+48,R23
001C26  0202    	MULS R16,R18
001C27  0202    	MULS R16,R18
001C28  0202    	MULS R16,R18
001C29  0202    	MULS R16,R18
001C2A  0202    	MULS R16,R18
001C2B  0202    	MULS R16,R18
001C2C  0202    	MULS R16,R18
001C2D  0202    	MULS R16,R18
001C2E  0202    	MULS R16,R18
001C2F  0202    	MULS R16,R18
001C30  0202    	MULS R16,R18
001C31  0202    	MULS R16,R18
001C32  0202    	MULS R16,R18
001C33  0202    	MULS R16,R18
001C34  0202    	MULS R16,R18
001C35  0202    	MULS R16,R18
001C36  0202    	MULS R16,R18
001C37  0202    	MULS R16,R18
001C38  0202    	MULS R16,R18
001C39  0202    	MULS R16,R18
001C3A  0202    	MULS R16,R18
001C3B  0202    	MULS R16,R18
001C3C  0202    	MULS R16,R18
001C3D  0202    	MULS R16,R18
001C3E  0202    	MULS R16,R18
001C3F  0202    	MULS R16,R18
001C40  0202    	MULS R16,R18
001C41  0202    	MULS R16,R18
001C42  0202    	MULS R16,R18
001C43  0202    	MULS R16,R18
001C44  0202    	MULS R16,R18
001C45  0202    	MULS R16,R18
001C46  0000    L315:	NOP
001C47  0000    	NOP
001C48  0000    	NOP
001C49  0000    	NOP
001C4A  0000    	NOP
001C4B  0000    	NOP
001C4C  0000    L330:	NOP
001C4D  0000    	NOP
001C4E  0303    L317:	MULSU R16,R19
001C4F  0303    	MULSU R16,R19
001C50  0303    	MULSU R16,R19
001C51  0303    	MULSU R16,R19
001C52  0303    	MULSU R16,R19
001C53  0303    	MULSU R16,R19
001C54  0303    L332:	MULSU R16,R19
001C55  0303    	MULSU R16,R19
001C56  0303    	MULSU R16,R19
001C57  0303    	MULSU R16,R19
001C58  0303    L319:	MULSU R16,R19
001C59  0303    	MULSU R16,R19
001C5A  0303    	MULSU R16,R19
001C5B  0303    	MULSU R16,R19
001C5C  0303    	MULSU R16,R19
001C5D  0303    	MULSU R16,R19
001C5E  0000    	NOP
001C5F  0000    	NOP
001C60  0000    	NOP
001C61  0000    L321:	NOP
001C62  0000    	NOP
001C63  0000    	NOP
001C64  0000    	NOP
001C65  0000    	NOP
001C66  1414    	CP R1,R4
001C67  1414    	CP R1,R4
001C68  1414    	CP R1,R4
001C69  1414    	CP R1,R4
001C6A  1414    L323:	CP R1,R4
001C6B  1414    	CP R1,R4
001C6C  1414    	CP R1,R4
001C6D  1414    	CP R1,R4
001C6E  1E1E    	ADC R1,ZL
001C6F  1E1E    	ADC R1,ZL
001C70  1E1E    	ADC R1,ZL
001C71  1E1E    	ADC R1,ZL
001C72  1E1E    	ADC R1,ZL
001C73  1E1E    L325:	ADC R1,ZL
001C74  1E1E    	ADC R1,ZL
001C75  1E1E    	ADC R1,ZL
001C76  0000    	NOP
001C77  0000    	NOP
001C78  0000    	NOP
001C79  0000    	NOP
001C7A  0000    	NOP
001C7B  0000    	NOP
001C7C  0000    L327:	NOP
001C7D  0000    	NOP
001C7E  0014    	UNRECOGNIZED
001C7F  001E    	UNRECOGNIZED
001C80  0032    	UNRECOGNIZED
001C81  001E    	UNRECOGNIZED
001C82  0032    	UNRECOGNIZED
001C83  0032    	UNRECOGNIZED
001C84  01F4    	MOVW R31:R30,R9:R8
001C85  07D0    L329:	CPC YH,R16
001C86  03E8    	FMULSU R22,R16
001C87  03E8    	FMULSU R22,R16
001C88  03E8    	FMULSU R22,R16
001C89  03E8    	FMULSU R22,R16
001C8A  B37D    	IN R23,EEDR
001C8B  58C7    	SUBI YL,$87
001C8C  7E6C    	ANDI R22,$EC
001C8D  3148    	CPI R20,$18
001C8E  8DA3    L331:	LDD XL,Z+27
001C8F  7F59    	ANDI R21,$F9
001C90  9F2F    	MUL R18,ZH
001C91  AB70    	STD Z+48,R23
001C92  B37D    	IN R23,EEDR
001C93  58C7    	SUBI YL,$87
001C94  7E6C    	ANDI R22,$EC
001C95  3148    	CPI R20,$18
001C96  8DA3    L333:	LDD XL,Z+27
001C97  7F59    	ANDI R21,$F9
001C98  9F2F    L335:	MUL R18,ZH
001C99  AB70    	STD Z+48,R23
001C9A  B37D    	IN R23,EEDR
001C9B  58C7    	SUBI YL,$87
001C9C  6D6C    	ORI R22,$DC
001C9D  59A0    	SUBI XL,$90
001C9E  8CC6    	LDD R12,Z+30
001C9F  8659    	STD Y+9,R5
001CA0  9F73    	MUL R23,R19
001CA1  AAB1    	STD Z+49,R11
001CA2  B37D    	IN R23,EEDR
001CA3  58C7    	SUBI YL,$87
001CA4  C36C    	RJMP L205
001CA5  489A    	SBCI R25,$8A
001CA6  91CB    	UNRECOGNIZED
001CA7  3B59    	CPI R21,$B9
001CA8  9F6E    	MUL R22,ZL
001CA9  B59B    	IN R25,OCR1AH
001CAA  B37D    	IN R23,EEDR
001CAB  58C7    	SUBI YL,$87
001CAC  CB6C    	RJMP L206
001CAD  0DA9    	ADD XL,R9
001CAE  ACCB    	LDD R12,Y+59
001CAF  3159    	CPI R21,$19
001CB0  9F20    	MUL R18,R16
001CB1  CC86    	RJMP L207
001CB2  B88D    	OUT SPCR,R8
001CB3  57CD    	SUBI YL,$7D
001CB4  A55D    	LDD R21,Y+45
001CB5  0463    	CPC R6,R3
001CB6  9998    	SBIC PINC,PINC0
001CB7  6359    	ORI R21,$39
001CB8  9F3F    	MUL R19,ZH
001CB9  BA86    	OUT PINB,R8
001CBA  B37D    	IN R23,EEDR
001CBB  58C7    	SUBI YL,$87
001CBC  7E6C    	ANDI R22,$EC
001CBD  3148    	CPI R20,$18
001CBE  8DA3    	LDD XL,Z+27
001CBF  7F59    	ANDI R21,$F9
001CC0  9F2F    	MUL R18,ZH
001CC1  AB70    	STD Z+48,R23
001CC2  0202    	MULS R16,R18
001CC3  0202    	MULS R16,R18
001CC4  0202    	MULS R16,R18
001CC5  0202    	MULS R16,R18
001CC6  0202    	MULS R16,R18
001CC7  0202    	MULS R16,R18
001CC8  0202    	MULS R16,R18
001CC9  0202    	MULS R16,R18
001CCA  0202    	MULS R16,R18
001CCB  0202    	MULS R16,R18
001CCC  0202    	MULS R16,R18
001CCD  0202    	MULS R16,R18
001CCE  0202    L249:	MULS R16,R18
001CCF  0202    	MULS R16,R18
001CD0  0202    	MULS R16,R18
001CD1  0202    	MULS R16,R18
001CD2  0202    	MULS R16,R18
001CD3  0202    	MULS R16,R18
001CD4  0202    	MULS R16,R18
001CD5  0202    	MULS R16,R18
001CD6  0202    L251:	MULS R16,R18
001CD7  0202    	MULS R16,R18
001CD8  0202    L352:	MULS R16,R18
001CD9  0202    	MULS R16,R18
001CDA  0202    	MULS R16,R18
001CDB  0202    	MULS R16,R18
001CDC  0202    	MULS R16,R18
001CDD  0202    	MULS R16,R18
001CDE  0202    	MULS R16,R18
001CDF  0202    	MULS R16,R18
001CE0  0202    L354:	MULS R16,R18
001CE1  0202    	MULS R16,R18
001CE2  0202    	MULS R16,R18
001CE3  0202    	MULS R16,R18
001CE4  0202    	MULS R16,R18
001CE5  0202    	MULS R16,R18
001CE6  0202    	MULS R16,R18
001CE7  0202    	MULS R16,R18
001CE8  0202    	MULS R16,R18
001CE9  0202    	MULS R16,R18
001CEA  0202    	MULS R16,R18
001CEB  0202    	MULS R16,R18
001CEC  0202    	MULS R16,R18
001CED  0202    	MULS R16,R18
001CEE  0202    	MULS R16,R18
001CEF  0202    	MULS R16,R18
001CF0  0202    	MULS R16,R18
001CF1  0202    	MULS R16,R18
001CF2  0000    	NOP
001CF3  0000    	NOP
001CF4  0000    	NOP
001CF5  0000    	NOP
001CF6  0000    	NOP
001CF7  0000    	NOP
001CF8  0000    	NOP
001CF9  0000    	NOP
001CFA  0303    	MULSU R16,R19
001CFB  0303    	MULSU R16,R19
001CFC  0303    	MULSU R16,R19
001CFD  0303    	MULSU R16,R19
001CFE  0303    	MULSU R16,R19
001CFF  0303    	MULSU R16,R19
001D00  0303    	MULSU R16,R19
001D01  0303    	MULSU R16,R19
001D02  0000    	NOP
001D03  0000    	NOP
001D04  0000    	NOP
001D05  0000    	NOP
001D06  0000    	NOP
001D07  0000    	NOP
001D08  0000    	NOP
001D09  0000    	NOP
001D0A  0303    	MULSU R16,R19
001D0B  0303    	MULSU R16,R19
001D0C  0303    	MULSU R16,R19
001D0D  0303    	MULSU R16,R19
001D0E  0303    	MULSU R16,R19
001D0F  0303    	MULSU R16,R19
001D10  0303    	MULSU R16,R19
001D11  0303    	MULSU R16,R19
001D12  0202    	MULS R16,R18
001D13  0202    	MULS R16,R18
001D14  0202    	MULS R16,R18
001D15  0202    	MULS R16,R18
001D16  0202    	MULS R16,R18
001D17  0202    	MULS R16,R18
001D18  0202    	MULS R16,R18
001D19  0202    	MULS R16,R18
001D1A  0000    	NOP
001D1B  0000    	NOP
001D1C  0000    	NOP
001D1D  0000    	NOP
001D1E  0000    	NOP
001D1F  0000    	NOP
001D20  0000    	NOP
001D21  0000    	NOP
001D22  1414    	CP R1,R4
001D23  1414    	CP R1,R4
001D24  1414    	CP R1,R4
001D25  1414    	CP R1,R4
001D26  1414    	CP R1,R4
001D27  1414    	CP R1,R4
001D28  1414    	CP R1,R4
001D29  1414    	CP R1,R4
001D2A  1E1E    	ADC R1,ZL
001D2B  1E1E    	ADC R1,ZL
001D2C  1E1E    	ADC R1,ZL
001D2D  1E1E    	ADC R1,ZL
001D2E  1E1E    	ADC R1,ZL
001D2F  1E1E    	ADC R1,ZL
001D30  1E1E    	ADC R1,ZL
001D31  1E1E    	ADC R1,ZL
001D32  0000    	NOP
001D33  0000    	NOP
001D34  0000    	NOP
001D35  0000    	NOP
001D36  0000    	NOP
001D37  0000    	NOP
001D38  0000    	NOP
001D39  0000    	NOP
001D3A  0014    	UNRECOGNIZED
001D3B  0032    	UNRECOGNIZED
001D3C  0032    	UNRECOGNIZED
001D3D  0032    	UNRECOGNIZED
001D3E  0032    	UNRECOGNIZED
001D3F  0032    	UNRECOGNIZED
001D40  01F4    	MOVW R31:R30,R9:R8
001D41  07D0    	CPC YH,R16
001D42  03E8    	FMULSU R22,R16
001D43  03E8    	FMULSU R22,R16
001D44  03E8    L328:	FMULSU R22,R16
001D45  03E8    	FMULSU R22,R16
001D46  B37D    	IN R23,EEDR
001D47  58C7    	SUBI YL,$87
001D48  7E6C    	ANDI R22,$EC
001D49  3148    	CPI R20,$18
001D4A  8DA3    	LDD XL,Z+27
001D4B  7F59    	ANDI R21,$F9
001D4C  9F2F    	MUL R18,ZH
001D4D  AB70    	STD Z+48,R23
001D4E  B37D    	IN R23,EEDR
001D4F  58C7    	SUBI YL,$87
001D50  7E6C    	ANDI R22,$EC
001D51  3148    	CPI R20,$18
001D52  8DA3    	LDD XL,Z+27
001D53  7F59    	ANDI R21,$F9
001D54  9F2F    	MUL R18,ZH
001D55  AB70    	STD Z+48,R23
001D56  5A5A    	SUBI R21,$AA
001D57  6AAB    	ORI XL,$AB
001D58  A877    	LDD R7,Z+55
001D59  3148    	CPI R20,$18
001D5A  8DA3    	LDD XL,Z+27
001D5B  8A59    	STD Y+17,R5
001D5C  9F7A    	MUL R23,XL
001D5D  AB9E    	STD Y+54,R25
001D5E  9524    	UNRECOGNIZED
001D5F  5ED5    	SUBI YH,$E5
001D60  D06B    	RCALL L208
001D61  315F    	CPI R21,$1F
001D62  8CA3    	LDD R10,Z+27
001D63  7C59    	ANDI R21,$C9
001D64  9F6A    	MUL R22,XL
001D65  B699    	IN R9,EIMSK
001D66  8121    	LDD R18,Z+1
001D67  50F8    	SUBI ZH,$08
001D68  DA34    	RCALL L209
001D69  0482    	CPC R8,R2
001D6A  BAA9    	OUT PINA,R10
001D6B  7D59    	ANDI R21,$D9
001D6C  9F6A    	MUL R22,XL
001D6D  B599    	IN R25,OCR1BH
001D6E  804D    L289:	LDD R4,Y+5
001D6F  50EE    	SUBI ZL,$0E
001D70  AF3B    	STD Y+59,R19
001D71  0485    	CPC R8,R5
001D72  BEAB    	OUT RAMPZ,R10
001D73  7D44    	ANDI R20,$D4
001D74  9F21    	MUL R18,R17
001D75  B4A6    	IN R10,ICR1L
001D76  B37D    L291:	IN R23,EEDR
001D77  58C7    	SUBI YL,$87
001D78  7E6C    	ANDI R22,$EC
001D79  3148    	CPI R20,$18
001D7A  8DA3    	LDD XL,Z+27
001D7B  7F59    	ANDI R21,$F9
001D7C  9F2F    	MUL R18,ZH
001D7D  AB70    	STD Z+48,R23
001D7E  0202    	MULS R16,R18
001D7F  0202    	MULS R16,R18
001D80  0202    	MULS R16,R18
001D81  0202    	MULS R16,R18
001D82  0202    	MULS R16,R18
001D83  0202    	MULS R16,R18
001D84  0202    	MULS R16,R18
001D85  0202    	MULS R16,R18
001D86  0202    	MULS R16,R18
001D87  0202    	MULS R16,R18
001D88  0202    	MULS R16,R18
001D89  0202    	MULS R16,R18
001D8A  0202    	MULS R16,R18
001D8B  0202    	MULS R16,R18
001D8C  0202    	MULS R16,R18
001D8D  0202    	MULS R16,R18
001D8E  0202    	MULS R16,R18
001D8F  0202    	MULS R16,R18
001D90  0202    	MULS R16,R18
001D91  0202    	MULS R16,R18
001D92  0202    	MULS R16,R18
001D93  0202    	MULS R16,R18
001D94  0202    	MULS R16,R18
001D95  0202    	MULS R16,R18
001D96  0202    	MULS R16,R18
001D97  0202    	MULS R16,R18
001D98  0202    	MULS R16,R18
001D99  0202    	MULS R16,R18
001D9A  0202    	MULS R16,R18
001D9B  0202    	MULS R16,R18
001D9C  0202    	MULS R16,R18
001D9D  0202    	MULS R16,R18
001D9E  0202    	MULS R16,R18
001D9F  0202    	MULS R16,R18
001DA0  0202    	MULS R16,R18
001DA1  0202    	MULS R16,R18
001DA2  0202    	MULS R16,R18
001DA3  0202    	MULS R16,R18
001DA4  0202    	MULS R16,R18
001DA5  0202    	MULS R16,R18
001DA6  0202    	MULS R16,R18
001DA7  0202    	MULS R16,R18
001DA8  0202    	MULS R16,R18
001DA9  0202    	MULS R16,R18
001DAA  0202    	MULS R16,R18
001DAB  0202    	MULS R16,R18
001DAC  0202    	MULS R16,R18
001DAD  0202    	MULS R16,R18
001DAE  0000    	NOP
001DAF  0000    	NOP
001DB0  0000    	NOP
001DB1  0000    	NOP
001DB2  0000    	NOP
001DB3  0000    	NOP
001DB4  0000    	NOP
001DB5  0000    	NOP
001DB6  0303    	MULSU R16,R19
001DB7  0303    	MULSU R16,R19
001DB8  0303    	MULSU R16,R19
001DB9  0303    	MULSU R16,R19
001DBA  0303    	MULSU R16,R19
001DBB  0303    	MULSU R16,R19
001DBC  0303    	MULSU R16,R19
001DBD  0303    	MULSU R16,R19
001DBE  0000    	NOP
001DBF  0000    	NOP
001DC0  0000    	NOP
001DC1  0000    	NOP
001DC2  0000    	NOP
001DC3  0000    	NOP
001DC4  0000    	NOP
001DC5  0000    	NOP
001DC6  0303    	MULSU R16,R19
001DC7  0303    	MULSU R16,R19
001DC8  0303    	MULSU R16,R19
001DC9  0303    	MULSU R16,R19
001DCA  0303    	MULSU R16,R19
001DCB  0303    	MULSU R16,R19
001DCC  0303    L208:	MULSU R16,R19
001DCD  0303    	MULSU R16,R19
001DCE  0202    	MULS R16,R18
001DCF  0202    	MULS R16,R18
001DD0  0202    	MULS R16,R18
001DD1  0202    	MULS R16,R18
001DD2  0202    	MULS R16,R18
001DD3  0202    	MULS R16,R18
001DD4  0202    	MULS R16,R18
001DD5  0202    	MULS R16,R18
001DD6  0000    	NOP
001DD7  0000    	NOP
001DD8  0000    	NOP
001DD9  0000    	NOP
001DDA  0000    	NOP
001DDB  0000    	NOP
001DDC  0000    	NOP
001DDD  0000    	NOP
001DDE  1414    	CP R1,R4
001DDF  1414    	CP R1,R4
001DE0  1414    	CP R1,R4
001DE1  1414    	CP R1,R4
001DE2  1414    	CP R1,R4
001DE3  1414    	CP R1,R4
001DE4  1414    	CP R1,R4
001DE5  1414    	CP R1,R4
001DE6  1E1E    	ADC R1,ZL
001DE7  1E1E    	ADC R1,ZL
001DE8  1E1E    	ADC R1,ZL
001DE9  1E1E    	ADC R1,ZL
001DEA  1E1E    	ADC R1,ZL
001DEB  1E1E    	ADC R1,ZL
001DEC  1E1E    	ADC R1,ZL
001DED  1E1E    	ADC R1,ZL
001DEE  0000    	NOP
001DEF  0000    	NOP
001DF0  0000    	NOP
001DF1  0000    	NOP
001DF2  0000    	NOP
001DF3  0000    	NOP
001DF4  0000    	NOP
001DF5  0000    	NOP
001DF6  0001    	UNRECOGNIZED
001DF7  0001    	UNRECOGNIZED
001DF8  0001    	UNRECOGNIZED
001DF9  0001    	UNRECOGNIZED
001DFA  0001    	UNRECOGNIZED
001DFB  0001    	UNRECOGNIZED
001DFC  0001    	UNRECOGNIZED
001DFD  0001    	UNRECOGNIZED
001DFE  0001    	UNRECOGNIZED
001DFF  0001    	UNRECOGNIZED
001E00  0001    	UNRECOGNIZED
001E01  0001    	UNRECOGNIZED
001E02  0001    	UNRECOGNIZED
001E03  0001    	UNRECOGNIZED
001E04  0001    	UNRECOGNIZED
001E05  0001    	UNRECOGNIZED
001E06  0001    	UNRECOGNIZED
001E07  0001    	UNRECOGNIZED
001E08  0001    	UNRECOGNIZED
001E09  0001    	UNRECOGNIZED
001E0A  0001    	UNRECOGNIZED
001E0B  0001    	UNRECOGNIZED
001E0C  0001    	UNRECOGNIZED
001E0D  0001    	UNRECOGNIZED
001E0E  0001    	UNRECOGNIZED
001E0F  0001    	UNRECOGNIZED
001E10  0001    	UNRECOGNIZED
001E11  0001    	UNRECOGNIZED
001E12  0001    	UNRECOGNIZED
001E13  0001    	UNRECOGNIZED
001E14  0001    	UNRECOGNIZED
001E15  0001    	UNRECOGNIZED
001E16  0001    	UNRECOGNIZED
001E17  0001    	UNRECOGNIZED
001E18  0001    	UNRECOGNIZED
001E19  0001    	UNRECOGNIZED
001E1A  0001    	UNRECOGNIZED
001E1B  0001    	UNRECOGNIZED
001E1C  0001    	UNRECOGNIZED
001E1D  0001    	UNRECOGNIZED
001E1E  0001    	UNRECOGNIZED
001E1F  0001    	UNRECOGNIZED
001E20  0001    	UNRECOGNIZED
001E21  0001    	UNRECOGNIZED
001E22  0001    	UNRECOGNIZED
001E23  0001    	UNRECOGNIZED
001E24  0001    	UNRECOGNIZED
001E25  0001    	UNRECOGNIZED
001E26  0001    	UNRECOGNIZED
001E27  0001    	UNRECOGNIZED
001E28  0001    	UNRECOGNIZED
001E29  0014    	UNRECOGNIZED
001E2A  0014    	UNRECOGNIZED
001E2B  0014    	UNRECOGNIZED
001E2C  0014    	UNRECOGNIZED
001E2D  0014    	UNRECOGNIZED
001E2E  0014    	UNRECOGNIZED
001E2F  0014    	UNRECOGNIZED
001E30  0014    	UNRECOGNIZED
001E31  0014    	UNRECOGNIZED
001E32  0014    	UNRECOGNIZED
001E33  0014    	UNRECOGNIZED
001E34  0014    	UNRECOGNIZED
001E35  0014    	UNRECOGNIZED
001E36  0014    	UNRECOGNIZED
001E37  0014    	UNRECOGNIZED
001E38  0014    	UNRECOGNIZED
001E39  0014    	UNRECOGNIZED
001E3A  0014    	UNRECOGNIZED
001E3B  0014    	UNRECOGNIZED
001E3C  0014    L326:	UNRECOGNIZED
001E3D  0014    	UNRECOGNIZED
001E3E  0014    	UNRECOGNIZED
001E3F  0014    	UNRECOGNIZED
001E40  0014    	UNRECOGNIZED
001E41  0014    	UNRECOGNIZED
001E42  0014    	UNRECOGNIZED
001E43  0014    	UNRECOGNIZED
001E44  0014    	UNRECOGNIZED
001E45  0014    	UNRECOGNIZED
001E46  0014    L215:	UNRECOGNIZED
001E47  0014    	UNRECOGNIZED
001E48  0014    	UNRECOGNIZED
001E49  0014    	UNRECOGNIZED
001E4A  0014    	UNRECOGNIZED
001E4B  0014    	UNRECOGNIZED
001E4C  0014    	UNRECOGNIZED
001E4D  0014    	UNRECOGNIZED
001E4E  0014    	UNRECOGNIZED
001E4F  0014    	UNRECOGNIZED
001E50  0014    	UNRECOGNIZED
001E51  0014    	UNRECOGNIZED
001E52  0014    	UNRECOGNIZED
001E53  0014    	UNRECOGNIZED
001E54  0014    	UNRECOGNIZED
001E55  0014    	UNRECOGNIZED
001E56  0014    	UNRECOGNIZED
001E57  0014    	UNRECOGNIZED
001E58  0014    	UNRECOGNIZED
001E59  0014    	UNRECOGNIZED
001E5A  0014    	UNRECOGNIZED
001E5B  01F4    	MOVW R31:R30,R9:R8
001E5C  D19F    	RCALL L210
001E5D  7F7F    	ANDI R23,$FF
001E5E  5BC8    	SUBI YL,$B8
001E5F  7F29    	ANDI R18,$F9
001E60  347F    	CPI R23,$4F
001E61  278F    	EOR R24,ZH
001E62  6D34    	ORI R19,$D4
001E63  C8D2    	RJMP L211
001E64  D19F    	RCALL L212
001E65  7F7F    	ANDI R23,$FF
001E66  5BC8    	SUBI YL,$B8
001E67  7F29    	ANDI R18,$F9
001E68  347F    	CPI R23,$4F
001E69  278F    	EOR R24,ZH
001E6A  6D34    	ORI R19,$D4
001E6B  C8D2    	RJMP L213
001E6C  D1A1    	RCALL L214
001E6D  7F7F    	ANDI R23,$FF
001E6E  54DF    L356:	SUBI YH,$4F
001E6F  7F29    	ANDI R18,$F9
001E70  367F    	CPI R23,$6F
001E71  2797    	EOR R25,R23
001E72  8136    	LDD R19,Z+6
001E73  DFD2    	RCALL L215
001E74  D198    	RCALL L216
001E75  7F7F    	ANDI R23,$FF
001E76  51D2    L358:	SUBI YH,$12
001E77  7F29    	ANDI R18,$F9
001E78  377F    	CPI R23,$7F
001E79  279B    	EOR R25,XH
001E7A  7E37    	ANDI R19,$E7
001E7B  D2D2    	RCALL L217
001E7C  D18E    L372:	RCALL L218
001E7D  7F7F    	ANDI R23,$FF
001E7E  4FC3    	SBCI YL,$F3
001E7F  7F29    	ANDI R18,$F9
001E80  397F    	CPI R23,$9F
001E81  27A0    	EOR XL,R16
001E82  7939    	ANDI R19,$99
001E83  C3D2    	RJMP L219
001E84  D18E    	RCALL L220
001E85  7F7F    	ANDI R23,$FF
001E86  4FC3    	SBCI YL,$F3
001E87  7F29    	ANDI R18,$F9
001E88  397F    	CPI R23,$9F
001E89  27A0    	EOR XL,R16
001E8A  7939    	ANDI R19,$99
001E8B  C3D2    	RJMP L221
001E8C  D192    	RCALL L222
001E8D  7F7F    	ANDI R23,$FF
001E8E  4EC5    	SBCI YL,$E5
001E8F  7F29    	ANDI R18,$F9
001E90  327F    	CPI R23,$2F
001E91  2799    	CLR R25
001E92  7732    	ANDI R19,$72
001E93  C5D2    	RJMP L223
001E94  D196    	RCALL L224
001E95  7F7F    	ANDI R23,$FF
001E96  4DC6    	SBCI YL,$D6
001E97  7F29    	ANDI R18,$F9
001E98  2B7F    	OR R23,ZH
001E99  2793    	EOR R25,R19
001E9A  752B    	ANDI R18,$5B
001E9B  C6D2    	RJMP L225
001E9C  D19A    	RCALL L226
001E9D  7F7F    	ANDI R23,$FF
001E9E  4EC7    	SBCI YL,$E7
001E9F  7F29    	ANDI R18,$F9
001EA0  247F    	EOR R7,R15
001EA1  278D    	EOR R24,YH
001EA2  7224    	ANDI R18,$24
001EA3  C7D2    	RJMP L227
001EA4  D19D    	RCALL L228
001EA5  7F7F    	ANDI R23,$FF
001EA6  4FC8    	SBCI YL,$F8
001EA7  7F29    	ANDI R18,$F9
001EA8  1F7F    	ADC R23,ZH
001EA9  2787    	EOR R24,R23
001EAA  6F1F    	ORI R17,$FF
001EAB  C8D2    	RJMP L229
001EAC  D1A1    	RCALL L230
001EAD  7F7F    	ANDI R23,$FF
001EAE  53C8    	SUBI YL,$38
001EAF  7F29    	ANDI R18,$F9
001EB0  1F7F    	ADC R23,ZH
001EB1  2783    	EOR R24,R19
001EB2  6B1F    	ORI R17,$BF
001EB3  C8D2    	RJMP L231
001EB4  D1A4    	RCALL L232
001EB5  7F7F    	ANDI R23,$FF
001EB6  59C7    	SUBI YL,$97
001EB7  7F29    	ANDI R18,$F9
001EB8  247F    	EOR R7,R15
001EB9  2782    	EOR R24,R18
001EBA  6824    	ORI R18,$84
001EBB  C7D2    	RJMP L233
001EBC  D1A7    	RCALL L234
001EBD  7F7F    	ANDI R23,$FF
001EBE  5FC6    L373:	SUBI YL,$F6
001EBF  7F29    	ANDI R18,$F9
001EC0  2B7F    L375:	OR R23,ZH
001EC1  2781    	EOR R24,R17
001EC2  642B    	ORI R18,$4B
001EC3  C6D2    	RJMP L235
001EC4  D1A9    	RCALL L236
001EC5  7F7F    	ANDI R23,$FF
001EC6  65C5    	ORI YL,$55
001EC7  7F29    L377:	ANDI R18,$F9
001EC8  327F    	CPI R23,$2F
001EC9  2782    	EOR R24,R18
001ECA  6032    	ORI R19,$02
001ECB  C5D2    	RJMP L237
001ECC  D1AB    	RCALL L238
001ECD  7F7F    	ANDI R23,$FF
001ECE  6CC3    L379:	ORI YL,$C3
001ECF  7F29    	ANDI R18,$F9
001ED0  397F    	CPI R23,$9F
001ED1  2783    	EOR R24,R19
001ED2  5C39    	SUBI R19,$C9
001ED3  C3D2    	RJMP L239
001ED4  D1AB    	RCALL L240
001ED5  7F7F    L381:	ANDI R23,$FF
001ED6  6CC3    	ORI YL,$C3
001ED7  7F29    	ANDI R18,$F9
001ED8  397F    	CPI R23,$9F
001ED9  2783    	EOR R24,R19
001EDA  5C39    	SUBI R19,$C9
001EDB  C3D2    	RJMP L241
001EDC  D1AC    L383:	RCALL L242
001EDD  7F7F    	ANDI R23,$FF
001EDE  68CA    	ORI YL,$8A
001EDF  7F29    	ANDI R18,$F9
001EE0  377F    	CPI R23,$7F
001EE1  2785    	EOR R24,R21
001EE2  6337    	ORI R19,$37
001EE3  CAD2    L385:	RJMP L243
001EE4  D1AD    	RCALL L244
001EE5  7F7F    	ANDI R23,$FF
001EE6  64D1    	ORI YH,$41
001EE7  7F29    	ANDI R18,$F9
001EE8  367F    	CPI R23,$6F
001EE9  2787    	EOR R24,R23
001EEA  6936    L387:	ORI R19,$96
001EEB  D1D2    	RCALL L245
001EEC  D1AC    	RCALL L246
001EED  7F7F    	ANDI R23,$FF
001EEE  60D8    	ORI YH,$08
001EEF  7F29    	ANDI R18,$F9
001EF0  357F    	CPI R23,$5F
001EF1  278A    L389:	EOR R24,XL
001EF2  6F35    	ORI R19,$F5
001EF3  D8D2    	RCALL L247
001EF4  D1AB    	RCALL L248
001EF5  7F7F    	ANDI R23,$FF
001EF6  5DDD    	SUBI YH,$DD
001EF7  7F29    	ANDI R18,$F9
001EF8  347F    L391:	CPI R23,$4F
001EF9  278D    	EOR R24,YH
001EFA  7534    	ANDI R19,$54
001EFB  DDD2    	RCALL L249
001EFC  D1A7    	RCALL L250
001EFD  7F7F    	ANDI R23,$FF
001EFE  59DD    	SUBI YH,$9D
001EFF  7F29    	ANDI R18,$F9
001F00  347F    L393:	CPI R23,$4F
001F01  2791    	EOR R25,R17
001F02  7934    	ANDI R19,$94
001F03  DDD2    	RCALL L251
001F04  D1A1    	RCALL L252
001F05  7F7F    	ANDI R23,$FF
001F06  56D8    	SUBI YH,$68
001F07  7F29    	ANDI R18,$F9
001F08  357F    L395:	CPI R23,$5F
001F09  2794    	EOR R25,R20
001F0A  7A35    	ANDI R19,$A5
001F0B  D8D2    	RCALL L253
001F0C  D19B    	RCALL L254
001F0D  7F7F    	ANDI R23,$FF
001F0E  53D1    	SUBI YH,$31
001F0F  7F29    	ANDI R18,$F9
001F10  367F    	CPI R23,$6F
001F11  2798    	EOR R25,R24
001F12  7B36    	ANDI R19,$B6
001F13  D1D2    	RCALL L255
001F14  D195    	RCALL L256
001F15  7F7F    	ANDI R23,$FF
001F16  51CA    	SUBI YL,$1A
001F17  7F29    	ANDI R18,$F9
001F18  377F    	CPI R23,$7F
001F19  279C    	EOR R25,YL
001F1A  7A37    	ANDI R19,$A7
001F1B  CAD2    	RJMP L257
001F1C  D18E    	RCALL L258
001F1D  7F7F    	ANDI R23,$FF
001F1E  4FC3    	SBCI YL,$F3
001F1F  7F29    	ANDI R18,$F9
001F20  397F    	CPI R23,$9F
001F21  27A0    	EOR XL,R16
001F22  7939    	ANDI R19,$99
001F23  C3D2    	RJMP L259
001F24  D18E    	RCALL L260
001F25  7F7F    	ANDI R23,$FF
001F26  4FC3    	SBCI YL,$F3
001F27  7F29    	ANDI R18,$F9
001F28  397F    	CPI R23,$9F
001F29  27A0    	EOR XL,R16
001F2A  7939    	ANDI R19,$99
001F2B  C3D2    	RJMP L261
001F2C  D192    	RCALL L262
001F2D  7F7F    	ANDI R23,$FF
001F2E  4EC5    	SBCI YL,$E5
001F2F  7F29    	ANDI R18,$F9
001F30  327F    	CPI R23,$2F
001F31  2799    	CLR R25
001F32  7732    	ANDI R19,$72
001F33  C5D2    	RJMP L263
001F34  D196    L324:	RCALL L264
001F35  7F7F    	ANDI R23,$FF
001F36  4DC6    	SBCI YL,$D6
001F37  7F29    	ANDI R18,$F9
001F38  2B7F    	OR R23,ZH
001F39  2793    	EOR R25,R19
001F3A  752B    	ANDI R18,$5B
001F3B  C6D2    	RJMP L265
001F3C  D19A    	RCALL L266
001F3D  7F7F    	ANDI R23,$FF
001F3E  4EC7    	SBCI YL,$E7
001F3F  7F29    	ANDI R18,$F9
001F40  247F    	EOR R7,R15
001F41  278D    	EOR R24,YH
001F42  7224    	ANDI R18,$24
001F43  C7D2    	RJMP L267
001F44  D19D    	RCALL L268
001F45  7F7F    	ANDI R23,$FF
001F46  4FC8    	SBCI YL,$F8
001F47  7F29    	ANDI R18,$F9
001F48  1F7F    	ADC R23,ZH
001F49  2787    	EOR R24,R23
001F4A  6F1F    	ORI R17,$FF
001F4B  C8D2    	RJMP L269
001F4C  D1A1    	RCALL L270
001F4D  7F7F    	ANDI R23,$FF
001F4E  53C8    	SUBI YL,$38
001F4F  7F29    	ANDI R18,$F9
001F50  1F7F    	ADC R23,ZH
001F51  2783    	EOR R24,R19
001F52  6B1F    	ORI R17,$BF
001F53  C8D2    	RJMP L271
001F54  D1A4    	RCALL L272
001F55  7F7F    	ANDI R23,$FF
001F56  59C7    	SUBI YL,$97
001F57  7F29    	ANDI R18,$F9
001F58  247F    	EOR R7,R15
001F59  2782    	EOR R24,R18
001F5A  6824    	ORI R18,$84
001F5B  C7D2    	RJMP L273
001F5C  D1A7    	RCALL L274
001F5D  7F7F    	ANDI R23,$FF
001F5E  5FC6    	SUBI YL,$F6
001F5F  7F29    	ANDI R18,$F9
001F60  2B7F    	OR R23,ZH
001F61  2781    	EOR R24,R17
001F62  642B    	ORI R18,$4B
001F63  C6D2    	RJMP L275
001F64  D1A9    	RCALL L276
001F65  7F7F    	ANDI R23,$FF
001F66  65C5    	ORI YL,$55
001F67  7F29    	ANDI R18,$F9
001F68  327F    	CPI R23,$2F
001F69  2782    	EOR R24,R18
001F6A  6032    	ORI R19,$02
001F6B  C5D2    	RJMP L277
001F6C  D1AB    	RCALL L278
001F6D  7F7F    	ANDI R23,$FF
001F6E  6CC3    	ORI YL,$C3
001F6F  7F29    L369:	ANDI R18,$F9
001F70  397F    	CPI R23,$9F
001F71  2783    	EOR R24,R19
001F72  5C39    	SUBI R19,$C9
001F73  C3D2    	RJMP L279
001F74  D1AB    	RCALL L280
001F75  7F7F    	ANDI R23,$FF
001F76  6CC3    	ORI YL,$C3
001F77  7F29    	ANDI R18,$F9
001F78  397F    	CPI R23,$9F
001F79  2783    	EOR R24,R19
001F7A  5C39    	SUBI R19,$C9
001F7B  C3D2    	RJMP L281
001F7C  D1AC    	RCALL L282
001F7D  7F7F    	ANDI R23,$FF
001F7E  68CA    	ORI YL,$8A
001F7F  7F29    	ANDI R18,$F9
001F80  377F    	CPI R23,$7F
001F81  2785    	EOR R24,R21
001F82  6337    	ORI R19,$37
001F83  CAD2    	RJMP L283
001F84  D1AD    	RCALL L284
001F85  7F7F    	ANDI R23,$FF
001F86  64D1    	ORI YH,$41
001F87  7F29    	ANDI R18,$F9
001F88  367F    	CPI R23,$6F
001F89  2787    	EOR R24,R23
001F8A  6936    	ORI R19,$96
001F8B  D1D2    	RCALL L285
001F8C  D1AC    	RCALL L286
001F8D  7F7F    	ANDI R23,$FF
001F8E  60D8    	ORI YH,$08
001F8F  7F29    	ANDI R18,$F9
001F90  357F    	CPI R23,$5F
001F91  278A    	EOR R24,XL
001F92  6F35    	ORI R19,$F5
001F93  D8D2    	RCALL L287
001F94  D1AB    	RCALL L288
001F95  7F7F    	ANDI R23,$FF
001F96  5DDD    	SUBI YH,$DD
001F97  7F29    	ANDI R18,$F9
001F98  347F    	CPI R23,$4F
001F99  278D    	EOR R24,YH
001F9A  7534    	ANDI R19,$54
001F9B  DDD2    	RCALL L289
001F9C  D1A7    	RCALL L290
001F9D  7F7F    	ANDI R23,$FF
001F9E  59DD    	SUBI YH,$9D
001F9F  7F29    L337:	ANDI R18,$F9
001FA0  347F    	CPI R23,$4F
001FA1  2791    	EOR R25,R17
001FA2  7934    	ANDI R19,$94
001FA3  DDD2    	RCALL L291
001FA4  D1A1    	RCALL L292
001FA5  7F7F    	ANDI R23,$FF
001FA6  56D8    	SUBI YH,$68
001FA7  7F29    	ANDI R18,$F9
001FA8  357F    	CPI R23,$5F
001FA9  2794    	EOR R25,R20
001FAA  7A35    	ANDI R19,$A5
001FAB  D8D2    	RCALL L293
001FAC  D19B    	RCALL L294
001FAD  7F7F    	ANDI R23,$FF
001FAE  53D1    	SUBI YH,$31
001FAF  7F29    	ANDI R18,$F9
001FB0  367F    	CPI R23,$6F
001FB1  2798    	EOR R25,R24
001FB2  7B36    	ANDI R19,$B6
001FB3  D1D2    	RCALL L295
001FB4  D195    	RCALL L296
001FB5  7F7F    	ANDI R23,$FF
001FB6  51CA    	SUBI YL,$1A
001FB7  7F29    	ANDI R18,$F9
001FB8  377F    	CPI R23,$7F
001FB9  279C    	EOR R25,YL
001FBA  7A37    	ANDI R19,$A7
001FBB  CAD2    	RJMP L297
001FBC  D18E    	RCALL L298
001FBD  7F7F    	ANDI R23,$FF
001FBE  4FC3    	SBCI YL,$F3
001FBF  7F29    	ANDI R18,$F9
001FC0  397F    	CPI R23,$9F
001FC1  27A0    	EOR XL,R16
001FC2  7939    	ANDI R19,$99
001FC3  C3D2    	RJMP L299
001FC4  D18E    	RCALL L300
001FC5  7F7F    	ANDI R23,$FF
001FC6  4FC3    	SBCI YL,$F3
001FC7  7F29    	ANDI R18,$F9
001FC8  397F    	CPI R23,$9F
001FC9  27A0    	EOR XL,R16
001FCA  7939    	ANDI R19,$99
001FCB  C3D2    	RJMP L301
001FCC  D192    	RCALL L302
001FCD  7F7F    	ANDI R23,$FF
001FCE  4EC5    	SBCI YL,$E5
001FCF  7F29    	ANDI R18,$F9
001FD0  327F    L350:	CPI R23,$2F
001FD1  2799    	CLR R25
001FD2  7732    	ANDI R19,$72
001FD3  C5D2    	RJMP L303
001FD4  D196    	RCALL L304
001FD5  7F7F    	ANDI R23,$FF
001FD6  4DC6    	SBCI YL,$D6
001FD7  7F29    	ANDI R18,$F9
001FD8  2B7F    	OR R23,ZH
001FD9  2793    	EOR R25,R19
001FDA  752B    	ANDI R18,$5B
001FDB  C6D2    	RJMP L305
001FDC  D19A    	RCALL L306
001FDD  7F7F    	ANDI R23,$FF
001FDE  4EC7    	SBCI YL,$E7
001FDF  7F29    	ANDI R18,$F9
001FE0  247F    	EOR R7,R15
001FE1  278D    	EOR R24,YH
001FE2  7224    	ANDI R18,$24
001FE3  C7D2    	RJMP L307
001FE4  D19D    	RCALL L308
001FE5  7F7F    	ANDI R23,$FF
001FE6  4FC8    	SBCI YL,$F8
001FE7  7F29    	ANDI R18,$F9
001FE8  1F7F    	ADC R23,ZH
001FE9  2787    	EOR R24,R23
001FEA  6F1F    	ORI R17,$FF
001FEB  C8D2    	RJMP L309
001FEC  D1A1    	RCALL L310
001FED  7F7F    	ANDI R23,$FF
001FEE  53C8    	SUBI YL,$38
001FEF  7F29    	ANDI R18,$F9
001FF0  1F7F    	ADC R23,ZH
001FF1  2783    	EOR R24,R19
001FF2  6B1F    	ORI R17,$BF
001FF3  C8D2    	RJMP L311
001FF4  D19F    	RCALL L312
001FF5  7F7F    	ANDI R23,$FF
001FF6  5BC8    	SUBI YL,$B8
001FF7  7F29    	ANDI R18,$F9
001FF8  347F    	CPI R23,$4F
001FF9  278F    	EOR R24,ZH
001FFA  6D34    	ORI R19,$D4
001FFB  C8D2    	RJMP L313
001FFC  0202    L210:	MULS R16,R18
001FFD  0202    	MULS R16,R18
001FFE  0202    	MULS R16,R18
001FFF  0202    	MULS R16,R18
002000  0202    	MULS R16,R18
002001  0202    	MULS R16,R18
002002  0202    	MULS R16,R18
002003  0202    	MULS R16,R18
002004  0202    L212:	MULS R16,R18
002005  0202    	MULS R16,R18
002006  0202    	MULS R16,R18
002007  0202    	MULS R16,R18
002008  0202    	MULS R16,R18
002009  0202    	MULS R16,R18
00200A  0202    	MULS R16,R18
00200B  0202    L218:	MULS R16,R18
00200C  0202    	MULS R16,R18
00200D  0202    L216:	MULS R16,R18
00200E  0202    L214:	MULS R16,R18
00200F  0202    	MULS R16,R18
002010  0202    	MULS R16,R18
002011  0202    L205:	MULS R16,R18
002012  0202    	MULS R16,R18
002013  0202    L220:	MULS R16,R18
002014  0202    	MULS R16,R18
002015  0202    	MULS R16,R18
002016  0202    	MULS R16,R18
002017  0202    	MULS R16,R18
002018  0202    	MULS R16,R18
002019  0202    	MULS R16,R18
00201A  0202    	MULS R16,R18
00201B  0202    	MULS R16,R18
00201C  0202    	MULS R16,R18
00201D  0202    	MULS R16,R18
00201E  0202    	MULS R16,R18
00201F  0202    L222:	MULS R16,R18
002020  0202    	MULS R16,R18
002021  0202    	MULS R16,R18
002022  0202    	MULS R16,R18
002023  0202    	MULS R16,R18
002024  0202    	MULS R16,R18
002025  0202    	MULS R16,R18
002026  0202    	MULS R16,R18
002027  0202    	MULS R16,R18
002028  0202    	MULS R16,R18
002029  0202    	MULS R16,R18
00202A  0202    	MULS R16,R18
00202B  0202    L224:	MULS R16,R18
00202C  0202    L322:	MULS R16,R18
00202D  0202    	MULS R16,R18
00202E  0202    	MULS R16,R18
00202F  0202    	MULS R16,R18
002030  0202    	MULS R16,R18
002031  0202    	MULS R16,R18
002032  0202    	MULS R16,R18
002033  0202    	MULS R16,R18
002034  0202    	MULS R16,R18
002035  0202    	MULS R16,R18
002036  0202    	MULS R16,R18
002037  0202    L226:	MULS R16,R18
002038  0202    	MULS R16,R18
002039  0202    	MULS R16,R18
00203A  0202    	MULS R16,R18
00203B  0202    	MULS R16,R18
00203C  0202    	MULS R16,R18
00203D  0202    	MULS R16,R18
00203E  0202    	MULS R16,R18
00203F  0202    	MULS R16,R18
002040  0202    	MULS R16,R18
002041  0202    	MULS R16,R18
002042  0202    L228:	MULS R16,R18
002043  0202    	MULS R16,R18
002044  0202    	MULS R16,R18
002045  0202    	MULS R16,R18
002046  0202    	MULS R16,R18
002047  0202    	MULS R16,R18
002048  0202    	MULS R16,R18
002049  0202    	MULS R16,R18
00204A  0202    	MULS R16,R18
00204B  0202    	MULS R16,R18
00204C  0202    	MULS R16,R18
00204D  0202    	MULS R16,R18
00204E  0202    L230:	MULS R16,R18
00204F  0202    	MULS R16,R18
002050  0202    	MULS R16,R18
002051  0202    	MULS R16,R18
002052  0202    	MULS R16,R18
002053  0202    	MULS R16,R18
002054  0202    	MULS R16,R18
002055  0202    	MULS R16,R18
002056  0202    	MULS R16,R18
002057  0202    	MULS R16,R18
002058  0202    	MULS R16,R18
002059  0202    L232:	MULS R16,R18
00205A  0202    	MULS R16,R18
00205B  0202    	MULS R16,R18
00205C  0202    	MULS R16,R18
00205D  0202    	MULS R16,R18
00205E  0202    	MULS R16,R18
00205F  0202    	MULS R16,R18
002060  0202    	MULS R16,R18
002061  0202    	MULS R16,R18
002062  0202    	MULS R16,R18
002063  0202    	MULS R16,R18
002064  0202    L234:	MULS R16,R18
002065  0202    	MULS R16,R18
002066  0202    	MULS R16,R18
002067  0202    	MULS R16,R18
002068  0202    	MULS R16,R18
002069  0202    L367:	MULS R16,R18
00206A  0202    	MULS R16,R18
00206B  0202    	MULS R16,R18
00206C  0202    	MULS R16,R18
00206D  0202    	MULS R16,R18
00206E  0202    L236:	MULS R16,R18
00206F  0202    	MULS R16,R18
002070  0202    	MULS R16,R18
002071  0202    	MULS R16,R18
002072  0202    	MULS R16,R18
002073  0202    	MULS R16,R18
002074  0202    	MULS R16,R18
002075  0202    	MULS R16,R18
002076  0202    	MULS R16,R18
002077  0202    	MULS R16,R18
002078  0202    L238:	MULS R16,R18
002079  0202    	MULS R16,R18
00207A  0202    	MULS R16,R18
00207B  0202    	MULS R16,R18
00207C  0202    	MULS R16,R18
00207D  0202    	MULS R16,R18
00207E  0202    	MULS R16,R18
00207F  0202    	MULS R16,R18
002080  0202    L240:	MULS R16,R18
002081  0202    	MULS R16,R18
002082  0202    L397:	MULS R16,R18
002083  0202    	MULS R16,R18
002084  0202    	MULS R16,R18
002085  0202    	MULS R16,R18
002086  0202    	MULS R16,R18
002087  0202    	MULS R16,R18
002088  0202    	MULS R16,R18
002089  0202    L242:	MULS R16,R18
00208A  0202    L399:	MULS R16,R18
00208B  0202    	MULS R16,R18
00208C  0202    	MULS R16,R18
00208D  0202    	MULS R16,R18
00208E  0202    	MULS R16,R18
00208F  0202    	MULS R16,R18
002090  0202    	MULS R16,R18
002091  0202    	MULS R16,R18
002092  0202    L244:	MULS R16,R18
002093  0202    	MULS R16,R18
002094  0202    	MULS R16,R18
002095  0202    	MULS R16,R18
002096  0202    	MULS R16,R18
002097  0202    	MULS R16,R18
002098  0202    	MULS R16,R18
002099  0202    L246:	MULS R16,R18
00209A  0202    	MULS R16,R18
00209B  0202    	MULS R16,R18
00209C  0202    	MULS R16,R18
00209D  0202    	MULS R16,R18
00209E  0202    	MULS R16,R18
00209F  0202    	MULS R16,R18
0020A0  0202    L248:	MULS R16,R18
0020A1  0202    	MULS R16,R18
0020A2  0202    	MULS R16,R18
0020A3  0202    	MULS R16,R18
0020A4  0202    L250:	MULS R16,R18
0020A5  0202    	MULS R16,R18
0020A6  0202    L252:	MULS R16,R18
0020A7  0202    	MULS R16,R18
0020A8  0202    L254:	MULS R16,R18
0020A9  0202    	MULS R16,R18
0020AA  0202    L256:	MULS R16,R18
0020AB  0202    L258:	MULS R16,R18
0020AC  0202    	MULS R16,R18
0020AD  0202    	MULS R16,R18
0020AE  0202    	MULS R16,R18
0020AF  0202    	MULS R16,R18
0020B0  0202    	MULS R16,R18
0020B1  0202    	MULS R16,R18
0020B2  0202    	MULS R16,R18
0020B3  0202    L260:	MULS R16,R18
0020B4  0202    	MULS R16,R18
0020B5  0202    	MULS R16,R18
0020B6  0202    	MULS R16,R18
0020B7  0202    	MULS R16,R18
0020B8  0202    	MULS R16,R18
0020B9  0202    	MULS R16,R18
0020BA  0202    	MULS R16,R18
0020BB  0202    	MULS R16,R18
0020BC  0202    	MULS R16,R18
0020BD  0202    	MULS R16,R18
0020BE  0202    L245:	MULS R16,R18
0020BF  0202    L262:	MULS R16,R18
0020C0  0202    	MULS R16,R18
0020C1  0202    	MULS R16,R18
0020C2  0202    	MULS R16,R18
0020C3  0202    	MULS R16,R18
0020C4  0202    	MULS R16,R18
0020C5  0202    	MULS R16,R18
0020C6  0202    	MULS R16,R18
0020C7  0202    	MULS R16,R18
0020C8  0202    	MULS R16,R18
0020C9  0202    	MULS R16,R18
0020CA  0202    L415:	MULS R16,R18
0020CB  0202    L264:	MULS R16,R18
0020CC  0202    	MULS R16,R18
0020CD  0202    	MULS R16,R18
0020CE  0202    	MULS R16,R18
0020CF  0202    	MULS R16,R18
0020D0  0202    	MULS R16,R18
0020D1  0202    	MULS R16,R18
0020D2  0202    L417:	MULS R16,R18
0020D3  0202    	MULS R16,R18
0020D4  0202    	MULS R16,R18
0020D5  0202    	MULS R16,R18
0020D6  0202    	MULS R16,R18
0020D7  0202    L266:	MULS R16,R18
0020D8  0202    	MULS R16,R18
0020D9  0202    	MULS R16,R18
0020DA  0202    	MULS R16,R18
0020DB  0202    	MULS R16,R18
0020DC  0202    	MULS R16,R18
0020DD  0202    	MULS R16,R18
0020DE  0202    	MULS R16,R18
0020DF  0202    	MULS R16,R18
0020E0  0202    	MULS R16,R18
0020E1  0202    	MULS R16,R18
0020E2  0202    L268:	MULS R16,R18
0020E3  0202    	MULS R16,R18
0020E4  0202    	MULS R16,R18
0020E5  0202    	MULS R16,R18
0020E6  0202    L255:	MULS R16,R18
0020E7  0202    	MULS R16,R18
0020E8  0202    	MULS R16,R18
0020E9  0202    	MULS R16,R18
0020EA  0202    	MULS R16,R18
0020EB  0202    	MULS R16,R18
0020EC  0202    	MULS R16,R18
0020ED  0202    L204:	MULS R16,R18
0020EE  0202    L270:	MULS R16,R18
0020EF  0202    	MULS R16,R18
0020F0  0202    	MULS R16,R18
0020F1  0202    	MULS R16,R18
0020F2  0202    	MULS R16,R18
0020F3  0202    	MULS R16,R18
0020F4  0202    	MULS R16,R18
0020F5  0202    	MULS R16,R18
0020F6  0202    	MULS R16,R18
0020F7  0202    	MULS R16,R18
0020F8  0202    	MULS R16,R18
0020F9  0202    L272:	MULS R16,R18
0020FA  0202    	MULS R16,R18
0020FB  0202    	MULS R16,R18
0020FC  0202    	MULS R16,R18
0020FD  0202    	MULS R16,R18
0020FE  0202    	MULS R16,R18
0020FF  0202    	MULS R16,R18
002100  0202    	MULS R16,R18
002101  0202    	MULS R16,R18
002102  0202    	MULS R16,R18
002103  0202    	MULS R16,R18
002104  0202    L274:	MULS R16,R18
002105  0202    	MULS R16,R18
002106  0202    	MULS R16,R18
002107  0202    	MULS R16,R18
002108  0202    	MULS R16,R18
002109  0202    	MULS R16,R18
00210A  0202    	MULS R16,R18
00210B  0202    	MULS R16,R18
00210C  0202    	MULS R16,R18
00210D  0202    	MULS R16,R18
00210E  0202    L276:	MULS R16,R18
00210F  0202    	MULS R16,R18
002110  0202    	MULS R16,R18
002111  0202    	MULS R16,R18
002112  0202    	MULS R16,R18
002113  0202    	MULS R16,R18
002114  0202    	MULS R16,R18
002115  0202    	MULS R16,R18
002116  0202    	MULS R16,R18
002117  0202    	MULS R16,R18
002118  0202    L278:	MULS R16,R18
002119  0202    	MULS R16,R18
00211A  0202    	MULS R16,R18
00211B  0202    	MULS R16,R18
00211C  0202    	MULS R16,R18
00211D  0202    	MULS R16,R18
00211E  0202    	MULS R16,R18
00211F  0202    	MULS R16,R18
002120  0202    L280:	MULS R16,R18
002121  0202    	MULS R16,R18
002122  0202    	MULS R16,R18
002123  0202    	MULS R16,R18
002124  0202    L320:	MULS R16,R18
002125  0202    	MULS R16,R18
002126  0202    	MULS R16,R18
002127  0202    	MULS R16,R18
002128  0202    	MULS R16,R18
002129  0202    L282:	MULS R16,R18
00212A  0202    	MULS R16,R18
00212B  0202    	MULS R16,R18
00212C  0202    	MULS R16,R18
00212D  0202    	MULS R16,R18
00212E  0202    	MULS R16,R18
00212F  0202    	MULS R16,R18
002130  0202    	MULS R16,R18
002131  0202    	MULS R16,R18
002132  0202    L284:	MULS R16,R18
002133  0202    	MULS R16,R18
002134  0202    	MULS R16,R18
002135  0202    	MULS R16,R18
002136  0202    	MULS R16,R18
002137  0202    	MULS R16,R18
002138  0202    	MULS R16,R18
002139  0202    L286:	MULS R16,R18
00213A  0202    	MULS R16,R18
00213B  0202    	MULS R16,R18
00213C  0202    	MULS R16,R18
00213D  0202    	MULS R16,R18
00213E  0202    	MULS R16,R18
00213F  0202    	MULS R16,R18
002140  0202    L288:	MULS R16,R18
002141  0202    	MULS R16,R18
002142  0202    	MULS R16,R18
002143  0202    	MULS R16,R18
002144  0202    L290:	MULS R16,R18
002145  0202    	MULS R16,R18
002146  0202    L292:	MULS R16,R18
002147  0202    	MULS R16,R18
002148  0202    L294:	MULS R16,R18
002149  0202    	MULS R16,R18
00214A  0202    L296:	MULS R16,R18
00214B  0202    L298:	MULS R16,R18
00214C  0202    	MULS R16,R18
00214D  0202    	MULS R16,R18
00214E  0202    L217:	MULS R16,R18
00214F  0202    	MULS R16,R18
002150  0202    	MULS R16,R18
002151  0202    	MULS R16,R18
002152  0202    	MULS R16,R18
002153  0202    L300:	MULS R16,R18
002154  0202    	MULS R16,R18
002155  0202    	MULS R16,R18
002156  0202    	MULS R16,R18
002157  0202    	MULS R16,R18
002158  0202    	MULS R16,R18
002159  0202    	MULS R16,R18
00215A  0202    	MULS R16,R18
00215B  0202    	MULS R16,R18
00215C  0202    	MULS R16,R18
00215D  0202    	MULS R16,R18
00215E  0202    L285:	MULS R16,R18
00215F  0202    L302:	MULS R16,R18
002160  0202    	MULS R16,R18
002161  0202    	MULS R16,R18
002162  0202    L365:	MULS R16,R18
002163  0202    	MULS R16,R18
002164  0202    	MULS R16,R18
002165  0202    	MULS R16,R18
002166  0202    	MULS R16,R18
002167  0202    	MULS R16,R18
002168  0202    	MULS R16,R18
002169  0202    	MULS R16,R18
00216A  0202    	MULS R16,R18
00216B  0202    L304:	MULS R16,R18
00216C  0202    	MULS R16,R18
00216D  0202    	MULS R16,R18
00216E  0202    	MULS R16,R18
00216F  0202    	MULS R16,R18
002170  0202    	MULS R16,R18
002171  0202    	MULS R16,R18
002172  0202    	MULS R16,R18
002173  0202    	MULS R16,R18
002174  0202    	MULS R16,R18
002175  0202    	MULS R16,R18
002176  0202    	MULS R16,R18
002177  0202    L306:	MULS R16,R18
002178  0202    	MULS R16,R18
002179  0202    	MULS R16,R18
00217A  0202    	MULS R16,R18
00217B  0202    	MULS R16,R18
00217C  0202    	MULS R16,R18
00217D  0202    	MULS R16,R18
00217E  0202    	MULS R16,R18
00217F  0202    	MULS R16,R18
002180  0202    	MULS R16,R18
002181  0202    	MULS R16,R18
002182  0202    L308:	MULS R16,R18
002183  0202    	MULS R16,R18
002184  0202    	MULS R16,R18
002185  0202    	MULS R16,R18
002186  0202    L295:	MULS R16,R18
002187  0202    	MULS R16,R18
002188  0202    	MULS R16,R18
002189  0202    	MULS R16,R18
00218A  0202    	MULS R16,R18
00218B  0202    	MULS R16,R18
00218C  0303    	MULSU R16,R19
00218D  0303    	MULSU R16,R19
00218E  0303    L310:	MULSU R16,R19
00218F  0303    	MULSU R16,R19
002190  0303    	MULSU R16,R19
002191  0303    	MULSU R16,R19
002192  0303    	MULSU R16,R19
002193  0303    	MULSU R16,R19
002194  0000    L312:	NOP
002195  0000    	NOP
002196  0000    	NOP
002197  0000    	NOP
002198  0000    	NOP
002199  0000    	NOP
00219A  0000    	NOP
00219B  0000    	NOP
00219C  0000    	NOP
00219D  0000    	NOP
00219E  0000    	NOP
00219F  0000    	NOP
0021A0  0000    	NOP
0021A1  0000    	NOP
0021A2  0000    	NOP
0021A3  0000    	NOP
0021A4  0000    	NOP
0021A5  0000    	NOP
0021A6  0000    L419:	NOP
0021A7  0000    	NOP
0021A8  0000    	NOP
0021A9  0000    	NOP
0021AA  0000    	NOP
0021AB  0000    	NOP
0021AC  0000    	NOP
0021AD  0000    	NOP
0021AE  0000    L421:	NOP
0021AF  0000    	NOP
0021B0  0000    	NOP
0021B1  0000    	NOP
0021B2  0000    	NOP
0021B3  0000    	NOP
0021B4  0000    	NOP
0021B5  0000    	NOP
0021B6  0000    L371:	NOP
0021B7  0000    	NOP
0021B8  0000    	NOP
0021B9  0000    	NOP
0021BA  0000    	NOP
0021BB  0000    	NOP
0021BC  0000    	NOP
0021BD  0000    	NOP
0021BE  0000    	NOP
0021BF  0000    	NOP
0021C0  0000    	NOP
0021C1  0000    	NOP
0021C2  0000    	NOP
0021C3  0000    	NOP
0021C4  0000    	NOP
0021C5  0000    	NOP
0021C6  0000    	NOP
0021C7  0000    	NOP
0021C8  0000    	NOP
0021C9  0000    	NOP
0021CA  0000    	NOP
0021CB  0000    	NOP
0021CC  0000    	NOP
0021CD  0000    	NOP
0021CE  0000    	NOP
0021CF  0000    	NOP
0021D0  0000    	NOP
0021D1  0000    	NOP
0021D2  0000    	NOP
0021D3  0000    	NOP
0021D4  0000    	NOP
0021D5  0000    	NOP
0021D6  0000    	NOP
0021D7  0000    	NOP
0021D8  0000    	NOP
0021D9  0000    	NOP
0021DA  0000    	NOP
0021DB  0000    	NOP
0021DC  0000    	NOP
0021DD  0000    	NOP
0021DE  0000    	NOP
0021DF  0000    	NOP
0021E0  0000    	NOP
0021E1  0000    	NOP
0021E2  0000    	NOP
0021E3  0000    	NOP
0021E4  0000    	NOP
0021E5  0000    	NOP
0021E6  0000    	NOP
0021E7  0000    	NOP
0021E8  0000    	NOP
0021E9  0000    	NOP
0021EA  0000    	NOP
0021EB  0000    	NOP
0021EC  0000    	NOP
0021ED  0000    	NOP
0021EE  0000    L436:	NOP
0021EF  0000    	NOP
0021F0  0000    	NOP
0021F1  0000    	NOP
0021F2  0000    	NOP
0021F3  0000    	NOP
0021F4  0000    	NOP
0021F5  0000    	NOP
0021F6  0000    L438:	NOP
0021F7  0000    	NOP
0021F8  0000    	NOP
0021F9  0000    	NOP
0021FA  0000    	NOP
0021FB  0000    	NOP
0021FC  0000    	NOP
0021FD  0000    	NOP
0021FE  0000    	NOP
0021FF  0000    	NOP
002200  0000    	NOP
002201  0000    	NOP
002202  0000    	NOP
002203  0000    	NOP
002204  0000    	NOP
002205  0000    	NOP
002206  0000    	NOP
002207  0000    	NOP
002208  0000    	NOP
002209  0000    	NOP
00220A  0000    	NOP
00220B  0000    	NOP
00220C  0000    	NOP
00220D  0000    	NOP
00220E  0000    	NOP
00220F  0000    	NOP
002210  0000    	NOP
002211  0000    	NOP
002212  0000    	NOP
002213  0000    	NOP
002214  0000    	NOP
002215  0000    	NOP
002216  0000    	NOP
002217  0000    	NOP
002218  0000    	NOP
002219  0000    	NOP
00221A  0000    	NOP
00221B  0000    	NOP
00221C  0000    L318:	NOP
00221D  0000    	NOP
00221E  0000    	NOP
00221F  0000    	NOP
002220  0000    	NOP
002221  0000    	NOP
002222  0000    	NOP
002223  0000    	NOP
002224  0000    	NOP
002225  0000    	NOP
002226  0000    	NOP
002227  0000    	NOP
002228  0000    	NOP
002229  0000    	NOP
00222A  0000    	NOP
00222B  0000    	NOP
00222C  0000    	NOP
00222D  0000    	NOP
00222E  0000    	NOP
00222F  0000    	NOP
002230  0000    	NOP
002231  0000    	NOP
002232  0000    	NOP
002233  0000    	NOP
002234  0000    	NOP
002235  0000    	NOP
002236  0000    	NOP
002237  0000    	NOP
002238  0000    	NOP
002239  0000    	NOP
00223A  0000    	NOP
00223B  0000    	NOP
00223C  0000    	NOP
00223D  0000    	NOP
00223E  0000    	NOP
00223F  0000    	NOP
002240  0000    	NOP
002241  0000    	NOP
002242  0000    	NOP
002243  0000    	NOP
002244  0000    	NOP
002245  0000    	NOP
002246  0000    	NOP
002247  0000    	NOP
002248  0000    	NOP
002249  0000    	NOP
00224A  0000    	NOP
00224B  0000    	NOP
00224C  0000    	NOP
00224D  0000    	NOP
00224E  0000    	NOP
00224F  0000    	NOP
002250  0000    	NOP
002251  0000    	NOP
002252  0000    	NOP
002253  0000    	NOP
002254  0000    	NOP
002255  0000    	NOP
002256  0000    L219:	NOP
002257  0000    	NOP
002258  0000    	NOP
002259  0000    	NOP
00225A  0000    L363:	NOP
00225B  0000    	NOP
00225C  0000    L334:	NOP
00225D  0000    	NOP
00225E  0000    L221:	NOP
00225F  0000    	NOP
002260  0000    	NOP
002261  0000    	NOP
002262  0000    	NOP
002263  0000    	NOP
002264  0000    	NOP
002265  0000    	NOP
002266  0000    	NOP
002267  0000    	NOP
002268  0000    	NOP
002269  0000    	NOP
00226A  0000    	NOP
00226B  0000    	NOP
00226C  0000    	NOP
00226D  0000    	NOP
00226E  0000    	NOP
00226F  0000    	NOP
002270  0000    	NOP
002271  0000    	NOP
002272  0000    	NOP
002273  0000    	NOP
002274  0000    	NOP
002275  0000    	NOP
002276  0000    	NOP
002277  0000    	NOP
002278  0000    	NOP
002279  0000    	NOP
00227A  0000    	NOP
00227B  0000    	NOP
00227C  0000    	NOP
00227D  0000    	NOP
00227E  0000    	NOP
00227F  0000    	NOP
002280  0000    	NOP
002281  0000    	NOP
002282  0000    	NOP
002283  0000    	NOP
002284  0000    	NOP
002285  0000    	NOP
002286  0000    	NOP
002287  0000    	NOP
002288  0000    	NOP
002289  0000    	NOP
00228A  0000    	NOP
00228B  0000    	NOP
00228C  0000    	NOP
00228D  0000    	NOP
00228E  0000    	NOP
00228F  0000    	NOP
002290  0000    	NOP
002291  0000    	NOP
002292  0000    	NOP
002293  0000    	NOP
002294  0000    	NOP
002295  0000    	NOP
002296  0000    	NOP
002297  0000    	NOP
002298  0000    	NOP
002299  0000    	NOP
00229A  0000    	NOP
00229B  0000    	NOP
00229C  0000    	NOP
00229D  0000    	NOP
00229E  0000    	NOP
00229F  0000    	NOP
0022A0  0000    	NOP
0022A1  0000    	NOP
0022A2  0000    	NOP
0022A3  0000    	NOP
0022A4  0000    	NOP
0022A5  0000    	NOP
0022A6  0000    L239:	NOP
0022A7  0000    	NOP
0022A8  0000    	NOP
0022A9  0000    	NOP
0022AA  0000    	NOP
0022AB  0000    	NOP
0022AC  0000    	NOP
0022AD  0000    	NOP
0022AE  0000    L241:	NOP
0022AF  0000    	NOP
0022B0  0000    	NOP
0022B1  0000    	NOP
0022B2  0000    	NOP
0022B3  0000    	NOP
0022B4  0000    	NOP
0022B5  0000    	NOP
0022B6  0000    	NOP
0022B7  0000    	NOP
0022B8  0000    	NOP
0022B9  0000    	NOP
0022BA  0000    	NOP
0022BB  0000    	NOP
0022BC  0000    	NOP
0022BD  0000    	NOP
0022BE  0000    	NOP
0022BF  0000    	NOP
0022C0  0000    L440:	NOP
0022C1  0000    	NOP
0022C2  0000    	NOP
0022C3  0000    	NOP
0022C4  0000    	NOP
0022C5  0000    	NOP
0022C6  0000    	NOP
0022C7  0000    	NOP
0022C8  0000    L442:	NOP
0022C9  0000    L348:	NOP
0022CA  0000    	NOP
0022CB  0000    	NOP
0022CC  0000    	NOP
0022CD  0000    	NOP
0022CE  0000    	NOP
0022CF  0000    	NOP
0022D0  0000    L445:	NOP
0022D1  0000    	NOP
0022D2  0000    	NOP
0022D3  0000    	NOP
0022D4  0000    	NOP
0022D5  0000    	NOP
0022D6  0000    	NOP
0022D7  0000    	NOP
0022D8  0000    	NOP
0022D9  0000    	NOP
0022DA  0000    	NOP
0022DB  0000    	NOP
0022DC  0000    	NOP
0022DD  0000    	NOP
0022DE  0000    	NOP
0022DF  0000    	NOP
0022E0  0000    	NOP
0022E1  0000    	NOP
0022E2  0000    	NOP
0022E3  0000    	NOP
0022E4  0000    	NOP
0022E5  0000    	NOP
0022E6  0000    	NOP
0022E7  0000    	NOP
0022E8  0000    L450:	NOP
0022E9  0000    	NOP
0022EA  0000    	NOP
0022EB  0000    	NOP
0022EC  0000    	NOP
0022ED  0000    	NOP
0022EE  0000    	NOP
0022EF  0000    	NOP
0022F0  0000    	NOP
0022F1  0000    	NOP
0022F2  0000    	NOP
0022F3  0000    	NOP
0022F4  0000    	NOP
0022F5  0000    	NOP
0022F6  0000    L259:	NOP
0022F7  0000    	NOP
0022F8  0000    	NOP
0022F9  0000    	NOP
0022FA  0000    	NOP
0022FB  0000    	NOP
0022FC  0000    	NOP
0022FD  0000    	NOP
0022FE  0000    L261:	NOP
0022FF  0000    	NOP
002300  0000    	NOP
002301  0000    	NOP
002302  0000    	NOP
002303  0000    	NOP
002304  0000    	NOP
002305  0000    	NOP
002306  0000    	NOP
002307  0000    	NOP
002308  0000    	NOP
002309  0000    	NOP
00230A  0000    	NOP
00230B  0000    	NOP
00230C  0000    	NOP
00230D  0000    	NOP
00230E  0000    	NOP
00230F  0000    	NOP
002310  0000    	NOP
002311  0000    	NOP
002312  0000    	NOP
002313  0000    	NOP
002314  0000    	NOP
002315  0000    	NOP
002316  0000    	NOP
002317  0000    	NOP
002318  0000    	NOP
002319  0000    	NOP
00231A  0000    	NOP
00231B  0000    	NOP
00231C  0000    	NOP
00231D  0000    	NOP
00231E  0000    	NOP
00231F  0000    	NOP
002320  0000    	NOP
002321  0000    	NOP
002322  0000    	NOP
002323  0000    	NOP
002324  0000    	NOP
002325  0000    	NOP
002326  0000    	NOP
002327  0000    	NOP
002328  0000    	NOP
002329  0000    	NOP
00232A  0000    	NOP
00232B  0000    	NOP
00232C  1414    	CP R1,R4
00232D  1414    	CP R1,R4
00232E  1414    	CP R1,R4
00232F  1414    	CP R1,R4
002330  1414    	CP R1,R4
002331  1414    	CP R1,R4
002332  1414    	CP R1,R4
002333  1414    	CP R1,R4
002334  1E1E    	ADC R1,ZL
002335  1E1E    	ADC R1,ZL
002336  1E1E    	ADC R1,ZL
002337  1E1E    	ADC R1,ZL
002338  1E1E    	ADC R1,ZL
002339  1E1E    	ADC R1,ZL
00233A  1E1E    	ADC R1,ZL
00233B  1E1E    	ADC R1,ZL
00233C  0000    	NOP
00233D  0000    	NOP
00233E  0000    	NOP
00233F  0000    	NOP
002340  0000    	NOP
002341  0000    	NOP
002342  0000    	NOP
002343  0000    	NOP
002344  0001    	UNRECOGNIZED
002345  0001    	UNRECOGNIZED
002346  0001    L279:	UNRECOGNIZED
002347  0001    	UNRECOGNIZED
002348  0001    	UNRECOGNIZED
002349  0001    	UNRECOGNIZED
00234A  0001    	UNRECOGNIZED
00234B  0001    	UNRECOGNIZED
00234C  0001    	UNRECOGNIZED
00234D  0001    	UNRECOGNIZED
00234E  0001    L281:	UNRECOGNIZED
00234F  0001    	UNRECOGNIZED
002350  0001    	UNRECOGNIZED
002351  0001    L361:	UNRECOGNIZED
002352  0001    	UNRECOGNIZED
002353  0001    	UNRECOGNIZED
002354  0001    	UNRECOGNIZED
002355  0001    	UNRECOGNIZED
002356  0001    	UNRECOGNIZED
002357  0001    	UNRECOGNIZED
002358  0014    	UNRECOGNIZED
002359  0014    	UNRECOGNIZED
00235A  0014    	UNRECOGNIZED
00235B  0014    	UNRECOGNIZED
00235C  0014    	UNRECOGNIZED
00235D  0014    	UNRECOGNIZED
00235E  0014    	UNRECOGNIZED
00235F  0014    	UNRECOGNIZED
002360  0014    	UNRECOGNIZED
002361  0014    	UNRECOGNIZED
002362  0014    L452:	UNRECOGNIZED
002363  0014    	UNRECOGNIZED
002364  0014    	UNRECOGNIZED
002365  0014    	UNRECOGNIZED
002366  0014    L336:	UNRECOGNIZED
002367  0014    	UNRECOGNIZED
002368  0014    	UNRECOGNIZED
002369  0014    	UNRECOGNIZED
00236A  0014    L454:	UNRECOGNIZED
00236B  0014    	UNRECOGNIZED
00236C  D09F    	RCALL L314
00236D  7F7F    	ANDI R23,$FF
00236E  5BC8    	SUBI YL,$B8
00236F  7F2B    	ANDI R18,$FB
002370  347F    	CPI R23,$4F
002371  278F    	EOR R24,ZH
002372  6D34    L456:	ORI R19,$D4
002373  C8D2    	RJMP L315
002374  D09F    	RCALL L316
002375  7F7F    	ANDI R23,$FF
002376  5BC8    	SUBI YL,$B8
002377  7F2B    	ANDI R18,$FB
002378  347F    	CPI R23,$4F
002379  278F    	EOR R24,ZH
00237A  6D34    L458:	ORI R19,$D4
00237B  C8D2    	RJMP L317
00237C  CE9F    	RJMP L318
00237D  7F7F    	ANDI R23,$FF
00237E  58C8    	SUBI YL,$88
00237F  7F2F    	ANDI R18,$FF
002380  2E7F    	MOV R7,ZH
002381  258C    	EOR R24,R12
002382  6D2E    L459:	ORI R18,$DE
002383  C8D4    	RJMP L319
002384  CD9F    	RJMP L320
002385  7F7F    	ANDI R23,$FF
002386  56C8    	SUBI YL,$68
002387  7F31    	ANDI R19,$F1
002388  2B7F    	OR R23,ZH
002389  248A    	EOR R8,R10
00238A  6D2B    L461:	ORI R18,$DB
00238B  C8D5    	RJMP L321
00238C  CC9F    	RJMP L322
00238D  7F7F    	ANDI R23,$FF
00238E  55C8    	SUBI YL,$58
00238F  7F32    	ANDI R19,$F2
002390  287F    	OR R7,R15
002391  2389    	AND R24,R25
002392  6D28    	ORI R18,$D8
002393  C8D6    	RJMP L323
002394  CB9F    	RJMP L324
002395  7F7F    	ANDI R23,$FF
002396  55C8    L299:	SUBI YL,$58
002397  7F34    	ANDI R19,$F4
002398  287F    	OR R7,R15
002399  2289    	AND R8,R25
00239A  6D28    	ORI R18,$D8
00239B  C8D7    	RJMP L325
00239C  CA9F    	RJMP L326
00239D  7F7F    	ANDI R23,$FF
00239E  56C8    L301:	SUBI YL,$68
00239F  7F36    	ANDI R19,$F6
0023A0  2B7F    	OR R23,ZH
0023A1  218A    	AND R24,R10
0023A2  6D2B    	ORI R18,$DB
0023A3  C8D8    	RJMP L327
0023A4  C99F    	RJMP L328
0023A5  7F7F    	ANDI R23,$FF
0023A6  58C8    	SUBI YL,$88
0023A7  7F38    	ANDI R19,$F8
0023A8  2E7F    	MOV R7,ZH
0023A9  208C    	AND R8,R12
0023AA  6D2E    	ORI R18,$DE
0023AB  C8D9    	RJMP L329
0023AC  C89F    	RJMP L330
0023AD  7F7F    	ANDI R23,$FF
0023AE  59C8    	SUBI YL,$98
0023AF  7F3A    	ANDI R19,$FA
0023B0  317F    	CPI R23,$1F
0023B1  1F8D    	ADC R24,YH
0023B2  6D31    	ORI R19,$D1
0023B3  C8DA    	RJMP L331
0023B4  C89F    	RJMP L332
0023B5  7F7F    	ANDI R23,$FF
0023B6  5BC8    	SUBI YL,$B8
0023B7  7F3B    	ANDI R19,$FB
0023B8  347F    	CPI R23,$4F
0023B9  1F8F    	ADC R24,ZH
0023BA  6D34    	ORI R19,$D4
0023BB  C8DA    	RJMP L333
0023BC  CE9F    	RJMP L334
0023BD  7F7F    	ANDI R23,$FF
0023BE  5BC8    	SUBI YL,$B8
0023BF  7F2C    	ANDI R18,$FC
0023C0  347F    	CPI R23,$4F
0023C1  258F    	EOR R24,R15
0023C2  6D34    	ORI R19,$D4
0023C3  C8D4    	RJMP L335
0023C4  CFA1    	RJMP L336
0023C5  7F7F    	ANDI R23,$FF
0023C6  5BCB    	SUBI YL,$BB
0023C7  7F2B    	ANDI R18,$FB
0023C8  347F    	CPI R23,$4F
0023C9  268F    	EOR R8,ZH
0023CA  6F34    	ORI R19,$F4
0023CB  CBD3    	RJMP L337
0023CC  D0A2    	RCALL L338
0023CD  7F7F    	ANDI R23,$FF
0023CE  5BCE    	SUBI YL,$BE
0023CF  7F2A    	ANDI R18,$FA
0023D0  347F    	CPI R23,$4F
0023D1  278F    	EOR R24,ZH
0023D2  7034    	ANDI R19,$04
0023D3  CED2    	RJMP L239
0023D4  D1A4    	RCALL L339
0023D5  7F7F    	ANDI R23,$FF
0023D6  5BD1    	SUBI YH,$B1
0023D7  7F29    	ANDI R18,$F9
0023D8  347F    	CPI R23,$4F
0023D9  288F    	OR R8,R15
0023DA  7234    	ANDI R19,$24
0023DB  D1D1    	RCALL L340
0023DC  D2A5    	RCALL L341
0023DD  7F7F    	ANDI R23,$FF
0023DE  5BD4    	SUBI YH,$B4
0023DF  7F28    	ANDI R18,$F8
0023E0  347F    	CPI R23,$4F
0023E1  298F    	OR R24,R15
0023E2  7334    	ANDI R19,$34
0023E3  D4D0    	RCALL L342
0023E4  D3A5    	RCALL L343
0023E5  7F7F    	ANDI R23,$FF
0023E6  5BD4    	SUBI YH,$B4
0023E7  7F27    	ANDI R18,$F7
0023E8  347F    	CPI R23,$4F
0023E9  2A8F    	OR R8,ZH
0023EA  7334    	ANDI R19,$34
0023EB  D4CF    	RCALL L344
0023EC  D4A4    	RCALL L345
0023ED  7F7F    	ANDI R23,$FF
0023EE  5BD1    	SUBI YH,$B1
0023EF  7F26    	ANDI R18,$F6
0023F0  347F    	CPI R23,$4F
0023F1  2B8F    	OR R24,ZH
0023F2  7234    	ANDI R19,$24
0023F3  D1CE    	RCALL L346
0023F4  D5A2    	RCALL L347
0023F5  7F7F    	ANDI R23,$FF
0023F6  5BCE    	SUBI YL,$BE
0023F7  7F25    	ANDI R18,$F5
0023F8  347F    	CPI R23,$4F
0023F9  2C8F    	MOV R8,R15
0023FA  7034    	ANDI R19,$04
0023FB  CECD    	RJMP L348
0023FC  D6A1    	RCALL L349
0023FD  7F7F    	ANDI R23,$FF
0023FE  5BCB    	SUBI YL,$BB
0023FF  7F24    	ANDI R18,$F4
002400  347F    	CPI R23,$4F
002401  2D8F    	MOV R24,R15
002402  6F34    	ORI R19,$F4
002403  CBCC    	RJMP L350
002404  D69F    	RCALL L351
002405  7F7F    	ANDI R23,$FF
002406  5BC8    	SUBI YL,$B8
002407  7F24    	ANDI R18,$F4
002408  347F    	CPI R23,$4F
002409  2D8F    	MOV R24,R15
00240A  6D34    	ORI R19,$D4
00240B  C8CC    	RJMP L352
00240C  D69F    L314:	RCALL L353
00240D  7F7F    	ANDI R23,$FF
00240E  5BC8    	SUBI YL,$B8
00240F  7F24    	ANDI R18,$F4
002410  347F    	CPI R23,$4F
002411  2D8F    	MOV R24,R15
002412  6D34    	ORI R19,$D4
002413  C8CC    	RJMP L354
002414  0202    L316:	MULS R16,R18
002415  0202    	MULS R16,R18
002416  0202    	MULS R16,R18
002417  0202    	MULS R16,R18
002418  0202    	MULS R16,R18
002419  0202    	MULS R16,R18
00241A  0202    	MULS R16,R18
00241B  0202    	MULS R16,R18
00241C  0202    	MULS R16,R18
00241D  0202    	MULS R16,R18
00241E  0202    	MULS R16,R18
00241F  0202    	MULS R16,R18
002420  0202    	MULS R16,R18
002421  0202    	MULS R16,R18
002422  0202    L463:	MULS R16,R18
002423  0202    	MULS R16,R18
002424  0202    	MULS R16,R18
002425  0202    	MULS R16,R18
002426  0202    	MULS R16,R18
002427  0202    	MULS R16,R18
002428  0202    	MULS R16,R18
002429  0202    	MULS R16,R18
00242A  0202    L465:	MULS R16,R18
00242B  0202    	MULS R16,R18
00242C  0202    	MULS R16,R18
00242D  0202    	MULS R16,R18
00242E  0202    	MULS R16,R18
00242F  0202    	MULS R16,R18
002430  0202    	MULS R16,R18
002431  0202    	MULS R16,R18
002432  0202    	MULS R16,R18
002433  0202    	MULS R16,R18
002434  0202    	MULS R16,R18
002435  0202    	MULS R16,R18
002436  0202    	MULS R16,R18
002437  0202    	MULS R16,R18
002438  0202    	MULS R16,R18
002439  0202    	MULS R16,R18
00243A  0202    	MULS R16,R18
00243B  0202    	MULS R16,R18
00243C  0202    	MULS R16,R18
00243D  0202    	MULS R16,R18
00243E  0202    	MULS R16,R18
00243F  0202    	MULS R16,R18
002440  0202    	MULS R16,R18
002441  0202    	MULS R16,R18
002442  0202    	MULS R16,R18
002443  0202    	MULS R16,R18
002444  0202    	MULS R16,R18
002445  0202    	MULS R16,R18
002446  0202    	MULS R16,R18
002447  0202    L359:	MULS R16,R18
002448  0202    	MULS R16,R18
002449  0202    	MULS R16,R18
00244A  0202    	MULS R16,R18
00244B  0202    	MULS R16,R18
00244C  0202    	MULS R16,R18
00244D  0202    	MULS R16,R18
00244E  0202    	MULS R16,R18
00244F  0202    	MULS R16,R18
002450  0202    	MULS R16,R18
002451  0202    	MULS R16,R18
002452  0202    	MULS R16,R18
002453  0202    	MULS R16,R18
002454  0202    	MULS R16,R18
002455  0202    	MULS R16,R18
002456  0202    	MULS R16,R18
002457  0202    	MULS R16,R18
002458  0202    	MULS R16,R18
002459  0202    	MULS R16,R18
00245A  0202    	MULS R16,R18
00245B  0202    	MULS R16,R18
00245C  0202    	MULS R16,R18
00245D  0202    	MULS R16,R18
00245E  0202    	MULS R16,R18
00245F  0202    	MULS R16,R18
002460  0202    	MULS R16,R18
002461  0202    	MULS R16,R18
002462  0202    	MULS R16,R18
002463  0202    	MULS R16,R18
002464  0202    	MULS R16,R18
002465  0202    	MULS R16,R18
002466  0202    L223:	MULS R16,R18
002467  0202    	MULS R16,R18
002468  0202    	MULS R16,R18
002469  0202    	MULS R16,R18
00246A  0202    L480:	MULS R16,R18
00246B  0202    	MULS R16,R18
00246C  0202    	MULS R16,R18
00246D  0202    	MULS R16,R18
00246E  0202    	MULS R16,R18
00246F  0202    L338:	MULS R16,R18
002470  0202    	MULS R16,R18
002471  0202    	MULS R16,R18
002472  0202    L482:	MULS R16,R18
002473  0202    	MULS R16,R18
002474  0202    	MULS R16,R18
002475  0202    	MULS R16,R18
002476  0202    	MULS R16,R18
002477  0202    	MULS R16,R18
002478  0202    	MULS R16,R18
002479  0202    	MULS R16,R18
00247A  0202    	MULS R16,R18
00247B  0202    	MULS R16,R18
00247C  0202    	MULS R16,R18
00247D  0202    	MULS R16,R18
00247E  0202    	MULS R16,R18
00247F  0202    	MULS R16,R18
002480  0202    L360:	MULS R16,R18
002481  0202    	MULS R16,R18
002482  0202    	MULS R16,R18
002483  0202    	MULS R16,R18
002484  0202    L374:	MULS R16,R18
002485  0202    	MULS R16,R18
002486  0202    	MULS R16,R18
002487  0202    	MULS R16,R18
002488  0202    	MULS R16,R18
002489  0202    	MULS R16,R18
00248A  0202    	MULS R16,R18
00248B  0202    	MULS R16,R18
00248C  0202    	MULS R16,R18
00248D  0202    	MULS R16,R18
00248E  0202    	MULS R16,R18
00248F  0202    	MULS R16,R18
002490  0202    	MULS R16,R18
002491  0202    	MULS R16,R18
002492  0202    	MULS R16,R18
002493  0202    	MULS R16,R18
002494  0202    	MULS R16,R18
002495  0202    	MULS R16,R18
002496  0202    	MULS R16,R18
002497  0202    	MULS R16,R18
002498  0202    	MULS R16,R18
002499  0202    	MULS R16,R18
00249A  0202    	MULS R16,R18
00249B  0202    	MULS R16,R18
00249C  0202    	MULS R16,R18
00249D  0202    	MULS R16,R18
00249E  0202    L237:	MULS R16,R18
00249F  0202    	MULS R16,R18
0024A0  0202    	MULS R16,R18
0024A1  0202    	MULS R16,R18
0024A2  0202    	MULS R16,R18
0024A3  0202    	MULS R16,R18
0024A4  0202    	MULS R16,R18
0024A5  0202    	MULS R16,R18
0024A6  0202    	MULS R16,R18
0024A7  0202    	MULS R16,R18
0024A8  0202    	MULS R16,R18
0024A9  0202    	MULS R16,R18
0024AA  0202    	MULS R16,R18
0024AB  0202    	MULS R16,R18
0024AC  0404    	CPC R0,R4
0024AD  0404    L370:	CPC R0,R4
0024AE  0404    	CPC R0,R4
0024AF  0404    	CPC R0,R4
0024B0  0404    	CPC R0,R4
0024B1  0404    	CPC R0,R4
0024B2  0404    	CPC R0,R4
0024B3  0404    	CPC R0,R4
0024B4  0000    	NOP
0024B5  0000    	NOP
0024B6  0000    	NOP
0024B7  0000    	NOP
0024B8  0000    	NOP
0024B9  0000    	NOP
0024BA  0000    L500:	NOP
0024BB  0000    	NOP
0024BC  0000    	NOP
0024BD  0000    	NOP
0024BE  0000    	NOP
0024BF  0000    	NOP
0024C0  0000    	NOP
0024C1  0000    	NOP
0024C2  0000    L502:	NOP
0024C3  0000    	NOP
0024C4  0000    	NOP
0024C5  0000    	NOP
0024C6  0000    	NOP
0024C7  0000    	NOP
0024C8  0000    	NOP
0024C9  0000    	NOP
0024CA  0000    	NOP
0024CB  0000    	NOP
0024CC  0000    	NOP
0024CD  0000    	NOP
0024CE  0000    	NOP
0024CF  0000    	NOP
0024D0  0000    	NOP
0024D1  0000    	NOP
0024D2  0000    	NOP
0024D3  0000    	NOP
0024D4  0000    	NOP
0024D5  0000    	NOP
0024D6  0000    	NOP
0024D7  0000    	NOP
0024D8  0000    	NOP
0024D9  0000    	NOP
0024DA  0000    	NOP
0024DB  0000    	NOP
0024DC  0000    	NOP
0024DD  0000    	NOP
0024DE  0000    	NOP
0024DF  0000    	NOP
0024E0  0000    	NOP
0024E1  0000    	NOP
0024E2  0000    	NOP
0024E3  0000    	NOP
0024E4  0000    	NOP
0024E5  0000    	NOP
0024E6  0000    	NOP
0024E7  0000    	NOP
0024E8  0000    	NOP
0024E9  0000    	NOP
0024EA  0000    	NOP
0024EB  0000    	NOP
0024EC  0000    	NOP
0024ED  0000    	NOP
0024EE  0000    	NOP
0024EF  0000    	NOP
0024F0  0000    	NOP
0024F1  0000    	NOP
0024F2  0000    	NOP
0024F3  0000    	NOP
0024F4  0000    	NOP
0024F5  0000    	NOP
0024F6  0000    	NOP
0024F7  0000    	NOP
0024F8  0000    	NOP
0024F9  0000    	NOP
0024FA  0000    	NOP
0024FB  0000    	NOP
0024FC  0000    	NOP
0024FD  0000    	NOP
0024FE  0000    	NOP
0024FF  0000    	NOP
002500  0000    	NOP
002501  0000    	NOP
002502  0000    	NOP
002503  0000    	NOP
002504  0000    	NOP
002505  0000    	NOP
002506  0000    L263:	NOP
002507  0000    	NOP
002508  0000    	NOP
002509  0000    	NOP
00250A  0000    	NOP
00250B  0000    	NOP
00250C  0000    	NOP
00250D  0000    	NOP
00250E  0000    	NOP
00250F  0000    	NOP
002510  0000    	NOP
002511  0000    	NOP
002512  0000    	NOP
002513  0000    	NOP
002514  0000    	NOP
002515  0000    	NOP
002516  0000    	NOP
002517  0000    	NOP
002518  0000    	NOP
002519  0000    	NOP
00251A  0000    	NOP
00251B  0000    	NOP
00251C  0000    	NOP
00251D  0000    	NOP
00251E  0000    	NOP
00251F  0000    	NOP
002520  0000    	NOP
002521  0000    	NOP
002522  0000    	NOP
002523  0000    	NOP
002524  0000    	NOP
002525  0000    	NOP
002526  0000    	NOP
002527  0000    	NOP
002528  0000    	NOP
002529  0000    	NOP
00252A  0000    	NOP
00252B  0000    	NOP
00252C  0000    	NOP
00252D  0000    	NOP
00252E  0000    	NOP
00252F  0000    	NOP
002530  0000    	NOP
002531  0000    	NOP
002532  0000    	NOP
002533  0000    	NOP
002534  0000    	NOP
002535  0000    	NOP
002536  0000    	NOP
002537  0000    	NOP
002538  0000    	NOP
002539  0000    	NOP
00253A  0000    	NOP
00253B  0000    	NOP
00253C  0000    	NOP
00253D  0000    	NOP
00253E  0000    L277:	NOP
00253F  0000    	NOP
002540  0000    	NOP
002541  0000    	NOP
002542  0000    	NOP
002543  0000    	NOP
002544  0000    	NOP
002545  0000    	NOP
002546  0000    	NOP
002547  0000    	NOP
002548  0000    	NOP
002549  0000    	NOP
00254A  0000    	NOP
00254B  0000    	NOP
00254C  0000    	NOP
00254D  0000    	NOP
00254E  0000    	NOP
00254F  0000    	NOP
002550  0000    	NOP
002551  0000    	NOP
002552  0000    	NOP
002553  0000    	NOP
002554  1414    	CP R1,R4
002555  1414    	CP R1,R4
002556  1414    	CP R1,R4
002557  1414    	CP R1,R4
002558  1414    	CP R1,R4
002559  1414    	CP R1,R4
00255A  1414    	CP R1,R4
00255B  1414    	CP R1,R4
00255C  1E1E    	ADC R1,ZL
00255D  1E1E    	ADC R1,ZL
00255E  1E1E    	ADC R1,ZL
00255F  1E1E    	ADC R1,ZL
002560  1E1E    	ADC R1,ZL
002561  1E1E    	ADC R1,ZL
002562  1E1E    	ADC R1,ZL
002563  1E1E    	ADC R1,ZL
002564  0000    	NOP
002565  0000    	NOP
002566  0000    	NOP
002567  0000    	NOP
002568  0000    	NOP
002569  0000    	NOP
00256A  0000    	NOP
00256B  0000    	NOP
00256C  0001    	UNRECOGNIZED
00256D  0001    	UNRECOGNIZED
00256E  0001    L225:	UNRECOGNIZED
00256F  0001    	UNRECOGNIZED
002570  0001    	UNRECOGNIZED
002571  0001    	UNRECOGNIZED
002572  0001    	UNRECOGNIZED
002573  0001    	UNRECOGNIZED
002574  0001    	UNRECOGNIZED
002575  0001    	UNRECOGNIZED
002576  0001    	UNRECOGNIZED
002577  0001    	UNRECOGNIZED
002578  0001    	UNRECOGNIZED
002579  0001    L339:	UNRECOGNIZED
00257A  0001    	UNRECOGNIZED
00257B  0001    	UNRECOGNIZED
00257C  0001    	UNRECOGNIZED
00257D  0001    	UNRECOGNIZED
00257E  0001    	UNRECOGNIZED
00257F  0001    	UNRECOGNIZED
002580  0014    	UNRECOGNIZED
002581  0014    	UNRECOGNIZED
002582  0014    	UNRECOGNIZED
002583  0014    	UNRECOGNIZED
002584  0014    	UNRECOGNIZED
002585  0014    	UNRECOGNIZED
002586  0014    	UNRECOGNIZED
002587  0014    	UNRECOGNIZED
002588  0014    	UNRECOGNIZED
002589  0014    	UNRECOGNIZED
00258A  0014    	UNRECOGNIZED
00258B  0014    	UNRECOGNIZED
00258C  0014    L376:	UNRECOGNIZED
00258D  0014    	UNRECOGNIZED
00258E  0014    	UNRECOGNIZED
00258F  0014    	UNRECOGNIZED
002590  0014    	UNRECOGNIZED
002591  0014    	UNRECOGNIZED
002592  0014    	UNRECOGNIZED
002593  0014    	UNRECOGNIZED
002594  D09F    	RCALL L355
002595  7F7F    	ANDI R23,$FF
002596  5BC8    L235:	SUBI YL,$B8
002597  7F2B    	ANDI R18,$FB
002598  347F    	CPI R23,$4F
002599  278F    	EOR R24,ZH
00259A  6D34    	ORI R19,$D4
00259B  C8D2    	RJMP L356
00259C  D09F    	RCALL L357
00259D  7F7F    	ANDI R23,$FF
00259E  5BC8    	SUBI YL,$B8
00259F  7F2B    	ANDI R18,$FB
0025A0  347F    	CPI R23,$4F
0025A1  278F    	EOR R24,ZH
0025A2  6D34    	ORI R19,$D4
0025A3  C8D2    	RJMP L358
0025A4  CEA2    	RJMP L359
0025A5  7F7F    	ANDI R23,$FF
0025A6  5BCE    L303:	SUBI YL,$BE
0025A7  7F2F    	ANDI R18,$FF
0025A8  347F    	CPI R23,$4F
0025A9  258F    	EOR R24,R15
0025AA  7034    	ANDI R19,$04
0025AB  CED4    	RJMP L360
0025AC  CDA4    	RJMP L361
0025AD  7F7F    L340:	ANDI R23,$FF
0025AE  5BD1    	SUBI YH,$B1
0025AF  7F31    	ANDI R19,$F1
0025B0  347F    	CPI R23,$4F
0025B1  248F    	EOR R8,R15
0025B2  7234    	ANDI R19,$24
0025B3  D1D5    	RCALL L362
0025B4  CCA5    	RJMP L363
0025B5  7F7F    	ANDI R23,$FF
0025B6  5BD4    	SUBI YH,$B4
0025B7  7F32    	ANDI R19,$F2
0025B8  347F    	CPI R23,$4F
0025B9  238F    	AND R24,ZH
0025BA  7334    	ANDI R19,$34
0025BB  D4D6    	RCALL L364
0025BC  CBA5    	RJMP L365
0025BD  7F7F    	ANDI R23,$FF
0025BE  5BD4    	SUBI YH,$B4
0025BF  7F34    	ANDI R19,$F4
0025C0  347F    	CPI R23,$4F
0025C1  228F    	AND R8,ZH
0025C2  7334    L346:	ANDI R19,$34
0025C3  D4D7    	RCALL L366
0025C4  CAA4    	RJMP L367
0025C5  7F7F    	ANDI R23,$FF
0025C6  5BD1    	SUBI YH,$B1
0025C7  7F36    	ANDI R19,$F6
0025C8  347F    	CPI R23,$4F
0025C9  218F    	AND R24,R15
0025CA  7234    	ANDI R19,$24
0025CB  D1D8    	RCALL L368
0025CC  C9A2    	RJMP L369
0025CD  7F7F    	ANDI R23,$FF
0025CE  5BCE    	SUBI YL,$BE
0025CF  7F38    	ANDI R19,$F8
0025D0  347F    	CPI R23,$4F
0025D1  208F    	AND R8,R15
0025D2  7034    	ANDI R19,$04
0025D3  CED9    	RJMP L370
0025D4  C8A1    	RJMP L358
0025D5  7F7F    	ANDI R23,$FF
0025D6  5BCB    	SUBI YL,$BB
0025D7  7F3A    	ANDI R19,$FA
0025D8  347F    	CPI R23,$4F
0025D9  1F8F    	ADC R24,ZH
0025DA  6F34    	ORI R19,$F4
0025DB  CBDA    	RJMP L371
0025DC  C89F    	RJMP L372
0025DD  7F7F    	ANDI R23,$FF
0025DE  5BC8    	SUBI YL,$B8
0025DF  7F3B    	ANDI R19,$FB
0025E0  347F    	CPI R23,$4F
0025E1  1F8F    	ADC R24,ZH
0025E2  6D34    	ORI R19,$D4
0025E3  C8DA    	RJMP L373
0025E4  CE9F    	RJMP L374
0025E5  7F7F    	ANDI R23,$FF
0025E6  5BC8    	SUBI YL,$B8
0025E7  7F2C    	ANDI R18,$FC
0025E8  347F    	CPI R23,$4F
0025E9  258F    	EOR R24,R15
0025EA  6D34    	ORI R19,$D4
0025EB  C8D4    	RJMP L375
0025EC  CF9F    	RJMP L376
0025ED  7F7F    	ANDI R23,$FF
0025EE  59C8    	SUBI YL,$98
0025EF  7F2B    	ANDI R18,$FB
0025F0  317F    	CPI R23,$1F
0025F1  268D    	EOR R8,YH
0025F2  6D31    	ORI R19,$D1
0025F3  C8D3    	RJMP L377
0025F4  D09F    	RCALL L378
0025F5  7F7F    	ANDI R23,$FF
0025F6  58C8    	SUBI YL,$88
0025F7  7F2A    	ANDI R18,$FA
0025F8  2E7F    	MOV R7,ZH
0025F9  278C    	EOR R24,YL
0025FA  6D2E    	ORI R18,$DE
0025FB  C8D2    	RJMP L379
0025FC  D19F    	RCALL L380
0025FD  7F7F    	ANDI R23,$FF
0025FE  56C8    	SUBI YL,$68
0025FF  7F29    	ANDI R18,$F9
002600  2B7F    	OR R23,ZH
002601  288A    	OR R8,R10
002602  6D2B    	ORI R18,$DB
002603  C8D1    	RJMP L381
002604  D29F    	RCALL L382
002605  7F7F    	ANDI R23,$FF
002606  55C8    	SUBI YL,$58
002607  7F28    	ANDI R18,$F8
002608  287F    	OR R7,R15
002609  2989    	OR R24,R9
00260A  6D28    	ORI R18,$D8
00260B  C8D0    	RJMP L383
00260C  D39F    	RCALL L384
00260D  7F7F    	ANDI R23,$FF
00260E  55C8    L265:	SUBI YL,$58
00260F  7F27    	ANDI R18,$F7
002610  287F    	OR R7,R15
002611  2A89    	OR R8,R25
002612  6D28    	ORI R18,$D8
002613  C8CF    	RJMP L385
002614  D49F    	RCALL L386
002615  7F7F    	ANDI R23,$FF
002616  56C8    	SUBI YL,$68
002617  7F26    	ANDI R18,$F6
002618  2B7F    	OR R23,ZH
002619  2B8A    	OR R24,XL
00261A  6D2B    	ORI R18,$DB
00261B  C8CE    	RJMP L387
00261C  D59F    	RCALL L388
00261D  7F7F    	ANDI R23,$FF
00261E  58C8    	SUBI YL,$88
00261F  7F25    	ANDI R18,$F5
002620  2E7F    	MOV R7,ZH
002621  2C8C    	MOV R8,R12
002622  6D2E    	ORI R18,$DE
002623  C8CD    	RJMP L389
002624  D69F    	RCALL L390
002625  7F7F    	ANDI R23,$FF
002626  59C8    	SUBI YL,$98
002627  7F24    	ANDI R18,$F4
002628  317F    	CPI R23,$1F
002629  2D8D    	MOV R24,R13
00262A  6D31    L504:	ORI R19,$D1
00262B  C8CC    	RJMP L391
00262C  D69F    	RCALL L392
00262D  7F7F    	ANDI R23,$FF
00262E  5BC8    	SUBI YL,$B8
00262F  7F24    	ANDI R18,$F4
002630  347F    	CPI R23,$4F
002631  2D8F    	MOV R24,R15
002632  6D34    L506:	ORI R19,$D4
002633  C8CC    	RJMP L393
002634  D69F    L355:	RCALL L394
002635  7F7F    	ANDI R23,$FF
002636  5BC8    L275:	SUBI YL,$B8
002637  7F24    	ANDI R18,$F4
002638  347F    	CPI R23,$4F
002639  2D8F    	MOV R24,R15
00263A  6D34    	ORI R19,$D4
00263B  C8CC    	RJMP L395
00263C  0202    L357:	MULS R16,R18
00263D  0202    	MULS R16,R18
00263E  0202    	MULS R16,R18
00263F  0202    	MULS R16,R18
002640  0202    	MULS R16,R18
002641  0202    	MULS R16,R18
002642  0202    	MULS R16,R18
002643  0202    	MULS R16,R18
002644  0202    	MULS R16,R18
002645  0202    	MULS R16,R18
002646  0202    	MULS R16,R18
002647  0202    	MULS R16,R18
002648  0202    	MULS R16,R18
002649  0202    	MULS R16,R18
00264A  0202    L510:	MULS R16,R18
00264B  0202    	MULS R16,R18
00264C  0202    	MULS R16,R18
00264D  0202    	MULS R16,R18
00264E  0202    	MULS R16,R18
00264F  0202    	MULS R16,R18
002650  0202    	MULS R16,R18
002651  0202    	MULS R16,R18
002652  0202    	MULS R16,R18
002653  0202    	MULS R16,R18
002654  0202    	MULS R16,R18
002655  0202    	MULS R16,R18
002656  0202    	MULS R16,R18
002657  0202    	MULS R16,R18
002658  0202    	MULS R16,R18
002659  0202    	MULS R16,R18
00265A  0202    	MULS R16,R18
00265B  0202    	MULS R16,R18
00265C  0202    	MULS R16,R18
00265D  0202    	MULS R16,R18
00265E  0202    	MULS R16,R18
00265F  0202    	MULS R16,R18
002660  0202    	MULS R16,R18
002661  0202    	MULS R16,R18
002662  0202    	MULS R16,R18
002663  0202    	MULS R16,R18
002664  0202    	MULS R16,R18
002665  0202    	MULS R16,R18
002666  0202    	MULS R16,R18
002667  0202    	MULS R16,R18
002668  0202    	MULS R16,R18
002669  0202    	MULS R16,R18
00266A  0202    	MULS R16,R18
00266B  0202    	MULS R16,R18
00266C  0202    	MULS R16,R18
00266D  0202    	MULS R16,R18
00266E  0202    	MULS R16,R18
00266F  0202    	MULS R16,R18
002670  0202    	MULS R16,R18
002671  0202    	MULS R16,R18
002672  0202    	MULS R16,R18
002673  0202    	MULS R16,R18
002674  0202    	MULS R16,R18
002675  0202    	MULS R16,R18
002676  0202    L227:	MULS R16,R18
002677  0202    	MULS R16,R18
002678  0202    	MULS R16,R18
002679  0202    	MULS R16,R18
00267A  0202    	MULS R16,R18
00267B  0202    	MULS R16,R18
00267C  0202    	MULS R16,R18
00267D  0202    	MULS R16,R18
00267E  0202    	MULS R16,R18
00267F  0202    	MULS R16,R18
002680  0202    	MULS R16,R18
002681  0202    	MULS R16,R18
002682  0202    L341:	MULS R16,R18
002683  0202    	MULS R16,R18
002684  0202    	MULS R16,R18
002685  0202    	MULS R16,R18
002686  0202    	MULS R16,R18
002687  0202    	MULS R16,R18
002688  0202    	MULS R16,R18
002689  0202    	MULS R16,R18
00268A  0202    	MULS R16,R18
00268B  0202    	MULS R16,R18
00268C  0202    	MULS R16,R18
00268D  0202    	MULS R16,R18
00268E  0202    L233:	MULS R16,R18
00268F  0202    	MULS R16,R18
002690  0202    	MULS R16,R18
002691  0202    	MULS R16,R18
002692  0202    	MULS R16,R18
002693  0202    	MULS R16,R18
002694  0202    L378:	MULS R16,R18
002695  0202    	MULS R16,R18
002696  0202    	MULS R16,R18
002697  0202    	MULS R16,R18
002698  0202    	MULS R16,R18
002699  0202    	MULS R16,R18
00269A  0202    	MULS R16,R18
00269B  0202    	MULS R16,R18
00269C  0202    	MULS R16,R18
00269D  0202    	MULS R16,R18
00269E  0202    	MULS R16,R18
00269F  0202    	MULS R16,R18
0026A0  0202    	MULS R16,R18
0026A1  0202    	MULS R16,R18
0026A2  0202    	MULS R16,R18
0026A3  0202    	MULS R16,R18
0026A4  0202    	MULS R16,R18
0026A5  0202    	MULS R16,R18
0026A6  0202    	MULS R16,R18
0026A7  0202    	MULS R16,R18
0026A8  0202    	MULS R16,R18
0026A9  0202    	MULS R16,R18
0026AA  0202    	MULS R16,R18
0026AB  0202    	MULS R16,R18
0026AC  0202    	MULS R16,R18
0026AD  0202    	MULS R16,R18
0026AE  0202    L305:	MULS R16,R18
0026AF  0202    	MULS R16,R18
0026B0  0202    	MULS R16,R18
0026B1  0202    	MULS R16,R18
0026B2  0202    L512:	MULS R16,R18
0026B3  0202    	MULS R16,R18
0026B4  0202    	MULS R16,R18
0026B5  0202    	MULS R16,R18
0026B6  0202    	MULS R16,R18
0026B7  0202    	MULS R16,R18
0026B8  0202    	MULS R16,R18
0026B9  0202    	MULS R16,R18
0026BA  0202    L514:	MULS R16,R18
0026BB  0202    	MULS R16,R18
0026BC  0202    	MULS R16,R18
0026BD  0202    	MULS R16,R18
0026BE  0202    	MULS R16,R18
0026BF  0202    	MULS R16,R18
0026C0  0202    	MULS R16,R18
0026C1  0202    	MULS R16,R18
0026C2  0202    	MULS R16,R18
0026C3  0202    	MULS R16,R18
0026C4  0202    	MULS R16,R18
0026C5  0202    	MULS R16,R18
0026C6  0202    	MULS R16,R18
0026C7  0202    	MULS R16,R18
0026C8  0202    	MULS R16,R18
0026C9  0202    	MULS R16,R18
0026CA  0202    	MULS R16,R18
0026CB  0202    	MULS R16,R18
0026CC  0202    L516:	MULS R16,R18
0026CD  0202    	MULS R16,R18
0026CE  0202    	MULS R16,R18
0026CF  0202    	MULS R16,R18
0026D0  0202    	MULS R16,R18
0026D1  0202    	MULS R16,R18
0026D2  0202    L520:	MULS R16,R18
0026D3  0202    	MULS R16,R18
0026D4  0404    L518:	CPC R0,R4
0026D5  0404    	CPC R0,R4
0026D6  0404    	CPC R0,R4
0026D7  0404    	CPC R0,R4
0026D8  0404    	CPC R0,R4
0026D9  0404    	CPC R0,R4
0026DA  0404    	CPC R0,R4
0026DB  0404    	CPC R0,R4
0026DC  0000    	NOP
0026DD  0000    	NOP
0026DE  0000    	NOP
0026DF  0000    	NOP
0026E0  0000    	NOP
0026E1  0000    	NOP
0026E2  0000    	NOP
0026E3  0000    	NOP
0026E4  0000    	NOP
0026E5  0000    	NOP
0026E6  0000    	NOP
0026E7  0000    	NOP
0026E8  0000    	NOP
0026E9  0000    	NOP
0026EA  0000    	NOP
0026EB  0000    	NOP
0026EC  0000    	NOP
0026ED  0000    	NOP
0026EE  0000    	NOP
0026EF  0000    	NOP
0026F0  0000    	NOP
0026F1  0000    	NOP
0026F2  0000    	NOP
0026F3  0000    	NOP
0026F4  0000    	NOP
0026F5  0000    	NOP
0026F6  0000    	NOP
0026F7  0000    	NOP
0026F8  0000    	NOP
0026F9  0000    	NOP
0026FA  0000    	NOP
0026FB  0000    	NOP
0026FC  0000    	NOP
0026FD  0000    	NOP
0026FE  0000    	NOP
0026FF  0000    	NOP
002700  0000    	NOP
002701  0000    	NOP
002702  0000    	NOP
002703  0000    	NOP
002704  0000    	NOP
002705  0000    	NOP
002706  0000    	NOP
002707  0000    	NOP
002708  0000    	NOP
002709  0000    	NOP
00270A  0000    	NOP
00270B  0000    	NOP
00270C  0000    	NOP
00270D  0000    	NOP
00270E  0000    	NOP
00270F  0000    	NOP
002710  0000    	NOP
002711  0000    	NOP
002712  0000    	NOP
002713  0000    	NOP
002714  0000    	NOP
002715  0000    	NOP
002716  0000    L267:	NOP
002717  0000    	NOP
002718  0000    	NOP
002719  0000    	NOP
00271A  0000    	NOP
00271B  0000    	NOP
00271C  0000    	NOP
00271D  0000    	NOP
00271E  0000    	NOP
00271F  0000    	NOP
002720  0000    	NOP
002721  0000    	NOP
002722  0000    	NOP
002723  0000    	NOP
002724  0000    	NOP
002725  0000    	NOP
002726  0000    	NOP
002727  0000    	NOP
002728  0000    	NOP
002729  0000    	NOP
00272A  0000    L524:	NOP
00272B  0000    	NOP
00272C  0000    	NOP
00272D  0000    	NOP
00272E  0000    L273:	NOP
00272F  0000    	NOP
002730  0000    	NOP
002731  0000    	NOP
002732  0000    	NOP
002733  0000    	NOP
002734  0000    	NOP
002735  0000    	NOP
002736  0000    	NOP
002737  0000    	NOP
002738  0000    	NOP
002739  0000    	NOP
00273A  0000    	NOP
00273B  0000    	NOP
00273C  0000    	NOP
00273D  0000    	NOP
00273E  0000    	NOP
00273F  0000    	NOP
002740  0000    	NOP
002741  0000    	NOP
002742  0000    	NOP
002743  0000    	NOP
002744  0000    	NOP
002745  0000    	NOP
002746  0000    	NOP
002747  0000    	NOP
002748  0000    	NOP
002749  0000    	NOP
00274A  0000    	NOP
00274B  0000    	NOP
00274C  0000    	NOP
00274D  0000    	NOP
00274E  0000    	NOP
00274F  0000    	NOP
002750  0000    	NOP
002751  0000    	NOP
002752  0000    	NOP
002753  0000    	NOP
002754  0000    	NOP
002755  0000    	NOP
002756  0000    	NOP
002757  0000    	NOP
002758  0000    	NOP
002759  0000    	NOP
00275A  0000    	NOP
00275B  0000    	NOP
00275C  0000    	NOP
00275D  0000    	NOP
00275E  0000    	NOP
00275F  0000    	NOP
002760  0000    	NOP
002761  0000    	NOP
002762  0000    	NOP
002763  0000    	NOP
002764  0000    	NOP
002765  0000    	NOP
002766  0000    	NOP
002767  0000    	NOP
002768  0000    	NOP
002769  0000    	NOP
00276A  0000    	NOP
00276B  0000    	NOP
00276C  0000    	NOP
00276D  0000    	NOP
00276E  0000    	NOP
00276F  0000    	NOP
002770  0000    	NOP
002771  0000    	NOP
002772  0000    	NOP
002773  0000    	NOP
002774  0000    	NOP
002775  0000    	NOP
002776  0000    	NOP
002777  0000    	NOP
002778  0000    	NOP
002779  0000    	NOP
00277A  0000    	NOP
00277B  0000    	NOP
00277C  1414    	CP R1,R4
00277D  1414    	CP R1,R4
00277E  1414    	CP R1,R4
00277F  1414    	CP R1,R4
002780  1414    	CP R1,R4
002781  1414    	CP R1,R4
002782  1414    	CP R1,R4
002783  1414    	CP R1,R4
002784  1E1E    	ADC R1,ZL
002785  1E1E    	ADC R1,ZL
002786  1E1E    	ADC R1,ZL
002787  1E1E    	ADC R1,ZL
002788  1E1E    	ADC R1,ZL
002789  1E1E    L362:	ADC R1,ZL
00278A  1E1E    L343:	ADC R1,ZL
00278B  1E1E    	ADC R1,ZL
00278C  0000    	NOP
00278D  0000    	NOP
00278E  0000    	NOP
00278F  0000    	NOP
002790  0000    	NOP
002791  0000    	NOP
002792  0000    	NOP
002793  0000    	NOP
002794  0001    	UNRECOGNIZED
002795  0001    	UNRECOGNIZED
002796  0001    	UNRECOGNIZED
002797  0001    	UNRECOGNIZED
002798  0001    	UNRECOGNIZED
002799  0001    	UNRECOGNIZED
00279A  0001    	UNRECOGNIZED
00279B  0001    	UNRECOGNIZED
00279C  0001    L380:	UNRECOGNIZED
00279D  0001    	UNRECOGNIZED
00279E  0014    	UNRECOGNIZED
00279F  0014    	UNRECOGNIZED
0027A0  0014    	UNRECOGNIZED
0027A1  0014    	UNRECOGNIZED
0027A2  0014    	UNRECOGNIZED
0027A3  0014    	UNRECOGNIZED
0027A4  0014    L368:	UNRECOGNIZED
0027A5  0014    	UNRECOGNIZED
0027A6  0014    	UNRECOGNIZED
0027A7  0014    	UNRECOGNIZED
0027A8  D19F    	RCALL L396
0027A9  7F7F    	ANDI R23,$FF
0027AA  5BC8    	SUBI YL,$B8
0027AB  7F29    	ANDI R18,$F9
0027AC  347F    	CPI R23,$4F
0027AD  278F    	EOR R24,ZH
0027AE  6D34    	ORI R19,$D4
0027AF  C8D2    	RJMP L397
0027B0  D19F    	RCALL L398
0027B1  7F7F    	ANDI R23,$FF
0027B2  5BC8    	SUBI YL,$B8
0027B3  7F29    	ANDI R18,$F9
0027B4  347F    	CPI R23,$4F
0027B5  278F    	EOR R24,ZH
0027B6  6D34    L307:	ORI R19,$D4
0027B7  C8D2    	RJMP L399
0027B8  D2A6    	RCALL L400
0027B9  7F78    	ANDI R23,$F8
0027BA  47C6    	SBCI YL,$76
0027BB  7F28    L411:	ANDI R18,$F8
0027BC  1D7F    	ADC R23,R15
0027BD  267B    	EOR R7,XH
0027BE  741D    	ANDI R17,$4D
0027BF  C6D3    	RJMP L401
0027C0  D3A9    	RCALL L402
0027C1  7F73    	ANDI R23,$F3
0027C2  4AC5    	SBCI YL,$A5
0027C3  7F27    	ANDI R18,$F7
0027C4  2A7F    	OR R7,ZH
0027C5  257E    	EOR R23,R14
0027C6  772A    	ANDI R18,$7A
0027C7  C5D4    	RJMP L403
0027C8  D3AB    	RCALL L404
0027C9  7F6B    	ANDI R22,$FB
0027CA  4FC3    	SBCI YL,$F3
0027CB  7F27    	ANDI R18,$F7
0027CC  397F    	CPI R23,$9F
0027CD  2583    	EOR R24,R3
0027CE  7939    	ANDI R19,$99
0027CF  C3D4    	RJMP L405
0027D0  D3AB    	RCALL L406
0027D1  7F5A    	ANDI R21,$FA
0027D2  4FC3    	SBCI YL,$F3
0027D3  7F27    	ANDI R18,$F7
0027D4  397F    	CPI R23,$9F
0027D5  2583    	EOR R24,R3
0027D6  7939    	ANDI R19,$99
0027D7  C3D4    	RJMP L407
0027D8  D2B0    	RCALL L408
0027D9  7F65    	ANDI R22,$F5
0027DA  51D2    	SUBI YH,$12
0027DB  7F28    	ANDI R18,$F8
0027DC  377F    	CPI R23,$7F
0027DD  2685    	EOR R8,R21
0027DE  7E37    	ANDI R19,$E7
0027DF  D2D3    	RCALL L409
0027E0  D2B3    	RCALL L410
0027E1  7F6A    	ANDI R22,$FA
0027E2  54DF    	SUBI YH,$4F
0027E3  7F28    	ANDI R18,$F8
0027E4  367F    	CPI R23,$6F
0027E5  2688    	EOR R8,R24
0027E6  8136    	LDD R19,Z+6
0027E7  DFD3    	RCALL L411
0027E8  D1A9    	RCALL L412
0027E9  7F70    	ANDI R23,$F0
0027EA  57D4    	SUBI YH,$74
0027EB  7F29    	ANDI R18,$F9
0027EC  357F    	CPI R23,$5F
0027ED  278B    	EOR R24,XH
0027EE  7735    	ANDI R19,$75
0027EF  D4D2    	RCALL L413
0027F0  D19F    	RCALL L414
0027F1  7F74    	ANDI R23,$F4
0027F2  5BC8    	SUBI YL,$B8
0027F3  7F29    	ANDI R18,$F9
0027F4  347F    	CPI R23,$4F
0027F5  278F    	EOR R24,ZH
0027F6  6D34    	ORI R19,$D4
0027F7  C8D2    	RJMP L415
0027F8  D19F    	RCALL L416
0027F9  7F7F    	ANDI R23,$FF
0027FA  5BC8    	SUBI YL,$B8
0027FB  7F29    	ANDI R18,$F9
0027FC  347F    	CPI R23,$4F
0027FD  278F    	EOR R24,ZH
0027FE  6D34    L508:	ORI R19,$D4
0027FF  C8D2    	RJMP L417
002800  0202    L507:	MULS R16,R18
002801  0202    	MULS R16,R18
002802  0202    	MULS R16,R18
002803  0202    	MULS R16,R18
002804  0202    	MULS R16,R18
002805  0202    	MULS R16,R18
002806  0202    	MULS R16,R18
002807  0202    	MULS R16,R18
002808  0202    	MULS R16,R18
002809  0202    	MULS R16,R18
00280A  0202    	MULS R16,R18
00280B  0202    	MULS R16,R18
00280C  0202    	MULS R16,R18
00280D  0202    	MULS R16,R18
00280E  0202    	MULS R16,R18
00280F  0202    	MULS R16,R18
002810  0202    	MULS R16,R18
002811  0202    	MULS R16,R18
002812  0202    	MULS R16,R18
002813  0202    	MULS R16,R18
002814  0202    	MULS R16,R18
002815  0202    	MULS R16,R18
002816  0202    	MULS R16,R18
002817  0202    	MULS R16,R18
002818  0202    	MULS R16,R18
002819  0202    	MULS R16,R18
00281A  0202    	MULS R16,R18
00281B  0202    	MULS R16,R18
00281C  0202    	MULS R16,R18
00281D  0202    	MULS R16,R18
00281E  0202    	MULS R16,R18
00281F  0202    	MULS R16,R18
002820  0202    	MULS R16,R18
002821  0202    	MULS R16,R18
002822  0202    	MULS R16,R18
002823  0202    	MULS R16,R18
002824  0202    	MULS R16,R18
002825  0202    	MULS R16,R18
002826  0202    	MULS R16,R18
002827  0202    	MULS R16,R18
002828  0202    	MULS R16,R18
002829  0202    	MULS R16,R18
00282A  0202    	MULS R16,R18
00282B  0202    	MULS R16,R18
00282C  0202    	MULS R16,R18
00282D  0202    	MULS R16,R18
00282E  0202    	MULS R16,R18
00282F  0202    	MULS R16,R18
002830  0202    	MULS R16,R18
002831  0202    	MULS R16,R18
002832  0202    	MULS R16,R18
002833  0202    	MULS R16,R18
002834  0202    	MULS R16,R18
002835  0202    	MULS R16,R18
002836  0202    	MULS R16,R18
002837  0202    	MULS R16,R18
002838  0202    	MULS R16,R18
002839  0202    	MULS R16,R18
00283A  0202    	MULS R16,R18
00283B  0202    	MULS R16,R18
00283C  0202    	MULS R16,R18
00283D  0202    	MULS R16,R18
00283E  0202    	MULS R16,R18
00283F  0202    	MULS R16,R18
002840  0202    	MULS R16,R18
002841  0202    	MULS R16,R18
002842  0202    	MULS R16,R18
002843  0202    	MULS R16,R18
002844  0202    	MULS R16,R18
002845  0202    	MULS R16,R18
002846  0202    	MULS R16,R18
002847  0202    	MULS R16,R18
002848  0404    	CPC R0,R4
002849  0404    	CPC R0,R4
00284A  0404    	CPC R0,R4
00284B  0404    	CPC R0,R4
00284C  0404    	CPC R0,R4
00284D  0404    	CPC R0,R4
00284E  0404    	CPC R0,R4
00284F  0404    	CPC R0,R4
002850  0000    	NOP
002851  0000    	NOP
002852  0000    	NOP
002853  0000    	NOP
002854  0000    	NOP
002855  0000    	NOP
002856  0000    	NOP
002857  0000    	NOP
002858  0000    	NOP
002859  0000    	NOP
00285A  0000    	NOP
00285B  0000    	NOP
00285C  0000    	NOP
00285D  0000    	NOP
00285E  0000    	NOP
00285F  0000    	NOP
002860  0000    	NOP
002861  0000    	NOP
002862  0000    	NOP
002863  0000    	NOP
002864  0000    	NOP
002865  0000    	NOP
002866  0000    	NOP
002867  0000    	NOP
002868  0000    	NOP
002869  0000    	NOP
00286A  0000    	NOP
00286B  0000    	NOP
00286C  0000    	NOP
00286D  0000    	NOP
00286E  0000    	NOP
00286F  0000    	NOP
002870  0000    	NOP
002871  0000    	NOP
002872  0000    	NOP
002873  0000    	NOP
002874  0000    	NOP
002875  0000    	NOP
002876  0000    	NOP
002877  0000    	NOP
002878  0000    	NOP
002879  0000    	NOP
00287A  0000    	NOP
00287B  0000    	NOP
00287C  0000    	NOP
00287D  0000    	NOP
00287E  0000    	NOP
00287F  0000    	NOP
002880  0000    	NOP
002881  0000    	NOP
002882  0000    	NOP
002883  0000    	NOP
002884  0000    	NOP
002885  0000    	NOP
002886  0000    	NOP
002887  0000    	NOP
002888  0000    	NOP
002889  0000    	NOP
00288A  0000    	NOP
00288B  0000    	NOP
00288C  0000    	NOP
00288D  0000    	NOP
00288E  0000    	NOP
00288F  0000    	NOP
002890  0000    	NOP
002891  0000    L345:	NOP
002892  0000    	NOP
002893  0000    	NOP
002894  0000    	NOP
002895  0000    	NOP
002896  0000    	NOP
002897  0000    	NOP
002898  0000    	NOP
002899  0000    	NOP
00289A  0000    	NOP
00289B  0000    	NOP
00289C  0000    	NOP
00289D  0000    	NOP
00289E  0000    	NOP
00289F  0000    	NOP
0028A0  1414    	CP R1,R4
0028A1  1414    	CP R1,R4
0028A2  1414    	CP R1,R4
0028A3  1414    	CP R1,R4
0028A4  1414    L382:	CP R1,R4
0028A5  1414    	CP R1,R4
0028A6  1414    	CP R1,R4
0028A7  1414    	CP R1,R4
0028A8  1E1E    	ADC R1,ZL
0028A9  1E1E    	ADC R1,ZL
0028AA  1E1E    	ADC R1,ZL
0028AB  1E1E    	ADC R1,ZL
0028AC  1E1E    	ADC R1,ZL
0028AD  1E1E    	ADC R1,ZL
0028AE  1E1E    	ADC R1,ZL
0028AF  1E1E    	ADC R1,ZL
0028B0  0000    	NOP
0028B1  0000    	NOP
0028B2  0000    	NOP
0028B3  0000    	NOP
0028B4  0000    L342:	NOP
0028B5  0000    	NOP
0028B6  0000    	NOP
0028B7  0000    L423:	NOP
0028B8  0001    	UNRECOGNIZED
0028B9  0001    	UNRECOGNIZED
0028BA  0001    	UNRECOGNIZED
0028BB  0001    L344:	UNRECOGNIZED
0028BC  0001    	UNRECOGNIZED
0028BD  0001    	UNRECOGNIZED
0028BE  0001    	UNRECOGNIZED
0028BF  0001    	UNRECOGNIZED
0028C0  0001    	UNRECOGNIZED
0028C1  0001    	UNRECOGNIZED
0028C2  0014    	UNRECOGNIZED
0028C3  0014    	UNRECOGNIZED
0028C4  0014    	UNRECOGNIZED
0028C5  0014    	UNRECOGNIZED
0028C6  0014    	UNRECOGNIZED
0028C7  0014    	UNRECOGNIZED
0028C8  0014    	UNRECOGNIZED
0028C9  0014    	UNRECOGNIZED
0028CA  0014    	UNRECOGNIZED
0028CB  0014    	UNRECOGNIZED
0028CC  D19F    	RCALL L418
0028CD  7F7F    	ANDI R23,$FF
0028CE  5BC8    	SUBI YL,$B8
0028CF  7F29    	ANDI R18,$F9
0028D0  347F    	CPI R23,$4F
0028D1  278F    	EOR R24,ZH
0028D2  6D34    	ORI R19,$D4
0028D3  C8D2    	RJMP L419
0028D4  D19F    	RCALL L420
0028D5  7F7F    	ANDI R23,$FF
0028D6  5BC8    	SUBI YL,$B8
0028D7  7F29    	ANDI R18,$F9
0028D8  347F    	CPI R23,$4F
0028D9  278F    	EOR R24,ZH
0028DA  6D34    	ORI R19,$D4
0028DB  C8D2    	RJMP L421
0028DC  D2B3    	RCALL L422
0028DD  7F86    	ANDI R24,$F6
0028DE  54DF    	SUBI YH,$4F
0028DF  7F28    	ANDI R18,$F8
0028E0  367F    	CPI R23,$6F
0028E1  2688    	EOR R8,R24
0028E2  8136    	LDD R19,Z+6
0028E3  DFD3    	RCALL L423
0028E4  D3B0    	RCALL L424
0028E5  7F90    	ANDI R25,$F0
0028E6  51D2    	SUBI YH,$12
0028E7  7F27    	ANDI R18,$F7
0028E8  377F    	CPI R23,$7F
0028E9  2585    	EOR R24,R5
0028EA  7E37    	ANDI R19,$E7
0028EB  D2D4    	RCALL L425
0028EC  D3AB    	RCALL L426
0028ED  7F96    	ANDI R25,$F6
0028EE  4FC3    	SBCI YL,$F3
0028EF  7F27    	ANDI R18,$F7
0028F0  397F    	CPI R23,$9F
0028F1  2583    	EOR R24,R3
0028F2  7939    	ANDI R19,$99
0028F3  C3D4    	RJMP L427
0028F4  D3AB    	RCALL L428
0028F5  7F98    	ANDI R25,$F8
0028F6  4FC3    	SBCI YL,$F3
0028F7  7F27    	ANDI R18,$F7
0028F8  397F    	CPI R23,$9F
0028F9  2583    	EOR R24,R3
0028FA  7939    	ANDI R19,$99
0028FB  C3D4    	RJMP L429
0028FC  D2A9    	RCALL L430
0028FD  7F93    	ANDI R25,$F3
0028FE  4AC5    	SBCI YL,$A5
0028FF  7F28    	ANDI R18,$F8
002900  2A7F    	OR R7,ZH
002901  267E    	EOR R7,ZL
002902  772A    	ANDI R18,$7A
002903  C5D3    	RJMP L431
002904  D2A6    	RCALL L432
002905  7F8F    	ANDI R24,$FF
002906  47C6    	SBCI YL,$76
002907  7F28    	ANDI R18,$F8
002908  1D7F    	ADC R23,R15
002909  267B    	EOR R7,XH
00290A  741D    	ANDI R17,$4D
00290B  C6D3    	RJMP L433
00290C  D1A3    	RCALL L434
00290D  7F8B    	ANDI R24,$FB
00290E  51C7    	SUBI YL,$17
00290F  7F29    	ANDI R18,$F9
002910  287F    	OR R7,R15
002911  2785    	EOR R24,R21
002912  7128    	ANDI R18,$18
002913  C7D2    	RJMP L435
002914  D19F    	RCALL L386
002915  7F85    	ANDI R24,$F5
002916  5BC8    	SUBI YL,$B8
002917  7F29    	ANDI R18,$F9
002918  347F    	CPI R23,$4F
002919  278F    	EOR R24,ZH
00291A  6D34    	ORI R19,$D4
00291B  C8D2    	RJMP L436
00291C  D19F    	RCALL L437
00291D  7F80    	ANDI R24,$F0
00291E  5BC8    	SUBI YL,$B8
00291F  7F29    	ANDI R18,$F9
002920  347F    	CPI R23,$4F
002921  278F    	EOR R24,ZH
002922  6D34    	ORI R19,$D4
002923  C8D2    	RJMP L438
002924  0202    	MULS R16,R18
002925  0202    	MULS R16,R18
002926  0202    	MULS R16,R18
002927  0202    	MULS R16,R18
002928  0202    	MULS R16,R18
002929  0202    	MULS R16,R18
00292A  0202    	MULS R16,R18
00292B  0202    	MULS R16,R18
00292C  0202    	MULS R16,R18
00292D  0202    	MULS R16,R18
00292E  0202    	MULS R16,R18
00292F  0202    	MULS R16,R18
002930  0202    	MULS R16,R18
002931  0202    	MULS R16,R18
002932  0202    	MULS R16,R18
002933  0202    	MULS R16,R18
002934  0202    	MULS R16,R18
002935  0202    	MULS R16,R18
002936  0202    	MULS R16,R18
002937  0202    	MULS R16,R18
002938  0202    	MULS R16,R18
002939  0202    	MULS R16,R18
00293A  0202    	MULS R16,R18
00293B  0202    	MULS R16,R18
00293C  0202    	MULS R16,R18
00293D  0202    	MULS R16,R18
00293E  0202    	MULS R16,R18
00293F  0202    	MULS R16,R18
002940  0202    	MULS R16,R18
002941  0202    	MULS R16,R18
002942  0202    	MULS R16,R18
002943  0202    	MULS R16,R18
002944  0202    	MULS R16,R18
002945  0202    	MULS R16,R18
002946  0202    	MULS R16,R18
002947  0202    	MULS R16,R18
002948  0202    L396:	MULS R16,R18
002949  0202    	MULS R16,R18
00294A  0202    	MULS R16,R18
00294B  0202    	MULS R16,R18
00294C  0202    	MULS R16,R18
00294D  0202    	MULS R16,R18
00294E  0202    	MULS R16,R18
00294F  0202    	MULS R16,R18
002950  0202    L398:	MULS R16,R18
002951  0202    	MULS R16,R18
002952  0202    	MULS R16,R18
002953  0202    	MULS R16,R18
002954  0202    	MULS R16,R18
002955  0202    	MULS R16,R18
002956  0202    	MULS R16,R18
002957  0202    	MULS R16,R18
002958  0202    	MULS R16,R18
002959  0202    	MULS R16,R18
00295A  0202    	MULS R16,R18
00295B  0202    	MULS R16,R18
00295C  0202    	MULS R16,R18
00295D  0202    	MULS R16,R18
00295E  0202    	MULS R16,R18
00295F  0202    	MULS R16,R18
002960  0202    	MULS R16,R18
002961  0202    	MULS R16,R18
002962  0202    	MULS R16,R18
002963  0202    	MULS R16,R18
002964  0202    	MULS R16,R18
002965  0202    	MULS R16,R18
002966  0202    	MULS R16,R18
002967  0202    	MULS R16,R18
002968  0202    	MULS R16,R18
002969  0202    	MULS R16,R18
00296A  0202    	MULS R16,R18
00296B  0202    	MULS R16,R18
00296C  0404    	CPC R0,R4
00296D  0404    	CPC R0,R4
00296E  0404    	CPC R0,R4
00296F  0404    	CPC R0,R4
002970  0404    	CPC R0,R4
002971  0404    	CPC R0,R4
002972  0404    	CPC R0,R4
002973  0404    	CPC R0,R4
002974  0000    	NOP
002975  0000    	NOP
002976  0000    	NOP
002977  0000    	NOP
002978  0000    	NOP
002979  0000    	NOP
00297A  0000    	NOP
00297B  0000    	NOP
00297C  0000    	NOP
00297D  0000    	NOP
00297E  0000    	NOP
00297F  0000    	NOP
002980  0000    	NOP
002981  0000    	NOP
002982  0000    	NOP
002983  0000    	NOP
002984  0000    	NOP
002985  0000    	NOP
002986  0000    	NOP
002987  0000    	NOP
002988  0000    	NOP
002989  0000    	NOP
00298A  0000    	NOP
00298B  0000    	NOP
00298C  0000    	NOP
00298D  0000    	NOP
00298E  0000    	NOP
00298F  0000    	NOP
002990  0000    L414:	NOP
002991  0000    	NOP
002992  0000    L412:	NOP
002993  0000    	NOP
002994  0000    	NOP
002995  0000    	NOP
002996  0000    	NOP
002997  0000    L347:	NOP
002998  0000    L416:	NOP
002999  0000    	NOP
00299A  0000    	NOP
00299B  0000    	NOP
00299C  0000    	NOP
00299D  0000    	NOP
00299E  0000    	NOP
00299F  0000    	NOP
0029A0  0000    	NOP
0029A1  0000    	NOP
0029A2  0000    	NOP
0029A3  0000    	NOP
0029A4  0000    	NOP
0029A5  0000    	NOP
0029A6  0000    	NOP
0029A7  0000    	NOP
0029A8  0000    	NOP
0029A9  0000    	NOP
0029AA  0000    	NOP
0029AB  0000    	NOP
0029AC  0000    L384:	NOP
0029AD  0000    	NOP
0029AE  0000    	NOP
0029AF  0000    	NOP
0029B0  0000    	NOP
0029B1  0000    	NOP
0029B2  0000    	NOP
0029B3  0000    	NOP
0029B4  0000    	NOP
0029B5  0000    	NOP
0029B6  0000    	NOP
0029B7  0000    	NOP
0029B8  0000    	NOP
0029B9  0000    	NOP
0029BA  0000    	NOP
0029BB  0000    	NOP
0029BC  0000    	NOP
0029BD  0000    	NOP
0029BE  0000    	NOP
0029BF  0000    	NOP
0029C0  0000    	NOP
0029C1  0000    	NOP
0029C2  0000    	NOP
0029C3  0000    	NOP
0029C4  1414    	CP R1,R4
0029C5  1414    	CP R1,R4
0029C6  1414    	CP R1,R4
0029C7  1414    	CP R1,R4
0029C8  1414    	CP R1,R4
0029C9  1414    	CP R1,R4
0029CA  1414    	CP R1,R4
0029CB  1414    	CP R1,R4
0029CC  1E1E    	ADC R1,ZL
0029CD  1E1E    	ADC R1,ZL
0029CE  1E1E    	ADC R1,ZL
0029CF  1E1E    	ADC R1,ZL
0029D0  1E1E    	ADC R1,ZL
0029D1  1E1E    	ADC R1,ZL
0029D2  1E1E    	ADC R1,ZL
0029D3  1E1E    	ADC R1,ZL
0029D4  0000    	NOP
0029D5  0000    	NOP
0029D6  0000    	NOP
0029D7  0000    	NOP
0029D8  0000    	NOP
0029D9  0000    	NOP
0029DA  0000    	NOP
0029DB  0000    	NOP
0029DC  0001    	UNRECOGNIZED
0029DD  0001    	UNRECOGNIZED
0029DE  0001    	UNRECOGNIZED
0029DF  0001    	UNRECOGNIZED
0029E0  0005    	UNRECOGNIZED
0029E1  0190    	MOVW R19:R18,R1:R0
0029E2  0190    	MOVW R19:R18,R1:R0
0029E3  03E8    	FMULSU R22,R16
0029E4  0190    	MOVW R19:R18,R1:R0
0029E5  0258    	MULS R21,R24
0029E6  D19F    	RCALL L439
0029E7  7F7F    	ANDI R23,$FF
0029E8  5BC8    	SUBI YL,$B8
0029E9  7F29    	ANDI R18,$F9
0029EA  347F    	CPI R23,$4F
0029EB  278F    	EOR R24,ZH
0029EC  6D34    	ORI R19,$D4
0029ED  C8D2    	RJMP L440
0029EE  D19F    	RCALL L441
0029EF  7F7F    	ANDI R23,$FF
0029F0  5BC8    	SUBI YL,$B8
0029F1  7F29    	ANDI R18,$F9
0029F2  347F    	CPI R23,$4F
0029F3  278F    	EOR R24,ZH
0029F4  6D34    	ORI R19,$D4
0029F5  C8D2    	RJMP L442
0029F6  D19F    	RCALL L443
0029F7  7F7F    	ANDI R23,$FF
0029F8  F1C8    	BRCS L444
0029F9  5A29    	SUBI R18,$A9
0029FA  347F    	CPI R23,$4F
0029FB  278F    	EOR R24,ZH
0029FC  6D34    	ORI R19,$D4
0029FD  C8D2    	RJMP L445
0029FE  D19F    	RCALL L446
0029FF  7F7F    	ANDI R23,$FF
002A00  F1C8    	BRCS L447
002A01  5529    	SUBI R18,$59
002A02  347F    	CPI R23,$4F
002A03  278F    	EOR R24,ZH
002A04  0D34    	ADD R19,R4
002A05  92D2    	ST -Z,R13
002A06  D19F    	RCALL L430
002A07  7F7F    	ANDI R23,$FF
002A08  F1C8    	BRCS L448
002A09  556D    	SUBI R22,$5D
002A0A  347F    	CPI R23,$4F
002A0B  278F    	EOR R24,ZH
002A0C  0D34    	ADD R19,R4
002A0D  92D2    	ST -Z,R13
002A0E  D19F    	RCALL L449
002A0F  7F7F    	ANDI R23,$FF
002A10  5BC8    	SUBI YL,$B8
002A11  7F29    	ANDI R18,$F9
002A12  347F    	CPI R23,$4F
002A13  278F    	EOR R24,ZH
002A14  6D34    	ORI R19,$D4
002A15  C8D2    	RJMP L450
002A16  0404    	CPC R0,R4
002A17  0404    	CPC R0,R4
002A18  0404    	CPC R0,R4
002A19  0404    	CPC R0,R4
002A1A  0404    	CPC R0,R4
002A1B  0404    	CPC R0,R4
002A1C  0404    	CPC R0,R4
002A1D  0404    	CPC R0,R4
002A1E  0404    	CPC R0,R4
002A1F  0404    	CPC R0,R4
002A20  0404    	CPC R0,R4
002A21  0404    	CPC R0,R4
002A22  0404    	CPC R0,R4
002A23  0404    	CPC R0,R4
002A24  0404    	CPC R0,R4
002A25  0404    	CPC R0,R4
002A26  0404    	CPC R0,R4
002A27  0404    	CPC R0,R4
002A28  0404    	CPC R0,R4
002A29  0404    	CPC R0,R4
002A2A  0404    	CPC R0,R4
002A2B  0404    	CPC R0,R4
002A2C  0404    	CPC R0,R4
002A2D  0404    	CPC R0,R4
002A2E  0404    	CPC R0,R4
002A2F  0404    	CPC R0,R4
002A30  0404    	CPC R0,R4
002A31  0404    	CPC R0,R4
002A32  0404    L444:	CPC R0,R4
002A33  0404    	CPC R0,R4
002A34  0404    	CPC R0,R4
002A35  0404    	CPC R0,R4
002A36  0404    	CPC R0,R4
002A37  0404    	CPC R0,R4
002A38  0404    	CPC R0,R4
002A39  0404    	CPC R0,R4
002A3A  0404    L447:	CPC R0,R4
002A3B  0404    	CPC R0,R4
002A3C  0404    	CPC R0,R4
002A3D  0404    	CPC R0,R4
002A3E  0000    	NOP
002A3F  0000    	NOP
002A40  0000    	NOP
002A41  0000    	NOP
002A42  0000    L448:	NOP
002A43  0000    	NOP
002A44  0000    	NOP
002A45  0000    	NOP
002A46  0000    	NOP
002A47  0000    	NOP
002A48  0000    	NOP
002A49  0000    	NOP
002A4A  0000    	NOP
002A4B  0000    	NOP
002A4C  0000    	NOP
002A4D  0000    	NOP
002A4E  0000    	NOP
002A4F  0000    	NOP
002A50  0000    	NOP
002A51  0000    	NOP
002A52  0000    	NOP
002A53  0000    	NOP
002A54  0000    	NOP
002A55  0000    	NOP
002A56  0000    	NOP
002A57  0000    	NOP
002A58  0000    	NOP
002A59  0000    	NOP
002A5A  0000    	NOP
002A5B  0000    	NOP
002A5C  0000    	NOP
002A5D  0000    	NOP
002A5E  0000    	NOP
002A5F  0000    L400:	NOP
002A60  0000    	NOP
002A61  0000    	NOP
002A62  0000    	NOP
002A63  0000    	NOP
002A64  0000    	NOP
002A65  0000    	NOP
002A66  1414    	CP R1,R4
002A67  1414    	CP R1,R4
002A68  1414    	CP R1,R4
002A69  1414    	CP R1,R4
002A6A  1414    	CP R1,R4
002A6B  1414    	CP R1,R4
002A6C  1414    L418:	CP R1,R4
002A6D  1414    	CP R1,R4
002A6E  1E1E    	ADC R1,ZL
002A6F  1E1E    	ADC R1,ZL
002A70  1E1E    	ADC R1,ZL
002A71  1E1E    	ADC R1,ZL
002A72  1E1E    	ADC R1,ZL
002A73  1E1E    	ADC R1,ZL
002A74  1E1E    L420:	ADC R1,ZL
002A75  1E1E    	ADC R1,ZL
002A76  0000    	NOP
002A77  0000    	NOP
002A78  0000    	NOP
002A79  0000    	NOP
002A7A  0000    	NOP
002A7B  0000    	NOP
002A7C  0000    	NOP
002A7D  0000    	NOP
002A7E  0001    	UNRECOGNIZED
002A7F  0001    	UNRECOGNIZED
002A80  0001    	UNRECOGNIZED
002A81  0001    	UNRECOGNIZED
002A82  0005    	UNRECOGNIZED
002A83  0190    	MOVW R19:R18,R1:R0
002A84  0190    	MOVW R19:R18,R1:R0
002A85  03E8    	FMULSU R22,R16
002A86  0190    	MOVW R19:R18,R1:R0
002A87  0258    	MULS R21,R24
002A88  D19F    	RCALL L451
002A89  7F7F    L408:	ANDI R23,$FF
002A8A  5BC8    	SUBI YL,$B8
002A8B  7F29    	ANDI R18,$F9
002A8C  347F    	CPI R23,$4F
002A8D  278F    	EOR R24,ZH
002A8E  6D34    	ORI R19,$D4
002A8F  C8D2    	RJMP L452
002A90  D19F    	RCALL L453
002A91  7F7F    	ANDI R23,$FF
002A92  5BC8    L364:	SUBI YL,$B8
002A93  7F29    	ANDI R18,$F9
002A94  347F    L410:	CPI R23,$4F
002A95  278F    	EOR R24,ZH
002A96  6D34    	ORI R19,$D4
002A97  C8D2    	RJMP L454
002A98  D110    	RCALL L455
002A99  7F7F    	ANDI R23,$FF
002A9A  5BC8    	SUBI YL,$B8
002A9B  9A29    L366:	SBI ADCH,ADCH1
002A9C  347F    	CPI R23,$4F
002A9D  278F    	EOR R24,ZH
002A9E  6D34    L349:	ORI R19,$D4
002A9F  C8D2    	RJMP L456
002AA0  D110    	RCALL L457
002AA1  7F7F    	ANDI R23,$FF
002AA2  5BC8    	SUBI YL,$B8
002AA3  AC29    	LDD R2,Y+57
002AA4  347F    L351:	CPI R23,$4F
002AA5  27F4    	EOR ZH,R20
002AA6  6D70    	ORI R23,$D0
002AA7  C8D2    	RJMP L458
002AA8  7B10    	ANDI R17,$B0
002AA9  7F7F    	ANDI R23,$FF
002AAA  5BC8    	SUBI YL,$B8
002AAB  AC29    	LDD R2,Y+57
002AAC  347F    L353:	CPI R23,$4F
002AAD  27F4    	EOR ZH,R20
002AAE  6D70    	ORI R23,$D0
002AAF  C8D2    	RJMP L459
002AB0  D19F    L434:	RCALL L460
002AB1  7F7F    	ANDI R23,$FF
002AB2  5BC8    	SUBI YL,$B8
002AB3  7F29    L409:	ANDI R18,$F9
002AB4  347F    L386:	CPI R23,$4F
002AB5  278F    	EOR R24,ZH
002AB6  6D34    	ORI R19,$D4
002AB7  C8D2    	RJMP L461
002AB8  0404    	CPC R0,R4
002AB9  0404    	CPC R0,R4
002ABA  0404    	CPC R0,R4
002ABB  0404    	CPC R0,R4
002ABC  0404    L437:	CPC R0,R4
002ABD  0404    	CPC R0,R4
002ABE  0404    	CPC R0,R4
002ABF  0404    	CPC R0,R4
002AC0  0404    	CPC R0,R4
002AC1  0404    	CPC R0,R4
002AC2  0404    	CPC R0,R4
002AC3  0404    	CPC R0,R4
002AC4  0404    	CPC R0,R4
002AC5  0404    	CPC R0,R4
002AC6  0404    	CPC R0,R4
002AC7  0404    	CPC R0,R4
002AC8  0404    	CPC R0,R4
002AC9  0404    	CPC R0,R4
002ACA  0404    	CPC R0,R4
002ACB  0404    	CPC R0,R4
002ACC  0404    	CPC R0,R4
002ACD  0404    	CPC R0,R4
002ACE  0404    	CPC R0,R4
002ACF  0404    	CPC R0,R4
002AD0  0404    	CPC R0,R4
002AD1  0404    	CPC R0,R4
002AD2  0404    	CPC R0,R4
002AD3  0404    	CPC R0,R4
002AD4  0404    	CPC R0,R4
002AD5  0404    	CPC R0,R4
002AD6  0404    	CPC R0,R4
002AD7  0404    	CPC R0,R4
002AD8  0404    	CPC R0,R4
002AD9  0404    	CPC R0,R4
002ADA  0404    	CPC R0,R4
002ADB  0404    	CPC R0,R4
002ADC  0404    	CPC R0,R4
002ADD  0404    	CPC R0,R4
002ADE  0404    	CPC R0,R4
002ADF  0404    	CPC R0,R4
002AE0  0000    	NOP
002AE1  0000    	NOP
002AE2  0000    	NOP
002AE3  0000    	NOP
002AE4  0000    	NOP
002AE5  0000    	NOP
002AE6  0000    	NOP
002AE7  0000    	NOP
002AE8  0000    	NOP
002AE9  0000    	NOP
002AEA  0000    	NOP
002AEB  0000    	NOP
002AEC  0000    	NOP
002AED  0000    	NOP
002AEE  0000    	NOP
002AEF  0000    	NOP
002AF0  0000    	NOP
002AF1  0000    	NOP
002AF2  0000    	NOP
002AF3  0000    	NOP
002AF4  0000    	NOP
002AF5  0000    	NOP
002AF6  0000    	NOP
002AF7  0000    	NOP
002AF8  0000    	NOP
002AF9  0000    	NOP
002AFA  0000    	NOP
002AFB  0000    	NOP
002AFC  0000    	NOP
002AFD  0000    	NOP
002AFE  0000    	NOP
002AFF  0000    	NOP
002B00  0000    	NOP
002B01  0000    	NOP
002B02  0000    	NOP
002B03  0000    	NOP
002B04  0000    	NOP
002B05  0000    	NOP
002B06  0000    	NOP
002B07  0000    	NOP
002B08  1414    	CP R1,R4
002B09  1414    	CP R1,R4
002B0A  1414    	CP R1,R4
002B0B  1414    	CP R1,R4
002B0C  1414    	CP R1,R4
002B0D  1414    	CP R1,R4
002B0E  1414    	CP R1,R4
002B0F  1414    	CP R1,R4
002B10  1E1E    	ADC R1,ZL
002B11  1E1E    	ADC R1,ZL
002B12  1E1E    	ADC R1,ZL
002B13  1E1E    	ADC R1,ZL
002B14  1E1E    	ADC R1,ZL
002B15  1E1E    	ADC R1,ZL
002B16  1E1E    	ADC R1,ZL
002B17  1E1E    	ADC R1,ZL
002B18  0000    	NOP
002B19  0000    	NOP
002B1A  0000    	NOP
002B1B  0000    	NOP
002B1C  0000    	NOP
002B1D  0000    	NOP
002B1E  0000    	NOP
002B1F  0000    	NOP
002B20  0001    	UNRECOGNIZED
002B21  0001    	UNRECOGNIZED
002B22  0001    	UNRECOGNIZED
002B23  0001    	UNRECOGNIZED
002B24  0001    	UNRECOGNIZED
002B25  0001    	UNRECOGNIZED
002B26  0001    	UNRECOGNIZED
002B27  0001    	UNRECOGNIZED
002B28  0001    	UNRECOGNIZED
002B29  0001    	UNRECOGNIZED
002B2A  0001    	UNRECOGNIZED
002B2B  0001    	UNRECOGNIZED
002B2C  0001    	UNRECOGNIZED
002B2D  0001    	UNRECOGNIZED
002B2E  0001    	UNRECOGNIZED
002B2F  0001    	UNRECOGNIZED
002B30  0001    L525:	UNRECOGNIZED
002B31  0001    	UNRECOGNIZED
002B32  0001    L467:	UNRECOGNIZED
002B33  0001    	UNRECOGNIZED
002B34  0014    	UNRECOGNIZED
002B35  0014    	UNRECOGNIZED
002B36  0014    	UNRECOGNIZED
002B37  0014    	UNRECOGNIZED
002B38  0014    	UNRECOGNIZED
002B39  0014    	UNRECOGNIZED
002B3A  0014    	UNRECOGNIZED
002B3B  0014    	UNRECOGNIZED
002B3C  0014    	UNRECOGNIZED
002B3D  0014    	UNRECOGNIZED
002B3E  0014    	UNRECOGNIZED
002B3F  0014    	UNRECOGNIZED
002B40  0014    	UNRECOGNIZED
002B41  0014    	UNRECOGNIZED
002B42  0014    	UNRECOGNIZED
002B43  0014    	UNRECOGNIZED
002B44  0014    	UNRECOGNIZED
002B45  0014    	UNRECOGNIZED
002B46  0014    	UNRECOGNIZED
002B47  0014    	UNRECOGNIZED
002B48  D19F    	RCALL L462
002B49  7F7F    	ANDI R23,$FF
002B4A  5BC8    	SUBI YL,$B8
002B4B  7F29    	ANDI R18,$F9
002B4C  347F    	CPI R23,$4F
002B4D  278F    	EOR R24,ZH
002B4E  6D34    	ORI R19,$D4
002B4F  C8D2    	RJMP L463
002B50  D19F    	RCALL L464
002B51  7F7F    	ANDI R23,$FF
002B52  5BC8    	SUBI YL,$B8
002B53  7F29    	ANDI R18,$F9
002B54  347F    	CPI R23,$4F
002B55  278F    	EOR R24,ZH
002B56  6D34    	ORI R19,$D4
002B57  C8D2    	RJMP L465
002B58  D1B3    	RCALL L466
002B59  7F7F    	ANDI R23,$FF
002B5A  63DF    	ORI YH,$3F
002B5B  7F29    	ANDI R18,$F9
002B5C  367F    	CPI R23,$6F
002B5D  2788    	CLR R24
002B5E  6F36    	ORI R19,$F6
002B5F  DFD2    	RCALL L467
002B60  D1B0    	RCALL L468
002B61  7F7F    	ANDI R23,$FF
002B62  67D2    	ORI YH,$72
002B63  7F29    	ANDI R18,$F9
002B64  377F    	CPI R23,$7F
002B65  2785    	EOR R24,R21
002B66  6637    	ORI R19,$67
002B67  D2D2    	RCALL L469
002B68  D1AB    	RCALL L470
002B69  7F7F    	ANDI R23,$FF
002B6A  6CC3    L402:	ORI YL,$C3
002B6B  7F29    	ANDI R18,$F9
002B6C  397F    	CPI R23,$9F
002B6D  2783    	EOR R24,R19
002B6E  5C39    	SUBI R19,$C9
002B6F  C3D2    	RJMP L471
002B70  D1AB    	RCALL L472
002B71  7F7F    	ANDI R23,$FF
002B72  6CC3    	ORI YL,$C3
002B73  7F29    	ANDI R18,$F9
002B74  397F    L404:	CPI R23,$9F
002B75  2783    	EOR R24,R19
002B76  5C39    	SUBI R19,$C9
002B77  C3D2    	RJMP L473
002B78  D1A9    	RCALL L474
002B79  7F7F    	ANDI R23,$FF
002B7A  65C5    	ORI YL,$55
002B7B  7F29    	ANDI R18,$F9
002B7C  327F    L406:	CPI R23,$2F
002B7D  2782    	EOR R24,R18
002B7E  6032    	ORI R19,$02
002B7F  C5D2    	RJMP L475
002B80  D1A7    	RCALL L476
002B81  7F7F    	ANDI R23,$FF
002B82  5FC6    	SUBI YL,$F6
002B83  7F29    	ANDI R18,$F9
002B84  2B7F    	OR R23,ZH
002B85  2781    	EOR R24,R17
002B86  642B    L439:	ORI R18,$4B
002B87  C6D2    	RJMP L477
002B88  D1A4    	RCALL L478
002B89  7F7F    	ANDI R23,$FF
002B8A  59C7    	SUBI YL,$97
002B8B  7F29    	ANDI R18,$F9
002B8C  247F    	EOR R7,R15
002B8D  2782    	EOR R24,R18
002B8E  6824    L441:	ORI R18,$84
002B8F  C7D2    	RJMP L7
002B90  D1A1    L422:	RCALL L479
002B91  7F7F    	ANDI R23,$FF
002B92  53C8    	SUBI YL,$38
002B93  7F29    	ANDI R18,$F9
002B94  1F7F    	ADC R23,ZH
002B95  2783    	EOR R24,R19
002B96  6B1F    L443:	ORI R17,$BF
002B97  C8D2    	RJMP L480
002B98  D19D    	RCALL L481
002B99  7F7F    	ANDI R23,$FF
002B9A  4FC8    	SBCI YL,$F8
002B9B  7F29    	ANDI R18,$F9
002B9C  1F7F    	ADC R23,ZH
002B9D  2787    	EOR R24,R23
002B9E  6F1F    L446:	ORI R17,$FF
002B9F  C8D2    	RJMP L482
002BA0  D19A    	RCALL L483
002BA1  7F7F    	ANDI R23,$FF
002BA2  4EC7    	SBCI YL,$E7
002BA3  7F29    	ANDI R18,$F9
002BA4  247F    L405:	EOR R7,R15
002BA5  278D    	EOR R24,YH
002BA6  7224    L430:	ANDI R18,$24
002BA7  C7D2    	RJMP L484
002BA8  D196    	RCALL L485
002BA9  7F7F    L455:	ANDI R23,$FF
002BAA  4DC6    L496:	SBCI YL,$D6
002BAB  7F29    L432:	ANDI R18,$F9
002BAC  2B7F    L407:	OR R23,ZH
002BAD  2793    	EOR R25,R19
002BAE  752B    L449:	ANDI R18,$5B
002BAF  C6D2    	RJMP L486
002BB0  D192    	RCALL L487
002BB1  7F7F    L457:	ANDI R23,$FF
002BB2  4EC5    	SBCI YL,$E5
002BB3  7F29    	ANDI R18,$F9
002BB4  327F    	CPI R23,$2F
002BB5  2799    	CLR R25
002BB6  7732    	ANDI R19,$72
002BB7  C5D2    	RJMP L488
002BB8  D18E    	RCALL L489
002BB9  7F7F    	ANDI R23,$FF
002BBA  4FC3    	SBCI YL,$F3
002BBB  7F29    	ANDI R18,$F9
002BBC  397F    L388:	CPI R23,$9F
002BBD  27A0    	EOR XL,R16
002BBE  7939    	ANDI R19,$99
002BBF  C3D2    	RJMP L490
002BC0  D18E    L425:	RCALL L491
002BC1  7F7F    	ANDI R23,$FF
002BC2  4FC3    	SBCI YL,$F3
002BC3  7F29    	ANDI R18,$F9
002BC4  397F    	CPI R23,$9F
002BC5  27A0    	EOR XL,R16
002BC6  7939    	ANDI R19,$99
002BC7  C3D2    	RJMP L492
002BC8  D198    	RCALL L493
002BC9  7F7F    	ANDI R23,$FF
002BCA  51D2    	SUBI YH,$12
002BCB  7F29    	ANDI R18,$F9
002BCC  377F    	CPI R23,$7F
002BCD  279B    	EOR R25,XH
002BCE  7E37    	ANDI R19,$E7
002BCF  D2D2    	RCALL L494
002BD0  D1A1    	RCALL L495
002BD1  7F7F    	ANDI R23,$FF
002BD2  54DF    	SUBI YH,$4F
002BD3  7F29    	ANDI R18,$F9
002BD4  367F    	CPI R23,$6F
002BD5  2797    	EOR R25,R23
002BD6  8136    	LDD R19,Z+6
002BD7  DFD2    	RCALL L496
002BD8  D1A1    	RCALL L497
002BD9  7F7F    	ANDI R23,$FF
002BDA  57D4    	SUBI YH,$74
002BDB  7F29    	ANDI R18,$F9
002BDC  357F    	CPI R23,$5F
002BDD  2793    	EOR R25,R19
002BDE  7735    	ANDI R19,$75
002BDF  D4D2    	RCALL L498
002BE0  D19F    	RCALL L499
002BE1  7F7F    	ANDI R23,$FF
002BE2  5BC8    	SUBI YL,$B8
002BE3  7F29    	ANDI R18,$F9
002BE4  347F    	CPI R23,$4F
002BE5  278F    	EOR R24,ZH
002BE6  6D34    	ORI R19,$D4
002BE7  C8D2    	RJMP L500
002BE8  D19F    	RCALL L501
002BE9  7F7F    	ANDI R23,$FF
002BEA  5BC8    	SUBI YL,$B8
002BEB  7F29    	ANDI R18,$F9
002BEC  347F    	CPI R23,$4F
002BED  278F    	EOR R24,ZH
002BEE  6D34    	ORI R19,$D4
002BEF  C8D2    	RJMP L502
002BF0  0202    	MULS R16,R18
002BF1  0202    	MULS R16,R18
002BF2  0202    	MULS R16,R18
002BF3  0202    	MULS R16,R18
002BF4  0202    	MULS R16,R18
002BF5  0202    	MULS R16,R18
002BF6  0202    	MULS R16,R18
002BF7  0202    	MULS R16,R18
002BF8  0202    	MULS R16,R18
002BF9  0202    	MULS R16,R18
002BFA  0202    	MULS R16,R18
002BFB  0202    	MULS R16,R18
002BFC  0202    	MULS R16,R18
002BFD  0202    	MULS R16,R18
002BFE  0202    	MULS R16,R18
002BFF  0202    	MULS R16,R18
002C00  0202    	MULS R16,R18
002C01  0202    	MULS R16,R18
002C02  0202    	MULS R16,R18
002C03  0202    	MULS R16,R18
002C04  0202    	MULS R16,R18
002C05  0202    	MULS R16,R18
002C06  0202    	MULS R16,R18
002C07  0202    	MULS R16,R18
002C08  0202    	MULS R16,R18
002C09  0202    	MULS R16,R18
002C0A  0202    	MULS R16,R18
002C0B  0202    	MULS R16,R18
002C0C  0202    	MULS R16,R18
002C0D  0202    	MULS R16,R18
002C0E  0202    	MULS R16,R18
002C0F  0202    	MULS R16,R18
002C10  0202    	MULS R16,R18
002C11  0202    	MULS R16,R18
002C12  0202    	MULS R16,R18
002C13  0202    	MULS R16,R18
002C14  0202    	MULS R16,R18
002C15  0202    L522:	MULS R16,R18
002C16  0202    	MULS R16,R18
002C17  0202    	MULS R16,R18
002C18  0202    	MULS R16,R18
002C19  0202    	MULS R16,R18
002C1A  0202    	MULS R16,R18
002C1B  0202    	MULS R16,R18
002C1C  0202    	MULS R16,R18
002C1D  0202    	MULS R16,R18
002C1E  0202    	MULS R16,R18
002C1F  0202    	MULS R16,R18
002C20  0202    	MULS R16,R18
002C21  0202    	MULS R16,R18
002C22  0202    	MULS R16,R18
002C23  0202    	MULS R16,R18
002C24  0202    	MULS R16,R18
002C25  0202    	MULS R16,R18
002C26  0202    	MULS R16,R18
002C27  0202    	MULS R16,R18
002C28  0202    L451:	MULS R16,R18
002C29  0202    	MULS R16,R18
002C2A  0202    	MULS R16,R18
002C2B  0202    	MULS R16,R18
002C2C  0202    	MULS R16,R18
002C2D  0202    	MULS R16,R18
002C2E  0202    	MULS R16,R18
002C2F  0202    	MULS R16,R18
002C30  0202    L453:	MULS R16,R18
002C31  0202    	MULS R16,R18
002C32  0202    	MULS R16,R18
002C33  0202    	MULS R16,R18
002C34  0202    	MULS R16,R18
002C35  0202    	MULS R16,R18
002C36  0202    	MULS R16,R18
002C37  0202    	MULS R16,R18
002C38  0202    	MULS R16,R18
002C39  0202    	MULS R16,R18
002C3A  0202    	MULS R16,R18
002C3B  0202    	MULS R16,R18
002C3C  0202    	MULS R16,R18
002C3D  0202    	MULS R16,R18
002C3E  0202    	MULS R16,R18
002C3F  0202    	MULS R16,R18
002C40  0202    	MULS R16,R18
002C41  0202    	MULS R16,R18
002C42  0202    	MULS R16,R18
002C43  0202    	MULS R16,R18
002C44  0202    	MULS R16,R18
002C45  0202    	MULS R16,R18
002C46  0202    	MULS R16,R18
002C47  0202    	MULS R16,R18
002C48  0202    	MULS R16,R18
002C49  0202    	MULS R16,R18
002C4A  0202    	MULS R16,R18
002C4B  0202    	MULS R16,R18
002C4C  0202    	MULS R16,R18
002C4D  0202    	MULS R16,R18
002C4E  0202    	MULS R16,R18
002C4F  0202    	MULS R16,R18
002C50  0202    L460:	MULS R16,R18
002C51  0202    	MULS R16,R18
002C52  0202    	MULS R16,R18
002C53  0202    	MULS R16,R18
002C54  0202    	MULS R16,R18
002C55  0202    	MULS R16,R18
002C56  0202    	MULS R16,R18
002C57  0202    	MULS R16,R18
002C58  0202    	MULS R16,R18
002C59  0202    	MULS R16,R18
002C5A  0202    	MULS R16,R18
002C5B  0202    	MULS R16,R18
002C5C  0202    	MULS R16,R18
002C5D  0202    	MULS R16,R18
002C5E  0202    	MULS R16,R18
002C5F  0202    	MULS R16,R18
002C60  0202    	MULS R16,R18
002C61  0202    	MULS R16,R18
002C62  0202    	MULS R16,R18
002C63  0202    	MULS R16,R18
002C64  0202    	MULS R16,R18
002C65  0202    	MULS R16,R18
002C66  0202    	MULS R16,R18
002C67  0202    	MULS R16,R18
002C68  0202    	MULS R16,R18
002C69  0202    	MULS R16,R18
002C6A  0202    	MULS R16,R18
002C6B  0202    	MULS R16,R18
002C6C  0202    	MULS R16,R18
002C6D  0202    	MULS R16,R18
002C6E  0202    	MULS R16,R18
002C6F  0202    	MULS R16,R18
002C70  0202    	MULS R16,R18
002C71  0202    	MULS R16,R18
002C72  0202    	MULS R16,R18
002C73  0202    	MULS R16,R18
002C74  0202    	MULS R16,R18
002C75  0202    	MULS R16,R18
002C76  0202    	MULS R16,R18
002C77  0202    	MULS R16,R18
002C78  0202    	MULS R16,R18
002C79  0202    	MULS R16,R18
002C7A  0202    	MULS R16,R18
002C7B  0202    	MULS R16,R18
002C7C  0202    	MULS R16,R18
002C7D  0202    	MULS R16,R18
002C7E  0202    	MULS R16,R18
002C7F  0202    	MULS R16,R18
002C80  0202    	MULS R16,R18
002C81  0202    	MULS R16,R18
002C82  0202    	MULS R16,R18
002C83  0202    	MULS R16,R18
002C84  0202    	MULS R16,R18
002C85  0202    	MULS R16,R18
002C86  0202    	MULS R16,R18
002C87  0202    	MULS R16,R18
002C88  0404    	CPC R0,R4
002C89  0404    	CPC R0,R4
002C8A  0404    	CPC R0,R4
002C8B  0404    	CPC R0,R4
002C8C  0404    	CPC R0,R4
002C8D  0404    	CPC R0,R4
002C8E  0404    	CPC R0,R4
002C8F  0404    	CPC R0,R4
002C90  0000    	NOP
002C91  0000    	NOP
002C92  0000    	NOP
002C93  0000    	NOP
002C94  0000    	NOP
002C95  0000    L424:	NOP
002C96  0000    	NOP
002C97  0000    	NOP
002C98  0000    L426:	NOP
002C99  0000    	NOP
002C9A  0000    	NOP
002C9B  0000    	NOP
002C9C  0000    	NOP
002C9D  0000    	NOP
002C9E  0000    	NOP
002C9F  0000    	NOP
002CA0  0000    L428:	NOP
002CA1  0000    	NOP
002CA2  0000    	NOP
002CA3  0000    	NOP
002CA4  0000    	NOP
002CA5  0000    	NOP
002CA6  0000    	NOP
002CA7  0000    	NOP
002CA8  0000    	NOP
002CA9  0000    	NOP
002CAA  0000    	NOP
002CAB  0000    	NOP
002CAC  0000    	NOP
002CAD  0000    	NOP
002CAE  0000    	NOP
002CAF  0000    	NOP
002CB0  0000    	NOP
002CB1  0000    	NOP
002CB2  0000    	NOP
002CB3  0000    	NOP
002CB4  0000    	NOP
002CB5  0000    	NOP
002CB6  0000    	NOP
002CB7  0000    	NOP
002CB8  0000    	NOP
002CB9  0000    	NOP
002CBA  0000    	NOP
002CBB  0000    	NOP
002CBC  0000    	NOP
002CBD  0000    	NOP
002CBE  0000    	NOP
002CBF  0000    	NOP
002CC0  0000    	NOP
002CC1  0000    	NOP
002CC2  0000    L413:	NOP
002CC3  0000    	NOP
002CC4  0000    L390:	NOP
002CC5  0000    	NOP
002CC6  0000    	NOP
002CC7  0000    	NOP
002CC8  0000    L427:	NOP
002CC9  0000    	NOP
002CCA  0000    	NOP
002CCB  0000    	NOP
002CCC  0000    L392:	NOP
002CCD  0000    	NOP
002CCE  0000    	NOP
002CCF  0000    	NOP
002CD0  0000    L429:	NOP
002CD1  0000    	NOP
002CD2  0000    	NOP
002CD3  0000    	NOP
002CD4  0000    L394:	NOP
002CD5  0000    	NOP
002CD6  0000    	NOP
002CD7  0000    	NOP
002CD8  0000    	NOP
002CD9  0000    	NOP
002CDA  0000    	NOP
002CDB  0000    	NOP
002CDC  0000    	NOP
002CDD  0000    	NOP
002CDE  0000    	NOP
002CDF  0000    	NOP
002CE0  0000    	NOP
002CE1  0000    	NOP
002CE2  0000    	NOP
002CE3  0000    	NOP
002CE4  0000    	NOP
002CE5  0000    	NOP
002CE6  0000    	NOP
002CE7  0000    	NOP
002CE8  0000    L462:	NOP
002CE9  0000    	NOP
002CEA  0000    	NOP
002CEB  0000    	NOP
002CEC  0000    	NOP
002CED  0000    	NOP
002CEE  0000    	NOP
002CEF  0000    	NOP
002CF0  0000    L464:	NOP
002CF1  0000    	NOP
002CF2  0000    	NOP
002CF3  0000    	NOP
002CF4  0000    	NOP
002CF5  0000    	NOP
002CF6  0000    	NOP
002CF7  0000    	NOP
002CF8  0000    	NOP
002CF9  0000    	NOP
002CFA  0000    	NOP
002CFB  0000    	NOP
002CFC  0000    	NOP
002CFD  0000    	NOP
002CFE  0000    	NOP
002CFF  0000    	NOP
002D00  0000    	NOP
002D01  0000    	NOP
002D02  0000    	NOP
002D03  0000    	NOP
002D04  0000    	NOP
002D05  0000    	NOP
002D06  0000    	NOP
002D07  0000    	NOP
002D08  0000    	NOP
002D09  0000    	NOP
002D0A  0000    	NOP
002D0B  0000    	NOP
002D0C  0000    L466:	NOP
002D0D  0000    	NOP
002D0E  0000    	NOP
002D0F  0000    	NOP
002D10  0000    	NOP
002D11  0000    L468:	NOP
002D12  0000    	NOP
002D13  0000    	NOP
002D14  0000    L470:	NOP
002D15  0000    	NOP
002D16  0000    	NOP
002D17  0000    	NOP
002D18  0000    	NOP
002D19  0000    	NOP
002D1A  0000    	NOP
002D1B  0000    	NOP
002D1C  0000    L472:	NOP
002D1D  0000    	NOP
002D1E  0000    	NOP
002D1F  0000    	NOP
002D20  0000    	NOP
002D21  0000    	NOP
002D22  0000    L474:	NOP
002D23  0000    	NOP
002D24  0000    	NOP
002D25  0000    	NOP
002D26  0000    	NOP
002D27  0000    	NOP
002D28  0000    L476:	NOP
002D29  0000    	NOP
002D2A  0000    	NOP
002D2B  0000    	NOP
002D2C  0000    	NOP
002D2D  0000    L478:	NOP
002D2E  0000    	NOP
002D2F  0000    	NOP
002D30  1414    	CP R1,R4
002D31  1414    	CP R1,R4
002D32  1414    L479:	CP R1,R4
002D33  1414    	CP R1,R4
002D34  1414    	CP R1,R4
002D35  1414    	CP R1,R4
002D36  1414    L481:	CP R1,R4
002D37  1414    	CP R1,R4
002D38  1E1E    	ADC R1,ZL
002D39  1E1E    	ADC R1,ZL
002D3A  1E1E    	ADC R1,ZL
002D3B  1E1E    L483:	ADC R1,ZL
002D3C  1E1E    	ADC R1,ZL
002D3D  1E1E    	ADC R1,ZL
002D3E  1E1E    	ADC R1,ZL
002D3F  1E1E    L485:	ADC R1,ZL
002D40  0000    	NOP
002D41  0000    	NOP
002D42  0000    	NOP
002D43  0000    L487:	NOP
002D44  0000    	NOP
002D45  0000    	NOP
002D46  0000    	NOP
002D47  0000    L489:	NOP
002D48  0001    	UNRECOGNIZED
002D49  0005    	UNRECOGNIZED
002D4A  0001    	UNRECOGNIZED
002D4B  0005    	UNRECOGNIZED
002D4C  01F4    	MOVW R31:R30,R9:R8
002D4D  012C    	MOVW R5:R4,R25:R24
002D4E  0190    	MOVW R19:R18,R1:R0
002D4F  012C    L491:	MOVW R5:R4,R25:R24
002D50  D19F    	RCALL L503
002D51  7F7F    	ANDI R23,$FF
002D52  5BC8    	SUBI YL,$B8
002D53  7F29    	ANDI R18,$F9
002D54  347F    	CPI R23,$4F
002D55  278F    	EOR R24,ZH
002D56  6D34    	ORI R19,$D4
002D57  C8D2    	RJMP L504
002D58  D19F    	RCALL L505
002D59  7F7F    	ANDI R23,$FF
002D5A  5BC8    	SUBI YL,$B8
002D5B  7F29    	ANDI R18,$F9
002D5C  347F    	CPI R23,$4F
002D5D  278F    	EOR R24,ZH
002D5E  6D34    	ORI R19,$D4
002D5F  C8D2    	RJMP L506
002D60  DA9F    	RCALL L507
002D61  7F9F    L493:	ANDI R25,$FF
002D62  5BC8    	SUBI YL,$B8
002D63  9C29    	MUL R2,R9
002D64  1B7F    	SUB R23,ZH
002D65  1B8F    	SUB R24,ZH
002D66  6D34    	ORI R19,$D4
002D67  C8C2    	RJMP L504
002D68  DA95    	RCALL L508
002D69  7FC7    	ANDI YL,$F7
002D6A  B4C8    	IN R12,OCR1BL
002D6B  9C29    	MUL R2,R9
002D6C  5E7F    	SUBI R23,$EF
002D6D  1B8F    	SUB R24,ZH
002D6E  6D34    	ORI R19,$D4
002D6F  C8C2    	RJMP L506
002D70  D19F    	RCALL L509
002D71  7F7F    	ANDI R23,$FF
002D72  5BC8    L495:	SUBI YL,$B8
002D73  7F29    	ANDI R18,$F9
002D74  347F    	CPI R23,$4F
002D75  278F    	EOR R24,ZH
002D76  6D34    	ORI R19,$D4
002D77  C8D2    	RJMP L510
002D78  0404    	CPC R0,R4
002D79  0404    	CPC R0,R4
002D7A  0404    L497:	CPC R0,R4
002D7B  0404    	CPC R0,R4
002D7C  0404    	CPC R0,R4
002D7D  0404    	CPC R0,R4
002D7E  0404    	CPC R0,R4
002D7F  0404    	CPC R0,R4
002D80  0202    L499:	MULS R16,R18
002D81  0202    	MULS R16,R18
002D82  0202    	MULS R16,R18
002D83  0202    	MULS R16,R18
002D84  0202    	MULS R16,R18
002D85  0202    	MULS R16,R18
002D86  0202    	MULS R16,R18
002D87  0202    	MULS R16,R18
002D88  0202    L501:	MULS R16,R18
002D89  0202    	MULS R16,R18
002D8A  0202    	MULS R16,R18
002D8B  0202    	MULS R16,R18
002D8C  0202    	MULS R16,R18
002D8D  0202    	MULS R16,R18
002D8E  0202    	MULS R16,R18
002D8F  0202    	MULS R16,R18
002D90  0303    	MULSU R16,R19
002D91  0303    	MULSU R16,R19
002D92  0303    	MULSU R16,R19
002D93  0303    	MULSU R16,R19
002D94  0303    	MULSU R16,R19
002D95  0303    	MULSU R16,R19
002D96  0303    	MULSU R16,R19
002D97  0303    	MULSU R16,R19
002D98  0000    	NOP
002D99  0000    	NOP
002D9A  0000    	NOP
002D9B  0000    	NOP
002D9C  0000    L403:	NOP
002D9D  0000    	NOP
002D9E  0000    	NOP
002D9F  0000    	NOP
002DA0  0000    	NOP
002DA1  0000    	NOP
002DA2  0000    	NOP
002DA3  0000    	NOP
002DA4  0000    	NOP
002DA5  0000    	NOP
002DA6  0000    	NOP
002DA7  0000    	NOP
002DA8  0000    	NOP
002DA9  0000    	NOP
002DAA  0000    	NOP
002DAB  0000    	NOP
002DAC  0000    	NOP
002DAD  0000    	NOP
002DAE  0000    	NOP
002DAF  0000    	NOP
002DB0  0000    	NOP
002DB1  0000    	NOP
002DB2  0000    	NOP
002DB3  0000    	NOP
002DB4  0000    	NOP
002DB5  0000    	NOP
002DB6  0000    	NOP
002DB7  0000    	NOP
002DB8  1414    	CP R1,R4
002DB9  1414    	CP R1,R4
002DBA  1414    	CP R1,R4
002DBB  1414    	CP R1,R4
002DBC  1414    	CP R1,R4
002DBD  1414    	CP R1,R4
002DBE  1414    	CP R1,R4
002DBF  1414    	CP R1,R4
002DC0  1E1E    	ADC R1,ZL
002DC1  1E1E    	ADC R1,ZL
002DC2  1E1E    	ADC R1,ZL
002DC3  1E1E    	ADC R1,ZL
002DC4  1E1E    	ADC R1,ZL
002DC5  1E1E    	ADC R1,ZL
002DC6  1E1E    	ADC R1,ZL
002DC7  1E1E    	ADC R1,ZL
002DC8  0000    	NOP
002DC9  0000    	NOP
002DCA  0000    	NOP
002DCB  0000    	NOP
002DCC  0000    	NOP
002DCD  0000    	NOP
002DCE  0000    	NOP
002DCF  0000    	NOP
002DD0  0001    	UNRECOGNIZED
002DD1  0005    	UNRECOGNIZED
002DD2  0001    	UNRECOGNIZED
002DD3  0005    	UNRECOGNIZED
002DD4  01F4    	MOVW R31:R30,R9:R8
002DD5  0190    	MOVW R19:R18,R1:R0
002DD6  0190    	MOVW R19:R18,R1:R0
002DD7  0190    	MOVW R19:R18,R1:R0
002DD8  D19F    	RCALL L511
002DD9  7F7F    	ANDI R23,$FF
002DDA  5BC8    	SUBI YL,$B8
002DDB  7F29    	ANDI R18,$F9
002DDC  347F    	CPI R23,$4F
002DDD  278F    	EOR R24,ZH
002DDE  6D34    	ORI R19,$D4
002DDF  C8D2    	RJMP L512
002DE0  D19F    	RCALL L513
002DE1  7F7F    	ANDI R23,$FF
002DE2  5BC8    	SUBI YL,$B8
002DE3  7F29    	ANDI R18,$F9
002DE4  347F    	CPI R23,$4F
002DE5  278F    	EOR R24,ZH
002DE6  6D34    	ORI R19,$D4
002DE7  C8D2    	RJMP L514
002DE8  D19F    	RCALL L515
002DE9  8456    	LDD R5,Z+14
002DEA  5BD8    	SUBI YH,$B8
002DEB  611D    	ORI R17,$1D
002DEC  347F    	CPI R23,$4F
002DED  368F    	CPI R24,$6F
002DEE  6D34    	ORI R19,$D4
002DEF  C8DC    	RJMP L516
002DF0  D14B    	RCALL L517
002DF1  8456    	LDD R5,Z+14
002DF2  5B9D    	SUBI R25,$BD
002DF3  611D    	ORI R17,$1D
002DF4  347F    	CPI R23,$4F
002DF5  368F    	CPI R24,$6F
002DF6  6D34    	ORI R19,$D4
002DF7  C8DC    	RJMP L518
002DF8  D19F    	RCALL L519
002DF9  7F7F    	ANDI R23,$FF
002DFA  5BC8    	SUBI YL,$B8
002DFB  7F29    	ANDI R18,$F9
002DFC  347F    	CPI R23,$4F
002DFD  278F    	EOR R24,ZH
002DFE  6D34    	ORI R19,$D4
002DFF  C8D2    	RJMP L520
002E00  0404    	CPC R0,R4
002E01  0404    	CPC R0,R4
002E02  0404    	CPC R0,R4
002E03  0404    	CPC R0,R4
002E04  0404    	CPC R0,R4
002E05  0404    	CPC R0,R4
002E06  0404    	CPC R0,R4
002E07  0404    	CPC R0,R4
002E08  0202    	MULS R16,R18
002E09  0202    	MULS R16,R18
002E0A  0202    	MULS R16,R18
002E0B  0202    	MULS R16,R18
002E0C  0202    	MULS R16,R18
002E0D  0202    	MULS R16,R18
002E0E  0202    	MULS R16,R18
002E0F  0202    	MULS R16,R18
002E10  0000    	NOP
002E11  0202    	MULS R16,R18
002E12  0200    	MULS R16,R16
002E13  0202    	MULS R16,R18
002E14  0202    	MULS R16,R18
002E15  0202    	MULS R16,R18
002E16  0202    	MULS R16,R18
002E17  0202    	MULS R16,R18
002E18  0303    	MULSU R16,R19
002E19  0303    	MULSU R16,R19
002E1A  0303    	MULSU R16,R19
002E1B  0303    	MULSU R16,R19
002E1C  0303    	MULSU R16,R19
002E1D  0303    	MULSU R16,R19
002E1E  0303    	MULSU R16,R19
002E1F  0303    	MULSU R16,R19
002E20  0000    	NOP
002E21  0000    	NOP
002E22  0000    	NOP
002E23  0000    	NOP
002E24  0000    	NOP
002E25  0000    	NOP
002E26  0000    	NOP
002E27  0000    	NOP
002E28  0000    	NOP
002E29  0000    	NOP
002E2A  0000    	NOP
002E2B  0000    	NOP
002E2C  0000    	NOP
002E2D  0000    	NOP
002E2E  0000    	NOP
002E2F  0000    	NOP
002E30  0000    	NOP
002E31  0000    	NOP
002E32  0000    	NOP
002E33  0000    	NOP
002E34  0000    	NOP
002E35  0000    	NOP
002E36  0000    	NOP
002E37  0000    	NOP
002E38  0000    	NOP
002E39  0000    	NOP
002E3A  0000    L469:	NOP
002E3B  0000    	NOP
002E3C  0000    	NOP
002E3D  0000    	NOP
002E3E  0000    	NOP
002E3F  0000    	NOP
002E40  B37D    	IN R23,EEDR
002E41  58C7    	SUBI YL,$87
002E42  7E6C    	ANDI R22,$EC
002E43  3148    	CPI R20,$18
002E44  8DA3    	LDD XL,Z+27
002E45  2F33    	MOV R19,R19
002E46  C731    	RJMP L521
002E47  CDCD    	RJMP L522
002E48  B37D    	IN R23,EEDR
002E49  58C7    	SUBI YL,$87
002E4A  7E6C    	ANDI R22,$EC
002E4B  3148    	CPI R20,$18
002E4C  8DA3    	LDD XL,Z+27
002E4D  7F59    	ANDI R21,$F9
002E4E  9F2F    	MUL R18,ZH
002E4F  AB70    	STD Z+48,R23
002E50  D19F    	RCALL L523
002E51  7F7F    	ANDI R23,$FF
002E52  5BC8    	SUBI YL,$B8
002E53  7F29    	ANDI R18,$F9
002E54  347F    	CPI R23,$4F
002E55  278F    	EOR R24,ZH
002E56  6D34    	ORI R19,$D4
002E57  C8D2    	RJMP L524
002E58  0000    	NOP
002E59  0000    	NOP
002E5A  0000    	NOP
002E5B  0000    	NOP
002E5C  0000    	NOP
002E5D  0000    	NOP
002E5E  0000    	NOP
002E5F  0000    	NOP
002E60  E148    	LDI R20,$18
002E61  3EFA    	CPI ZH,$EA
002E62  CCCD    	RJMP L525
002E63  3D4C    	CPI R20,$DC
002E64  D70A    	RCALL L526
002E65  3BA3    	CPI XL,$B3
002E66  126F    	CPSE R6,ZH
002E67  3A03    	CPI R16,$A3
002E68  B717    	IN R17,TIMSK
002E69  3851    	CPI R21,$81
002E6A  C5AC    	RJMP L527
002E6B  36A7    	CPI XL,$67
002E6C  3025    	CPI R18,$05
002E6D  6432    	ORI R19,$42
002E6E  3D20    	CPI R18,$D0
002E6F  2520    	EOR R18,R0
002E70  3330    	CPI R19,$30
002E71  0A64    	SBC R6,R20
002E72  000D    	UNRECOGNIZED
002E73  0000    	NOP
/*******************************************************************

RESET

*******************************************************************/

002E74  94F8    L1:	BCLR 7
002E75  27EE    	CLR ZL
002E76  BBEC    	OUT EECR,ZL
002E77  E0F1    	LDI ZH,$01
002E78  BFF5    	OUT MCUCR,ZH
002E79  BFE5    	OUT MCUCR,ZL
002E7A  93E0    	STS $006C,ZL
002E7B  006C
002E7C  E1F8    	LDI ZH,$18
002E7D  BDF1    	OUT WDTCR,ZH
002E7E  BDE1    	OUT WDTCR,ZL
002E7F  E08D    	LDI R24,$0D
002E80  E0A2    	LDI XL,$02
002E81  27BB    	CLR XH
002E82  93ED    L528:	ST X+,ZL
002E83  958A    	DEC R24
002E84  F7E9    	BRNE L528
002E85  E080    	LDI R24,$00
002E86  E190    	LDI R25,$10
002E87  E0A0    	LDI XL,$00
002E88  E0B1    	LDI XH,$01
002E89  93ED    L529:	ST X+,ZL
002E8A  9701    	SBIW R25:R24,1
002E8B  F7E9    	BRNE L529
002E8C  EEE6    	LDI ZL,$E6
002E8D  E5FC    	LDI ZH,$5C
002E8E  E0D0    	LDI YH,$00
002E8F  BFDB    L532:	OUT RAMPZ,YH
002E90  9187    	ELPM R24,Z+
002E91  9197    	ELPM R25,Z+
002E92  9700    	SBIW R25:R24,0
002E93  F081    L401:	BREQ L530
002E94  91A7    	ELPM XL,Z+
002E95  91B7    	ELPM XH,Z+
002E96  9007    	ELPM R0,Z+
002E97  9017    	ELPM R1,Z+
002E98  91C7    	ELPM YL,Z+
002E99  91D7    	ELPM YH,Z+
002E9A  01BF    	MOVW R23:R22,R31:R30
002E9B  B7DB    	IN YH,RAMPZ
002E9C  01F0    	MOVW R31:R30,R1:R0
002E9D  BFCB    	OUT RAMPZ,YL
002E9E  9007    L531:	ELPM R0,Z+
002E9F  920D    	ST X+,R0
002EA0  9701    	SBIW R25:R24,1
002EA1  F7E1    	BRNE L531
002EA2  01FB    L494:	MOVW R31:R30,R23:R22
002EA3  CFEB    	RJMP L532
002EA4  EFEF    L530:	LDI ZL,$FF
002EA5  BFED    	OUT SPL,ZL
002EA6  E1E0    	LDI ZL,$10
002EA7  BFEE    	OUT SPH,ZL
002EA8  E0C0    	LDI YL,$00
002EA9  E0D5    	LDI YH,$05
002EAA  940C    	JMP L533
002EAB  3F94

/*******************************************************************

???

*******************************************************************/


002EAC  91E0    L653:	LDS ZL,$06C6
002EAD  06C6
002EAE  93E0    	STS $0792,ZL
002EAF  0792
002EB0  E0E0    	LDI ZL,$00
002EB1  93E0    	STS $06C1,ZL
002EB2  06C1
002EB3  93E0    	STS $06C2,ZL
002EB4  06C2
002EB5  91E0    	LDS ZL,$06BB
002EB6  06BB
002EB7  91F0    	LDS ZH,$06BC
002EB8  06BC
002EB9  9631    	ADIW ZH:ZL,1
002EBA  93E0    	STS $06BB,ZL
002EBB  06BB
002EBC  93F0    	STS $06BC,ZH
002EBD  06BC
002EBE  9508    	RET
002EBF  931A    L665:	ST -Y,R17
002EC0  930A    	ST -Y,R16
002EC1  91A0    	LDS XL,$06C1
002EC2  06C1
002EC3  91B0    	LDS XH,$06C2
002EC4  06C2
002EC5  55AF    	SUBI XL,$5F
002EC6  4FBA    	SBCI XH,$FA
002EC7  91E0    	LDS ZL,$06C6
002EC8  06C6
002EC9  93EC    	ST X,ZL
002ECA  91E0    	LDS ZL,$06C1
002ECB  06C1
002ECC  91F0    	LDS ZH,$06C2
002ECD  06C2
002ECE  9631    	ADIW ZH:ZL,1
002ECF  93E0    	STS $06C1,ZL
002ED0  06C1
002ED1  93F0    	STS $06C2,ZH
002ED2  06C2
002ED3  91E0    	LDS ZL,$06C3
002ED4  06C3
002ED5  91F0    	LDS ZH,$06C4
002ED6  06C4
002ED7  9631    L431:	ADIW ZH:ZL,1
002ED8  93E0    	STS $06C3,ZL
002ED9  06C3
002EDA  93F0    	STS $06C4,ZH
002EDB  06C4
002EDC  91E0    	LDS ZL,$0851
002EDD  0851
002EDE  91F0    	LDS ZH,$0852
002EDF  0852
002EE0  9631    	ADIW ZH:ZL,1
002EE1  91A0    	LDS XL,$06C3
002EE2  06C3
002EE3  91B0    	LDS XH,$06C4
002EE4  06C4
002EE5  17EA    	CP ZL,XL
002EE6  07FB    	CPC ZH,XH
002EE7  F011    	BREQ L534
002EE8  940C    	JMP L535
002EE9  2F6A
002EEA  EAE1    L534:	LDI ZL,$A1
002EEB  E0F5    	LDI ZH,$05
002EEC  93FA    	ST -Y,ZH
002EED  93EA    	ST -Y,ZL
002EEE  91E0    	LDS ZL,$094A
002EEF  094A
002EF0  91F0    L503:	LDS ZH,$094B
002EF1  094B
002EF2  93FA    	ST -Y,ZH
002EF3  93EA    	ST -Y,ZL
002EF4  91E0    	LDS ZL,$06C1
002EF5  06C1
002EF6  91F0    	LDS ZH,$06C2
002EF7  06C2
002EF8  9731    L505:	SBIW ZH:ZL,1
002EF9  93FA    	ST -Y,ZH
002EFA  93EA    	ST -Y,ZL
002EFB  940E    	CALL L536
002EFC  6848
002EFD  E0E5    	LDI ZL,$05
002EFE  E0F0    	LDI ZH,$00
002EFF  93FA    	ST -Y,ZH
002F00  93EA    	ST -Y,ZL
002F01  940E    	CALL L537
002F02  6A4C
002F03  91E0    	LDS ZL,$094A
002F04  094A
002F05  91F0    	LDS ZH,$094B
002F06  094B
002F07  93FA    	ST -Y,ZH
002F08  93EA    	ST -Y,ZL
002F09  91E0    	LDS ZL,$06C1
002F0A  06C1
002F0B  91F0    	LDS ZH,$06C2
002F0C  06C2
002F0D  9731    	SBIW ZH:ZL,1
002F0E  93FA    	ST -Y,ZH
002F0F  93EA    	ST -Y,ZL
002F10  940E    L509:	CALL L538
002F11  67F1
002F12  E000    	LDI R16,$00
002F13  E010    	LDI R17,$00
002F14  91E0    L542:	LDS ZL,$06C1
002F15  06C1
002F16  91F0    	LDS ZH,$06C2
002F17  06C2
002F18  9731    	SBIW ZH:ZL,1
002F19  170E    	CP R16,ZL
002F1A  071F    	CPC R17,ZH
002F1B  F4D0    	BRCC L539
002F1C  EAA1    	LDI XL,$A1
002F1D  E0B5    	LDI XH,$05
002F1E  0FA0    	ADD XL,R16
002F1F  1FB1    	ADC XH,R17
002F20  900C    	LD R0,X
002F21  E0A0    	LDI XL,$00
002F22  E0B5    	LDI XH,$05
002F23  0FA0    	ADD XL,R16
002F24  1FB1    	ADC XH,R17
002F25  91EC    	LD ZL,X
002F26  15E0    	CP ZL,R0
002F27  F059    	BREQ L540
002F28  E0E0    	LDI ZL,$00
002F29  93E0    	STS $06BB,ZL
002F2A  06BB
002F2B  93E0    	STS $06BC,ZL
002F2C  06BC
002F2D  94E8    	BCLR 6
002F2E  F824    	BLD R2,4
002F2F  9ADE    	SBI PORTA,PA6
002F30  E0E1    	LDI ZL,$01
002F31  2EDE    	MOV R13,ZL
002F32  C36C    	RJMP L541
002F33  5F0F    L540:	SUBI R16,$FF
002F34  4F1F    	SBCI R17,$FF
002F35  CFDE    	RJMP L542
002F36  91E0    L539:	LDS ZL,$06C1
002F37  06C1
002F38  91F0    	LDS ZH,$06C2
002F39  06C2
002F3A  9731    	SBIW ZH:ZL,1
002F3B  91A0    	LDS XL,$094A
002F3C  094A
002F3D  91B0    	LDS XH,$094B
002F3E  094B
002F3F  0FEA    	ADD ZL,XL
002F40  1FFB    	ADC ZH,XH
002F41  93E0    	STS $094A,ZL
002F42  094A
002F43  93F0    	STS $094B,ZH
002F44  094B
002F45  91E0    	LDS ZL,$06C6
002F46  06C6
002F47  91A0    	LDS XL,$06C5
002F48  06C5
002F49  17EA    	CP ZL,XL
002F4A  F4A1    L473:	BRNE L543
002F4B  EFEF    	LDI ZL,$FF
002F4C  2EDE    	MOV R13,ZL
002F4D  91E0    	LDS ZL,$094C
002F4E  094C
002F4F  5FEF    	SUBI ZL,$FF
002F50  93E0    	STS $094C,ZL
002F51  094C
002F52  E2AE    	LDI XL,$2E
002F53  E0B0    	LDI XH,$00
002F54  940E    	CALL L544
002F55  6B16
002F56  5FEF    	SUBI ZL,$FF
002F57  940E    	CALL L545
002F58  6B2A
002F59  50E1    	SUBI ZL,$01
002F5A  E4E0    	LDI ZL,$40
002F5B  93EA    	ST -Y,ZL
002F5C  940E    	CALL L546
002F5D  3FE1
002F5E  C002    	RJMP L547
002F5F  E0E2    L543:	LDI ZL,$02
002F60  2EDE    	MOV R13,ZL
002F61  E0E0    L547:	LDI ZL,$00
002F62  93E0    	STS $06BB,ZL
002F63  06BB
002F64  93E0    	STS $06BC,ZL
002F65  06BC
002F66  94E8    	BCLR 6
002F67  F824    	BLD R2,4
002F68  9ADE    	SBI PORTA,PA6
002F69  C335    	RJMP L541
002F6A  91A0    L535:	LDS XL,$06C1
002F6B  06C1
002F6C  91B0    	LDS XH,$06C2
002F6D  06C2
002F6E  34A0    	CPI XL,$40
002F6F  E0E0    	LDI ZL,$00
002F70  07BE    	CPC XH,ZL
002F71  F011    	BREQ L548
002F72  940C    	JMP L549
002F73  2FC9
002F74  EAE1    L548:	LDI ZL,$A1
002F75  E0F5    	LDI ZH,$05
002F76  93FA    	ST -Y,ZH
002F77  93EA    	ST -Y,ZL
002F78  91E0    L511:	LDS ZL,$094A
002F79  094A
002F7A  91F0    	LDS ZH,$094B
002F7B  094B
002F7C  93FA    	ST -Y,ZH
002F7D  93EA    	ST -Y,ZL
002F7E  E4E0    	LDI ZL,$40
002F7F  E0F0    	LDI ZH,$00
002F80  93FA    L513:	ST -Y,ZH
002F81  93EA    	ST -Y,ZL
002F82  940E    	CALL L536
002F83  6848
002F84  E0E5    	LDI ZL,$05
002F85  E0F0    	LDI ZH,$00
002F86  93FA    	ST -Y,ZH
002F87  93EA    	ST -Y,ZL
002F88  940E    L515:	CALL L537
002F89  6A4C
002F8A  91E0    	LDS ZL,$094A
002F8B  094A
002F8C  91F0    	LDS ZH,$094B
002F8D  094B
002F8E  93FA    	ST -Y,ZH
002F8F  93EA    	ST -Y,ZL
002F90  E4E0    	LDI ZL,$40
002F91  E0F0    	LDI ZH,$00
002F92  93FA    L490:	ST -Y,ZH
002F93  93EA    	ST -Y,ZL
002F94  940E    	CALL L538
002F95  67F1
002F96  E000    	LDI R16,$00
002F97  E010    	LDI R17,$00
002F98  3400    L519:	CPI R16,$40
002F99  E0E0    	LDI ZL,$00
002F9A  071E    L492:	CPC R17,ZL
002F9B  F4D0    	BRCC L550
002F9C  EAA1    	LDI XL,$A1
002F9D  E0B5    	LDI XH,$05
002F9E  0FA0    	ADD XL,R16
002F9F  1FB1    	ADC XH,R17
002FA0  900C    	LD R0,X
002FA1  E0A0    	LDI XL,$00
002FA2  E0B5    	LDI XH,$05
002FA3  0FA0    	ADD XL,R16
002FA4  1FB1    	ADC XH,R17
002FA5  91EC    	LD ZL,X
002FA6  15E0    	CP ZL,R0
002FA7  F059    	BREQ L551
002FA8  E0E0    	LDI ZL,$00
002FA9  93E0    	STS $06BB,ZL
002FAA  06BB
002FAB  93E0    	STS $06BC,ZL
002FAC  06BC
002FAD  94E8    	BCLR 6
002FAE  F824    	BLD R2,4
002FAF  9ADE    	SBI PORTA,PA6
002FB0  E0E1    	LDI ZL,$01
002FB1  2EDE    	MOV R13,ZL
002FB2  C2EC    	RJMP L541
002FB3  5F0F    L551:	SUBI R16,$FF
002FB4  4F1F    	SBCI R17,$FF
002FB5  CFE2    	RJMP L519
002FB6  91E0    L550:	LDS ZL,$094A
002FB7  094A
002FB8  91F0    	LDS ZH,$094B
002FB9  094B
002FBA  5CE0    	SUBI ZL,$C0
002FBB  4FFF    	SBCI ZH,$FF
002FBC  93E0    	STS $094A,ZL
002FBD  094A
002FBE  93F0    	STS $094B,ZH
002FBF  094B
002FC0  E0E0    	LDI ZL,$00
002FC1  93E0    	STS $06C1,ZL
002FC2  06C1
002FC3  93E0    	STS $06C2,ZL
002FC4  06C2
002FC5  E4E0    	LDI ZL,$40
002FC6  93EA    	ST -Y,ZL
002FC7  940E    	CALL L546
002FC8  3FE1
002FC9  91E0    L549:	LDS ZL,$06C6
002FCA  06C6
002FCB  91A0    	LDS XL,$06C5
002FCC  06C5
002FCD  27EA    	EOR ZL,XL
002FCE  93E0    	STS $06C5,ZL
002FCF  06C5
002FD0  C2CE    	RJMP L541
002FD1  931A    L676:	ST -Y,R17
002FD2  930A    	ST -Y,R16
002FD3  91A0    	LDS XL,$06C1
002FD4  06C1
002FD5  91B0    	LDS XH,$06C2
002FD6  06C2
002FD7  55AF    	SUBI XL,$5F
002FD8  4FBA    	SBCI XH,$FA
002FD9  91E0    	LDS ZL,$06C6
002FDA  06C6
002FDB  93EC    	ST X,ZL
002FDC  91E0    	LDS ZL,$06C1
002FDD  06C1
002FDE  91F0    	LDS ZH,$06C2
002FDF  06C2
002FE0  9631    	ADIW ZH:ZL,1
002FE1  93E0    	STS $06C1,ZL
002FE2  06C1
002FE3  93F0    	STS $06C2,ZH
002FE4  06C2
002FE5  91E0    	LDS ZL,$06C3
002FE6  06C3
002FE7  91F0    	LDS ZH,$06C4
002FE8  06C4
002FE9  9631    	ADIW ZH:ZL,1
002FEA  93E0    	STS $06C3,ZL
002FEB  06C3
002FEC  93F0    	STS $06C4,ZH
002FED  06C4
002FEE  91E0    	LDS ZL,$0908
002FEF  0908
002FF0  91F0    L523:	LDS ZH,$0909
002FF1  0909
002FF2  9631    	ADIW ZH:ZL,1
002FF3  91A0    	LDS XL,$06C3
002FF4  06C3
002FF5  91B0    	LDS XH,$06C4
002FF6  06C4
002FF7  17EA    	CP ZL,XL
002FF8  07FB    	CPC ZH,XH
002FF9  F011    	BREQ L552
002FFA  940C    	JMP L553
002FFB  307C
002FFC  EAE1    L552:	LDI ZL,$A1
002FFD  E0F5    	LDI ZH,$05
002FFE  93FA    	ST -Y,ZH
002FFF  93EA    	ST -Y,ZL
003000  91E0    	LDS ZL,$094A
003001  094A
003002  91F0    	LDS ZH,$094B
003003  094B
003004  93FA    	ST -Y,ZH
003005  93EA    	ST -Y,ZL
003006  91E0    	LDS ZL,$06C1
003007  06C1
003008  91F0    	LDS ZH,$06C2
003009  06C2
00300A  9731    	SBIW ZH:ZL,1
00300B  93FA    	ST -Y,ZH
00300C  93EA    	ST -Y,ZL
00300D  940E    	CALL L536
00300E  6848
00300F  E0E5    	LDI ZL,$05
003010  E0F0    	LDI ZH,$00
003011  93FA    	ST -Y,ZH
003012  93EA    	ST -Y,ZL
003013  940E    	CALL L537
003014  6A4C
003015  91E0    	LDS ZL,$094A
003016  094A
003017  91F0    	LDS ZH,$094B
003018  094B
003019  93FA    	ST -Y,ZH
00301A  93EA    	ST -Y,ZL
00301B  91E0    	LDS ZL,$06C1
00301C  06C1
00301D  91F0    	LDS ZH,$06C2
00301E  06C2
00301F  9731    	SBIW ZH:ZL,1
003020  93FA    	ST -Y,ZH
003021  93EA    	ST -Y,ZL
003022  940E    	CALL L538
003023  67F1
003024  E000    	LDI R16,$00
003025  E010    	LDI R17,$00
003026  91E0    L556:	LDS ZL,$06C1
003027  06C1
003028  91F0    	LDS ZH,$06C2
003029  06C2
00302A  9731    	SBIW ZH:ZL,1
00302B  170E    	CP R16,ZL
00302C  071F    	CPC R17,ZH
00302D  F4D0    	BRCC L554
00302E  EAA1    	LDI XL,$A1
00302F  E0B5    	LDI XH,$05
003030  0FA0    	ADD XL,R16
003031  1FB1    	ADC XH,R17
003032  900C    	LD R0,X
003033  E0A0    	LDI XL,$00
003034  E0B5    	LDI XH,$05
003035  0FA0    	ADD XL,R16
003036  1FB1    	ADC XH,R17
003037  91EC    	LD ZL,X
003038  15E0    	CP ZL,R0
003039  F059    	BREQ L555
00303A  E0E0    	LDI ZL,$00
00303B  93E0    	STS $06BB,ZL
00303C  06BB
00303D  93E0    	STS $06BC,ZL
00303E  06BC
00303F  94E8    	BCLR 6
003040  F824    	BLD R2,4
003041  9ADE    	SBI PORTA,PA6
003042  E0E1    	LDI ZL,$01
003043  2EDE    	MOV R13,ZL
003044  C25A    	RJMP L541
003045  5F0F    L555:	SUBI R16,$FF
003046  4F1F    	SBCI R17,$FF
003047  CFDE    	RJMP L556
003048  91E0    L554:	LDS ZL,$06C1
003049  06C1
00304A  91F0    	LDS ZH,$06C2
00304B  06C2
00304C  9731    	SBIW ZH:ZL,1
00304D  91A0    	LDS XL,$094A
00304E  094A
00304F  91B0    	LDS XH,$094B
003050  094B
003051  0FEA    	ADD ZL,XL
003052  1FFB    	ADC ZH,XH
003053  93E0    	STS $094A,ZL
003054  094A
003055  93F0    	STS $094B,ZH
003056  094B
003057  91E0    	LDS ZL,$06C6
003058  06C6
003059  91A0    	LDS XL,$06C5
00305A  06C5
00305B  17EA    	CP ZL,XL
00305C  F4A1    	BRNE L557
00305D  EFEF    	LDI ZL,$FF
00305E  2EDE    	MOV R13,ZL
00305F  91E0    	LDS ZL,$094D
003060  094D
003061  5FEF    	SUBI ZL,$FF
003062  93E0    	STS $094D,ZL
003063  094D
003064  E2AF    	LDI XL,$2F
003065  E0B0    	LDI XH,$00
003066  940E    	CALL L544
003067  6B16
003068  5FEF    	SUBI ZL,$FF
003069  940E    	CALL L545
00306A  6B2A
00306B  50E1    	SUBI ZL,$01
00306C  E4E0    	LDI ZL,$40
00306D  93EA    	ST -Y,ZL
00306E  940E    	CALL L546
00306F  3FE1
003070  C002    	RJMP L558
003071  E0E2    L557:	LDI ZL,$02
003072  2EDE    	MOV R13,ZL
003073  E0E0    L558:	LDI ZL,$00
003074  93E0    	STS $06BB,ZL
003075  06BB
003076  93E0    	STS $06BC,ZL
003077  06BC
003078  94E8    	BCLR 6
003079  F824    	BLD R2,4
00307A  9ADE    	SBI PORTA,PA6
00307B  C223    	RJMP L541
00307C  91A0    L553:	LDS XL,$06C1
00307D  06C1
00307E  91B0    	LDS XH,$06C2
00307F  06C2
003080  34A0    	CPI XL,$40
003081  E0E0    	LDI ZL,$00
003082  07BE    	CPC XH,ZL
003083  F011    	BREQ L559
003084  940C    	JMP L560
003085  30DB
003086  EAE1    L559:	LDI ZL,$A1
003087  E0F5    	LDI ZH,$05
003088  93FA    	ST -Y,ZH
003089  93EA    	ST -Y,ZL
00308A  91E0    	LDS ZL,$094A
00308B  094A
00308C  91F0    	LDS ZH,$094B
00308D  094B
00308E  93FA    	ST -Y,ZH
00308F  93EA    	ST -Y,ZL
003090  E4E0    	LDI ZL,$40
003091  E0F0    	LDI ZH,$00
003092  93FA    	ST -Y,ZH
003093  93EA    	ST -Y,ZL
003094  940E    	CALL L536
003095  6848
003096  E0E5    	LDI ZL,$05
003097  E0F0    	LDI ZH,$00
003098  93FA    	ST -Y,ZH
003099  93EA    	ST -Y,ZL
00309A  940E    	CALL L537
00309B  6A4C
00309C  91E0    	LDS ZL,$094A
00309D  094A
00309E  91F0    	LDS ZH,$094B
00309F  094B
0030A0  93FA    	ST -Y,ZH
0030A1  93EA    	ST -Y,ZL
0030A2  E4E0    	LDI ZL,$40
0030A3  E0F0    	LDI ZH,$00
0030A4  93FA    	ST -Y,ZH
0030A5  93EA    	ST -Y,ZL
0030A6  940E    	CALL L538
0030A7  67F1
0030A8  E000    	LDI R16,$00
0030A9  E010    	LDI R17,$00
0030AA  3400    L563:	CPI R16,$40
0030AB  E0E0    	LDI ZL,$00
0030AC  071E    	CPC R17,ZL
0030AD  F4D0    	BRCC L561
0030AE  EAA1    	LDI XL,$A1
0030AF  E0B5    	LDI XH,$05
0030B0  0FA0    	ADD XL,R16
0030B1  1FB1    	ADC XH,R17
0030B2  900C    L498:	LD R0,X
0030B3  E0A0    	LDI XL,$00
0030B4  E0B5    	LDI XH,$05
0030B5  0FA0    	ADD XL,R16
0030B6  1FB1    	ADC XH,R17
0030B7  91EC    	LD ZL,X
0030B8  15E0    	CP ZL,R0
0030B9  F059    	BREQ L562
0030BA  E0E0    	LDI ZL,$00
0030BB  93E0    	STS $06BB,ZL
0030BC  06BB
0030BD  93E0    	STS $06BC,ZL
0030BE  06BC
0030BF  94E8    	BCLR 6
0030C0  F824    	BLD R2,4
0030C1  9ADE    	SBI PORTA,PA6
0030C2  E0E1    	LDI ZL,$01
0030C3  2EDE    	MOV R13,ZL
0030C4  C1DA    	RJMP L541
0030C5  5F0F    L562:	SUBI R16,$FF
0030C6  4F1F    	SBCI R17,$FF
0030C7  CFE2    	RJMP L563
0030C8  91E0    L561:	LDS ZL,$094A
0030C9  094A
0030CA  91F0    	LDS ZH,$094B
0030CB  094B
0030CC  5CE0    	SUBI ZL,$C0
0030CD  4FFF    	SBCI ZH,$FF
0030CE  93E0    	STS $094A,ZL
0030CF  094A
0030D0  93F0    	STS $094B,ZH
0030D1  094B
0030D2  E0E0    	LDI ZL,$00
0030D3  93E0    	STS $06C1,ZL
0030D4  06C1
0030D5  93E0    	STS $06C2,ZL
0030D6  06C2
0030D7  E4E0    	LDI ZL,$40
0030D8  93EA    	ST -Y,ZL
0030D9  940E    	CALL L546
0030DA  3FE1
0030DB  91E0    L560:	LDS ZL,$06C6
0030DC  06C6
0030DD  91A0    	LDS XL,$06C5
0030DE  06C5
0030DF  27EA    	EOR ZL,XL
0030E0  93E0    	STS $06C5,ZL
0030E1  06C5
0030E2  C1BC    	RJMP L541
0030E3  91E0    L679:	LDS ZL,$06C1
0030E4  06C1
0030E5  91F0    	LDS ZH,$06C2
0030E6  06C2
0030E7  9631    	ADIW ZH:ZL,1
0030E8  93E0    	STS $06C1,ZL
0030E9  06C1
0030EA  93F0    	STS $06C2,ZH
0030EB  06C2
0030EC  91A0    	LDS XL,$06C1
0030ED  06C1
0030EE  91B0    	LDS XH,$06C2
0030EF  06C2
0030F0  9714    	SBIW XH:XL,4
0030F1  F4F1    	BRNE L564
0030F2  E0E0    	LDI ZL,$00
0030F3  93E0    	STS $06C1,ZL
0030F4  06C1
0030F5  93E0    	STS $06C2,ZL
0030F6  06C2
0030F7  E0E0    	LDI ZL,$00
0030F8  93E0    	STS $06C5,ZL
0030F9  06C5
0030FA  91A0    	LDS XL,$06C6
0030FB  06C6
0030FC  30A1    	CPI XL,$01
0030FD  F451    	BRNE L565
0030FE  91E0    	LDS ZL,$06BB
0030FF  06BB
003100  91F0    	LDS ZH,$06BC
003101  06BC
003102  9631    	ADIW ZH:ZL,1
003103  93E0    	STS $06BB,ZL
003104  06BB
003105  93F0    	STS $06BC,ZH
003106  06BC
003107  C008    	RJMP L564
003108  E0E0    L565:	LDI ZL,$00
003109  93E0    	STS $06BB,ZL
00310A  06BB
00310B  93E0    	STS $06BC,ZL
00310C  06BC
00310D  94E8    	BCLR 6
00310E  F824    	BLD R2,4
00310F  9ADE    	SBI PORTA,PA6
003110  9508    L564:	RET
003111  91E0    L681:	LDS ZL,$06C6
003112  06C6
003113  91A0    	LDS XL,$06C5
003114  06C5
003115  27EA    	EOR ZL,XL
003116  93E0    	STS $06C5,ZL
003117  06C5
003118  91A0    	LDS XL,$06C6
003119  06C6
00311A  30A1    	CPI XL,$01
00311B  F451    	BRNE L566
00311C  91E0    	LDS ZL,$06BB
00311D  06BB
00311E  91F0    	LDS ZH,$06BC
00311F  06BC
003120  9631    	ADIW ZH:ZL,1
003121  93E0    	STS $06BB,ZL
003122  06BB
003123  93F0    	STS $06BC,ZH
003124  06BC
003125  C008    	RJMP L567
003126  E0E0    L566:	LDI ZL,$00
003127  93E0    	STS $06BB,ZL
003128  06BB
003129  93E0    	STS $06BC,ZL
00312A  06BC
00312B  94E8    	BCLR 6
00312C  F824    	BLD R2,4
00312D  9ADE    	SBI PORTA,PA6
00312E  9508    L567:	RET
00312F  931A    L683:	ST -Y,R17
003130  930A    	ST -Y,R16
003131  91A0    	LDS XL,$06C6
003132  06C6
003133  30A1    	CPI XL,$01
003134  F559    	BRNE L568
003135  E0EB    	LDI ZL,$0B
003136  93EA    	ST -Y,ZL
003137  E1E0    	LDI ZL,$10
003138  93EA    	ST -Y,ZL
003139  940E    	CALL L569
00313A  4133
00313B  E0E0    	LDI ZL,$00
00313C  93E0    	STS $06C5,ZL
00313D  06C5
00313E  E000    	LDI R16,$00
00313F  E010    	LDI R17,$00
003140  3100    L571:	CPI R16,$10
003141  E0E0    	LDI ZL,$00
003142  071E    	CPC R17,ZL
003143  F4BC    	BRGE L570
003144  E1AD    	LDI XL,$1D
003145  E0B0    	LDI XH,$00
003146  0FA0    	ADD XL,R16
003147  1FB1    	ADC XH,R17
003148  940E    	CALL L544
003149  6B16
00314A  93EA    	ST -Y,ZL
00314B  940E    	CALL L546
00314C  3FE1
00314D  E1AD    	LDI XL,$1D
00314E  E0B0    	LDI XH,$00
00314F  0FA0    	ADD XL,R16
003150  1FB1    	ADC XH,R17
003151  940E    	CALL L544
003152  6B16
003153  91A0    	LDS XL,$06C5
003154  06C5
003155  27EA    	EOR ZL,XL
003156  93E0    	STS $06C5,ZL
003157  06C5
003158  5F0F    	SUBI R16,$FF
003159  4F1F    	SBCI R17,$FF
00315A  CFE5    	RJMP L571
00315B  91E0    L570:	LDS ZL,$06C5
00315C  06C5
00315D  93EA    	ST -Y,ZL
00315E  940E    	CALL L546
00315F  3FE1
003160  E0E0    L568:	LDI ZL,$00
003161  93E0    	STS $06BB,ZL
003162  06BB
003163  93E0    	STS $06BC,ZL
003164  06BC
003165  94E8    	BCLR 6
003166  F824    	BLD R2,4
003167  9ADE    	SBI PORTA,PA6
003168  C136    	RJMP L541
003169  931A    L690:	ST -Y,R17
00316A  930A    	ST -Y,R16
00316B  91A0    	LDS XL,$06C6
00316C  06C6
00316D  30A1    	CPI XL,$01
00316E  F559    	BRNE L572
00316F  E0EC    	LDI ZL,$0C
003170  93EA    	ST -Y,ZL
003171  E0ED    	LDI ZL,$0D
003172  93EA    	ST -Y,ZL
003173  940E    	CALL L569
003174  4133
003175  E0E0    	LDI ZL,$00
003176  93E0    	STS $06C5,ZL
003177  06C5
003178  E000    	LDI R16,$00
003179  E010    	LDI R17,$00
00317A  300D    L574:	CPI R16,$0D
00317B  E0E0    	LDI ZL,$00
00317C  071E    	CPC R17,ZL
00317D  F4BC    	BRGE L573
00317E  E0A1    	LDI XL,$01
00317F  E0B0    	LDI XH,$00
003180  0FA0    	ADD XL,R16
003181  1FB1    	ADC XH,R17
003182  940E    	CALL L544
003183  6B16
003184  93EA    	ST -Y,ZL
003185  940E    	CALL L546
003186  3FE1
003187  E0A1    	LDI XL,$01
003188  E0B0    	LDI XH,$00
003189  0FA0    	ADD XL,R16
00318A  1FB1    L488:	ADC XH,R17
00318B  940E    	CALL L544
00318C  6B16
00318D  91A0    	LDS XL,$06C5
00318E  06C5
00318F  27EA    	EOR ZL,XL
003190  93E0    	STS $06C5,ZL
003191  06C5
003192  5F0F    	SUBI R16,$FF
003193  4F1F    	SBCI R17,$FF
003194  CFE5    	RJMP L574
003195  91E0    L573:	LDS ZL,$06C5
003196  06C5
003197  93EA    	ST -Y,ZL
003198  940E    	CALL L546
003199  3FE1
00319A  E0E0    L572:	LDI ZL,$00
00319B  93E0    	STS $06BB,ZL
00319C  06BB
00319D  93E0    	STS $06BC,ZL
00319E  06BC
00319F  94E8    	BCLR 6
0031A0  F824    	BLD R2,4
0031A1  9ADE    	SBI PORTA,PA6
0031A2  C0FC    	RJMP L541
0031A3  931A    L698:	ST -Y,R17
0031A4  930A    	ST -Y,R16
0031A5  91E0    	LDS ZL,$06C6
0031A6  06C6
0031A7  91A0    	LDS XL,$06C5
0031A8  06C5
0031A9  17EA    	CP ZL,XL
0031AA  F011    	BREQ L575
0031AB  940C    	JMP L576
0031AC  31E9
0031AD  E000    L575:	LDI R16,$00
0031AE  E010    	LDI R17,$00
0031AF  300D    L578:	CPI R16,$0D
0031B0  E0E0    	LDI ZL,$00
0031B1  071E    	CPC R17,ZL
0031B2  F464    	BRGE L577
0031B3  01D8    	MOVW R27:R26,R17:R16
0031B4  5FAF    	SUBI XL,$FF
0031B5  4FBF    	SBCI XH,$FF
0031B6  01F8    	MOVW R31:R30,R17:R16
0031B7  55E4    	SUBI ZL,$54
0031B8  4FF9    	SBCI ZH,$F9
0031B9  81E0    	LD ZL,Z
0031BA  940E    	CALL L545
0031BB  6B2A
0031BC  5F0F    	SUBI R16,$FF
0031BD  4F1F    	SBCI R17,$FF
0031BE  CFF0    	RJMP L578
0031BF  E0ED    L577:	LDI ZL,$0D
0031C0  93EA    	ST -Y,ZL
0031C1  93EA    	ST -Y,ZL
0031C2  940E    	CALL L569
0031C3  4133
0031C4  E0E0    	LDI ZL,$00
0031C5  93E0    	STS $06C5,ZL
0031C6  06C5
0031C7  E000    	LDI R16,$00
0031C8  E010    	LDI R17,$00
0031C9  300D    L580:	CPI R16,$0D
0031CA  E0E0    	LDI ZL,$00
0031CB  071E    	CPC R17,ZL
0031CC  F4BC    	BRGE L579
0031CD  E0A1    	LDI XL,$01
0031CE  E0B0    	LDI XH,$00
0031CF  0FA0    	ADD XL,R16
0031D0  1FB1    	ADC XH,R17
0031D1  940E    	CALL L544
0031D2  6B16
0031D3  93EA    	ST -Y,ZL
0031D4  940E    	CALL L546
0031D5  3FE1
0031D6  E0A1    	LDI XL,$01
0031D7  E0B0    	LDI XH,$00
0031D8  0FA0    	ADD XL,R16
0031D9  1FB1    	ADC XH,R17
0031DA  940E    	CALL L544
0031DB  6B16
0031DC  91A0    	LDS XL,$06C5
0031DD  06C5
0031DE  27EA    	EOR ZL,XL
0031DF  93E0    	STS $06C5,ZL
0031E0  06C5
0031E1  5F0F    	SUBI R16,$FF
0031E2  4F1F    	SBCI R17,$FF
0031E3  CFE5    	RJMP L580
0031E4  91E0    L579:	LDS ZL,$06C5
0031E5  06C5
0031E6  93EA    	ST -Y,ZL
0031E7  940E    	CALL L546
0031E8  3FE1
0031E9  E0E0    L576:	LDI ZL,$00
0031EA  93E0    	STS $06BB,ZL
0031EB  06BB
0031EC  93E0    	STS $06BC,ZL
0031ED  06BC
0031EE  94E8    	BCLR 6
0031EF  F824    	BLD R2,4
0031F0  9ADE    	SBI PORTA,PA6
0031F1  C0AD    	RJMP L541
0031F2  91E0    L701:	LDS ZL,$06C1
0031F3  06C1
0031F4  91F0    	LDS ZH,$06C2
0031F5  06C2
0031F6  9631    	ADIW ZH:ZL,1
0031F7  93E0    	STS $06C1,ZL
0031F8  06C1
0031F9  93F0    	STS $06C2,ZH
0031FA  06C2
0031FB  91A0    	LDS XL,$06C1
0031FC  06C1
0031FD  91B0    	LDS XH,$06C2
0031FE  06C2
0031FF  9714    	SBIW XH:XL,4
003200  F4D9    	BRNE L581
003201  E0E0    	LDI ZL,$00
003202  93E0    	STS $06C1,ZL
003203  06C1
003204  93E0    	STS $06C2,ZL
003205  06C2
003206  E0E0    	LDI ZL,$00
003207  93E0    	STS $06C5,ZL
003208  06C5
003209  91A0    	LDS XL,$06C6
00320A  06C6
00320B  31A0    	CPI XL,$10
00320C  F439    	BRNE L582
00320D  E5EA    	LDI ZL,$5A
00320E  E0F2    	LDI ZH,$02
00320F  93E0    	STS $06BB,ZL
003210  06BB
003211  93F0    	STS $06BC,ZH
003212  06BC
003213  C008    	RJMP L581
003214  E0E0    L582:	LDI ZL,$00
003215  93E0    	STS $06BB,ZL
003216  06BB
003217  93E0    	STS $06BC,ZL
003218  06BC
003219  94E8    	BCLR 6
00321A  F824    	BLD R2,4
00321B  9ADE    	SBI PORTA,PA6
00321C  9508    L581:	RET
00321D  931A    L705:	ST -Y,R17
00321E  930A    	ST -Y,R16
00321F  91E0    	LDS ZL,$06C6
003220  06C6
003221  91A0    	LDS XL,$06C5
003222  06C5
003223  17EA    	CP ZL,XL
003224  F011    	BREQ L583
003225  940C    	JMP L584
003226  3297
003227  EFEF    L583:	LDI ZL,$FF
003228  2EDE    	MOV R13,ZL
003229  E000    	LDI R16,$00
00322A  E010    	LDI R17,$00
00322B  3100    L588:	CPI R16,$10
00322C  E0E0    	LDI ZL,$00
00322D  071E    	CPC R17,ZL
00322E  F534    	BRGE L585
00322F  01F8    	MOVW R31:R30,R17:R16
003230  2766    	CLR R22
003231  2777    	CLR R23
003232  57E4    	SUBI ZL,$74
003233  4FFF    	SBCI ZH,$FF
003234  4F6F    	SBCI R22,$FF
003235  BF6B    	OUT RAMPZ,R22
003236  91E6    	ELPM ZL,Z
003237  5FE6    	SUBI ZL,$F6
003238  2FAE    	MOV XL,ZL
003239  01F8    	MOVW R31:R30,R17:R16
00323A  55E7    	SUBI ZL,$57
00323B  4FF9    	SBCI ZH,$F9
00323C  81E0    	LD ZL,Z
00323D  17AE    	CP XL,ZL
00323E  F080    	BRCS L586
00323F  01F8    	MOVW R31:R30,R17:R16
003240  2766    	CLR R22
003241  2777    	CLR R23
003242  57E4    	SUBI ZL,$74
003243  4FFF    	SBCI ZH,$FF
003244  4F6F    	SBCI R22,$FF
003245  BF6B    	OUT RAMPZ,R22
003246  91E6    	ELPM ZL,Z
003247  50EA    	SUBI ZL,$0A
003248  2FAE    	MOV XL,ZL
003249  01F8    	MOVW R31:R30,R17:R16
00324A  55E7    	SUBI ZL,$57
00324B  4FF9    	SBCI ZH,$F9
00324C  81E0    	LD ZL,Z
00324D  17EA    	CP ZL,XL
00324E  F418    	BRCC L587
00324F  E0E7    L586:	LDI ZL,$07
003250  2EDE    	MOV R13,ZL
003251  C003    	RJMP L585
003252  5F0F    L587:	SUBI R16,$FF
003253  4F1F    	SBCI R17,$FF
003254  CFD6    	RJMP L588
003255  EFEF    L585:	LDI ZL,$FF
003256  15ED    	CP ZL,R13
003257  F011    	BREQ L477
003258  940C    	JMP L584
003259  3297
00325A  E000    L477:	LDI R16,$00
00325B  E010    	LDI R17,$00
00325C  3100    L590:	CPI R16,$10
00325D  E0E0    	LDI ZL,$00
00325E  071E    	CPC R17,ZL
00325F  F464    	BRGE L589
003260  01D8    	MOVW R27:R26,R17:R16
003261  5EA3    	SUBI XL,$E3
003262  4FBF    	SBCI XH,$FF
003263  01F8    	MOVW R31:R30,R17:R16
003264  55E7    	SUBI ZL,$57
003265  4FF9    	SBCI ZH,$F9
003266  81E0    	LD ZL,Z
003267  940E    	CALL L545
003268  6B2A
003269  5F0F    	SUBI R16,$FF
00326A  4F1F    	SBCI R17,$FF
00326B  CFF0    	RJMP L590
00326C  E0EE    L589:	LDI ZL,$0E
00326D  93EA    	ST -Y,ZL
00326E  E1E0    	LDI ZL,$10
00326F  93EA    	ST -Y,ZL
003270  940E    	CALL L569
003271  4133
003272  E0E0    	LDI ZL,$00
003273  93E0    	STS $06C5,ZL
003274  06C5
003275  E000    	LDI R16,$00
003276  E010    	LDI R17,$00
003277  3100    L592:	CPI R16,$10
003278  E0E0    	LDI ZL,$00
003279  071E    	CPC R17,ZL
00327A  F4BC    	BRGE L591
00327B  E1AD    	LDI XL,$1D
00327C  E0B0    	LDI XH,$00
00327D  0FA0    	ADD XL,R16
00327E  1FB1    	ADC XH,R17
00327F  940E    	CALL L544
003280  6B16
003281  93EA    	ST -Y,ZL
003282  940E    L486:	CALL L546
003283  3FE1
003284  E1AD    	LDI XL,$1D
003285  E0B0    	LDI XH,$00
003286  0FA0    	ADD XL,R16
003287  1FB1    	ADC XH,R17
003288  940E    	CALL L544
003289  6B16
00328A  91A0    	LDS XL,$06C5
00328B  06C5
00328C  27EA    	EOR ZL,XL
00328D  93E0    	STS $06C5,ZL
00328E  06C5
00328F  5F0F    	SUBI R16,$FF
003290  4F1F    	SBCI R17,$FF
003291  CFE5    	RJMP L592
003292  91E0    L591:	LDS ZL,$06C5
003293  06C5
003294  93EA    	ST -Y,ZL
003295  940E    	CALL L546
003296  3FE1
003297  E0E0    L584:	LDI ZL,$00
003298  93E0    	STS $06BB,ZL
003299  06BB
00329A  93E0    	STS $06BC,ZL
00329B  06BC
00329C  94E8    	BCLR 6
00329D  F824    	BLD R2,4
00329E  9ADE    	SBI PORTA,PA6
00329F  9109    L541:	LD R16,Y+
0032A0  9119    	LD R17,Y+
0032A1  9508    	RET
0032A2  940E    L713:	CALL L593
0032A3  6CB9
0032A4  91E0    	LDS ZL,$06C6
0032A5  06C6
0032A6  91A0    	LDS XL,$06C5
0032A7  06C5
0032A8  17EA    	CP ZL,XL
0032A9  F011    	BREQ L594
0032AA  940C    	JMP L595
0032AB  3356
0032AC  91E0    L594:	LDS ZL,$094C
0032AD  094C
0032AE  30E0    	CPI ZL,$00
0032AF  F471    	BRNE L596
0032B0  91E0    	LDS ZL,$06B8
0032B1  06B8
0032B2  30E1    	CPI ZL,$01
0032B3  F419    	BRNE L597
0032B4  E000    	LDI R16,$00
0032B5  E610    	LDI R17,$60
0032B6  C006    	RJMP L598
0032B7  91E0    L597:	LDS ZL,$06B8
0032B8  06B8
0032B9  30E2    	CPI ZL,$02
0032BA  F411    	BRNE L598
0032BB  E000    	LDI R16,$00
0032BC  E210    	LDI R17,$20
0032BD  C070    L598:	RJMP L599
0032BE  91E0    L596:	LDS ZL,$06B8
0032BF  06B8
0032C0  30E1    	CPI ZL,$01
0032C1  F591    	BRNE L600
0032C2  91E0    	LDS ZL,$094C
0032C3  094C
0032C4  50E1    	SUBI ZL,$01
0032C5  2F6E    	MOV R22,ZL
0032C6  E3A0    	LDI XL,$30
0032C7  E0B0    	LDI XH,$00
0032C8  E0F0    	LDI ZH,$00
0032C9  0FEE    	LSL ZL
0032CA  1FFF    	ROL ZH
0032CB  0FAE    	ADD XL,ZL
0032CC  1FBF    	ADC XH,ZH
0032CD  940E    	CALL L601
0032CE  6B12
0032CF  010F    	MOVW R1:R0,R31:R30
0032D0  2FE6    	MOV ZL,R22
0032D1  E5A8    	LDI XL,$58
0032D2  E0B0    	LDI XH,$00
0032D3  E0F0    	LDI ZH,$00
0032D4  0FEE    	LSL ZL
0032D5  1FFF    	ROL ZH
0032D6  0FAE    	ADD XL,ZL
0032D7  1FBF    	ADC XH,ZH
0032D8  940E    	CALL L601
0032D9  6B12
0032DA  0DE0    	ADD ZL,R0
0032DB  1DF1    	ADC ZH,R1
0032DC  018F    	MOVW R17:R16,R31:R30
0032DD  91E0    	LDS ZL,$094C
0032DE  094C
0032DF  50E1    	SUBI ZL,$01
0032E0  E5A8    	LDI XL,$58
0032E1  E0B0    	LDI XH,$00
0032E2  E0F0    	LDI ZH,$00
0032E3  0FEE    	LSL ZL
0032E4  1FFF    	ROL ZH
0032E5  0FAE    	ADD XL,ZL
0032E6  1FBF    	ADC XH,ZH
0032E7  940E    	CALL L601
0032E8  6B12
0032E9  73EF    	ANDI ZL,$3F
0032EA  70F0    	ANDI ZH,$00
0032EB  01D8    	MOVW R27:R26,R17:R16
0032EC  5CA0    	SUBI XL,$C0
0032ED  4FBF    	SBCI XH,$FF
0032EE  1BAE    	SUB XL,ZL
0032EF  0BBF    	SBC XH,ZH
0032F0  018D    	MOVW R17:R16,R27:R26
0032F1  E0E0    	LDI ZL,$00
0032F2  E6F0    	LDI ZH,$60
0032F3  C037    	RJMP L602
0032F4  91E0    L600:	LDS ZL,$06B8
0032F5  06B8
0032F6  30E2    	CPI ZL,$02
0032F7  F011    	BREQ L603
0032F8  940C    	JMP L599
0032F9  332E
0032FA  91E0    L603:	LDS ZL,$094D
0032FB  094D
0032FC  50E1    	SUBI ZL,$01
0032FD  2F6E    	MOV R22,ZL
0032FE  E8A0    	LDI XL,$80
0032FF  E0B0    	LDI XH,$00
003300  E0F0    	LDI ZH,$00
003301  0FEE    	LSL ZL
003302  1FFF    	ROL ZH
003303  0FAE    	ADD XL,ZL
003304  1FBF    	ADC XH,ZH
003305  940E    	CALL L601
003306  6B12
003307  010F    	MOVW R1:R0,R31:R30
003308  2FE6    	MOV ZL,R22
003309  E9A4    	LDI XL,$94
00330A  E0B0    	LDI XH,$00
00330B  E0F0    	LDI ZH,$00
00330C  0FEE    	LSL ZL
00330D  1FFF    	ROL ZH
00330E  0FAE    	ADD XL,ZL
00330F  1FBF    	ADC XH,ZH
003310  940E    	CALL L601
003311  6B12
003312  0DE0    	ADD ZL,R0
003313  1DF1    	ADC ZH,R1
003314  018F    	MOVW R17:R16,R31:R30
003315  91E0    	LDS ZL,$094D
003316  094D
003317  50E1    	SUBI ZL,$01
003318  E9A4    	LDI XL,$94
003319  E0B0    	LDI XH,$00
00331A  E0F0    	LDI ZH,$00
00331B  0FEE    	LSL ZL
00331C  1FFF    	ROL ZH
00331D  0FAE    	ADD XL,ZL
00331E  1FBF    	ADC XH,ZH
00331F  940E    	CALL L601
003320  6B12
003321  73EF    	ANDI ZL,$3F
003322  70F0    	ANDI ZH,$00
003323  01D8    	MOVW R27:R26,R17:R16
003324  5CA0    	SUBI XL,$C0
003325  4FBF    	SBCI XH,$FF
003326  1BAE    	SUB XL,ZL
003327  0BBF    	SBC XH,ZH
003328  018D    	MOVW R17:R16,R27:R26
003329  E0E0    	LDI ZL,$00
00332A  E8F0    	LDI ZH,$80
00332B  1BE0    L602:	SUB ZL,R16
00332C  0BF1    	SBC ZH,R17
00332D  018F    	MOVW R17:R16,R31:R30
00332E  E0EF    L599:	LDI ZL,$0F
00332F  93EA    	ST -Y,ZL
003330  E0E4    	LDI ZL,$04
003331  93EA    	ST -Y,ZL
003332  940E    	CALL L569
003333  4133
003334  E0E0    	LDI ZL,$00
003335  93E0    	STS $06C5,ZL
003336  06C5
003337  93EA    	ST -Y,ZL
003338  940E    	CALL L546
003339  3FE1
00333A  E0E0    	LDI ZL,$00
00333B  93EA    	ST -Y,ZL
00333C  940E    	CALL L546
00333D  3FE1
00333E  2F21    	MOV R18,R17
00333F  932A    	ST -Y,R18
003340  940E    	CALL L546
003341  3FE1
003342  2FE2    	MOV ZL,R18
003343  91A0    	LDS XL,$06C5
003344  06C5
003345  27EA    	EOR ZL,XL
003346  93E0    	STS $06C5,ZL
003347  06C5
003348  01F8    	MOVW R31:R30,R17:R16
003349  2F2E    	MOV R18,ZL
00334A  932A    	ST -Y,R18
00334B  940E    	CALL L546
00334C  3FE1
00334D  2FE2    	MOV ZL,R18
00334E  91A0    	LDS XL,$06C5
00334F  06C5
003350  27EA    	EOR ZL,XL
003351  93E0    	STS $06C5,ZL
003352  06C5
003353  93EA    	ST -Y,ZL
003354  940E    	CALL L546
003355  3FE1
003356  E0E0    L595:	LDI ZL,$00
003357  93E0    	STS $06BB,ZL
003358  06BB
003359  93E0    	STS $06BC,ZL
00335A  06BC
00335B  94E8    	BCLR 6
00335C  F824    	BLD R2,4
00335D  9ADE    	SBI PORTA,PA6
00335E  940E    	CALL L604
00335F  6CC0
003360  9623    	ADIW YH:YL,3
003361  9508    	RET
003362  93AA    L7:	ST -Y,XL
003363  93EA    	ST -Y,ZL
003364  93FA    	ST -Y,ZH
003365  B7EF    	IN ZL,SREG
003366  93EA    	ST -Y,ZL
003367  91E0    	LDS ZL,$069B
003368  069B
003369  91A0    	LDS XL,$069D
00336A  069D
00336B  17AE    	CP XL,ZL
00336C  F478    	BRCC L605
00336D  9B5D    L606:	SBIS UCSR0A,UDRE0
00336E  CFFE    	RJMP L606
00336F  91E0    	LDS ZL,$069D
003370  069D
003371  E0F0    	LDI ZH,$00
003372  51EF    	SUBI ZL,$1F
003373  4FFA    	SBCI ZH,$FA
003374  81E0    	LD ZL,Z
003375  B9EC    	OUT UDR0,ZL
003376  91E0    	LDS ZL,$069D
003377  069D
003378  5FEF    	SUBI ZL,$FF
003379  93E0    	STS $069D,ZL
00337A  069D
00337B  C00B    	RJMP L607
00337C  91E0    L605:	LDS ZL,$069B
00337D  069B
00337E  91A0    	LDS XL,$069D
00337F  069D
003380  17EA    	CP ZL,XL
003381  F429    	BRNE L607
003382  E0E0    	LDI ZL,$00
003383  93E0    	STS $069D,ZL
003384  069D
003385  93E0    	STS $069B,ZL
003386  069B
003387  91E9    L607:	LD ZL,Y+
003388  BFEF    	OUT SREG,ZL
003389  91F9    	LD ZH,Y+
00338A  91E9    	LD ZL,Y+
00338B  91A9    	LD XL,Y+
00338C  9518    	RETI
00338D  920A    L6:	ST -Y,R0
00338E  921A    	ST -Y,R1
00338F  93AA    	ST -Y,XL
003390  93BA    	ST -Y,XH
003391  93EA    	ST -Y,ZL
003392  93FA    	ST -Y,ZH
003393  B7EF    	IN ZL,SREG
003394  93EA    	ST -Y,ZL
003395  940E    	CALL L593
003396  6CB9
003397  B12C    	IN R18,UDR0
003398  FE22    	SBRS R2,2
003399  C012    	RJMP L608
00339A  91E0    L609:	LDS ZL,$009B
00339B  009B
00339C  72E0    	ANDI ZL,$20
00339D  F3E1    	BREQ L609
00339E  9320    	STS $009C,R18
00339F  009C
0033A0  940E    	CALL L604
0033A1  6CC0
0033A2  9623    	ADIW YH:YL,3
0033A3  91E9    	LD ZL,Y+
0033A4  BFEF    	OUT SREG,ZL
0033A5  91F9    	LD ZH,Y+
0033A6  91E9    	LD ZL,Y+
0033A7  91B9    	LD XH,Y+
0033A8  91A9    	LD XL,Y+
0033A9  9019    	LD R1,Y+
0033AA  9009    	LD R0,Y+
0033AB  9518    	RETI
0033AC  91E0    L608:	LDS ZL,$069C
0033AD  069C
0033AE  5FEF    	SUBI ZL,$FF
0033AF  93E0    	STS $069C,ZL
0033B0  069C
0033B1  E001    	LDI R16,$01
0033B2  E010    	LDI R17,$00
0033B3  3008    L611:	CPI R16,$08
0033B4  E0E0    	LDI ZL,$00
0033B5  071E    	CPC R17,ZL
0033B6  F47C    	BRGE L610
0033B7  01F8    	MOVW R31:R30,R17:R16
0033B8  9731    	SBIW ZH:ZL,1
0033B9  56E2    	SUBI ZL,$62
0033BA  4FF9    	SBCI ZH,$F9
0033BB  010F    	MOVW R1:R0,R31:R30
0033BC  E9AE    	LDI XL,$9E
0033BD  E0B6    	LDI XH,$06
0033BE  0FA0    	ADD XL,R16
0033BF  1FB1    	ADC XH,R17
0033C0  91EC    	LD ZL,X
0033C1  01D0    	MOVW R27:R26,R1:R0
0033C2  93EC    	ST X,ZL
0033C3  5F0F    	SUBI R16,$FF
0033C4  4F1F    	SBCI R17,$FF
0033C5  CFED    	RJMP L611
0033C6  9320    L610:	STS $06A5,R18
0033C7  06A5
0033C8  940E    	CALL L604
0033C9  6CC0
0033CA  9623    	ADIW YH:YL,3
0033CB  91E9    	LD ZL,Y+
0033CC  BFEF    	OUT SREG,ZL
0033CD  91F9    	LD ZH,Y+
0033CE  91E9    	LD ZL,Y+
0033CF  91B9    	LD XH,Y+
0033D0  91A9    	LD XL,Y+
0033D1  9019    	LD R1,Y+
0033D2  9009    	LD R0,Y+
0033D3  9518    	RETI
0033D4  920A    L9:	ST -Y,R0
0033D5  921A    	ST -Y,R1
0033D6  92FA    	ST -Y,R15
0033D7  936A    	ST -Y,R22
0033D8  937A    	ST -Y,R23
0033D9  938A    	ST -Y,R24
0033DA  939A    	ST -Y,R25
0033DB  93AA    	ST -Y,XL
0033DC  93BA    	ST -Y,XH
0033DD  93EA    	ST -Y,ZL
0033DE  93FA    	ST -Y,ZH
0033DF  B7EB    	IN ZL,RAMPZ
0033E0  93EA    	ST -Y,ZL
0033E1  B7EF    	IN ZL,SREG
0033E2  93EA    	ST -Y,ZL
0033E3  931A    	ST -Y,R17
0033E4  930A    	ST -Y,R16
0033E5  91E0    	LDS ZL,$009C
0033E6  009C
0033E7  93E0    	STS $06C6,ZL
0033E8  06C6
0033E9  FE22    	SBRS R2,2
0033EA  C0BC    	RJMP L612
0033EB  9B5D    L613:	SBIS UCSR0A,UDRE0
0033EC  CFFE    	RJMP L613
0033ED  91E0    	LDS ZL,$06C6
0033EE  06C6
0033EF  B9EC    	OUT UDR0,ZL
0033F0  91A0    	LDS XL,$06C6
0033F1  06C6
0033F2  3FAF    	CPI XL,$FF
0033F3  F4D9    	BRNE L614
0033F4  E0E1    	LDI ZL,$01
0033F5  E0F0    	LDI ZH,$00
0033F6  93E0    	STS $06BD,ZL
0033F7  06BD
0033F8  93F0    	STS $06BE,ZH
0033F9  06BE
0033FA  E0E0    	LDI ZL,$00
0033FB  93E0    	STS $06C5,ZL
0033FC  06C5
0033FD  9109    	LD R16,Y+
0033FE  9119    	LD R17,Y+
0033FF  91E9    	LD ZL,Y+
003400  BFEF    	OUT SREG,ZL
003401  91E9    	LD ZL,Y+
003402  BFEB    	OUT RAMPZ,ZL
003403  91F9    	LD ZH,Y+
003404  91E9    	LD ZL,Y+
003405  91B9    	LD XH,Y+
003406  91A9    	LD XL,Y+
003407  9199    	LD R25,Y+
003408  9189    	LD R24,Y+
003409  9179    	LD R23,Y+
00340A  9169    	LD R22,Y+
00340B  90F9    	LD R15,Y+
00340C  9019    	LD R1,Y+
00340D  9009    	LD R0,Y+
00340E  9518    	RETI
00340F  91E0    L614:	LDS ZL,$06BD
003410  06BD
003411  91F0    	LDS ZH,$06BE
003412  06BE
003413  30E1    	CPI ZL,$01
003414  E0A0    	LDI XL,$00
003415  07FA    	CPC ZH,XL
003416  F4C1    	BRNE L615
003417  91A0    L527:	LDS XL,$06C6
003418  06C6
003419  3EA0    	CPI XL,$E0
00341A  F439    	BRNE L616
00341B  E0E2    	LDI ZL,$02
00341C  E0F0    	LDI ZH,$00
00341D  93E0    	STS $06BD,ZL
00341E  06BD
00341F  93F0    	STS $06BE,ZH
003420  06BE
003421  C005    	RJMP L617
003422  E0E0    L616:	LDI ZL,$00
003423  93E0    	STS $06BD,ZL
003424  06BD
003425  93E0    	STS $06BE,ZL
003426  06BE
003427  91E0    L617:	LDS ZL,$06C6
003428  06C6
003429  91A0    	LDS XL,$06C5
00342A  06C5
00342B  27EA    	EOR ZL,XL
00342C  93E0    	STS $06C5,ZL
00342D  06C5
00342E  C066    	RJMP L618
00342F  30E2    L615:	CPI ZL,$02
003430  E0A0    	LDI XL,$00
003431  07FA    	CPC ZH,XL
003432  F4C1    	BRNE L619
003433  91A0    	LDS XL,$06C6
003434  06C6
003435  3FAB    	CPI XL,$FB
003436  F439    	BRNE L620
003437  E0E3    	LDI ZL,$03
003438  E0F0    	LDI ZH,$00
003439  93E0    	STS $06BD,ZL
00343A  06BD
00343B  93F0    	STS $06BE,ZH
00343C  06BE
00343D  C005    	RJMP L621
00343E  E0E0    L620:	LDI ZL,$00
00343F  93E0    	STS $06BD,ZL
003440  06BD
003441  93E0    	STS $06BE,ZL
003442  06BE
003443  91E0    L621:	LDS ZL,$06C6
003444  06C6
003445  91A0    	LDS XL,$06C5
003446  06C5
003447  27EA    	EOR ZL,XL
003448  93E0    	STS $06C5,ZL
003449  06C5
00344A  C04A    	RJMP L618
00344B  30E3    L619:	CPI ZL,$03
00344C  E0A0    	LDI XL,$00
00344D  07FA    	CPC ZH,XL
00344E  F4C1    	BRNE L622
00344F  91A0    	LDS XL,$06C6
003450  06C6
003451  30A1    	CPI XL,$01
003452  F439    	BRNE L623
003453  E0E4    	LDI ZL,$04
003454  E0F0    	LDI ZH,$00
003455  93E0    	STS $06BD,ZL
003456  06BD
003457  93F0    	STS $06BE,ZH
003458  06BE
003459  C005    	RJMP L624
00345A  E0E0    L623:	LDI ZL,$00
00345B  93E0    	STS $06BD,ZL
00345C  06BD
00345D  93E0    	STS $06BE,ZL
00345E  06BE
00345F  91E0    L624:	LDS ZL,$06C6
003460  06C6
003461  91A0    	LDS XL,$06C5
003462  06C5
003463  27EA    	EOR ZL,XL
003464  93E0    	STS $06C5,ZL
003465  06C5
003466  C02E    	RJMP L618
003467  30E4    L622:	CPI ZL,$04
003468  E0A0    	LDI XL,$00
003469  07FA    	CPC ZH,XL
00346A  F489    	BRNE L625
00346B  E0E5    	LDI ZL,$05
00346C  E0F0    	LDI ZH,$00
00346D  93E0    	STS $06BD,ZL
00346E  06BD
00346F  93F0    	STS $06BE,ZH
003470  06BE
003471  91E0    	LDS ZL,$06C6
003472  06C6
003473  91A0    	LDS XL,$06C5
003474  06C5
003475  27EA    	EOR ZL,XL
003476  93E0    	STS $06C5,ZL
003477  06C5
003478  77EF    	ANDI ZL,$7F
003479  93E0    	STS $06C5,ZL
00347A  06C5
00347B  C019    	RJMP L618
00347C  30E5    L625:	CPI ZL,$05
00347D  E0A0    	LDI XL,$00
00347E  07FA    	CPC ZH,XL
00347F  F4A9    	BRNE L618
003480  91E0    	LDS ZL,$06C5
003481  06C5
003482  91A0    	LDS XL,$06C6
003483  06C6
003484  17EA    	CP ZL,XL
003485  F451    	BRNE L626
003486  B7E7    	IN ZL,TIMSK
003487  60E1    	ORI ZL,$01
003488  BFE7    	OUT TIMSK,ZL
003489  B7E9    	IN ZL,EIMSK
00348A  64E0    	ORI ZL,$40
00348B  BFE9    	OUT EIMSK,ZL
00348C  9857    	CBI UCSR0B,RXCIE0
00348D  9A56    	SBI UCSR0B,TXCIE0
00348E  94E8    	BCLR 6
00348F  F822    	BLD R2,2
003490  E0E0    L626:	LDI ZL,$00
003491  93E0    	STS $06BD,ZL
003492  06BD
003493  93E0    	STS $06BE,ZL
003494  06BE
003495  9109    L618:	LD R16,Y+
003496  9119    	LD R17,Y+
003497  91E9    	LD ZL,Y+
003498  BFEF    	OUT SREG,ZL
003499  91E9    	LD ZL,Y+
00349A  BFEB    	OUT RAMPZ,ZL
00349B  91F9    	LD ZH,Y+
00349C  91E9    	LD ZL,Y+
00349D  91B9    	LD XH,Y+
00349E  91A9    	LD XL,Y+
00349F  9199    	LD R25,Y+
0034A0  9189    	LD R24,Y+
0034A1  9179    	LD R23,Y+
0034A2  9169    	LD R22,Y+
0034A3  90F9    	LD R15,Y+
0034A4  9019    	LD R1,Y+
0034A5  9009    	LD R0,Y+
0034A6  9518    	RETI
0034A7  9856    L612:	CBI UCSR0B,TXCIE0
0034A8  B7E9    	IN ZL,EIMSK
0034A9  7BEF    	ANDI ZL,$BF
0034AA  BFE9    	OUT EIMSK,ZL
0034AB  E001    	LDI R16,$01
0034AC  E010    	LDI R17,$00
0034AD  3104    L628:	CPI R16,$14
0034AE  E0E0    	LDI ZL,$00
0034AF  071E    	CPC R17,ZL
0034B0  F478    	BRCC L627
0034B1  01F8    	MOVW R31:R30,R17:R16
0034B2  9731    	SBIW ZH:ZL,1
0034B3  55EA    	SUBI ZL,$5A
0034B4  4FF9    	SBCI ZH,$F9
0034B5  010F    	MOVW R1:R0,R31:R30
0034B6  EAA6    	LDI XL,$A6
0034B7  E0B6    	LDI XH,$06
0034B8  0FA0    	ADD XL,R16
0034B9  1FB1    	ADC XH,R17
0034BA  91EC    	LD ZL,X
0034BB  01D0    	MOVW R27:R26,R1:R0
0034BC  93EC    	ST X,ZL
0034BD  5F0F    	SUBI R16,$FF
0034BE  4F1F    	SBCI R17,$FF
0034BF  CFED    	RJMP L628
0034C0  EBA9    L627:	LDI XL,$B9
0034C1  E0B6    	LDI XH,$06
0034C2  91E0    	LDS ZL,$06C6
0034C3  06C6
0034C4  93EC    	ST X,ZL
0034C5  FC24    	SBRC R2,4
0034C6  C020    	RJMP L629
0034C7  91E0    	LDS ZL,$06B2
0034C8  06B2
0034C9  3FEF    	CPI ZL,$FF
0034CA  F4E1    	BRNE L629
0034CB  91E0    	LDS ZL,$06B3
0034CC  06B3
0034CD  3FEF    	CPI ZL,$FF
0034CE  F4C1    	BRNE L629
0034CF  91E0    	LDS ZL,$06B4
0034D0  06B4
0034D1  3AEA    	CPI ZL,$AA
0034D2  F4A1    	BRNE L629
0034D3  91E0    	LDS ZL,$06B5
0034D4  06B5
0034D5  35E5    	CPI ZL,$55
0034D6  F481    	BRNE L629
0034D7  91E0    	LDS ZL,$06B6
0034D8  06B6
0034D9  3AEA    	CPI ZL,$AA
0034DA  F461    	BRNE L629
0034DB  91E0    	LDS ZL,$06B7
0034DC  06B7
0034DD  35E5    	CPI ZL,$55
0034DE  F441    	BRNE L629
0034DF  91E0    	LDS ZL,$06B8
0034E0  06B8
0034E1  33E7    	CPI ZL,$37
0034E2  F421    	BRNE L629
0034E3  91E0    	LDS ZL,$06B9
0034E4  06B9
0034E5  3BEA    	CPI ZL,$BA
0034E6  F009    	BREQ L630
0034E7  C02E    L629:	RJMP L631
0034E8  9468    L630:	BSET 6
0034E9  F824    	BLD R2,4
0034EA  98DE    	CBI PORTA,PA6
0034EB  E0E1    	LDI ZL,$01
0034EC  E0F0    	LDI ZH,$00
0034ED  93E0    	STS $06BB,ZL
0034EE  06BB
0034EF  93F0    	STS $06BC,ZH
0034F0  06BC
0034F1  E000    	LDI R16,$00
0034F2  E010    	LDI R17,$00
0034F3  3400    L633:	CPI R16,$40
0034F4  E0E0    	LDI ZL,$00
0034F5  071E    	CPC R17,ZL
0034F6  F448    	BRCC L632
0034F7  EAA1    	LDI XL,$A1
0034F8  E0B5    	LDI XH,$05
0034F9  0FA0    	ADD XL,R16
0034FA  1FB1    	ADC XH,R17
0034FB  EFEF    	LDI ZL,$FF
0034FC  93EC    	ST X,ZL
0034FD  5F0F    	SUBI R16,$FF
0034FE  4F1F    	SBCI R17,$FF
0034FF  CFF3    	RJMP L633
003500  9A56    L632:	SBI UCSR0B,TXCIE0
003501  B7E9    	IN ZL,EIMSK
003502  64E0    	ORI ZL,$40
003503  BFE9    	OUT EIMSK,ZL
003504  9109    	LD R16,Y+
003505  9119    	LD R17,Y+
003506  91E9    	LD ZL,Y+
003507  BFEF    	OUT SREG,ZL
003508  91E9    	LD ZL,Y+
003509  BFEB    	OUT RAMPZ,ZL
00350A  91F9    	LD ZH,Y+
00350B  91E9    	LD ZL,Y+
00350C  91B9    	LD XH,Y+
00350D  91A9    	LD XL,Y+
00350E  9199    	LD R25,Y+
00350F  9189    	LD R24,Y+
003510  9179    	LD R23,Y+
003511  9169    	LD R22,Y+
003512  90F9    	LD R15,Y+
003513  9019    	LD R1,Y+
003514  9009    	LD R0,Y+
003515  9518    	RETI
003516  91E0    L631:	LDS ZL,$06BB
003517  06BB
003518  91F0    	LDS ZH,$06BC
003519  06BC
00351A  30E1    	CPI ZL,$01
00351B  E0A0    	LDI XL,$00
00351C  07FA    	CPC ZH,XL
00351D  F011    	BREQ L634
00351E  940C    	JMP L635
00351F  35BB
003520  91A0    L634:	LDS XL,$06C6
003521  06C6
003522  30A1    	CPI XL,$01
003523  F461    	BRNE L636
003524  E0E0    	LDI ZL,$00
003525  93E0    	STS $06C1,ZL
003526  06C1
003527  93E0    	STS $06C2,ZL
003528  06C2
003529  E6E4    	LDI ZL,$64
00352A  E0F0    	LDI ZH,$00
00352B  93E0    	STS $06BB,ZL
00352C  06BB
00352D  93F0    	STS $06BC,ZH
00352E  06BC
00352F  C08A    	RJMP L637
003530  91A0    L636:	LDS XL,$06C6
003531  06C6
003532  30A2    	CPI XL,$02
003533  F461    	BRNE L638
003534  E0E0    	LDI ZL,$00
003535  93E0    	STS $06C1,ZL
003536  06C1
003537  93E0    	STS $06C2,ZL
003538  06C2
003539  ECE8    	LDI ZL,$C8
00353A  E0F0    	LDI ZH,$00
00353B  93E0    	STS $06BB,ZL
00353C  06BB
00353D  93F0    	STS $06BC,ZH
00353E  06BC
00353F  C07A    	RJMP L637
003540  91A0    L638:	LDS XL,$06C6
003541  06C6
003542  30AB    	CPI XL,$0B
003543  F439    	BRNE L639
003544  E2EC    	LDI ZL,$2C
003545  E0F1    	LDI ZH,$01
003546  93E0    	STS $06BB,ZL
003547  06BB
003548  93F0    	STS $06BC,ZH
003549  06BC
00354A  C06F    	RJMP L637
00354B  91A0    L639:	LDS XL,$06C6
00354C  06C6
00354D  30AC    	CPI XL,$0C
00354E  F439    	BRNE L640
00354F  E9E0    	LDI ZL,$90
003550  E0F1    	LDI ZH,$01
003551  93E0    	STS $06BB,ZL
003552  06BB
003553  93F0    	STS $06BC,ZH
003554  06BC
003555  C064    	RJMP L637
003556  91A0    L640:	LDS XL,$06C6
003557  06C6
003558  30AD    	CPI XL,$0D
003559  F439    	BRNE L641
00355A  EFE4    	LDI ZL,$F4
00355B  E0F1    	LDI ZH,$01
00355C  93E0    	STS $06BB,ZL
00355D  06BB
00355E  93F0    	STS $06BC,ZH
00355F  06BC
003560  C059    	RJMP L637
003561  91A0    L641:	LDS XL,$06C6
003562  06C6
003563  30AE    	CPI XL,$0E
003564  F439    	BRNE L642
003565  E5E8    	LDI ZL,$58
003566  E0F2    	LDI ZH,$02
003567  93E0    	STS $06BB,ZL
003568  06BB
003569  93F0    	STS $06BC,ZH
00356A  06BC
00356B  C04E    	RJMP L637
00356C  91A0    L642:	LDS XL,$06C6
00356D  06C6
00356E  30AF    	CPI XL,$0F
00356F  F439    L526:	BRNE L643
003570  EBEC    	LDI ZL,$BC
003571  E0F2    	LDI ZH,$02
003572  93E0    	STS $06BB,ZL
003573  06BB
003574  93F0    	STS $06BC,ZH
003575  06BC
003576  C043    	RJMP L637
003577  91A0    L643:	LDS XL,$06C6
003578  06C6
003579  31A0    	CPI XL,$10
00357A  F439    	BRNE L644
00357B  E2E0    	LDI ZL,$20
00357C  E0F3    	LDI ZH,$03
00357D  93E0    	STS $06BB,ZL
00357E  06BB
00357F  93F0    	STS $06BC,ZH
003580  06BC
003581  C038    	RJMP L637
003582  91A0    L644:	LDS XL,$06C6
003583  06C6
003584  31A1    	CPI XL,$11
003585  F439    	BRNE L645
003586  E8E4    	LDI ZL,$84
003587  E0F3    	LDI ZH,$03
003588  93E0    	STS $06BB,ZL
003589  06BB
00358A  93F0    	STS $06BC,ZH
00358B  06BC
00358C  C02D    	RJMP L637
00358D  91A0    L645:	LDS XL,$06C6
00358E  06C6
00358F  31A2    	CPI XL,$12
003590  F439    	BRNE L646
003591  EEE8    	LDI ZL,$E8
003592  E0F3    	LDI ZH,$03
003593  93E0    	STS $06BB,ZL
003594  06BB
003595  93F0    	STS $06BC,ZH
003596  06BC
003597  C022    	RJMP L637
003598  91A0    L646:	LDS XL,$06C6
003599  06C6
00359A  31A3    	CPI XL,$13
00359B  F439    	BRNE L647
00359C  E4EC    	LDI ZL,$4C
00359D  E0F4    	LDI ZH,$04
00359E  93E0    	STS $06BB,ZL
00359F  06BB
0035A0  93F0    	STS $06BC,ZH
0035A1  06BC
0035A2  C017    	RJMP L637
0035A3  91A0    L647:	LDS XL,$06C6
0035A4  06C6
0035A5  31A4    	CPI XL,$14
0035A6  F439    	BRNE L648
0035A7  EBE0    	LDI ZL,$B0
0035A8  E0F4    	LDI ZH,$04
0035A9  93E0    	STS $06BB,ZL
0035AA  06BB
0035AB  93F0    	STS $06BC,ZH
0035AC  06BC
0035AD  C00C    	RJMP L637
0035AE  91A0    L648:	LDS XL,$06C6
0035AF  06C6
0035B0  31A5    	CPI XL,$15
0035B1  F439    	BRNE L649
0035B2  E1E4    	LDI ZL,$14
0035B3  E0F5    	LDI ZH,$05
0035B4  93E0    	STS $06BB,ZL
0035B5  06BB
0035B6  93F0    	STS $06BC,ZH
0035B7  06BC
0035B8  C001    	RJMP L637
0035B9  C522    L649:	RJMP L650
0035BA  C529    L637:	RJMP L651
0035BB  36E4    L635:	CPI ZL,$64
0035BC  E0A0    	LDI XL,$00
0035BD  07FA    	CPC ZH,XL
0035BE  F419    	BRNE L652
0035BF  940E    	CALL L653
0035C0  2EAC
0035C1  C522    	RJMP L651
0035C2  36E5    L652:	CPI ZL,$65
0035C3  E0A0    	LDI XL,$00
0035C4  07FA    	CPC ZH,XL
0035C5  F011    	BREQ L654
0035C6  940C    	JMP L655
0035C7  36D8
0035C8  91E0    L654:	LDS ZL,$06C1
0035C9  06C1
0035CA  91F0    	LDS ZH,$06C2
0035CB  06C2
0035CC  9631    	ADIW ZH:ZL,1
0035CD  93E0    	STS $06C1,ZL
0035CE  06C1
0035CF  93F0    	STS $06C2,ZH
0035D0  06C2
0035D1  91A0    	LDS XL,$06C1
0035D2  06C1
0035D3  91B0    	LDS XH,$06C2
0035D4  06C2
0035D5  9714    	SBIW XH:XL,4
0035D6  F011    	BREQ L656
0035D7  940C    	JMP L657
0035D8  36D7
0035D9  E0E0    L656:	LDI ZL,$00
0035DA  93E0    	STS $06C1,ZL
0035DB  06C1
0035DC  93E0    	STS $06C2,ZL
0035DD  06C2
0035DE  E0E0    	LDI ZL,$00
0035DF  93E0    	STS $06C3,ZL
0035E0  06C3
0035E1  93E0    	STS $06C4,ZL
0035E2  06C4
0035E3  E0E0    	LDI ZL,$00
0035E4  93E0    	STS $06C5,ZL
0035E5  06C5
0035E6  E5A1    	LDI XL,$51
0035E7  E0B8    	LDI XH,$08
0035E8  91E0    	LDS ZL,$06B6
0035E9  06B6
0035EA  E0F0    	LDI ZH,$00
0035EB  93ED    	ST X+,ZL
0035EC  93FC    	ST X,ZH
0035ED  91F0    	LDS ZH,$0851
0035EE  0851
0035EF  E0E0    	LDI ZL,$00
0035F0  2766    	CLR R22
0035F1  2777    	CLR R23
0035F2  70E0    	ANDI ZL,$00
0035F3  01DF    	MOVW R27:R26,R31:R30
0035F4  01CB    	MOVW R25:R24,R23:R22
0035F5  91E0    	LDS ZL,$06B7
0035F6  06B7
0035F7  27FF    	CLR ZH
0035F8  2766    	CLR R22
0035F9  2777    	CLR R23
0035FA  940E    	CALL L658
0035FB  6A95
0035FC  93E0    	STS $0851,ZL
0035FD  0851
0035FE  93F0    	STS $0852,ZH
0035FF  0852
003600  91F0    	LDS ZH,$0851
003601  0851
003602  E0E0    	LDI ZL,$00
003603  2766    	CLR R22
003604  2777    	CLR R23
003605  70E0    	ANDI ZL,$00
003606  01DF    	MOVW R27:R26,R31:R30
003607  01CB    	MOVW R25:R24,R23:R22
003608  91E0    	LDS ZL,$06B8
003609  06B8
00360A  27FF    	CLR ZH
00360B  2766    	CLR R22
00360C  2777    	CLR R23
00360D  940E    	CALL L658
00360E  6A95
00360F  93E0    	STS $0851,ZL
003610  0851
003611  93F0    	STS $0852,ZH
003612  0852
003613  91F0    	LDS ZH,$0851
003614  0851
003615  E0E0    	LDI ZL,$00
003616  2766    	CLR R22
003617  2777    	CLR R23
003618  70E0    	ANDI ZL,$00
003619  01DF    	MOVW R27:R26,R31:R30
00361A  01CB    	MOVW R25:R24,R23:R22
00361B  91E0    	LDS ZL,$06B9
00361C  06B9
00361D  27FF    	CLR ZH
00361E  2766    	CLR R22
00361F  2777    	CLR R23
003620  940E    	CALL L658
003621  6A95
003622  93E0    	STS $0851,ZL
003623  0851
003624  93F0    	STS $0852,ZH
003625  0852
003626  91E0    	LDS ZL,$094C
003627  094C
003628  E5A8    	LDI XL,$58
003629  E0B0    	LDI XH,$00
00362A  E0F0    	LDI ZH,$00
00362B  0FEE    	LSL ZL
00362C  1FFF    	ROL ZH
00362D  0FAE    	ADD XL,ZL
00362E  1FBF    	ADC XH,ZH
00362F  91E0    	LDS ZL,$0851
003630  0851
003631  91F0    	LDS ZH,$0852
003632  0852
003633  940E    	CALL L659
003634  6B22
003635  91E0    	LDS ZL,$094C
003636  094C
003637  30E0    	CPI ZL,$00
003638  F459    	BRNE L660
003639  E3A0    	LDI XL,$30
00363A  E0B0    	LDI XH,$00
00363B  E0E0    	LDI ZL,$00
00363C  E0F0    	LDI ZH,$00
00363D  940E    	CALL L659
00363E  6B22
00363F  E2AE    	LDI XL,$2E
003640  E0B0    	LDI XH,$00
003641  940E    	CALL L545
003642  6B2A
003643  C078    	RJMP L661
003644  91A0    L660:	LDS XL,$094C
003645  094C
003646  31A4    	CPI XL,$14
003647  F010    	BRCS L662
003648  940C    	JMP L663
003649  36A0
00364A  91E0    L662:	LDS ZL,$094C
00364B  094C
00364C  E3A0    	LDI XL,$30
00364D  E0B0    	LDI XH,$00
00364E  E0F0    	LDI ZH,$00
00364F  0FEE    	LSL ZL
003650  1FFF    	ROL ZH
003651  0FEA    	ADD ZL,XL
003652  1FFB    	ADC ZH,XH
003653  01BF    	MOVW R23:R22,R31:R30
003654  91E0    	LDS ZL,$094C
003655  094C
003656  50E1    	SUBI ZL,$01
003657  E3A0    	LDI XL,$30
003658  E0B0    	LDI XH,$00
003659  E0F0    	LDI ZH,$00
00365A  0FEE    	LSL ZL
00365B  1FFF    	ROL ZH
00365C  0FAE    	ADD XL,ZL
00365D  1FBF    	ADC XH,ZH
00365E  940E    	CALL L601
00365F  6B12
003660  010F    	MOVW R1:R0,R31:R30
003661  91E0    	LDS ZL,$094C
003662  094C
003663  50E1    	SUBI ZL,$01
003664  E5A8    	LDI XL,$58
003665  E0B0    	LDI XH,$00
003666  E0F0    	LDI ZH,$00
003667  0FEE    	LSL ZL
003668  1FFF    	ROL ZH
003669  0FAE    	ADD XL,ZL
00366A  1FBF    	ADC XH,ZH
00366B  940E    	CALL L601
00366C  6B12
00366D  0DE0    	ADD ZL,R0
00366E  1DF1    	ADC ZH,R1
00366F  01DB    	MOVW R27:R26,R23:R22
003670  940E    	CALL L659
003671  6B22
003672  91E0    	LDS ZL,$094C
003673  094C
003674  E3A0    	LDI XL,$30
003675  E0B0    	LDI XH,$00
003676  E0F0    	LDI ZH,$00
003677  0FEE    	LSL ZL
003678  1FFF    	ROL ZH
003679  0FEA    	ADD ZL,XL
00367A  1FFB    	ADC ZH,XH
00367B  01BF    	MOVW R23:R22,R31:R30
00367C  91E0    	LDS ZL,$094C
00367D  094C
00367E  E3A0    	LDI XL,$30
00367F  E0B0    	LDI XH,$00
003680  E0F0    	LDI ZH,$00
003681  0FEE    	LSL ZL
003682  1FFF    	ROL ZH
003683  0FAE    	ADD XL,ZL
003684  1FBF    	ADC XH,ZH
003685  940E    	CALL L601
003686  6B12
003687  5CE0    	SUBI ZL,$C0
003688  4FFF    	SBCI ZH,$FF
003689  010F    	MOVW R1:R0,R31:R30
00368A  91E0    	LDS ZL,$094C
00368B  094C
00368C  50E1    	SUBI ZL,$01
00368D  E5A8    	LDI XL,$58
00368E  E0B0    	LDI XH,$00
00368F  E0F0    	LDI ZH,$00
003690  0FEE    	LSL ZL
003691  1FFF    	ROL ZH
003692  0FAE    	ADD XL,ZL
003693  1FBF    	ADC XH,ZH
003694  940E    	CALL L601
003695  6B12
003696  73EF    	ANDI ZL,$3F
003697  70F0    	ANDI ZH,$00
003698  01DF    	MOVW R27:R26,R31:R30
003699  01F0    	MOVW R31:R30,R1:R0
00369A  1BEA    	SUB ZL,XL
00369B  0BFB    	SBC ZH,XH
00369C  01DB    	MOVW R27:R26,R23:R22
00369D  940E    	CALL L659
00369E  6B22
00369F  C01C    	RJMP L661
0036A0  E0E3    L663:	LDI ZL,$03
0036A1  2EDE    	MOV R13,ZL
0036A2  E0E0    	LDI ZL,$00
0036A3  93E0    	STS $06BB,ZL
0036A4  06BB
0036A5  93E0    	STS $06BC,ZL
0036A6  06BC
0036A7  94E8    	BCLR 6
0036A8  F824    	BLD R2,4
0036A9  9ADE    	SBI PORTA,PA6
0036AA  9109    	LD R16,Y+
0036AB  9119    	LD R17,Y+
0036AC  91E9    	LD ZL,Y+
0036AD  BFEF    	OUT SREG,ZL
0036AE  91E9    	LD ZL,Y+
0036AF  BFEB    	OUT RAMPZ,ZL
0036B0  91F9    	LD ZH,Y+
0036B1  91E9    	LD ZL,Y+
0036B2  91B9    	LD XH,Y+
0036B3  91A9    	LD XL,Y+
0036B4  9199    	LD R25,Y+
0036B5  9189    	LD R24,Y+
0036B6  9179    	LD R23,Y+
0036B7  9169    	LD R22,Y+
0036B8  90F9    	LD R15,Y+
0036B9  9019    	LD R1,Y+
0036BA  9009    	LD R0,Y+
0036BB  9518    	RETI
0036BC  EFEF    L661:	LDI ZL,$FF
0036BD  2EDE    	MOV R13,ZL
0036BE  91E0    	LDS ZL,$094C
0036BF  094C
0036C0  E3A0    	LDI XL,$30
0036C1  E0B0    	LDI XH,$00
0036C2  E0F0    	LDI ZH,$00
0036C3  0FEE    	LSL ZL
0036C4  1FFF    	ROL ZH
0036C5  0FAE    	ADD XL,ZL
0036C6  1FBF    	ADC XH,ZH
0036C7  940E    	CALL L601
0036C8  6B12
0036C9  93E0    	STS $094A,ZL
0036CA  094A
0036CB  93F0    	STS $094B,ZH
0036CC  094B
0036CD  E6E6    	LDI ZL,$66
0036CE  E0F0    	LDI ZH,$00
0036CF  93E0    	STS $06BB,ZL
0036D0  06BB
0036D1  93F0    	STS $06BC,ZH
0036D2  06BC
0036D3  E4E0    	LDI ZL,$40
0036D4  93EA    	ST -Y,ZL
0036D5  940E    	CALL L546
0036D6  3FE1
0036D7  C40C    L657:	RJMP L651
0036D8  36E6    L655:	CPI ZL,$66
0036D9  E0A0    	LDI XL,$00
0036DA  07FA    	CPC ZH,XL
0036DB  F419    	BRNE L664
0036DC  940E    	CALL L665
0036DD  2EBF
0036DE  C405    	RJMP L651
0036DF  3CE8    L664:	CPI ZL,$C8
0036E0  E0A0    	LDI XL,$00
0036E1  07FA    	CPC ZH,XL
0036E2  F499    	BRNE L666
0036E3  91E0    	LDS ZL,$06C6
0036E4  06C6
0036E5  93E0    	STS $0905,ZL
0036E6  0905
0036E7  E0E0    	LDI ZL,$00
0036E8  93E0    	STS $06C1,ZL
0036E9  06C1
0036EA  93E0    	STS $06C2,ZL
0036EB  06C2
0036EC  91E0    	LDS ZL,$06BB
0036ED  06BB
0036EE  91F0    	LDS ZH,$06BC
0036EF  06BC
0036F0  9631    	ADIW ZH:ZL,1
0036F1  93E0    	STS $06BB,ZL
0036F2  06BB
0036F3  93F0    	STS $06BC,ZH
0036F4  06BC
0036F5  C3EE    	RJMP L651
0036F6  3CE9    L666:	CPI ZL,$C9
0036F7  E0A0    	LDI XL,$00
0036F8  07FA    	CPC ZH,XL
0036F9  F011    	BREQ L667
0036FA  940C    	JMP L668
0036FB  380C
0036FC  91E0    L667:	LDS ZL,$06C1
0036FD  06C1
0036FE  91F0    	LDS ZH,$06C2
0036FF  06C2
003700  9631    	ADIW ZH:ZL,1
003701  93E0    	STS $06C1,ZL
003702  06C1
003703  93F0    	STS $06C2,ZH
003704  06C2
003705  91A0    	LDS XL,$06C1
003706  06C1
003707  91B0    	LDS XH,$06C2
003708  06C2
003709  9714    	SBIW XH:XL,4
00370A  F011    	BREQ L669
00370B  940C    	JMP L670
00370C  380B
00370D  E0E0    L669:	LDI ZL,$00
00370E  93E0    	STS $06C1,ZL
00370F  06C1
003710  93E0    	STS $06C2,ZL
003711  06C2
003712  E0E0    	LDI ZL,$00
003713  93E0    	STS $06C3,ZL
003714  06C3
003715  93E0    	STS $06C4,ZL
003716  06C4
003717  E0E0    	LDI ZL,$00
003718  93E0    	STS $06C5,ZL
003719  06C5
00371A  E0A8    	LDI XL,$08
00371B  E0B9    	LDI XH,$09
00371C  91E0    	LDS ZL,$06B6
00371D  06B6
00371E  E0F0    	LDI ZH,$00
00371F  93ED    	ST X+,ZL
003720  93FC    	ST X,ZH
003721  91F0    	LDS ZH,$0908
003722  0908
003723  E0E0    	LDI ZL,$00
003724  2766    	CLR R22
003725  2777    	CLR R23
003726  70E0    	ANDI ZL,$00
003727  01DF    	MOVW R27:R26,R31:R30
003728  01CB    	MOVW R25:R24,R23:R22
003729  91E0    	LDS ZL,$06B7
00372A  06B7
00372B  27FF    	CLR ZH
00372C  2766    	CLR R22
00372D  2777    	CLR R23
00372E  940E    	CALL L658
00372F  6A95
003730  93E0    	STS $0908,ZL
003731  0908
003732  93F0    	STS $0909,ZH
003733  0909
003734  91F0    	LDS ZH,$0908
003735  0908
003736  E0E0    	LDI ZL,$00
003737  2766    	CLR R22
003738  2777    	CLR R23
003739  70E0    	ANDI ZL,$00
00373A  01DF    	MOVW R27:R26,R31:R30
00373B  01CB    	MOVW R25:R24,R23:R22
00373C  91E0    	LDS ZL,$06B8
00373D  06B8
00373E  27FF    	CLR ZH
00373F  2766    	CLR R22
003740  2777    	CLR R23
003741  940E    	CALL L658
003742  6A95
003743  93E0    	STS $0908,ZL
003744  0908
003745  93F0    	STS $0909,ZH
003746  0909
003747  91F0    	LDS ZH,$0908
003748  0908
003749  E0E0    	LDI ZL,$00
00374A  2766    	CLR R22
00374B  2777    	CLR R23
00374C  70E0    	ANDI ZL,$00
00374D  01DF    	MOVW R27:R26,R31:R30
00374E  01CB    	MOVW R25:R24,R23:R22
00374F  91E0    	LDS ZL,$06B9
003750  06B9
003751  27FF    	CLR ZH
003752  2766    	CLR R22
003753  2777    	CLR R23
003754  940E    	CALL L658
003755  6A95
003756  93E0    	STS $0908,ZL
003757  0908
003758  93F0    	STS $0909,ZH
003759  0909
00375A  91E0    	LDS ZL,$094D
00375B  094D
00375C  E9A4    	LDI XL,$94
00375D  E0B0    	LDI XH,$00
00375E  E0F0    	LDI ZH,$00
00375F  0FEE    	LSL ZL
003760  1FFF    	ROL ZH
003761  0FAE    	ADD XL,ZL
003762  1FBF    	ADC XH,ZH
003763  91E0    	LDS ZL,$0908
003764  0908
003765  91F0    	LDS ZH,$0909
003766  0909
003767  940E    	CALL L659
003768  6B22
003769  91E0    	LDS ZL,$094D
00376A  094D
00376B  30E0    	CPI ZL,$00
00376C  F459    	BRNE L671
00376D  E8A0    	LDI XL,$80
00376E  E0B0    	LDI XH,$00
00376F  E0E0    	LDI ZL,$00
003770  E6F0    	LDI ZH,$60
003771  940E    	CALL L659
003772  6B22
003773  E2AF    	LDI XL,$2F
003774  E0B0    	LDI XH,$00
003775  940E    	CALL L545
003776  6B2A
003777  C078    	RJMP L672
003778  91A0    L671:	LDS XL,$094D
003779  094D
00377A  30AA    	CPI XL,$0A
00377B  F010    	BRCS L673
00377C  940C    	JMP L674
00377D  37D4
00377E  91E0    L673:	LDS ZL,$094D
00377F  094D
003780  E8A0    	LDI XL,$80
003781  E0B0    	LDI XH,$00
003782  E0F0    	LDI ZH,$00
003783  0FEE    	LSL ZL
003784  1FFF    	ROL ZH
003785  0FEA    	ADD ZL,XL
003786  1FFB    	ADC ZH,XH
003787  01BF    	MOVW R23:R22,R31:R30
003788  91E0    	LDS ZL,$094D
003789  094D
00378A  50E1    	SUBI ZL,$01
00378B  E8A0    	LDI XL,$80
00378C  E0B0    	LDI XH,$00
00378D  E0F0    	LDI ZH,$00
00378E  0FEE    	LSL ZL
00378F  1FFF    	ROL ZH
003790  0FAE    	ADD XL,ZL
003791  1FBF    	ADC XH,ZH
003792  940E    	CALL L601
003793  6B12
003794  010F    	MOVW R1:R0,R31:R30
003795  91E0    	LDS ZL,$094D
003796  094D
003797  50E1    	SUBI ZL,$01
003798  E9A4    	LDI XL,$94
003799  E0B0    	LDI XH,$00
00379A  E0F0    	LDI ZH,$00
00379B  0FEE    	LSL ZL
00379C  1FFF    	ROL ZH
00379D  0FAE    	ADD XL,ZL
00379E  1FBF    	ADC XH,ZH
00379F  940E    	CALL L601
0037A0  6B12
0037A1  0DE0    	ADD ZL,R0
0037A2  1DF1    	ADC ZH,R1
0037A3  01DB    	MOVW R27:R26,R23:R22
0037A4  940E    	CALL L659
0037A5  6B22
0037A6  91E0    	LDS ZL,$094D
0037A7  094D
0037A8  E8A0    	LDI XL,$80
0037A9  E0B0    	LDI XH,$00
0037AA  E0F0    	LDI ZH,$00
0037AB  0FEE    	LSL ZL
0037AC  1FFF    	ROL ZH
0037AD  0FEA    	ADD ZL,XL
0037AE  1FFB    	ADC ZH,XH
0037AF  01BF    	MOVW R23:R22,R31:R30
0037B0  91E0    	LDS ZL,$094D
0037B1  094D
0037B2  E8A0    	LDI XL,$80
0037B3  E0B0    	LDI XH,$00
0037B4  E0F0    	LDI ZH,$00
0037B5  0FEE    	LSL ZL
0037B6  1FFF    	ROL ZH
0037B7  0FAE    	ADD XL,ZL
0037B8  1FBF    	ADC XH,ZH
0037B9  940E    	CALL L601
0037BA  6B12
0037BB  5CE0    	SUBI ZL,$C0
0037BC  4FFF    	SBCI ZH,$FF
0037BD  010F    	MOVW R1:R0,R31:R30
0037BE  91E0    	LDS ZL,$094D
0037BF  094D
0037C0  50E1    	SUBI ZL,$01
0037C1  E9A4    	LDI XL,$94
0037C2  E0B0    	LDI XH,$00
0037C3  E0F0    	LDI ZH,$00
0037C4  0FEE    	LSL ZL
0037C5  1FFF    	ROL ZH
0037C6  0FAE    	ADD XL,ZL
0037C7  1FBF    	ADC XH,ZH
0037C8  940E    	CALL L601
0037C9  6B12
0037CA  73EF    	ANDI ZL,$3F
0037CB  70F0    	ANDI ZH,$00
0037CC  01DF    	MOVW R27:R26,R31:R30
0037CD  01F0    	MOVW R31:R30,R1:R0
0037CE  1BEA    	SUB ZL,XL
0037CF  0BFB    	SBC ZH,XH
0037D0  01DB    	MOVW R27:R26,R23:R22
0037D1  940E    	CALL L659
0037D2  6B22
0037D3  C01C    	RJMP L672
0037D4  E0E4    L674:	LDI ZL,$04
0037D5  2EDE    	MOV R13,ZL
0037D6  E0E0    	LDI ZL,$00
0037D7  93E0    	STS $06BB,ZL
0037D8  06BB
0037D9  93E0    	STS $06BC,ZL
0037DA  06BC
0037DB  94E8    	BCLR 6
0037DC  F824    	BLD R2,4
0037DD  9ADE    	SBI PORTA,PA6
0037DE  9109    	LD R16,Y+
0037DF  9119    	LD R17,Y+
0037E0  91E9    	LD ZL,Y+
0037E1  BFEF    	OUT SREG,ZL
0037E2  91E9    	LD ZL,Y+
0037E3  BFEB    	OUT RAMPZ,ZL
0037E4  91F9    	LD ZH,Y+
0037E5  91E9    	LD ZL,Y+
0037E6  91B9    	LD XH,Y+
0037E7  91A9    	LD XL,Y+
0037E8  9199    	LD R25,Y+
0037E9  9189    	LD R24,Y+
0037EA  9179    	LD R23,Y+
0037EB  9169    	LD R22,Y+
0037EC  90F9    	LD R15,Y+
0037ED  9019    	LD R1,Y+
0037EE  9009    	LD R0,Y+
0037EF  9518    	RETI
0037F0  EFEF    L672:	LDI ZL,$FF
0037F1  2EDE    	MOV R13,ZL
0037F2  91E0    	LDS ZL,$094D
0037F3  094D
0037F4  E8A0    	LDI XL,$80
0037F5  E0B0    	LDI XH,$00
0037F6  E0F0    	LDI ZH,$00
0037F7  0FEE    	LSL ZL
0037F8  1FFF    	ROL ZH
0037F9  0FAE    	ADD XL,ZL
0037FA  1FBF    	ADC XH,ZH
0037FB  940E    	CALL L601
0037FC  6B12
0037FD  93E0    	STS $094A,ZL
0037FE  094A
0037FF  93F0    	STS $094B,ZH
003800  094B
003801  ECEA    	LDI ZL,$CA
003802  E0F0    	LDI ZH,$00
003803  93E0    	STS $06BB,ZL
003804  06BB
003805  93F0    	STS $06BC,ZH
003806  06BC
003807  E4E0    	LDI ZL,$40
003808  93EA    	ST -Y,ZL
003809  940E    	CALL L546
00380A  3FE1
00380B  C2D8    L670:	RJMP L651
00380C  3CEA    L668:	CPI ZL,$CA
00380D  E0A0    	LDI XL,$00
00380E  07FA    	CPC ZH,XL
00380F  F419    	BRNE L675
003810  940E    	CALL L676
003811  2FD1
003812  C2D1    	RJMP L651
003813  32EC    L675:	CPI ZL,$2C
003814  E0A1    	LDI XL,$01
003815  07FA    	CPC ZH,XL
003816  F419    	BRNE L677
003817  940E    	CALL L653
003818  2EAC
003819  C2CA    	RJMP L651
00381A  32ED    L677:	CPI ZL,$2D
00381B  E0A1    	LDI XL,$01
00381C  07FA    	CPC ZH,XL
00381D  F419    	BRNE L678
00381E  940E    	CALL L679
00381F  30E3
003820  C2C3    	RJMP L651
003821  32EE    L678:	CPI ZL,$2E
003822  E0A1    	LDI XL,$01
003823  07FA    	CPC ZH,XL
003824  F419    	BRNE L680
003825  940E    	CALL L681
003826  3111
003827  C2BC    	RJMP L651
003828  32EF    L680:	CPI ZL,$2F
003829  E0A1    	LDI XL,$01
00382A  07FA    	CPC ZH,XL
00382B  F419    	BRNE L682
00382C  940E    	CALL L683
00382D  312F
00382E  C2B5    	RJMP L651
00382F  39E0    L682:	CPI ZL,$90
003830  E0A1    	LDI XL,$01
003831  07FA    	CPC ZH,XL
003832  F419    	BRNE L684
003833  940E    	CALL L653
003834  2EAC
003835  C2AE    	RJMP L651
003836  39E1    L684:	CPI ZL,$91
003837  E0A1    	LDI XL,$01
003838  07FA    	CPC ZH,XL
003839  F559    	BRNE L685
00383A  91E0    	LDS ZL,$06C1
00383B  06C1
00383C  91F0    	LDS ZH,$06C2
00383D  06C2
00383E  9631    	ADIW ZH:ZL,1
00383F  93E0    	STS $06C1,ZL
003840  06C1
003841  93F0    	STS $06C2,ZH
003842  06C2
003843  91A0    	LDS XL,$06C1
003844  06C1
003845  91B0    	LDS XH,$06C2
003846  06C2
003847  9714    	SBIW XH:XL,4
003848  F4D9    	BRNE L686
003849  E0E0    	LDI ZL,$00
00384A  93E0    	STS $06C1,ZL
00384B  06C1
00384C  93E0    	STS $06C2,ZL
00384D  06C2
00384E  E0E0    	LDI ZL,$00
00384F  93E0    	STS $06C5,ZL
003850  06C5
003851  91A0    	LDS XL,$06C6
003852  06C6
003853  30A1    	CPI XL,$01
003854  F439    	BRNE L687
003855  E9E2    	LDI ZL,$92
003856  E0F1    	LDI ZH,$01
003857  93E0    	STS $06BB,ZL
003858  06BB
003859  93F0    	STS $06BC,ZH
00385A  06BC
00385B  C008    	RJMP L686
00385C  E0E0    L687:	LDI ZL,$00
00385D  93E0    	STS $06BB,ZL
00385E  06BB
00385F  93E0    	STS $06BC,ZL
003860  06BC
003861  94E8    	BCLR 6
003862  F824    	BLD R2,4
003863  9ADE    	SBI PORTA,PA6
003864  C27F    L686:	RJMP L651
003865  39E2    L685:	CPI ZL,$92
003866  E0A1    	LDI XL,$01
003867  07FA    	CPC ZH,XL
003868  F419    	BRNE L688
003869  940E    	CALL L681
00386A  3111
00386B  C278    	RJMP L651
00386C  39E3    L688:	CPI ZL,$93
00386D  E0A1    	LDI XL,$01
00386E  07FA    	CPC ZH,XL
00386F  F419    	BRNE L689
003870  940E    	CALL L690
003871  3169
003872  C271    	RJMP L651
003873  3FE4    L689:	CPI ZL,$F4
003874  E0A1    	LDI XL,$01
003875  07FA    	CPC ZH,XL
003876  F419    	BRNE L691
003877  940E    	CALL L653
003878  2EAC
003879  C26A    	RJMP L651
00387A  3FE5    L691:	CPI ZL,$F5
00387B  E0A1    	LDI XL,$01
00387C  07FA    	CPC ZH,XL
00387D  F521    	BRNE L692
00387E  91E0    	LDS ZL,$06C1
00387F  06C1
003880  91F0    	LDS ZH,$06C2
003881  06C2
003882  9631    	ADIW ZH:ZL,1
003883  93E0    	STS $06C1,ZL
003884  06C1
003885  93F0    	STS $06C2,ZH
003886  06C2
003887  91A0    	LDS XL,$06C1
003888  06C1
003889  91B0    	LDS XH,$06C2
00388A  06C2
00388B  9714    	SBIW XH:XL,4
00388C  F4A1    	BRNE L693
00388D  E0E0    	LDI ZL,$00
00388E  93E0    	STS $06C1,ZL
00388F  06C1
003890  93E0    	STS $06C2,ZL
003891  06C2
003892  E0E0    	LDI ZL,$00
003893  93E0    	STS $06C5,ZL
003894  06C5
003895  91A0    	LDS XL,$06C6
003896  06C6
003897  30AD    	CPI XL,$0D
003898  F439    	BRNE L694
003899  EFE6    	LDI ZL,$F6
00389A  E0F1    	LDI ZH,$01
00389B  93E0    	STS $06BB,ZL
00389C  06BB
00389D  93F0    	STS $06BC,ZH
00389E  06BC
00389F  C001    	RJMP L693
0038A0  C23B    L694:	RJMP L650
0038A1  C242    L693:	RJMP L651
0038A2  3FE6    L692:	CPI ZL,$F6
0038A3  E0A1    	LDI XL,$01
0038A4  07FA    	CPC ZH,XL
0038A5  F4E9    	BRNE L695
0038A6  91E0    	LDS ZL,$06C6
0038A7  06C6
0038A8  91A0    	LDS XL,$06C5
0038A9  06C5
0038AA  27EA    	EOR ZL,XL
0038AB  93E0    	STS $06C5,ZL
0038AC  06C5
0038AD  91E0    	LDS ZL,$06C1
0038AE  06C1
0038AF  91F0    	LDS ZH,$06C2
0038B0  06C2
0038B1  9631    	ADIW ZH:ZL,1
0038B2  93E0    	STS $06C1,ZL
0038B3  06C1
0038B4  93F0    	STS $06C2,ZH
0038B5  06C2
0038B6  91A0    	LDS XL,$06C1
0038B7  06C1
0038B8  91B0    	LDS XH,$06C2
0038B9  06C2
0038BA  971D    	SBIW XH:XL,13
0038BB  F431    	BRNE L696
0038BC  EFE7    	LDI ZL,$F7
0038BD  E0F1    	LDI ZH,$01
0038BE  93E0    	STS $06BB,ZL
0038BF  06BB
0038C0  93F0    	STS $06BC,ZH
0038C1  06BC
0038C2  C221    L696:	RJMP L651
0038C3  3FE7    L695:	CPI ZL,$F7
0038C4  E0A1    	LDI XL,$01
0038C5  07FA    	CPC ZH,XL
0038C6  F419    	BRNE L697
0038C7  940E    	CALL L698
0038C8  31A3
0038C9  C21A    	RJMP L651
0038CA  35E8    L697:	CPI ZL,$58
0038CB  E0A2    	LDI XL,$02
0038CC  07FA    	CPC ZH,XL
0038CD  F419    	BRNE L699
0038CE  940E    	CALL L653
0038CF  2EAC
0038D0  C213    	RJMP L651
0038D1  35E9    L699:	CPI ZL,$59
0038D2  E0A2    	LDI XL,$02
0038D3  07FA    	CPC ZH,XL
0038D4  F419    	BRNE L700
0038D5  940E    	CALL L701
0038D6  31F2
0038D7  C20C    	RJMP L651
0038D8  35EA    L700:	CPI ZL,$5A
0038D9  E0A2    	LDI XL,$02
0038DA  07FA    	CPC ZH,XL
0038DB  F4E9    	BRNE L702
0038DC  91E0    	LDS ZL,$06C6
0038DD  06C6
0038DE  91A0    	LDS XL,$06C5
0038DF  06C5
0038E0  27EA    	EOR ZL,XL
0038E1  93E0    	STS $06C5,ZL
0038E2  06C5
0038E3  91E0    	LDS ZL,$06C1
0038E4  06C1
0038E5  91F0    	LDS ZH,$06C2
0038E6  06C2
0038E7  9631    	ADIW ZH:ZL,1
0038E8  93E0    	STS $06C1,ZL
0038E9  06C1
0038EA  93F0    	STS $06C2,ZH
0038EB  06C2
0038EC  91A0    	LDS XL,$06C1
0038ED  06C1
0038EE  91B0    	LDS XH,$06C2
0038EF  06C2
0038F0  9750    	SBIW XH:XL,16
0038F1  F431    	BRNE L703
0038F2  E5EB    	LDI ZL,$5B
0038F3  E0F2    	LDI ZH,$02
0038F4  93E0    	STS $06BB,ZL
0038F5  06BB
0038F6  93F0    	STS $06BC,ZH
0038F7  06BC
0038F8  C1EB    L703:	RJMP L651
0038F9  35EB    L702:	CPI ZL,$5B
0038FA  E0A2    	LDI XL,$02
0038FB  07FA    	CPC ZH,XL
0038FC  F419    	BRNE L704
0038FD  940E    	CALL L705
0038FE  321D
0038FF  C1E4    	RJMP L651
003900  3BEC    L704:	CPI ZL,$BC
003901  E0A2    	LDI XL,$02
003902  07FA    	CPC ZH,XL
003903  F419    	BRNE L706
003904  940E    	CALL L653
003905  2EAC
003906  C1DD    	RJMP L651
003907  3BED    L706:	CPI ZL,$BD
003908  E0A2    	LDI XL,$02
003909  07FA    	CPC ZH,XL
00390A  F419    	BRNE L707
00390B  940E    	CALL L679
00390C  30E3
00390D  C1D6    	RJMP L651
00390E  3BEE    L707:	CPI ZL,$BE
00390F  E0A2    	LDI XL,$02
003910  07FA    	CPC ZH,XL
003911  F4E9    	BRNE L708
003912  91E0    	LDS ZL,$06C6
003913  06C6
003914  91A0    	LDS XL,$06C5
003915  06C5
003916  27EA    	EOR ZL,XL
003917  93E0    	STS $06C5,ZL
003918  06C5
003919  91A0    	LDS XL,$06C6
00391A  06C6
00391B  30A1    	CPI XL,$01
00391C  F011    	BREQ L709
00391D  30A2    	CPI XL,$02
00391E  F439    	BRNE L710
00391F  EBEF    L709:	LDI ZL,$BF
003920  E0F2    	LDI ZH,$02
003921  93E0    	STS $06BB,ZL
003922  06BB
003923  93F0    	STS $06BC,ZH
003924  06BC
003925  C008    	RJMP L711
003926  E0E0    L710:	LDI ZL,$00
003927  93E0    	STS $06BB,ZL
003928  06BB
003929  93E0    	STS $06BC,ZL
00392A  06BC
00392B  94E8    	BCLR 6
00392C  F824    	BLD R2,4
00392D  9ADE    	SBI PORTA,PA6
00392E  C1B5    L711:	RJMP L651
00392F  3BEF    L708:	CPI ZL,$BF
003930  E0A2    	LDI XL,$02
003931  07FA    	CPC ZH,XL
003932  F419    	BRNE L712
003933  940E    	CALL L713
003934  32A2
003935  C1AE    	RJMP L651
003936  32E0    L712:	CPI ZL,$20
003937  E0A3    	LDI XL,$03
003938  07FA    	CPC ZH,XL
003939  F419    	BRNE L714
00393A  940E    	CALL L653
00393B  2EAC
00393C  C1A7    	RJMP L651
00393D  32E1    L714:	CPI ZL,$21
00393E  E0A3    	LDI XL,$03
00393F  07FA    	CPC ZH,XL
003940  F419    	BRNE L715
003941  940E    	CALL L679
003942  30E3
003943  C1A0    	RJMP L651
003944  32E2    L715:	CPI ZL,$22
003945  E0A3    	LDI XL,$03
003946  07FA    	CPC ZH,XL
003947  F419    	BRNE L716
003948  940E    	CALL L681
003949  3111
00394A  C199    	RJMP L651
00394B  32E3    L716:	CPI ZL,$23
00394C  E0A3    	LDI XL,$03
00394D  07FA    	CPC ZH,XL
00394E  F011    	BREQ L717
00394F  940C    	JMP L718
003950  3993
003951  91E0    L717:	LDS ZL,$06C6
003952  06C6
003953  91A0    	LDS XL,$06C5
003954  06C5
003955  17EA    	CP ZL,XL
003956  F5D9    	BRNE L719
003957  E1E0    	LDI ZL,$10
003958  93EA    	ST -Y,ZL
003959  E0E1    	LDI ZL,$01
00395A  93EA    	ST -Y,ZL
00395B  940E    	CALL L569
00395C  4133
00395D  E0E0    	LDI ZL,$00
00395E  93E0    	STS $06C5,ZL
00395F  06C5
003960  E0E1    	LDI ZL,$01
003961  93EA    	ST -Y,ZL
003962  D67E    	RCALL L546
003963  91A0    	LDS XL,$06C5
003964  06C5
003965  E0E1    	LDI ZL,$01
003966  27EA    	EOR ZL,XL
003967  93E0    	STS $06C5,ZL
003968  06C5
003969  93EA    	ST -Y,ZL
00396A  D676    	RCALL L546
00396B  E0E0    	LDI ZL,$00
00396C  93E0    	STS $06BB,ZL
00396D  06BB
00396E  93E0    	STS $06BC,ZL
00396F  06BC
003970  94E8    	BCLR 6
003971  F824    	BLD R2,4
003972  9ADE    	SBI PORTA,PA6
003973  B7E7    	IN ZL,TIMSK
003974  7FEE    	ANDI ZL,$FE
003975  BFE7    	OUT TIMSK,ZL
003976  B7E9    	IN ZL,EIMSK
003977  7BEF    	ANDI ZL,$BF
003978  BFE9    	OUT EIMSK,ZL
003979  9A57    	SBI UCSR0B,RXCIE0
00397A  9856    	CBI UCSR0B,TXCIE0
00397B  9468    	BSET 6
00397C  F822    	BLD R2,2
00397D  98DA    	CBI PORTA,PA2
00397E  9ADB    	SBI PORTA,PA3
00397F  98DC    	CBI PORTA,PA4
003980  9109    	LD R16,Y+
003981  9119    	LD R17,Y+
003982  91E9    	LD ZL,Y+
003983  BFEF    	OUT SREG,ZL
003984  91E9    	LD ZL,Y+
003985  BFEB    	OUT RAMPZ,ZL
003986  91F9    	LD ZH,Y+
003987  91E9    	LD ZL,Y+
003988  91B9    	LD XH,Y+
003989  91A9    	LD XL,Y+
00398A  9199    	LD R25,Y+
00398B  9189    	LD R24,Y+
00398C  9179    	LD R23,Y+
00398D  9169    	LD R22,Y+
00398E  90F9    	LD R15,Y+
00398F  9019    	LD R1,Y+
003990  9009    	LD R0,Y+
003991  9518    	RETI
003992  C149    L719:	RJMP L650
003993  38E4    L718:	CPI ZL,$84
003994  E0A3    	LDI XL,$03
003995  07FA    	CPC ZH,XL
003996  F419    	BRNE L720
003997  940E    	CALL L653
003998  2EAC
003999  C14A    	RJMP L651
00399A  38E5    L720:	CPI ZL,$85
00399B  E0A3    	LDI XL,$03
00399C  07FA    	CPC ZH,XL
00399D  F419    	BRNE L721
00399E  940E    	CALL L679
00399F  30E3
0039A0  C143    	RJMP L651
0039A1  38E6    L721:	CPI ZL,$86
0039A2  E0A3    	LDI XL,$03
0039A3  07FA    	CPC ZH,XL
0039A4  F419    	BRNE L722
0039A5  940E    	CALL L681
0039A6  3111
0039A7  C13C    	RJMP L651
0039A8  38E7    L722:	CPI ZL,$87
0039A9  E0A3    	LDI XL,$03
0039AA  07FA    	CPC ZH,XL
0039AB  F509    	BRNE L723
0039AC  91E0    	LDS ZL,$06C6
0039AD  06C6
0039AE  91A0    	LDS XL,$06C5
0039AF  06C5
0039B0  17EA    	CP ZL,XL
0039B1  F4D1    	BRNE L724
0039B2  E1E1    	LDI ZL,$11
0039B3  93EA    	ST -Y,ZL
0039B4  E0E2    	LDI ZL,$02
0039B5  93EA    	ST -Y,ZL
0039B6  D77C    	RCALL L569
0039B7  E0E0    	LDI ZL,$00
0039B8  93E0    	STS $06C5,ZL
0039B9  06C5
0039BA  92DA    	ST -Y,R13
0039BB  D625    	RCALL L546
0039BC  2DED    	MOV ZL,R13
0039BD  91A0    	LDS XL,$06C5
0039BE  06C5
0039BF  27EA    	EOR ZL,XL
0039C0  93E0    	STS $06C5,ZL
0039C1  06C5
0039C2  92CA    	ST -Y,R12
0039C3  D61D    	RCALL L546
0039C4  2DEC    	MOV ZL,R12
0039C5  91A0    	LDS XL,$06C5
0039C6  06C5
0039C7  27EA    	EOR ZL,XL
0039C8  93E0    	STS $06C5,ZL
0039C9  06C5
0039CA  93EA    	ST -Y,ZL
0039CB  D615    	RCALL L546
0039CC  C10F    L724:	RJMP L650
0039CD  3EE8    L723:	CPI ZL,$E8
0039CE  E0A3    	LDI XL,$03
0039CF  07FA    	CPC ZH,XL
0039D0  F419    	BRNE L725
0039D1  940E    	CALL L653
0039D2  2EAC
0039D3  C110    	RJMP L651
0039D4  3EE9    L725:	CPI ZL,$E9
0039D5  E0A3    	LDI XL,$03
0039D6  07FA    	CPC ZH,XL
0039D7  F419    	BRNE L726
0039D8  940E    	CALL L679
0039D9  30E3
0039DA  C109    	RJMP L651
0039DB  3EEA    L726:	CPI ZL,$EA
0039DC  E0A3    	LDI XL,$03
0039DD  07FA    	CPC ZH,XL
0039DE  F419    	BRNE L727
0039DF  940E    	CALL L681
0039E0  3111
0039E1  C102    	RJMP L651
0039E2  3EEB    L727:	CPI ZL,$EB
0039E3  E0A3    	LDI XL,$03
0039E4  07FA    	CPC ZH,XL
0039E5  F519    	BRNE L728
0039E6  91E0    	LDS ZL,$06C6
0039E7  06C6
0039E8  91A0    	LDS XL,$06C5
0039E9  06C5
0039EA  17EA    	CP ZL,XL
0039EB  F4E1    	BRNE L729
0039EC  E1E2    	LDI ZL,$12
0039ED  93EA    	ST -Y,ZL
0039EE  E0E2    	LDI ZL,$02
0039EF  93EA    	ST -Y,ZL
0039F0  D742    	RCALL L569
0039F1  E0E0    	LDI ZL,$00
0039F2  93E0    	STS $06C5,ZL
0039F3  06C5
0039F4  E0E2    	LDI ZL,$02
0039F5  93EA    	ST -Y,ZL
0039F6  D5EA    	RCALL L546
0039F7  91A0    	LDS XL,$06C5
0039F8  06C5
0039F9  E0E2    	LDI ZL,$02
0039FA  27EA    	EOR ZL,XL
0039FB  93E0    	STS $06C5,ZL
0039FC  06C5
0039FD  E0E9    	LDI ZL,$09
0039FE  93EA    	ST -Y,ZL
0039FF  D5E1    	RCALL L546
003A00  91A0    	LDS XL,$06C5
003A01  06C5
003A02  E0E9    	LDI ZL,$09
003A03  27EA    	EOR ZL,XL
003A04  93E0    	STS $06C5,ZL
003A05  06C5
003A06  93EA    	ST -Y,ZL
003A07  D5D9    	RCALL L546
003A08  C0D3    L729:	RJMP L650
003A09  34EC    L728:	CPI ZL,$4C
003A0A  E0A4    	LDI XL,$04
003A0B  07FA    	CPC ZH,XL
003A0C  F419    	BRNE L730
003A0D  940E    	CALL L653
003A0E  2EAC
003A0F  C0D4    	RJMP L651
003A10  34ED    L730:	CPI ZL,$4D
003A11  E0A4    	LDI XL,$04
003A12  07FA    	CPC ZH,XL
003A13  F419    	BRNE L731
003A14  940E    	CALL L679
003A15  30E3
003A16  C0CD    	RJMP L651
003A17  34EE    L731:	CPI ZL,$4E
003A18  E0A4    	LDI XL,$04
003A19  07FA    	CPC ZH,XL
003A1A  F419    	BRNE L732
003A1B  940E    	CALL L681
003A1C  3111
003A1D  C0C6    	RJMP L651
003A1E  34EF    L732:	CPI ZL,$4F
003A1F  E0A4    	LDI XL,$04
003A20  07FA    	CPC ZH,XL
003A21  F449    	BRNE L733
003A22  91E0    	LDS ZL,$06C6
003A23  06C6
003A24  91A0    	LDS XL,$06C5
003A25  06C5
003A26  17EA    	CP ZL,XL
003A27  F411    	BRNE L734
003A28  9468    	BSET 6
003A29  F834    	BLD R3,4
003A2A  C0B1    L734:	RJMP L650
003A2B  3BE0    L733:	CPI ZL,$B0
003A2C  E0A4    	LDI XL,$04
003A2D  07FA    	CPC ZH,XL
003A2E  F419    	BRNE L735
003A2F  940E    	CALL L653
003A30  2EAC
003A31  C0B2    	RJMP L651
003A32  3BE1    L735:	CPI ZL,$B1
003A33  E0A4    	LDI XL,$04
003A34  07FA    	CPC ZH,XL
003A35  F419    	BRNE L736
003A36  940E    	CALL L679
003A37  30E3
003A38  C0AB    	RJMP L651
003A39  3BE2    L736:	CPI ZL,$B2
003A3A  E0A4    	LDI XL,$04
003A3B  07FA    	CPC ZH,XL
003A3C  F4F1    	BRNE L737
003A3D  91E0    	LDS ZL,$06C6
003A3E  06C6
003A3F  91A0    	LDS XL,$06C5
003A40  06C5
003A41  27EA    	EOR ZL,XL
003A42  93E0    	STS $06C5,ZL
003A43  06C5
003A44  91A0    	LDS XL,$06C6
003A45  06C6
003A46  34A0    	CPI XL,$40
003A47  F450    	BRCC L738
003A48  91E0    	LDS ZL,$06BB
003A49  06BB
003A4A  91F0    	LDS ZH,$06BC
003A4B  06BC
003A4C  9631    	ADIW ZH:ZL,1
003A4D  93E0    	STS $06BB,ZL
003A4E  06BB
003A4F  93F0    	STS $06BC,ZH
003A50  06BC
003A51  C008    	RJMP L739
003A52  E0E0    L738:	LDI ZL,$00
003A53  93E0    	STS $06BB,ZL
003A54  06BB
003A55  93E0    	STS $06BC,ZL
003A56  06BC
003A57  94E8    	BCLR 6
003A58  F824    	BLD R2,4
003A59  9ADE    	SBI PORTA,PA6
003A5A  C089    L739:	RJMP L651
003A5B  3BE3    L737:	CPI ZL,$B3
003A5C  E0A4    	LDI XL,$04
003A5D  07FA    	CPC ZH,XL
003A5E  F011    	BREQ L740
003A5F  940C    	JMP L741
003A60  3ABB
003A61  91E0    L740:	LDS ZL,$06C6
003A62  06C6
003A63  91A0    	LDS XL,$06C5
003A64  06C5
003A65  17EA    	CP ZL,XL
003A66  F011    	BREQ L742
003A67  940C    	JMP L743
003A68  3ABA
003A69  91E0    L742:	LDS ZL,$06B8
003A6A  06B8
003A6B  30E7    	CPI ZL,$07
003A6C  F411    	BRNE L744
003A6D  9468    	BSET 6
003A6E  F823    	BLD R2,3
003A6F  E1E4    L744:	LDI ZL,$14
003A70  93EA    	ST -Y,ZL
003A71  E0E1    	LDI ZL,$01
003A72  93EA    	ST -Y,ZL
003A73  D6BF    	RCALL L569
003A74  E0E0    	LDI ZL,$00
003A75  93E0    	STS $06C5,ZL
003A76  06C5
003A77  91E0    	LDS ZL,$06B8
003A78  06B8
003A79  93EA    	ST -Y,ZL
003A7A  D566    	RCALL L546
003A7B  91E0    	LDS ZL,$06B8
003A7C  06B8
003A7D  91A0    	LDS XL,$06C5
003A7E  06C5
003A7F  27EA    	EOR ZL,XL
003A80  93E0    	STS $06C5,ZL
003A81  06C5
003A82  93EA    	ST -Y,ZL
003A83  D55D    	RCALL L546
003A84  E0E0    	LDI ZL,$00
003A85  93E0    	STS $06BB,ZL
003A86  06BB
003A87  93E0    	STS $06BC,ZL
003A88  06BC
003A89  94E8    	BCLR 6
003A8A  F824    	BLD R2,4
003A8B  9ADE    	SBI PORTA,PA6
003A8C  9A56    	SBI UCSR0B,TXCIE0
003A8D  B7E9    	IN ZL,EIMSK
003A8E  64E0    	ORI ZL,$40
003A8F  BFE9    	OUT EIMSK,ZL
003A90  9468    	BSET 6
003A91  F832    	BLD R3,2
003A92  E0AE    	LDI XL,$0E
003A93  E0B0    	LDI XH,$00
003A94  940E    	CALL L544
003A95  6B16
003A96  93E0    	STS $06E1,ZL
003A97  06E1
003A98  E1A3    	LDI XL,$13
003A99  E0B0    	LDI XH,$00
003A9A  940E    	CALL L544
003A9B  6B16
003A9C  93E0    	STS $06E2,ZL
003A9D  06E2
003A9E  E1A8    	LDI XL,$18
003A9F  E0B0    	LDI XH,$00
003AA0  940E    	CALL L544
003AA1  6B16
003AA2  93E0    	STS $06E3,ZL
003AA3  06E3
003AA4  91E0    	LDS ZL,$06B8
003AA5  06B8
003AA6  93E0    	STS $06E4,ZL
003AA7  06E4
003AA8  9109    	LD R16,Y+
003AA9  9119    	LD R17,Y+
003AAA  91E9    	LD ZL,Y+
003AAB  BFEF    	OUT SREG,ZL
003AAC  91E9    	LD ZL,Y+
003AAD  BFEB    	OUT RAMPZ,ZL
003AAE  91F9    	LD ZH,Y+
003AAF  91E9    	LD ZL,Y+
003AB0  91B9    	LD XH,Y+
003AB1  91A9    	LD XL,Y+
003AB2  9199    	LD R25,Y+
003AB3  9189    	LD R24,Y+
003AB4  9179    	LD R23,Y+
003AB5  9169    	LD R22,Y+
003AB6  90F9    	LD R15,Y+
003AB7  9019    	LD R1,Y+
003AB8  9009    	LD R0,Y+
003AB9  9518    	RETI
003ABA  C021    L743:	RJMP L650
003ABB  31E4    L741:	CPI ZL,$14
003ABC  E0A5    	LDI XL,$05
003ABD  07FA    	CPC ZH,XL
003ABE  F419    	BRNE L745
003ABF  940E    	CALL L653
003AC0  2EAC
003AC1  C022    	RJMP L651
003AC2  31E5    L745:	CPI ZL,$15
003AC3  E0A5    	LDI XL,$05
003AC4  07FA    	CPC ZH,XL
003AC5  F419    	BRNE L746
003AC6  940E    	CALL L679
003AC7  30E3
003AC8  C01B    	RJMP L651
003AC9  31E6    L746:	CPI ZL,$16
003ACA  E0A5    	LDI XL,$05
003ACB  07FA    	CPC ZH,XL
003ACC  F419    	BRNE L747
003ACD  940E    	CALL L681
003ACE  3111
003ACF  C014    	RJMP L651
003AD0  31E7    L747:	CPI ZL,$17
003AD1  E0A5    	LDI XL,$05
003AD2  07FA    	CPC ZH,XL
003AD3  F481    	BRNE L651
003AD4  91E0    	LDS ZL,$06C6
003AD5  06C6
003AD6  91A0    	LDS XL,$06C5
003AD7  06C5
003AD8  17EA    	CP ZL,XL
003AD9  F411    	BRNE L650
003ADA  9468    	BSET 6
003ADB  F835    	BLD R3,5
003ADC  E0E0    L650:	LDI ZL,$00
003ADD  93E0    	STS $06BB,ZL
003ADE  06BB
003ADF  93E0    	STS $06BC,ZL
003AE0  06BC
003AE1  94E8    	BCLR 6
003AE2  F824    	BLD R2,4
003AE3  9ADE    	SBI PORTA,PA6
003AE4  9A56    L651:	SBI UCSR0B,TXCIE0
003AE5  B7E9    	IN ZL,EIMSK
003AE6  64E0    	ORI ZL,$40
003AE7  BFE9    	OUT EIMSK,ZL
003AE8  9109    	LD R16,Y+
003AE9  9119    	LD R17,Y+
003AEA  91E9    	LD ZL,Y+
003AEB  BFEF    	OUT SREG,ZL
003AEC  91E9    	LD ZL,Y+
003AED  BFEB    	OUT RAMPZ,ZL
003AEE  91F9    	LD ZH,Y+
003AEF  91E9    	LD ZL,Y+
003AF0  91B9    	LD XH,Y+
003AF1  91A9    	LD XL,Y+
003AF2  9199    	LD R25,Y+
003AF3  9189    	LD R24,Y+
003AF4  9179    	LD R23,Y+
003AF5  9169    	LD R22,Y+
003AF6  90F9    	LD R15,Y+
003AF7  9019    	LD R1,Y+
003AF8  9009    	LD R0,Y+
003AF9  9518    	RETI
003AFA  920A    L5:	ST -Y,R0
003AFB  93AA    	ST -Y,XL
003AFC  93BA    	ST -Y,XH
003AFD  93EA    	ST -Y,ZL
003AFE  93FA    	ST -Y,ZH
003AFF  B7EF    	IN ZL,SREG
003B00  93EA    	ST -Y,ZL
003B01  E1E9    	LDI ZL,$19
003B02  BFE2    	OUT TCNT0,ZL
003B03  91A0    	LDS XL,$06D2
003B04  06D2
003B05  91B0    	LDS XH,$06D3
003B06  06D3
003B07  9611    	ADIW XH:XL,1
003B08  93A0    	STS $06D2,XL
003B09  06D2
003B0A  93B0    	STS $06D3,XH
003B0B  06D3
003B0C  3EA8    	CPI XL,$E8
003B0D  E0E3    	LDI ZL,$03
003B0E  07BE    	CPC XH,ZL
003B0F  F410    	BRCC L748
003B10  940C    	JMP L749
003B11  3B54
003B12  E0E0    L748:	LDI ZL,$00
003B13  93E0    	STS $06D2,ZL
003B14  06D2
003B15  93E0    	STS $06D3,ZL
003B16  06D3
003B17  91A0    	LDS XL,$06D7
003B18  06D7
003B19  91B0    	LDS XH,$06D8
003B1A  06D8
003B1B  940E    	CALL L750
003B1C  6CAE
003B1D  F448    	BRCC L751
003B1E  91E0    	LDS ZL,$06D7
003B1F  06D7
003B20  91F0    	LDS ZH,$06D8
003B21  06D8
003B22  9731    	SBIW ZH:ZL,1
003B23  93E0    	STS $06D7,ZL
003B24  06D7
003B25  93F0    	STS $06D8,ZH
003B26  06D8
003B27  91A0    L751:	LDS XL,$06D4
003B28  06D4
003B29  5FAF    	SUBI XL,$FF
003B2A  93A0    	STS $06D4,XL
003B2B  06D4
003B2C  33AC    	CPI XL,$3C
003B2D  F130    	BRCS L749
003B2E  E0E0    	LDI ZL,$00
003B2F  93E0    	STS $06D4,ZL
003B30  06D4
003B31  91A0    	LDS XL,$06D9
003B32  06D9
003B33  91B0    	LDS XH,$06DA
003B34  06DA
003B35  940E    	CALL L750
003B36  6CAE
003B37  F448    	BRCC L752
003B38  91E0    	LDS ZL,$06D9
003B39  06D9
003B3A  91F0    	LDS ZH,$06DA
003B3B  06DA
003B3C  9731    	SBIW ZH:ZL,1
003B3D  93E0    	STS $06D9,ZL
003B3E  06D9
003B3F  93F0    	STS $06DA,ZH
003B40  06DA
003B41  91A0    L752:	LDS XL,$06D5
003B42  06D5
003B43  5FAF    	SUBI XL,$FF
003B44  93A0    	STS $06D5,XL
003B45  06D5
003B46  33AC    	CPI XL,$3C
003B47  F060    	BRCS L749
003B48  E0E0    	LDI ZL,$00
003B49  93E0    	STS $06D5,ZL
003B4A  06D5
003B4B  91A0    	LDS XL,$06D6
003B4C  06D6
003B4D  5FAF    	SUBI XL,$FF
003B4E  93A0    	STS $06D6,XL
003B4F  06D6
003B50  31A8    	CPI XL,$18
003B51  F010    	BRCS L749
003B52  93E0    	STS $06D6,ZL
003B53  06D6
003B54  91E9    L749:	LD ZL,Y+
003B55  BFEF    	OUT SREG,ZL
003B56  91F9    	LD ZH,Y+
003B57  91E9    	LD ZL,Y+
003B58  91B9    	LD XH,Y+
003B59  91A9    	LD XL,Y+
003B5A  9009    	LD R0,Y+
003B5B  9518    	RETI
003B5C  920A    L4:	ST -Y,R0
003B5D  921A    	ST -Y,R1
003B5E  92FA    	ST -Y,R15
003B5F  936A    	ST -Y,R22
003B60  937A    	ST -Y,R23
003B61  938A    	ST -Y,R24
003B62  939A    	ST -Y,R25
003B63  93AA    	ST -Y,XL
003B64  93BA    	ST -Y,XH
003B65  93EA    	ST -Y,ZL
003B66  93FA    	ST -Y,ZH
003B67  B7EB    	IN ZL,RAMPZ
003B68  93EA    	ST -Y,ZL
003B69  B7EF    	IN ZL,SREG
003B6A  93EA    	ST -Y,ZL
003B6B  91E0    	LDS ZL,$0855
003B6C  0855
003B6D  91F0    	LDS ZH,$0856
003B6E  0856
003B6F  91A0    	LDS XL,$06EA
003B70  06EA
003B71  91B0    	LDS XH,$06EB
003B72  06EB
003B73  17EA    	CP ZL,XL
003B74  07FB    	CPC ZH,XH
003B75  F4E9    	BRNE L753
003B76  E0E0    	LDI ZL,$00
003B77  93E0    	STS $06EA,ZL
003B78  06EA
003B79  93E0    	STS $06EB,ZL
003B7A  06EB
003B7B  9ADD    	SBI PORTA,PA5
003B7C  94E8    	BCLR 6
003B7D  F820    	BLD R2,0
003B7E  B7E7    	IN ZL,TIMSK
003B7F  7FEB    	ANDI ZL,$FB
003B80  BFE7    	OUT TIMSK,ZL
003B81  E0E0    	LDI ZL,$00
003B82  BDEE    	OUT TCCR1B,ZL
003B83  91E9    	LD ZL,Y+
003B84  BFEF    	OUT SREG,ZL
003B85  91E9    	LD ZL,Y+
003B86  BFEB    	OUT RAMPZ,ZL
003B87  91F9    	LD ZH,Y+
003B88  91E9    	LD ZL,Y+
003B89  91B9    	LD XH,Y+
003B8A  91A9    	LD XL,Y+
003B8B  9199    	LD R25,Y+
003B8C  9189    	LD R24,Y+
003B8D  9179    	LD R23,Y+
003B8E  9169    	LD R22,Y+
003B8F  90F9    	LD R15,Y+
003B90  9019    	LD R1,Y+
003B91  9009    	LD R0,Y+
003B92  9518    	RETI
003B93  91E0    L753:	LDS ZL,$06EC
003B94  06EC
003B95  91F0    	LDS ZH,$06ED
003B96  06ED
003B97  BDFD    	OUT TCNT1H,ZH
003B98  BDEC    	OUT TCNT1L,ZL
003B99  B7E6    	IN ZL,TIFR
003B9A  60E4    	ORI ZL,$04
003B9B  BFE6    	OUT TIFR,ZL
003B9C  B7E7    	IN ZL,TIMSK
003B9D  60E4    	ORI ZL,$04
003B9E  BFE7    	OUT TIMSK,ZL
003B9F  940E    	CALL L754
003BA0  492A
003BA1  940E    	CALL L755
003BA2  49B0
003BA3  91E9    	LD ZL,Y+
003BA4  BFEF    	OUT SREG,ZL
003BA5  91E9    	LD ZL,Y+
003BA6  BFEB    	OUT RAMPZ,ZL
003BA7  91F9    	LD ZH,Y+
003BA8  91E9    	LD ZL,Y+
003BA9  91B9    	LD XH,Y+
003BAA  91A9    	LD XL,Y+
003BAB  9199    	LD R25,Y+
003BAC  9189    	LD R24,Y+
003BAD  9179    	LD R23,Y+
003BAE  9169    	LD R22,Y+
003BAF  90F9    	LD R15,Y+
003BB0  9019    	LD R1,Y+
003BB1  9009    	LD R0,Y+
003BB2  9518    	RETI
003BB3  920A    L3:	ST -Y,R0
003BB4  921A    	ST -Y,R1
003BB5  936A    	ST -Y,R22
003BB6  937A    	ST -Y,R23
003BB7  93AA    	ST -Y,XL
003BB8  93BA    	ST -Y,XH
003BB9  93EA    	ST -Y,ZL
003BBA  93FA    	ST -Y,ZH
003BBB  B7EF    	IN ZL,SREG
003BBC  93EA    	ST -Y,ZL
003BBD  940E    	CALL L593
003BBE  6CB9
003BBF  B504    	IN R16,TCNT2
003BC0  E0E0    	LDI ZL,$00
003BC1  BDE4    	OUT TCNT2,ZL
003BC2  91A0    	LDS XL,$06E5
003BC3  06E5
003BC4  3FAF    	CPI XL,$FF
003BC5  F4D1    	BRNE L756
003BC6  330F    	CPI R16,$3F
003BC7  F010    	BRCS L757
003BC8  3502    	CPI R16,$52
003BC9  F008    	BRCS L758
003BCA  C014    L757:	RJMP L759
003BCB  94E8    L758:	BCLR 6
003BCC  F832    	BLD R3,2
003BCD  E0E0    	LDI ZL,$00
003BCE  93E0    	STS $06E5,ZL
003BCF  06E5
003BD0  E010    	LDI R17,$00
003BD1  E020    	LDI R18,$00
003BD2  3014    L760:	CPI R17,$04
003BD3  E0E0    	LDI ZL,$00
003BD4  072E    	CPC R18,ZL
003BD5  F448    	BRCC L759
003BD6  EEA1    	LDI XL,$E1
003BD7  E0B6    	LDI XH,$06
003BD8  0FA1    	ADD XL,R17
003BD9  1FB2    	ADC XH,R18
003BDA  E0E0    	LDI ZL,$00
003BDB  93EC    	ST X,ZL
003BDC  5F1F    	SUBI R17,$FF
003BDD  4F2F    	SBCI R18,$FF
003BDE  CFF3    	RJMP L760
003BDF  C037    L759:	RJMP L761
003BE0  300A    L756:	CPI R16,$0A
003BE1  F010    	BRCS L762
003BE2  3103    	CPI R16,$13
003BE3  F008    	BRCS L763
003BE4  C004    L762:	RJMP L764
003BE5  91E0    L763:	LDS ZL,$06E5
003BE6  06E5
003BE7  5FEF    	SUBI ZL,$FF
003BE8  C023    	RJMP L765
003BE9  3103    L764:	CPI R16,$13
003BEA  F010    	BRCS L766
003BEB  310B    	CPI R16,$1B
003BEC  F008    	BRCS L767
003BED  C01D    L766:	RJMP L768
003BEE  91E0    L767:	LDS ZL,$06E5
003BEF  06E5
003BF0  30E0    	CPI ZL,$00
003BF1  F091    	BREQ L769
003BF2  95E6    	LSR ZL
003BF3  95E6    	LSR ZL
003BF4  95E6    	LSR ZL
003BF5  E0F0    	LDI ZH,$00
003BF6  51EF    	SUBI ZL,$1F
003BF7  4FF9    	SBCI ZH,$F9
003BF8  01BF    	MOVW R23:R22,R31:R30
003BF9  8010    	LD R1,Z
003BFA  91E0    	LDS ZL,$06E5
003BFB  06E5
003BFC  70E7    	ANDI ZL,$07
003BFD  E0A1    	LDI XL,$01
003BFE  940E    	CALL L770
003BFF  6AA3
003C00  29E1    	OR ZL,R1
003C01  01DB    	MOVW R27:R26,R23:R22
003C02  93EC    	ST X,ZL
003C03  C003    	RJMP L771
003C04  E0E1    L769:	LDI ZL,$01
003C05  93E0    	STS $06E1,ZL
003C06  06E1
003C07  91E0    L771:	LDS ZL,$06E5
003C08  06E5
003C09  5FEF    	SUBI ZL,$FF
003C0A  C001    	RJMP L765
003C0B  EFEF    L768:	LDI ZL,$FF
003C0C  93E0    L765:	STS $06E5,ZL
003C0D  06E5
003C0E  91A0    	LDS XL,$06E5
003C0F  06E5
003C10  32A0    	CPI XL,$20
003C11  F429    	BRNE L761
003C12  9468    	BSET 6
003C13  F832    	BLD R3,2
003C14  EFEF    	LDI ZL,$FF
003C15  93E0    	STS $06E5,ZL
003C16  06E5
003C17  940E    L761:	CALL L604
003C18  6CC0
003C19  9623    	ADIW YH:YL,3
003C1A  91E9    	LD ZL,Y+
003C1B  BFEF    	OUT SREG,ZL
003C1C  91F9    	LD ZH,Y+
003C1D  91E9    	LD ZL,Y+
003C1E  91B9    	LD XH,Y+
003C1F  91A9    	LD XL,Y+
003C20  9179    	LD R23,Y+
003C21  9169    	LD R22,Y+
003C22  9019    	LD R1,Y+
003C23  9009    	LD R0,Y+
003C24  9518    	RETI
003C25  920A    L8:	ST -Y,R0
003C26  921A    	ST -Y,R1
003C27  93AA    	ST -Y,XL
003C28  93EA    	ST -Y,ZL
003C29  93FA    	ST -Y,ZH
003C2A  B7EF    	IN ZL,SREG
003C2B  93EA    	ST -Y,ZL
003C2C  931A    	ST -Y,R17
003C2D  930A    	ST -Y,R16
003C2E  B0B5    	IN R11,ADCH
003C2F  2DE4    	MOV ZL,R4
003C30  30E0    	CPI ZL,$00
003C31  F411    	BRNE L772
003C32  2C9B    	MOV R9,R11
003C33  C014    	RJMP L773
003C34  30E1    L772:	CPI ZL,$01
003C35  F451    	BRNE L774
003C36  2D0B    	MOV R16,R11
003C37  2711    	CLR R17
003C38  E3A9    	LDI XL,$39     (0x39=057)
003C39  9FA0    	MUL XL,R16
003C3A  01F0    	MOVW R31:R30,R1:R0
003C3B  9FA1    	MUL XL,R17
003C3C  0DF0    	ADD ZH,R0
003C3D  2E5E    	MOV R5,ZL
003C3E  2E6F    	MOV R6,ZH
003C3F  C008    	RJMP L773
003C40  30EF    L774:	CPI ZL,$0F
003C41  F431    	BRNE L773
003C42  EEE6    	LDI ZL,$E6
003C43  16BE    	CP R11,ZL
003C44  F410    	BRCC L775
003C45  2CAB    	MOV R10,R11
003C46  C001    	RJMP L773
003C47  24AA    L775:	CLR R10
003C48  94E8    L773:	BCLR 6
003C49  F827    	BLD R2,7
003C4A  9109    	LD R16,Y+
003C4B  9119    	LD R17,Y+
003C4C  91E9    	LD ZL,Y+
003C4D  BFEF    	OUT SREG,ZL
003C4E  91F9    	LD ZH,Y+
003C4F  91E9    	LD ZL,Y+
003C50  91A9    	LD XL,Y+
003C51  9019    	LD R1,Y+
003C52  9009    	LD R0,Y+
003C53  9518    	RETI
003C54  2DE4    L1339:	MOV ZL,R4
003C55  62E0    	ORI ZL,$20
003C56  B9E7    	OUT ADMUX,ZL
003C57  81E8    	LD ZL,Y
003C58  B9E6    	OUT ADCSRA,ZL
003C59  9621    	ADIW YH:YL,1
003C5A  9508    	RET
003C5B  FC24    L785:	SBRC R2,4
003C5C  9508    	RET
003C5D  FE25    	SBRS R2,5
003C5E  C022    	RJMP L776
003C5F  E1EC    	LDI ZL,$1C
003C60  E2F5    	LDI ZH,$25
003C61  165E    	CP R5,ZL
003C62  066F    	CPC R6,ZH
003C63  F030    	BRCS L777
003C64  E0E0    	LDI ZL,$00
003C65  93E0    	STS $06DD,ZL
003C66  06DD
003C67  93E0    	STS $06DE,ZL
003C68  06DE
003C69  C009    	RJMP L778
003C6A  91E0    L777:	LDS ZL,$06DD
003C6B  06DD
003C6C  91F0    	LDS ZH,$06DE
003C6D  06DE
003C6E  9631    	ADIW ZH:ZL,1
003C6F  93E0    	STS $06DD,ZL
003C70  06DD
003C71  93F0    	STS $06DE,ZH
003C72  06DE
003C73  91A0    L778:	LDS XL,$06DD
003C74  06DD
003C75  91B0    	LDS XH,$06DE
003C76  06DE
003C77  9717    	SBIW XH:XL,7
003C78  F038    	BRCS L779
003C79  94E8    	BCLR 6
003C7A  F825    	BLD R2,5
003C7B  E0E0    	LDI ZL,$00
003C7C  93E0    	STS $06DD,ZL
003C7D  06DD
003C7E  93E0    	STS $06DE,ZL
003C7F  06DE
003C80  C026    L779:	RJMP L780
003C81  E1EC    L776:	LDI ZL,$1C
003C82  E2F5    	LDI ZH,$25
003C83  165E    	CP R5,ZL
003C84  066F    	CPC R6,ZH
003C85  F078    	BRCS L781
003C86  E0E0    	LDI ZL,$00
003C87  93E0    	STS $06DD,ZL
003C88  06DD
003C89  93E0    	STS $06DE,ZL
003C8A  06DE
003C8B  91E0    	LDS ZL,$06DB
003C8C  06DB
003C8D  91F0    	LDS ZH,$06DC
003C8E  06DC
003C8F  9631    	ADIW ZH:ZL,1
003C90  93E0    	STS $06DB,ZL
003C91  06DB
003C92  93F0    	STS $06DC,ZH
003C93  06DC
003C94  C005    	RJMP L782
003C95  E0E0    L781:	LDI ZL,$00
003C96  93E0    	STS $06DB,ZL
003C97  06DB
003C98  93E0    	STS $06DC,ZL
003C99  06DC
003C9A  91A0    L782:	LDS XL,$06DB
003C9B  06DB
003C9C  91B0    	LDS XH,$06DC
003C9D  06DC
003C9E  9713    	SBIW XH:XL,3
003C9F  F038    	BRCS L780
003CA0  9468    	BSET 6
003CA1  F825    	BLD R2,5
003CA2  E0E0    	LDI ZL,$00
003CA3  93E0    	STS $06DB,ZL
003CA4  06DB
003CA5  93E0    	STS $06DC,ZL
003CA6  06DC
003CA7  9508    L780:	RET
003CA8  9468    L1304:	BSET 6
003CA9  F826    	BLD R2,6
003CAA  E0E5    	LDI ZL,$05
003CAB  E0F0    	LDI ZH,$00
003CAC  93E0    	STS $06D9,ZL
003CAD  06D9
003CAE  93F0    	STS $06DA,ZH
003CAF  06DA
003CB0  91E0    L786:	LDS ZL,$06D9
003CB1  06D9
003CB2  91F0    	LDS ZH,$06DA
003CB3  06DA
003CB4  9730    	SBIW ZH:ZL,0
003CB5  F161    	BREQ L783
003CB6  9AAF    	SBI PORTC,PC7
003CB7  91E0    	LDS ZL,$0065
003CB8  0065
003CB9  7FEB    	ANDI ZL,$FB
003CBA  93E0    	STS $0065,ZL
003CBB  0065
003CBC  940E    	CALL L784
003CBD  693E
003CBE  940E    	CALL L785
003CBF  3C5B
003CC0  FE25    	SBRS R2,5
003CC1  C020    	RJMP L783
003CC2  9AC4    	SBI PORTB,PB4
003CC3  E2E8    	LDI ZL,$28
003CC4  E0F0    	LDI ZH,$00
003CC5  93FA    	ST -Y,ZH
003CC6  93EA    	ST -Y,ZL
003CC7  940E    	CALL L537
003CC8  6A4C
003CC9  98C4    	CBI PORTB,PB4
003CCA  ECEC    	LDI ZL,$CC
003CCB  E0F1    	LDI ZH,$01
003CCC  93FA    	ST -Y,ZH
003CCD  93EA    	ST -Y,ZL
003CCE  940E    	CALL L537
003CCF  6A4C
003CD0  91E0    	LDS ZL,$0065
003CD1  0065
003CD2  60E4    	ORI ZL,$04
003CD3  93E0    	STS $0065,ZL
003CD4  0065
003CD5  940E    	CALL L784
003CD6  693E
003CD7  940E    	CALL L785
003CD8  3C5B
003CD9  FE25    	SBRS R2,5
003CDA  C007    	RJMP L783
003CDB  EFE4    	LDI ZL,$F4
003CDC  E0F1    	LDI ZH,$01
003CDD  93FA    	ST -Y,ZH
003CDE  93EA    	ST -Y,ZL
003CDF  940E    	CALL L537
003CE0  6A4C
003CE1  CFCE    	RJMP L786
003CE2  E5E5    L783:	LDI ZL,$55
003CE3  E0F0    	LDI ZH,$00
003CE4  93E0    	STS $06D9,ZL
003CE5  06D9
003CE6  93F0    	STS $06DA,ZH
003CE7  06DA
003CE8  91E0    L792:	LDS ZL,$06D9
003CE9  06D9
003CEA  91F0    	LDS ZH,$06DA
003CEB  06DA
003CEC  9730    	SBIW ZH:ZL,0
003CED  F129    	BREQ L787
003CEE  9AAF    	SBI PORTC,PC7
003CEF  91A0    	LDS XL,$06D2
003CF0  06D2
003CF1  91B0    	LDS XH,$06D3
003CF2  06D3
003CF3  3FA5    	CPI XL,$F5
003CF4  E0E1    	LDI ZL,$01
003CF5  07BE    	CPC XH,ZL
003CF6  F020    	BRCS L788
003CF7  91E0    	LDS ZL,$0065
003CF8  0065
003CF9  7FEB    	ANDI ZL,$FB
003CFA  C003    	RJMP L789
003CFB  91E0    L788:	LDS ZL,$0065
003CFC  0065
003CFD  60E4    	ORI ZL,$04
003CFE  93E0    L789:	STS $0065,ZL
003CFF  0065
003D00  91A0    	LDS XL,$06D2
003D01  06D2
003D02  91B0    	LDS XH,$06D3
003D03  06D3
003D04  940E    	CALL L750
003D05  6CAE
003D06  F021    	BREQ L790
003D07  3FA4    	CPI XL,$F4
003D08  E0E1    	LDI ZL,$01
003D09  07BE    	CPC XH,ZL
003D0A  F421    	BRNE L791
003D0B  940E    L790:	CALL L784
003D0C  693E
003D0D  940E    	CALL L785
003D0E  3C5B
003D0F  FE25    L791:	SBRS R2,5
003D10  C002    	RJMP L787
003D11  9AC4    	SBI PORTB,PB4
003D12  CFD5    	RJMP L792
003D13  98C4    L787:	CBI PORTB,PB4
003D14  94E8    	BCLR 6
003D15  F826    	BLD R2,6
003D16  9508    	RET

/*******************************************************************

HW_init()

*******************************************************************/

003D17  E0E3    L840:	LDI ZL,$03
003D18  BBEB    	OUT PORTA,ZL
003D19  EFEC    	LDI ZL,$FC
003D1A  BBEA    	OUT DDRA,ZL
003D1B  E0E0    	LDI ZL,$00
003D1C  BBE8    	OUT PORTB,ZL
003D1D  E7E4    	LDI ZL,$74
003D1E  BBE7    	OUT DDRB,ZL
003D1F  E0E0    	LDI ZL,$00
003D20  BBE5    	OUT PORTC,ZL
003D21  E8E0    	LDI ZL,$80
003D22  BBE4    	OUT DDRC,ZL
003D23  E0E3    	LDI ZL,$03
003D24  BBE2    	OUT PORTD,ZL
003D25  E0E0    	LDI ZL,$00
003D26  BBE1    	OUT DDRD,ZL
003D27  E3E0    	LDI ZL,$30
003D28  B9E3    	OUT PORTE,ZL
003D29  E0E8    	LDI ZL,$08
003D2A  B9E2    	OUT DDRE,ZL
003D2B  E0E0    	LDI ZL,$00
003D2C  93E0    	STS $0062,ZL
003D2D  0062
003D2E  93E0    	STS $0061,ZL
003D2F  0061
003D30  93E0    	STS $0065,ZL
003D31  0065
003D32  E0E4    	LDI ZL,$04
003D33  93E0    	STS $0064,ZL
003D34  0064
003D35  E0E0    	LDI ZL,$00
003D36  BFE0    	OUT ASSR,ZL
003D37  E0E4    	LDI ZL,$04
003D38  BFE3    	OUT TCCR0,ZL
003D39  E0E0    	LDI ZL,$00
003D3A  BFE2    	OUT TCNT0,ZL
003D3B  BFE1    	OUT OCR0,ZL
003D3C  BDEF    	OUT TCCR1A,ZL
003D3D  E0E5    	LDI ZL,$05
003D3E  BDEE    	OUT TCCR1B,ZL
003D3F  E0E0    	LDI ZL,$00
003D40  BDED    	OUT TCNT1H,ZL
003D41  BDEC    	OUT TCNT1L,ZL
003D42  BDE7    	OUT ICR1H,ZL
003D43  BDE6    	OUT ICR1L,ZL
003D44  BDEB    	OUT OCR1AH,ZL
003D45  BDEA    	OUT OCR1AL,ZL
003D46  BDE9    	OUT OCR1BH,ZL
003D47  BDE8    	OUT OCR1BL,ZL
003D48  93E0    	STS $0079,ZL
003D49  0079
003D4A  93E0    	STS $0078,ZL
003D4B  0078
003D4C  E0E5    	LDI ZL,$05
003D4D  BDE5    	OUT TCCR2,ZL
003D4E  E0E0    	LDI ZL,$00
003D4F  BDE4    	OUT TCNT2,ZL
003D50  BDE3    	OUT OCR2,ZL
003D51  93E0    	STS $008B,ZL
003D52  008B
003D53  E0E3    	LDI ZL,$03
003D54  93E0    	STS $008A,ZL
003D55  008A
003D56  E0E0    	LDI ZL,$00
003D57  93E0    	STS $0089,ZL
003D58  0089
003D59  93E0    	STS $0088,ZL
003D5A  0088
003D5B  93E0    	STS $0081,ZL
003D5C  0081
003D5D  93E0    	STS $0080,ZL
003D5E  0080
003D5F  93E0    	STS $0087,ZL
003D60  0087
003D61  93E0    	STS $0086,ZL
003D62  0086
003D63  93E0    	STS $0085,ZL
003D64  0085
003D65  93E0    	STS $0084,ZL
003D66  0084
003D67  93E0    	STS $0083,ZL
003D68  0083
003D69  93E0    	STS $0082,ZL
003D6A  0082
003D6B  93E0    	STS $006A,ZL
003D6C  006A
003D6D  E2E0    	LDI ZL,$20
003D6E  BFEA    	OUT EICRB,ZL
003D6F  E4E0    	LDI ZL,$40
003D70  BFE9    	OUT EIMSK,ZL
003D71  BFE8    	OUT EIFR,ZL
003D72  E0E0    	LDI ZL,$00
003D73  BFE7    	OUT TIMSK,ZL
003D74  93E0    	STS $007D,ZL
003D75  007D
003D76  B9EB    	OUT UCSR0A,ZL
003D77  E9E8    	LDI ZL,$98
003D78  B9EA    	OUT UCSR0B,ZL
003D79  E0E6    	LDI ZL,$06
003D7A  93E0    	STS $0095,ZL
003D7B  0095
003D7C  E0E0    	LDI ZL,$00
003D7D  93E0    	STS $0090,ZL
003D7E  0090
003D7F  E0E7    	LDI ZL,$07
003D80  B9E9    	OUT UBRR0L,ZL
003D81  E0E0    	LDI ZL,$00
003D82  93E0    	STS $009B,ZL
003D83  009B
003D84  E9E8    	LDI ZL,$98
003D85  93E0    	STS $009A,ZL
003D86  009A
003D87  E0E6    	LDI ZL,$06
003D88  93E0    	STS $009D,ZL
003D89  009D
003D8A  E0E0    	LDI ZL,$00
003D8B  93E0    	STS $0098,ZL
003D8C  0098
003D8D  E0E7    	LDI ZL,$07
003D8E  93E0    	STS $0099,ZL
003D8F  0099
003D90  E8E0    	LDI ZL,$80
003D91  B9E8    	OUT ACSR,ZL
003D92  E0E0    	LDI ZL,$00
003D93  BDE0    	OUT SFIOR,ZL
003D94  E2E0    	LDI ZL,$20
003D95  B9E7    	OUT ADMUX,ZL
003D96  E0E0    	LDI ZL,$00
003D97  B9E6    	OUT ADCSRA,ZL
003D98  93E0    	STS $0074,ZL
003D99  0074
003D9A  9508    	RET

/*******************************************************************

SW_init()

*******************************************************************/

003D9B  9ADA    L841:	SBI PORTA,PA2
003D9C  9ADB    	SBI PORTA,PA3
003D9D  9ADC    	SBI PORTA,PA4
003D9E  91E0    	LDS ZL,$0065
003D9F  0065
003DA0  60E4    	ORI ZL,$04
003DA1  93E0    	STS $0065,ZL
003DA2  0065
003DA3  9AAF    	SBI PORTC,PC7
003DA4  9ADD    	SBI PORTA,PA5
003DA5  9ADE    	SBI PORTA,PA6
003DA6  9ADF    	SBI PORTA,PA7
003DA7  E2AD    	LDI XL,$2D
003DA8  E0B0    	LDI XH,$00
003DA9  940E    	CALL L544
003DAA  6B16
003DAB  2ECE    	MOV R12,ZL
003DAC  94E8    	BCLR 6
003DAD  F820    	BLD R2,0
003DAE  F821    	BLD R2,1
003DAF  F823    	BLD R2,3
003DB0  F822    	BLD R2,2
003DB1  F826    	BLD R2,6
003DB2  F830    	BLD R3,0
003DB3  EFEF    	LDI ZL,$FF
003DB4  2EDE    	MOV R13,ZL
003DB5  F824    	BLD R2,4
003DB6  E0E0    	LDI ZL,$00
003DB7  93E0    	STS $069B,ZL
003DB8  069B
003DB9  93E0    	STS $069D,ZL
003DBA  069D
003DBB  98C5    	CBI PORTB,PB5      PSD off
003DBC  E0E0    	LDI ZL,$00
003DBD  93E0    	STS $06D2,ZL      millsecond count = 0
003DBE  06D2
003DBF  93E0    	STS $06D3,ZL
003DC0  06D3
003DC1  E0E0    	LDI ZL,$00         Zero timer
003DC2  93E0    	STS $06D4,ZL       SS
003DC3  06D4
003DC4  93E0    	STS $06D5,ZL       MM
003DC5  06D5
003DC6  93E0    	STS $06D6,ZL       HH
003DC7  06D6
003DC8  F825    	BLD R2,5
003DC9  F831    	BLD R3,1
003DCA  F832    	BLD R3,2
003DCB  24EE    	CLR R14
003DCC  9AC2    	SBI PORTB,PB2
003DCD  93E0    	STS $094C,ZL
003DCE  094C
003DCF  93E0    	STS $094D,ZL
003DD0  094D
003DD1  9468    	BSET 6
003DD2  F833    	BLD R3,3
003DD3  94E8    	BCLR 6
003DD4  F834    	BLD R3,4
003DD5  F835    	BLD R3,5
003DD6  9508    	RET

//////////////////////////////////////

Special Mode

/////////////////////////////////////

003DD7  931A    L843:	ST -Y,R17
003DD8  930A    	ST -Y,R16
003DD9  E0E1    	LDI ZL,$01
003DDA  15EC    	CP ZL,R12
003DDB  F4F1    	BRNE L793
003DDC  E000    	LDI R16,$00
003DDD  E010    	LDI R17,$00
003DDE  3100    L796:	CPI R16,$10
003DDF  E0E0    	LDI ZL,$00
003DE0  071E    	CPC R17,ZL
003DE1  F4BC    	BRGE L794
003DE2  930A    	ST -Y,R16
003DE3  01F8    	MOVW R31:R30,R17:R16
003DE4  2766    	CLR R22
003DE5  2777    	CLR R23
003DE6  55E4    	SUBI ZL,$54
003DE7  4FFF    	SBCI ZH,$FF
003DE8  4F6F    	SBCI R22,$FF
003DE9  BF6B    	OUT RAMPZ,R22
003DEA  91E6    	ELPM ZL,Z
003DEB  93EA    	ST -Y,ZL
003DEC  01F8    	MOVW R31:R30,R17:R16
003DED  2766    	CLR R22
003DEE  2777    	CLR R23
003DEF  56E4    	SUBI ZL,$64
003DF0  4FFF    	SBCI ZH,$FF
003DF1  4F6F    	SBCI R22,$FF
003DF2  BF6B    	OUT RAMPZ,R22
003DF3  91E6    	ELPM ZL,Z
003DF4  93EA    	ST -Y,ZL
003DF5  D29E    	RCALL L795            795???
003DF6  5F0F    	SUBI R16,$FF
003DF7  4F1F    	SBCI R17,$FF
003DF8  CFE5    	RJMP L796
003DF9  C054    L794:	RJMP L797
003DFA  E0E2    L793:	LDI ZL,$02
003DFB  15EC    	CP ZL,R12
003DFC  F4F1    	BRNE L798
003DFD  E000    	LDI R16,$00
003DFE  E010    	LDI R17,$00
003DFF  3100    L800:	CPI R16,$10
003E00  E0E0    	LDI ZL,$00
003E01  071E    	CPC R17,ZL
003E02  F4BC    	BRGE L799
003E03  930A    	ST -Y,R16
003E04  01F8    	MOVW R31:R30,R17:R16
003E05  2766    	CLR R22
003E06  2777    	CLR R23
003E07  53E4    	SUBI ZL,$34
003E08  4FFF    	SBCI ZH,$FF
003E09  4F6F    	SBCI R22,$FF
003E0A  BF6B    	OUT RAMPZ,R22
003E0B  91E6    	ELPM ZL,Z
003E0C  93EA    	ST -Y,ZL
003E0D  01F8    	MOVW R31:R30,R17:R16
003E0E  2766    	CLR R22
003E0F  2777    	CLR R23
003E10  54E4    	SUBI ZL,$44
003E11  4FFF    	SBCI ZH,$FF
003E12  4F6F    	SBCI R22,$FF
003E13  BF6B    	OUT RAMPZ,R22
003E14  91E6    	ELPM ZL,Z
003E15  93EA    	ST -Y,ZL
003E16  D27D    	RCALL L795
003E17  5F0F    	SUBI R16,$FF
003E18  4F1F    	SBCI R17,$FF
003E19  CFE5    	RJMP L800
003E1A  C033    L799:	RJMP L797
003E1B  E0E3    L798:	LDI ZL,$03
003E1C  15EC    	CP ZL,R12
003E1D  F4F1    	BRNE L801
003E1E  E000    	LDI R16,$00
003E1F  E010    	LDI R17,$00

003E20  3100    L803:	CPI R16,$10   // loop 16  times ?
003E21  E0E0    	LDI ZL,$00
003E22  071E    	CPC R17,ZL
003E23  F4BC    	BRGE L802
003E24  930A    	ST -Y,R16
003E25  01F8    	MOVW R31:R30,R17:R16
003E26  2766    	CLR R22
003E27  2777    	CLR R23
003E28  51E4    	SUBI ZL,$14
003E29  4FFF    	SBCI ZH,$FF
003E2A  4F6F    	SBCI R22,$FF
003E2B  BF6B    	OUT RAMPZ,R22
003E2C  91E6    	ELPM ZL,Z
003E2D  93EA    	ST -Y,ZL
003E2E  01F8    	MOVW R31:R30,R17:R16
003E2F  2766    	CLR R22
003E30  2777    	CLR R23
003E31  52E4    	SUBI ZL,$24
003E32  4FFF    	SBCI ZH,$FF
003E33  4F6F    	SBCI R22,$FF
003E34  BF6B    	OUT RAMPZ,R22
003E35  91E6    	ELPM ZL,Z
003E36  93EA    	ST -Y,ZL
003E37  D25C    	RCALL L795
003E38  5F0F    	SUBI R16,$FF
003E39  4F1F    	SBCI R17,$FF
003E3A  CFE5    	RJMP L803

003E3B  C012    L802:	RJMP L797
003E3C  E0E4    L801:	LDI ZL,$04
003E3D  15EC    	CP ZL,R12
003E3E  F479    	BRNE L797
003E3F  E000    	LDI R16,$00
003E40  E010    	LDI R17,$00
loop
003E41  3100    L804:	CPI R16,$10    loop 16 times
003E42  E0E0    	LDI ZL,$00
003E43  071E    	CPC R17,ZL
003E44  F44C    	BRGE L797
003E45  930A    	ST -Y,R16
003E46  E0E1    	LDI ZL,$01
003E47  93EA    	ST -Y,ZL
003E48  EFEE    	LDI ZL,$FE
003E49  93EA    	ST -Y,ZL
003E4A  D249    	RCALL L795
003E4B  5F0F    	SUBI R16,$FF
003E4C  4F1F    	SBCI R17,$FF
003E4D  CFF3    	RJMP L804


003E4E  D22C    L797:	RCALL L805
003E4F  E0EA    	LDI ZL,$0A
003E50  E0F0    	LDI ZH,$00
003E51  93FA    	ST -Y,ZH
003E52  93EA    	ST -Y,ZL
003E53  940E    	CALL L537           delay(10ms)
003E54  6A4C
003E55  99C8    	SBIC PINA,PINA0    check if pf1
003E56  C002    	RJMP L806
003E57  99C9    	SBIC PINA,PINA1    pf2 pressed
003E58  C001    	RJMP L807
003E59  C062    L806:	RJMP L808
003E5A  E0E0    L807:	LDI ZL,$00      // yes PC control mode (pf2)
003E5B  93EA    	ST -Y,ZL
003E5C  E9E6    	LDI ZL,$96          //150
003E5D  E0F0    	LDI ZH,$00
003E5E  93FA    	ST -Y,ZH
003E5F  93EA    	ST -Y,ZL
003E60  EBE8    	LDI ZL,$B8          //3000
003E61  E0FB    	LDI ZH,$0B
003E62  93FA    	ST -Y,ZH
003E63  93EA    	ST -Y,ZL
003E64  E0E4    	LDI ZL,$04
003E65  93EA    	ST -Y,ZL
003E66  940E    	CALL L809        call 809 (4, 3000, 150)
003E67  49C3
003E68  E6E4    	LDI ZL,$64
003E69  E0F0    	LDI ZH,$00
003E6A  93FA    	ST -Y,ZH
003E6B  93EA    	ST -Y,ZL
003E6C  940E    	CALL L537         Delay 100ms
003E6D  6A4C
003E6E  EFEF    	LDI ZL,$FF
003E6F  15ED    	CP ZL,R13
003E70  F1E1    	BREQ L810
003E71  E1EE    	LDI ZL,$1E         
003E72  E0F0    	LDI ZH,$00
003E73  93E0    	STS $06D7,ZL         //counter = 30 (seconds )
003E74  06D7
003E75  93F0    	STS $06D8,ZH
003E76  06D8
003E77  B7E9    	IN ZL,EIMSK           //ENABLE INTEUPTS
003E78  7BEF    	ANDI ZL,$BF
003E79  BFE9    	OUT EIMSK,ZL
003E7A  91E0    L817:	LDS ZL,$06D7       
003E7B  06D7
003E7C  91F0    	LDS ZH,$06D8
003E7D  06D8
003E7E  9730    	SBIW ZH:ZL,0
003E7F  F139    	BREQ L811               time up - goto 811
003E80  91A0    	LDS XL,$06D2
003E81  06D2
003E82  91B0    	LDS XH,$06D3
003E83  06D3
003E84  3FAA    	CPI XL,$FA             250
003E85  E0E0    	LDI ZL,$00
003E86  07BE    	CPC XH,ZL
003E87  F410    	BRCC L812
003E88  98DF    	CBI PORTA,PA7   //ERRROR
003E89  C01C    	RJMP L813  
003E8A  91A0    L812:	LDS XL,$06D2
003E8B  06D2
003E8C  91B0    	LDS XH,$06D3
003E8D  06D3
003E8E  3FA4    	CPI XL,$F4
003E8F  E0E1    	LDI ZL,$01              500ms
003E90  07BE    	CPC XH,ZL
003E91  F408    	BRCC L814
003E92  C012    	RJMP L815
003E93  91A0    L814:	LDS XL,$06D2
003E94  06D2
003E95  91B0    	LDS XH,$06D3
003E96  06D3
003E97  3EAE    	CPI XL,$EE
003E98  E0E2    	LDI ZL,$02             750 ?
003E99  07BE    	CPC XH,ZL
003E9A  F410    	BRCC L816
003E9B  98DF    	CBI PORTA,PA7             //ERRROR
003E9C  C009    	RJMP L813 
003E9D  91A0    L816:	LDS XL,$06D2
003E9E  06D2
003E9F  91B0    	LDS XH,$06D3
003EA0  06D3
003EA1  3EA8    	CPI XL,$E8
003EA2  E0E3    	LDI ZL,$03
003EA3  07BE    	CPC XH,ZL                1000
003EA4  F408    	BRCC L813
003EA5  9ADF    L815:	SBI PORTA,PA7
003EA6  CFD3    L813:	RJMP L817


003EA7  EFEF    L811:	LDI ZL,$FF
003EA8  2EDE    	MOV R13,ZL
003EA9  B7E9    	IN ZL,EIMSK
003EAA  64E0    	ORI ZL,$40
003EAB  BFE9    	OUT EIMSK,ZL
003EAC  C00E    	RJMP L818         return

003EAD  E0E0    L810:	LDI ZL,$00
003EAE  93EA    	ST -Y,ZL
003EAF  E0E1    	LDI ZL,$01
003EB0  E0F0    	LDI ZH,$00
003EB1  93FA    	ST -Y,ZH
003EB2  93EA    	ST -Y,ZL
003EB3  E6E4    	LDI ZL,$64
003EB4  E0F0    	LDI ZH,$00
003EB5  93FA    	ST -Y,ZH
003EB6  93EA    	ST -Y,ZL
003EB7  E0E1    	LDI ZL,$01
003EB8  93EA    	ST -Y,ZL
003EB9  940E    	CALL L809         809 (1,100,1
003EBA  49C3
003EBB  C0D5    L818:	RJMP L819     return


003EBC  9BC8    L808:	SBIS PINA,PINA0       
003EBD  C002    	RJMP L820
003EBE  9BC9    	SBIS PINA,PINA1
003EBF  C001    	RJMP L821
003EC0  C013    L820:	RJMP L822
003EC1  E0EA    L821:	LDI ZL,$0A
003EC2  E0F0    	LDI ZH,$00
003EC3  93FA    	ST -Y,ZH
003EC4  93EA    	ST -Y,ZL
003EC5  940E    	CALL L537           delay 10ms
003EC6  6A4C
003EC7  9BC8    	SBIS PINA,PINA0
003EC8  C00A    	RJMP L823
003EC9  B7E7    	IN ZL,TIMSK
003ECA  7FEE    	ANDI ZL,$FE
003ECB  BFE7    	OUT TIMSK,ZL
003ECC  B7E9    	IN ZL,EIMSK
003ECD  7BEF    	ANDI ZL,$BF
003ECE  BFE9    	OUT EIMSK,ZL
003ECF  9A57    	SBI UCSR0B,RXCIE0    set up  uart
003ED0  9856    	CBI UCSR0B,TXCIE0
003ED1  9468    	BSET 6
003ED2  F822    	BLD R2,2
003ED3  C0BD    L823:	RJMP L819
003ED4  99C8    L822:	SBIC PINA,PINA0
003ED5  C002    	RJMP L824
003ED6  9BC9    	SBIS PINA,PINA1
003ED7  C001    	RJMP L825
003ED8  C0B8    L824:	RJMP L819
003ED9  91A0    L825:	LDS XL,$06D4
003EDA  06D4
003EDB  30AB    	CPI XL,$0B
003EDC  F010    	BRCS L826
003EDD  940C    	JMP L819           (return)
003EDE  3F91
003EDF  91A0    L826:	LDS XL,$06D2
003EE0  06D2
003EE1  91B0    	LDS XH,$06D3
003EE2  06D3
003EE3  3FA5    	CPI XL,$F5
003EE4  E0E1    	LDI ZL,$01          500ms
003EE5  07BE    	CPC XH,ZL
003EE6  F018    	BRCS L827
003EE7  9ADD    	SBI PORTA,PA5       Run LED (blue) off
003EE8  9ADE    	SBI PORTA,PA6       run led green off
003EE9  C002    	RJMP L828
003EEA  98DD    L827:	CBI PORTA,PA5   run led blue on (active low)
003EEB  98DE    	CBI PORTA,PA6       run led green
003EEC  FE32    L828:	SBRS R3,2
003EED  C0A2    	RJMP L829
003EEE  B7E9    	IN ZL,EIMSK
003EEF  7BEF    	ANDI ZL,$BF
003EF0  BFE9    	OUT EIMSK,ZL
003EF1  94E8    	BCLR 6
003EF2  F832    	BLD R3,2
003EF3  91E0    	LDS ZL,$06E4
003EF4  06E4
003EF5  30E7    	CPI ZL,$07
003EF6  F011    	BREQ L830
003EF7  940C    	JMP L831
003EF8  3F7E
003EF9  E001    L830:	LDI R16,$01
003EFA  E010    	LDI R17,$00
003EFB  3005    L833:	CPI R16,$05
003EFC  E0E0    	LDI ZL,$00
003EFD  071E    	CPC R17,ZL
003EFE  F56C    	BRGE L832
003EFF  01F8    	MOVW R31:R30,R17:R16
003F00  9731    	SBIW ZH:ZL,1
003F01  5FE2    	SUBI ZL,$F2
003F02  4FFF    	SBCI ZH,$FF
003F03  010F    	MOVW R1:R0,R31:R30
003F04  E0AE    	LDI XL,$0E
003F05  E0B0    	LDI XH,$00
003F06  0FA0    	ADD XL,R16
003F07  1FB1    	ADC XH,R17
003F08  940E    	CALL L544
003F09  6B16
003F0A  01D0    	MOVW R27:R26,R1:R0
003F0B  940E    	CALL L545
003F0C  6B2A
003F0D  01F8    	MOVW R31:R30,R17:R16
003F0E  9731    	SBIW ZH:ZL,1
003F0F  5EED    	SUBI ZL,$ED
003F10  4FFF    	SBCI ZH,$FF
003F11  010F    	MOVW R1:R0,R31:R30
003F12  E1A3    	LDI XL,$13
003F13  E0B0    	LDI XH,$00
003F14  0FA0    	ADD XL,R16
003F15  1FB1    	ADC XH,R17
003F16  940E    	CALL L544
003F17  6B16
003F18  01D0    	MOVW R27:R26,R1:R0
003F19  940E    	CALL L545
003F1A  6B2A
003F1B  01F8    	MOVW R31:R30,R17:R16
003F1C  9731    	SBIW ZH:ZL,1
003F1D  5EE8    	SUBI ZL,$E8
003F1E  4FFF    	SBCI ZH,$FF
003F1F  010F    	MOVW R1:R0,R31:R30
003F20  E1A8    	LDI XL,$18
003F21  E0B0    	LDI XH,$00
003F22  0FA0    	ADD XL,R16
003F23  1FB1    	ADC XH,R17
003F24  940E    	CALL L544
003F25  6B16
003F26  01D0    	MOVW R27:R26,R1:R0
003F27  940E    	CALL L545
003F28  6B2A
003F29  5F0F    	SUBI R16,$FF
003F2A  4F1F    	SBCI R17,$FF
003F2B  CFCF    	RJMP L833
003F2C  E1A2    L832:	LDI XL,$12
003F2D  E0B0    	LDI XH,$00
003F2E  91E0    	LDS ZL,$06E1
003F2F  06E1
003F30  940E    	CALL L545
003F31  6B2A
003F32  E1A7    	LDI XL,$17
003F33  E0B0    	LDI XH,$00
003F34  91E0    	LDS ZL,$06E2
003F35  06E2
003F36  940E    	CALL L545
003F37  6B2A
003F38  E1AC    	LDI XL,$1C
003F39  E0B0    	LDI XH,$00
003F3A  91E0    	LDS ZL,$06E3
003F3B  06E3
003F3C  940E    	CALL L545
003F3D  6B2A
003F3E  E000    	LDI R16,$00
003F3F  E010    	LDI R17,$00
003F40  3003    L835:	CPI R16,$03
003F41  E0E0    	LDI ZL,$00
003F42  071E    	CPC R17,ZL
003F43  F53C    	BRGE L834
003F44  98DA    	CBI PORTA,PA2
003F45  98DB    	CBI PORTA,PA3
003F46  98DC    	CBI PORTA,PA4
003F47  98DD    	CBI PORTA,PA5
003F48  98DE    	CBI PORTA,PA6
003F49  98DF    	CBI PORTA,PA7            //ERRROR
003F4A  91E0    	LDS ZL,$0065
003F4B  0065
003F4C  7FEB    	ANDI ZL,$FB
003F4D  93E0    	STS $0065,ZL
003F4E  0065
003F4F  98AF    	CBI PORTC,PC7
003F50  EFE4    	LDI ZL,$F4
003F51  E0F1    	LDI ZH,$01
003F52  93FA    	ST -Y,ZH
003F53  93EA    	ST -Y,ZL
003F54  940E    	CALL L537
003F55  6A4C
003F56  9ADA    	SBI PORTA,PA2
003F57  9ADB    	SBI PORTA,PA3
003F58  9ADC    	SBI PORTA,PA4
003F59  9ADD    	SBI PORTA,PA5
003F5A  9ADE    	SBI PORTA,PA6
003F5B  9ADF    	SBI PORTA,PA7
003F5C  91E0    	LDS ZL,$0065
003F5D  0065
003F5E  60E4    	ORI ZL,$04
003F5F  93E0    	STS $0065,ZL
003F60  0065
003F61  98AF    	CBI PORTC,PC7
003F62  EFE4    	LDI ZL,$F4
003F63  E0F1    	LDI ZH,$01
003F64  93FA    	ST -Y,ZH
003F65  93EA    	ST -Y,ZL
003F66  940E    	CALL L537
003F67  6A4C
003F68  5F0F    	SUBI R16,$FF
003F69  4F1F    	SBCI R17,$FF
003F6A  CFD5    	RJMP L835
003F6B  E000    L834:	LDI R16,$00
003F6C  E010    	LDI R17,$00
003F6D  3004    L837:	CPI R16,$04
003F6E  E0E0    	LDI ZL,$00
003F6F  071E    	CPC R17,ZL
003F70  F44C    	BRGE L836
003F71  EEA1    	LDI XL,$E1
003F72  E0B6    	LDI XH,$06
003F73  0FA0    	ADD XL,R16
003F74  1FB1    	ADC XH,R17
003F75  E0E0    	LDI ZL,$00
003F76  93EC    	ST X,ZL
003F77  5F0F    	SUBI R16,$FF
003F78  4F1F    	SBCI R17,$FF
003F79  CFF3    	RJMP L837
003F7A  B7E9    L836:	IN ZL,EIMSK
003F7B  64E0    	ORI ZL,$40
003F7C  BFE9    	OUT EIMSK,ZL
003F7D  C013    	RJMP L819
003F7E  E000    L831:	LDI R16,$00
003F7F  E010    	LDI R17,$00
003F80  3004    L839:	CPI R16,$04
003F81  E0E0    	LDI ZL,$00
003F82  071E    	CPC R17,ZL
003F83  F44C    	BRGE L838
003F84  EEA1    	LDI XL,$E1
003F85  E0B6    	LDI XH,$06
003F86  0FA0    	ADD XL,R16
003F87  1FB1    	ADC XH,R17
003F88  E0E0    	LDI ZL,$00
003F89  93EC    	ST X,ZL
003F8A  5F0F    	SUBI R16,$FF
003F8B  4F1F    	SBCI R17,$FF
003F8C  CFF3    	RJMP L839
003F8D  B7E9    L838:	IN ZL,EIMSK
003F8E  64E0    	ORI ZL,$40
003F8F  BFE9    	OUT EIMSK,ZL
003F90  CF48    L829:	RJMP L825
003F91  9109    L819:	LD R16,Y+
003F92  9119    	LD R17,Y+
003F93  9508    	RET


/*******************************************************************

Main()

*******************************************************************/

003F94  940E    L533:	CALL L840   HWInit
003F95  3D17
003F96  940E    	CALL L841       SWinit
003F97  3D9B
003F98  940E    	CALL L842    
003F99  69CF
003F9A  9478    	BSET 7
003F9B  B7E7    	IN ZL,TIMSK
003F9C  60E1    	ORI ZL,$01
003F9D  BFE7    	OUT TIMSK,ZL     // Enable timer 
003F9E  940E    	CALL L843        // Initialise function ?
003F9F  3DD7
003FA0  B7E9    	IN ZL,EIMSK
003FA1  7EEF    	ANDI ZL,$EF
003FA2  BFE9    	OUT EIMSK,ZL
003FA3  B7E8    	IN ZL,EIFR
003FA4  7EEF    	ANDI ZL,$EF
003FA5  BFE8    	OUT EIFR,ZL
003FA6  B7E9    	IN ZL,EIMSK
003FA7  7DEF    	ANDI ZL,$DF
003FA8  BFE9    	OUT EIMSK,ZL
003FA9  B7E8    	IN ZL,EIFR
003FAA  7DEF    	ANDI ZL,$DF
003FAB  BFE8    	OUT EIFR,ZL
003FAC  98C6    	CBI PORTB,PB6
003FAD  E1E4    	LDI ZL,$14
003FAE  E0F0    	LDI ZH,$00
003FAF  93FA    	ST -Y,ZH
003FB0  93EA    	ST -Y,ZL
003FB1  940E    	CALL L537
003FB2  6A4C
003FB3  9AC6    	SBI PORTB,PB6
003FB4  940E    	CALL L844
003FB5  638C
003FB6  9120    L854:	LDS R18,$06D2
003FB7  06D2
003FB8  9130    	LDS R19,$06D3
003FB9  06D3
003FBA  940E    	CALL L845
003FBB  618E
003FBC  940E    	CALL L846
003FBD  624F
003FBE  940E    	CALL L847
003FBF  62EA
003FC0  2400    	CLR R0
003FC1  1602    	CP R0,R18
003FC2  0603    	CPC R0,R19
003FC3  F029    	BREQ L848
003FC4  EFE4    	LDI ZL,$F4
003FC5  E0F1    	LDI ZH,$01
003FC6  17E2    	CP ZL,R18
003FC7  07F3    	CPC ZH,R19
003FC8  F421    	BRNE L849
003FC9  940E    L848:	CALL L784
003FCA  693E
003FCB  940E    	CALL L785
003FCC  3C5B
003FCD  940E    L849:	CALL L850
003FCE  658B
003FCF  91E0    L851:	LDS ZL,$06D2
003FD0  06D2
003FD1  91F0    	LDS ZH,$06D3
003FD2  06D3
003FD3  17E2    	CP ZL,R18
003FD4  07F3    	CPC ZH,R19
003FD5  F3C9    	BREQ L851
003FD6  FE34    	SBRS R3,4
003FD7  C002    	RJMP L852
003FD8  940E    	CALL L853
003FD9  6403
003FDA  CFDB    L852:	RJMP L854
003FDB  CFFF    L855:	RJMP L855
003FDC  9B5D    L856:	SBIS UCSR0A,UDRE0
003FDD  CFFE    	RJMP L856
003FDE  81E8    	LD ZL,Y
003FDF  B9EC    	OUT UDR0,ZL
003FE0  C007    	RJMP L857
003FE1  91E0    L546:	LDS ZL,$009B
003FE2  009B
003FE3  72E0    	ANDI ZL,$20
003FE4  F3E1    	BREQ L546
003FE5  81E8    	LD ZL,Y
003FE6  93E0    	STS $009C,ZL
003FE7  009C
003FE8  9621    L857:	ADIW YH:YL,1
003FE9  9508    	RET
003FEA  930A    L858:	ST -Y,R16
003FEB  81E9    	LDD ZL,Y+1
003FEC  81AA    	LDD XL,Y+2
003FED  27AE    	EOR XL,ZL
003FEE  E7EF    	LDI ZL,$7F
003FEF  23EA    	AND ZL,XL
003FF0  2F0E    	MOV R16,ZL
003FF1  91A0    	LDS XL,$069B
003FF2  069B
003FF3  E0B0    	LDI XH,$00
003FF4  51AF    	SUBI XL,$1F
003FF5  4FBA    	SBCI XH,$FA
003FF6  EFEF    	LDI ZL,$FF
003FF7  93EC    	ST X,ZL
003FF8  91E0    	LDS ZL,$069B
003FF9  069B
003FFA  5FEF    	SUBI ZL,$FF
003FFB  93E0    	STS $069B,ZL
003FFC  069B
003FFD  E0F0    	LDI ZH,$00
003FFE  51EF    	SUBI ZL,$1F
003FFF  4FFA    	SBCI ZH,$FA
004000  81AA    	LDD XL,Y+2
004001  83A0    	ST Z,XL
004002  91E0    	LDS ZL,$069B
004003  069B
004004  5FEF    	SUBI ZL,$FF
004005  93E0    	STS $069B,ZL
004006  069B
004007  E0F0    	LDI ZH,$00
004008  51EF    	SUBI ZL,$1F
004009  4FFA    	SBCI ZH,$FA
00400A  81A9    	LDD XL,Y+1
00400B  83A0    	ST Z,XL
00400C  91E0    	LDS ZL,$069B
00400D  069B
00400E  5FEF    	SUBI ZL,$FF
00400F  93E0    	STS $069B,ZL
004010  069B
004011  91A0    	LDS XL,$069B
004012  069B
004013  E0B0    	LDI XH,$00
004014  51AF    	SUBI XL,$1F
004015  4FBA    	SBCI XH,$FA
004016  930C    	ST X,R16
004017  5FEF    	SUBI ZL,$FF
004018  93E0    	STS $069B,ZL
004019  069B
00401A  8108    	LD R16,Y
00401B  9623    	ADIW YH:YL,3
00401C  9508    	RET
00401D  930A    L900:	ST -Y,R16
00401E  81EC    	LDD ZL,Y+4
00401F  6EE0    	ORI ZL,$E0
004020  83EC    	STD Y+4,ZL
004021  81EB    	LDD ZL,Y+3
004022  81AC    	LDD XL,Y+4
004023  27EA    	EOR ZL,XL
004024  81AA    	LDD XL,Y+2
004025  27EA    	EOR ZL,XL
004026  81A9    	LDD XL,Y+1
004027  27AE    	EOR XL,ZL
004028  E7EF    	LDI ZL,$7F
004029  23EA    	AND ZL,XL
00402A  2F0E    	MOV R16,ZL
00402B  91A0    	LDS XL,$069B
00402C  069B
00402D  E0B0    	LDI XH,$00
00402E  51AF    	SUBI XL,$1F
00402F  4FBA    	SBCI XH,$FA
004030  EFEF    	LDI ZL,$FF
004031  93EC    	ST X,ZL
004032  91E0    	LDS ZL,$069B
004033  069B
004034  5FEF    	SUBI ZL,$FF
004035  93E0    	STS $069B,ZL
004036  069B
004037  E0F0    	LDI ZH,$00
004038  51EF    	SUBI ZL,$1F
004039  4FFA    	SBCI ZH,$FA
00403A  81AC    	LDD XL,Y+4
00403B  83A0    	ST Z,XL
00403C  91E0    	LDS ZL,$069B
00403D  069B
00403E  5FEF    	SUBI ZL,$FF
00403F  93E0    	STS $069B,ZL
004040  069B
004041  E0F0    	LDI ZH,$00
004042  51EF    	SUBI ZL,$1F
004043  4FFA    	SBCI ZH,$FA
004044  81AB    	LDD XL,Y+3
004045  83A0    	ST Z,XL
004046  91E0    	LDS ZL,$069B
004047  069B
004048  5FEF    	SUBI ZL,$FF
004049  93E0    	STS $069B,ZL
00404A  069B
00404B  E0F0    	LDI ZH,$00
00404C  51EF    	SUBI ZL,$1F
00404D  4FFA    	SBCI ZH,$FA
00404E  81AA    	LDD XL,Y+2
00404F  83A0    	ST Z,XL
004050  91E0    	LDS ZL,$069B
004051  069B
004052  5FEF    	SUBI ZL,$FF
004053  93E0    	STS $069B,ZL
004054  069B
004055  E0F0    	LDI ZH,$00
004056  51EF    	SUBI ZL,$1F
004057  4FFA    	SBCI ZH,$FA
004058  81A9    	LDD XL,Y+1
004059  83A0    	ST Z,XL
00405A  91E0    	LDS ZL,$069B
00405B  069B
00405C  5FEF    	SUBI ZL,$FF
00405D  93E0    	STS $069B,ZL
00405E  069B
00405F  91A0    	LDS XL,$069B
004060  069B
004061  E0B0    	LDI XH,$00
004062  51AF    	SUBI XL,$1F
004063  4FBA    	SBCI XH,$FA
004064  930C    	ST X,R16
004065  5FEF    	SUBI ZL,$FF
004066  93E0    	STS $069B,ZL
004067  069B
004068  8108    	LD R16,Y
004069  9625    	ADIW YH:YL,5
00406A  9508    	RET
00406B  930A    L966:	ST -Y,R16
00406C  81E9    	LDD ZL,Y+1
00406D  95E2    	SWAP ZL
00406E  7FE0    	ANDI ZL,$F0
00406F  0FEE    	LSL ZL
004070  81AB    	LDD XL,Y+3
004071  2BEA    	OR ZL,XL
004072  2F0E    	MOV R16,ZL
004073  930A    	ST -Y,R16
004074  81EB    	LDD ZL,Y+3
004075  93EA    	ST -Y,ZL
004076  940E    	CALL L858
004077  3FEA
004078  8108    	LD R16,Y
004079  9624    	ADIW YH:YL,4
00407A  9508    	RET
00407B  940E    L805:	CALL L593
00407C  6CB9
00407D  ED0F    	LDI R16,$DF
00407E  E210    	LDI R17,$20
00407F  2FE1    	MOV ZL,R17
004080  27E0    	EOR ZL,R16
004081  77EF    	ANDI ZL,$7F
004082  2F2E    	MOV R18,ZL
004083  EFEF    	LDI ZL,$FF
004084  93EA    	ST -Y,ZL
004085  940E    	CALL L856
004086  3FDC
004087  930A    	ST -Y,R16
004088  940E    	CALL L856
004089  3FDC
00408A  931A    	ST -Y,R17
00408B  940E    	CALL L856
00408C  3FDC
00408D  932A    	ST -Y,R18
00408E  940E    	CALL L856
00408F  3FDC
004090  940E    	CALL L604
004091  6CC0
004092  9623    	ADIW YH:YL,3
004093  9508    	RET
004094  940E    L795:	CALL L593
004095  6CB9
004096  81ED    	LDD ZL,Y+5
004097  6EE0    	ORI ZL,$E0
004098  2F0E    	MOV R16,ZL
004099  E111    	LDI R17,$11
00409A  2FE1    	MOV ZL,R17
00409B  27E0    	EOR ZL,R16
00409C  81AB    	LDD XL,Y+3
00409D  27EA    	EOR ZL,XL
00409E  81AC    	LDD XL,Y+4
00409F  27AE    	EOR XL,ZL
0040A0  E7EF    	LDI ZL,$7F
0040A1  23EA    	AND ZL,XL
0040A2  2F2E    	MOV R18,ZL
0040A3  EFEF    	LDI ZL,$FF
0040A4  93EA    	ST -Y,ZL
0040A5  940E    	CALL L856
0040A6  3FDC
0040A7  930A    	ST -Y,R16
0040A8  940E    	CALL L856
0040A9  3FDC
0040AA  931A    	ST -Y,R17
0040AB  940E    	CALL L856
0040AC  3FDC
0040AD  81EC    	LDD ZL,Y+4
0040AE  93EA    	ST -Y,ZL
0040AF  940E    	CALL L856
0040B0  3FDC
0040B1  81EB    	LDD ZL,Y+3
0040B2  93EA    	ST -Y,ZL
0040B3  940E    	CALL L856
0040B4  3FDC
0040B5  932A    	ST -Y,R18
0040B6  940E    	CALL L856
0040B7  3FDC
0040B8  940E    	CALL L604
0040B9  6CC0
0040BA  9626    	ADIW YH:YL,6
0040BB  9508    	RET
0040BC  940E    L1011:	CALL L859
0040BD  6CB7
0040BE  81ED    	LDD ZL,Y+5
0040BF  6AE0    	ORI ZL,$A0
0040C0  2F0E    	MOV R16,ZL
0040C1  E010    	LDI R17,$00
0040C2  E0E0    	LDI ZL,$00
0040C3  93E0    	STS $069C,ZL
0040C4  069C
0040C5  2FE1    	MOV ZL,R17
0040C6  27E0    	EOR ZL,R16
0040C7  77EF    	ANDI ZL,$7F
0040C8  2F2E    	MOV R18,ZL
0040C9  9854    	CBI UCSR0B,RXEN0
0040CA  EFEF    	LDI ZL,$FF
0040CB  93EA    	ST -Y,ZL
0040CC  940E    	CALL L856
0040CD  3FDC
0040CE  930A    	ST -Y,R16
0040CF  940E    	CALL L856
0040D0  3FDC
0040D1  931A    	ST -Y,R17
0040D2  940E    	CALL L856
0040D3  3FDC
0040D4  932A    	ST -Y,R18
0040D5  940E    	CALL L856
0040D6  3FDC
0040D7  9A54    	SBI UCSR0B,RXEN0
0040D8  9130    	LDS R19,$06D2
0040D9  06D2
0040DA  9140    	LDS R20,$06D3
0040DB  06D3
0040DC  91A0    L865:	LDS XL,$069C
0040DD  069C
0040DE  30A2    	CPI XL,$02
0040DF  F4F8    	BRCC L860
0040E0  91A0    	LDS XL,$06D2
0040E1  06D2
0040E2  91B0    	LDS XH,$06D3
0040E3  06D3
0040E4  17A3    	CP XL,R19
0040E5  07B4    	CPC XH,R20
0040E6  F460    	BRCC L861
0040E7  EEE8    	LDI ZL,$E8
0040E8  E0F3    	LDI ZH,$03
0040E9  1BE3    	SUB ZL,R19
0040EA  0BF4    	SBC ZH,R20
0040EB  0FAE    	ADD XL,ZL
0040EC  1FBF    	ADC XH,ZH
0040ED  9755    	SBIW XH:XL,21
0040EE  F018    	BRCS L862
0040EF  EBEC    	LDI ZL,$BC
0040F0  E0F1    	LDI ZH,$01
0040F1  C010    	RJMP L863
0040F2  C00B    L862:	RJMP L864
0040F3  91E0    L861:	LDS ZL,$06D2
0040F4  06D2
0040F5  91F0    	LDS ZH,$06D3
0040F6  06D3
0040F7  1BE3    	SUB ZL,R19
0040F8  0BF4    	SBC ZH,R20
0040F9  9775    	SBIW ZH:ZL,21
0040FA  F018    	BRCS L864
0040FB  EBEC    	LDI ZL,$BC
0040FC  E0F1    	LDI ZH,$01
0040FD  C004    	RJMP L863
0040FE  CFDD    L864:	RJMP L865
0040FF  91E0    L860:	LDS ZL,$06A5
004100  06A5
004101  E0F0    	LDI ZH,$00
004102  940E    L863:	CALL L866
004103  6CBE
004104  9626    	ADIW YH:YL,6
004105  9508    	RET
004106  930A    L977:	ST -Y,R16
004107  E0E0    	LDI ZL,$00
004108  93E0    	STS $069C,ZL
004109  069C
00410A  81E9    	LDD ZL,Y+1
00410B  E1AD    	LDI XL,$1D
00410C  27AE    	EOR XL,ZL
00410D  E7EF    	LDI ZL,$7F
00410E  23EA    	AND ZL,XL
00410F  2F0E    	MOV R16,ZL
004110  EFEF    	LDI ZL,$FF
004111  93EA    	ST -Y,ZL
004112  940E    	CALL L856
004113  3FDC
004114  E0E1    	LDI ZL,$01
004115  E0F0    	LDI ZH,$00
004116  93FA    	ST -Y,ZH
004117  93EA    	ST -Y,ZL
004118  940E    	CALL L537
004119  6A4C
00411A  E1ED    	LDI ZL,$1D
00411B  93EA    	ST -Y,ZL
00411C  940E    	CALL L856
00411D  3FDC
00411E  E0E1    	LDI ZL,$01
00411F  E0F0    	LDI ZH,$00
004120  93FA    	ST -Y,ZH
004121  93EA    	ST -Y,ZL
004122  940E    	CALL L537
004123  6A4C
004124  81E9    	LDD ZL,Y+1
004125  93EA    	ST -Y,ZL
004126  940E    	CALL L856
004127  3FDC
004128  E0E1    	LDI ZL,$01
004129  E0F0    	LDI ZH,$00
00412A  93FA    	ST -Y,ZH
00412B  93EA    	ST -Y,ZL
00412C  940E    	CALL L537
00412D  6A4C
00412E  930A    	ST -Y,R16
00412F  940E    	CALL L856
004130  3FDC
004131  8108    	LD R16,Y
004132  C037    	RJMP L867
004133  EFEF    L569:	LDI ZL,$FF
004134  93EA    	ST -Y,ZL
004135  940E    	CALL L546
004136  3FE1
004137  EFEF    	LDI ZL,$FF
004138  93EA    	ST -Y,ZL
004139  940E    	CALL L546
00413A  3FE1
00413B  EAEA    	LDI ZL,$AA
00413C  93EA    	ST -Y,ZL
00413D  940E    	CALL L546
00413E  3FE1
00413F  E5E5    	LDI ZL,$55
004140  93EA    	ST -Y,ZL
004141  940E    	CALL L546
004142  3FE1
004143  EAEA    	LDI ZL,$AA
004144  93EA    	ST -Y,ZL
004145  940E    	CALL L546
004146  3FE1
004147  E5E5    	LDI ZL,$55
004148  93EA    	ST -Y,ZL
004149  940E    	CALL L546
00414A  3FE1
00414B  E3E7    	LDI ZL,$37
00414C  93EA    	ST -Y,ZL
00414D  940E    	CALL L546
00414E  3FE1
00414F  EBEA    	LDI ZL,$BA
004150  93EA    	ST -Y,ZL
004151  940E    	CALL L546
004152  3FE1
004153  81E9    	LDD ZL,Y+1
004154  93EA    	ST -Y,ZL
004155  940E    	CALL L546
004156  3FE1
004157  92CA    	ST -Y,R12
004158  940E    	CALL L546
004159  3FE1
00415A  E0E0    	LDI ZL,$00
00415B  93EA    	ST -Y,ZL
00415C  940E    	CALL L546
00415D  3FE1
00415E  E0E0    	LDI ZL,$00
00415F  93EA    	ST -Y,ZL
004160  940E    	CALL L546
004161  3FE1
004162  E0E0    	LDI ZL,$00
004163  93EA    	ST -Y,ZL
004164  940E    	CALL L546
004165  3FE1
004166  81E8    	LD ZL,Y
004167  93EA    	ST -Y,ZL
004168  940E    	CALL L546
004169  3FE1
00416A  9622    L867:	ADIW YH:YL,2
00416B  9508    	RET
00416C  931A    L1018:	ST -Y,R17
00416D  930A    	ST -Y,R16
00416E  81EA    	LDD ZL,Y+2
00416F  93E0    	STS $078D,ZL
004170  078D
004171  50E1    	SUBI ZL,$01
004172  E3A0    	LDI XL,$30
004173  E0B0    	LDI XH,$00
004174  E0F0    	LDI ZH,$00
004175  0FEE    	LSL ZL
004176  1FFF    	ROL ZH
004177  0FAE    	ADD XL,ZL
004178  1FBF    	ADC XH,ZH
004179  940E    	CALL L601
00417A  6B12
00417B  93E0    	STS $094A,ZL
00417C  094A
00417D  93F0    	STS $094B,ZH
00417E  094B
00417F  93FA    	ST -Y,ZH
004180  93EA    	ST -Y,ZL
004181  E0E9    	LDI ZL,$09
004182  E0F0    	LDI ZH,$00
004183  93FA    	ST -Y,ZH
004184  93EA    	ST -Y,ZL
004185  940E    	CALL L538
004186  67F1
004187  91E0    	LDS ZL,$094A
004188  094A
004189  91F0    	LDS ZH,$094B
00418A  094B
00418B  9639    	ADIW ZH:ZL,9
00418C  93E0    	STS $094A,ZL
00418D  094A
00418E  93F0    	STS $094B,ZH
00418F  094B
004190  E000    	LDI R16,$00
004191  E010    	LDI R17,$00
004192  3004    L873:	CPI R16,$04
004193  E0E0    	LDI ZL,$00
004194  071E    	CPC R17,ZL
004195  F590    	BRCC L868
004196  91A0    	LDS XL,$078E
004197  078E
004198  91B0    	LDS XH,$078F
004199  078F
00419A  9180    	LDS R24,$0790
00419B  0790
00419C  9190    	LDS R25,$0791
00419D  0791
00419E  E0E8    	LDI ZL,$08
00419F  940E    	CALL L869
0041A0  6AAB
0041A1  93E0    	STS $078E,ZL
0041A2  078E
0041A3  93F0    	STS $078F,ZH
0041A4  078F
0041A5  9360    	STS $0790,R22
0041A6  0790
0041A7  9370    	STS $0791,R23
0041A8  0791
0041A9  E8AE    	LDI XL,$8E
0041AA  E0B7    	LDI XH,$07
0041AB  93BF    	PUSH XH
0041AC  93AF    	PUSH XL
0041AD  940E    	CALL L870
0041AE  6AF0
0041AF  937F    	PUSH R23
0041B0  936F    	PUSH R22
0041B1  93FF    	PUSH ZH
0041B2  93EF    	PUSH ZL
0041B3  E0A0    	LDI XL,$00
0041B4  E0B5    	LDI XH,$05
0041B5  0FA0    	ADD XL,R16
0041B6  1FB1    	ADC XH,R17
0041B7  91EC    	LD ZL,X
0041B8  91AF    	POP XL
0041B9  91BF    	POP XH
0041BA  918F    	POP R24
0041BB  919F    	POP R25
0041BC  27FF    	CLR ZH
0041BD  2766    	CLR R22
0041BE  2777    	CLR R23
0041BF  940E    	CALL L871
0041C0  6A90
0041C1  91AF    	POP XL
0041C2  91BF    	POP XH
0041C3  940E    	CALL L872
0041C4  6AF6
0041C5  5F0F    	SUBI R16,$FF
0041C6  4F1F    	SBCI R17,$FF
0041C7  CFCA    	RJMP L873
0041C8  91E0    L868:	LDS ZL,$0504
0041C9  0504
0041CA  93E0    	STS $0792,ZL
0041CB  0792
0041CC  E005    	LDI R16,$05
0041CD  E010    	LDI R17,$00
0041CE  3007    L875:	CPI R16,$07
0041CF  E0E0    	LDI ZL,$00
0041D0  071E    	CPC R17,ZL
0041D1  F4D0    	BRCC L874
0041D2  91F0    	LDS ZH,$0793
0041D3  0793
0041D4  E0E0    	LDI ZL,$00
0041D5  93E0    	STS $0793,ZL
0041D6  0793
0041D7  93F0    	STS $0794,ZH
0041D8  0794
0041D9  E9A3    	LDI XL,$93
0041DA  E0B7    	LDI XH,$07
0041DB  01BD    	MOVW R23:R22,R27:R26
0041DC  900D    	LD R0,X+
0041DD  901C    	LD R1,X
0041DE  E0A0    	LDI XL,$00
0041DF  E0B5    	LDI XH,$05
0041E0  0FA0    	ADD XL,R16
0041E1  1FB1    	ADC XH,R17
0041E2  91EC    	LD ZL,X
0041E3  E0F0    	LDI ZH,$00
0041E4  0DE0    	ADD ZL,R0
0041E5  1DF1    	ADC ZH,R1
0041E6  01DB    	MOVW R27:R26,R23:R22
0041E7  93ED    	ST X+,ZL
0041E8  93FC    	ST X,ZH
0041E9  5F0F    	SUBI R16,$FF
0041EA  4F1F    	SBCI R17,$FF
0041EB  CFE2    	RJMP L875
0041EC  E007    L874:	LDI R16,$07
0041ED  E010    	LDI R17,$00
0041EE  3009    L877:	CPI R16,$09
0041EF  E0E0    	LDI ZL,$00
0041F0  071E    	CPC R17,ZL
0041F1  F4D0    	BRCC L876
0041F2  91F0    	LDS ZH,$0795
0041F3  0795
0041F4  E0E0    	LDI ZL,$00
0041F5  93E0    	STS $0795,ZL
0041F6  0795
0041F7  93F0    	STS $0796,ZH
0041F8  0796
0041F9  E9A5    	LDI XL,$95
0041FA  E0B7    	LDI XH,$07
0041FB  01BD    	MOVW R23:R22,R27:R26
0041FC  900D    	LD R0,X+
0041FD  901C    	LD R1,X
0041FE  E0A0    	LDI XL,$00
0041FF  E0B5    	LDI XH,$05
004200  0FA0    	ADD XL,R16
004201  1FB1    	ADC XH,R17
004202  91EC    	LD ZL,X
004203  E0F0    	LDI ZH,$00
004204  0DE0    	ADD ZL,R0
004205  1DF1    	ADC ZH,R1
004206  01DB    	MOVW R27:R26,R23:R22
004207  93ED    	ST X+,ZL
004208  93FC    	ST X,ZH
004209  5F0F    	SUBI R16,$FF
00420A  4F1F    	SBCI R17,$FF
00420B  CFE2    	RJMP L877
00420C  91E0    L876:	LDS ZL,$094A
00420D  094A
00420E  91F0    	LDS ZH,$094B
00420F  094B
004210  93FA    	ST -Y,ZH
004211  93EA    	ST -Y,ZL
004212  91E0    	LDS ZL,$0795
004213  0795
004214  91F0    	LDS ZH,$0796
004215  0796
004216  E0A6    	LDI XL,$06
004217  E0B0    	LDI XH,$00
004218  940E    	CALL L878
004219  6AD1
00421A  93FA    	ST -Y,ZH
00421B  93EA    	ST -Y,ZL
00421C  940E    	CALL L538
00421D  67F1
00421E  91E0    	LDS ZL,$0795
00421F  0795
004220  91F0    	LDS ZH,$0796
004221  0796
004222  E0A6    	LDI XL,$06
004223  E0B0    	LDI XH,$00
004224  940E    	CALL L878
004225  6AD1
004226  91A0    	LDS XL,$094A
004227  094A
004228  91B0    	LDS XH,$094B
004229  094B
00422A  0FEA    	ADD ZL,XL
00422B  1FFB    	ADC ZH,XH
00422C  93E0    	STS $094A,ZL
00422D  094A
00422E  93F0    	STS $094B,ZH
00422F  094B
004230  91E0    	LDS ZL,$0795
004231  0795
004232  91F0    	LDS ZH,$0796
004233  0796
004234  9731    	SBIW ZH:ZL,1
004235  E0A6    	LDI XL,$06
004236  E0B0    	LDI XH,$00
004237  940E    	CALL L878
004238  6AD1
004239  50E0    	SUBI ZL,$00
00423A  4FFB    	SBCI ZH,$FB
00423B  81E0    	LD ZL,Z
00423C  93E0    	STS $076A,ZL
00423D  076A
00423E  E000    	LDI R16,$00
00423F  E010    	LDI R17,$00
004240  310F    L881:	CPI R16,$1F
004241  E0E0    	LDI ZL,$00
004242  071E    	CPC R17,ZL
004243  F010    	BRCS L879
004244  940C    	JMP L880
004245  4296
004246  E0A6    L879:	LDI XL,$06
004247  9FA0    	MUL XL,R16
004248  01F0    	MOVW R31:R30,R1:R0
004249  9FA1    	MUL XL,R17
00424A  0DF0    	ADD ZH,R0
00424B  E9A7    	LDI XL,$97
00424C  E0B7    	LDI XH,$07
00424D  0FAE    	ADD XL,ZL
00424E  1FBF    	ADC XH,ZH
00424F  E0E0    	LDI ZL,$00
004250  93EC    	ST X,ZL
004251  E0A6    	LDI XL,$06
004252  9FA0    	MUL XL,R16
004253  01F0    	MOVW R31:R30,R1:R0
004254  9FA1    	MUL XL,R17
004255  0DF0    	ADD ZH,R0
004256  E9A8    	LDI XL,$98
004257  E0B7    	LDI XH,$07
004258  0FAE    	ADD XL,ZL
004259  1FBF    	ADC XH,ZH
00425A  E0E0    	LDI ZL,$00
00425B  93EC    	ST X,ZL
00425C  E0A6    	LDI XL,$06
00425D  9FA0    	MUL XL,R16
00425E  01F0    	MOVW R31:R30,R1:R0
00425F  9FA1    	MUL XL,R17
004260  0DF0    	ADD ZH,R0
004261  E9A9    	LDI XL,$99
004262  E0B7    	LDI XH,$07
004263  0FAE    	ADD XL,ZL
004264  1FBF    	ADC XH,ZH
004265  E0E0    	LDI ZL,$00
004266  93EC    	ST X,ZL
004267  E0A6    	LDI XL,$06
004268  9FA0    	MUL XL,R16
004269  01F0    	MOVW R31:R30,R1:R0
00426A  9FA1    	MUL XL,R17
00426B  0DF0    	ADD ZH,R0
00426C  E9AA    	LDI XL,$9A
00426D  E0B7    	LDI XH,$07
00426E  0FAE    	ADD XL,ZL
00426F  1FBF    	ADC XH,ZH
004270  E0E0    	LDI ZL,$00
004271  93EC    	ST X,ZL
004272  E0A6    	LDI XL,$06
004273  9FA0    	MUL XL,R16
004274  01F0    	MOVW R31:R30,R1:R0
004275  9FA1    	MUL XL,R17
004276  0DF0    	ADD ZH,R0
004277  E9AB    	LDI XL,$9B
004278  E0B7    	LDI XH,$07
004279  0FAE    	ADD XL,ZL
00427A  1FBF    	ADC XH,ZH
00427B  E0E0    	LDI ZL,$00
00427C  93EC    	ST X,ZL
00427D  E0A6    	LDI XL,$06
00427E  9FA0    	MUL XL,R16
00427F  01F0    	MOVW R31:R30,R1:R0
004280  9FA1    	MUL XL,R17
004281  0DF0    	ADD ZH,R0
004282  E9AC    	LDI XL,$9C
004283  E0B7    	LDI XH,$07
004284  0FAE    	ADD XL,ZL
004285  1FBF    	ADC XH,ZH
004286  E0E0    	LDI ZL,$00
004287  93EC    	ST X,ZL
004288  01F8    	MOVW R31:R30,R17:R16
004289  E0AC    	LDI XL,$0C
00428A  E0B9    	LDI XH,$09
00428B  0FEE    	LSL ZL
00428C  1FFF    	ROL ZH
00428D  0FAE    	ADD XL,ZL
00428E  1FBF    	ADC XH,ZH
00428F  E0E0    	LDI ZL,$00
004290  E0F0    	LDI ZH,$00
004291  93ED    	ST X+,ZL
004292  93FC    	ST X,ZH
004293  5F0F    	SUBI R16,$FF
004294  4F1F    	SBCI R17,$FF
004295  CFAA    	RJMP L881
004296  E000    L880:	LDI R16,$00
004297  E010    	LDI R17,$00
004298  91E0    L884:	LDS ZL,$0795
004299  0795
00429A  91F0    	LDS ZH,$0796
00429B  0796
00429C  170E    	CP R16,ZL
00429D  071F    	CPC R17,ZH
00429E  F010    	BRCS L882
00429F  940C    	JMP L883
0042A0  432D
0042A1  E0A6    L882:	LDI XL,$06
0042A2  9FA0    	MUL XL,R16
0042A3  01F0    	MOVW R31:R30,R1:R0
0042A4  9FA1    	MUL XL,R17
0042A5  0DF0    	ADD ZH,R0
0042A6  50E0    	SUBI ZL,$00
0042A7  4FFB    	SBCI ZH,$FB
0042A8  81E0    	LD ZL,Z
0042A9  E0A6    	LDI XL,$06
0042AA  9FEA    	MUL ZL,XL
0042AB  01F0    	MOVW R31:R30,R1:R0
0042AC  E9A7    	LDI XL,$97
0042AD  E0B7    	LDI XH,$07
0042AE  0FAE    	ADD XL,ZL
0042AF  1FBF    	ADC XH,ZH
0042B0  E0E1    	LDI ZL,$01
0042B1  93EC    	ST X,ZL
0042B2  E0A6    	LDI XL,$06
0042B3  9FA0    	MUL XL,R16
0042B4  01F0    	MOVW R31:R30,R1:R0
0042B5  9FA1    	MUL XL,R17
0042B6  0DF0    	ADD ZH,R0
0042B7  50E0    	SUBI ZL,$00
0042B8  4FFB    	SBCI ZH,$FB
0042B9  81E0    	LD ZL,Z
0042BA  E0A6    	LDI XL,$06
0042BB  9FEA    	MUL ZL,XL
0042BC  01F0    	MOVW R31:R30,R1:R0
0042BD  56E8    	SUBI ZL,$68
0042BE  4FF8    	SBCI ZH,$F8
0042BF  01BF    	MOVW R23:R22,R31:R30
0042C0  E0A6    	LDI XL,$06
0042C1  9FA0    	MUL XL,R16
0042C2  01F0    	MOVW R31:R30,R1:R0
0042C3  9FA1    	MUL XL,R17
0042C4  0DF0    	ADD ZH,R0
0042C5  5FEF    	SUBI ZL,$FF
0042C6  4FFA    	SBCI ZH,$FA
0042C7  81E0    	LD ZL,Z
0042C8  01DB    	MOVW R27:R26,R23:R22
0042C9  93EC    	ST X,ZL
0042CA  E0A6    	LDI XL,$06
0042CB  9FA0    	MUL XL,R16
0042CC  01F0    	MOVW R31:R30,R1:R0
0042CD  9FA1    	MUL XL,R17
0042CE  0DF0    	ADD ZH,R0
0042CF  50E0    	SUBI ZL,$00
0042D0  4FFB    	SBCI ZH,$FB
0042D1  81E0    	LD ZL,Z
0042D2  E0A6    	LDI XL,$06
0042D3  9FEA    	MUL ZL,XL
0042D4  01F0    	MOVW R31:R30,R1:R0
0042D5  56E7    	SUBI ZL,$67
0042D6  4FF8    	SBCI ZH,$F8
0042D7  01BF    	MOVW R23:R22,R31:R30
0042D8  E0A6    	LDI XL,$06
0042D9  9FA0    	MUL XL,R16
0042DA  01F0    	MOVW R31:R30,R1:R0
0042DB  9FA1    	MUL XL,R17
0042DC  0DF0    	ADD ZH,R0
0042DD  5FEE    	SUBI ZL,$FE
0042DE  4FFA    	SBCI ZH,$FA
0042DF  81E0    	LD ZL,Z
0042E0  01DB    	MOVW R27:R26,R23:R22
0042E1  93EC    	ST X,ZL
0042E2  E0A6    	LDI XL,$06
0042E3  9FA0    	MUL XL,R16
0042E4  01F0    	MOVW R31:R30,R1:R0
0042E5  9FA1    	MUL XL,R17
0042E6  0DF0    	ADD ZH,R0
0042E7  50E0    	SUBI ZL,$00
0042E8  4FFB    	SBCI ZH,$FB
0042E9  81E0    	LD ZL,Z
0042EA  E0A6    	LDI XL,$06
0042EB  9FEA    	MUL ZL,XL
0042EC  01F0    	MOVW R31:R30,R1:R0
0042ED  56E6    	SUBI ZL,$66
0042EE  4FF8    	SBCI ZH,$F8
0042EF  01BF    	MOVW R23:R22,R31:R30
0042F0  E0A6    	LDI XL,$06
0042F1  9FA0    	MUL XL,R16
0042F2  01F0    	MOVW R31:R30,R1:R0
0042F3  9FA1    	MUL XL,R17
0042F4  0DF0    	ADD ZH,R0
0042F5  5FED    	SUBI ZL,$FD
0042F6  4FFA    	SBCI ZH,$FA
0042F7  81E0    	LD ZL,Z
0042F8  01DB    	MOVW R27:R26,R23:R22
0042F9  93EC    	ST X,ZL
0042FA  E0A6    	LDI XL,$06
0042FB  9FA0    	MUL XL,R16
0042FC  01F0    	MOVW R31:R30,R1:R0
0042FD  9FA1    	MUL XL,R17
0042FE  0DF0    	ADD ZH,R0
0042FF  50E0    	SUBI ZL,$00
004300  4FFB    	SBCI ZH,$FB
004301  81E0    	LD ZL,Z
004302  E0A6    	LDI XL,$06
004303  9FEA    	MUL ZL,XL
004304  01F0    	MOVW R31:R30,R1:R0
004305  56E5    	SUBI ZL,$65
004306  4FF8    	SBCI ZH,$F8
004307  01BF    	MOVW R23:R22,R31:R30
004308  E0A6    	LDI XL,$06
004309  9FA0    	MUL XL,R16
00430A  01F0    	MOVW R31:R30,R1:R0
00430B  9FA1    	MUL XL,R17
00430C  0DF0    	ADD ZH,R0
00430D  5FEC    	SUBI ZL,$FC
00430E  4FFA    	SBCI ZH,$FA
00430F  81E0    	LD ZL,Z
004310  01DB    	MOVW R27:R26,R23:R22
004311  93EC    	ST X,ZL
004312  E0A6    	LDI XL,$06
004313  9FA0    	MUL XL,R16
004314  01F0    	MOVW R31:R30,R1:R0
004315  9FA1    	MUL XL,R17
004316  0DF0    	ADD ZH,R0
004317  50E0    	SUBI ZL,$00
004318  4FFB    	SBCI ZH,$FB
004319  81E0    	LD ZL,Z
00431A  E0A6    	LDI XL,$06
00431B  9FEA    	MUL ZL,XL
00431C  01F0    	MOVW R31:R30,R1:R0
00431D  56E4    	SUBI ZL,$64
00431E  4FF8    	SBCI ZH,$F8
00431F  01BF    	MOVW R23:R22,R31:R30
004320  E0A6    	LDI XL,$06
004321  9FA0    	MUL XL,R16
004322  01F0    	MOVW R31:R30,R1:R0
004323  9FA1    	MUL XL,R17
004324  0DF0    	ADD ZH,R0
004325  5FEB    	SUBI ZL,$FB
004326  4FFA    	SBCI ZH,$FA
004327  81E0    	LD ZL,Z
004328  01DB    	MOVW R27:R26,R23:R22
004329  93EC    	ST X,ZL
00432A  5F0F    	SUBI R16,$FF
00432B  4F1F    	SBCI R17,$FF
00432C  CF6B    	RJMP L884
00432D  91A0    L883:	LDS XL,$0792
00432E  0792
00432F  30A4    	CPI XL,$04
004330  F1B1    	BREQ L885
004331  E000    	LDI R16,$00
004332  E010    	LDI R17,$00
004333  310F    L887:	CPI R16,$1F
004334  E0E0    	LDI ZL,$00
004335  071E    	CPC R17,ZL
004336  F580    	BRCC L885
004337  E0A6    	LDI XL,$06
004338  9FA0    	MUL XL,R16
004339  01F0    	MOVW R31:R30,R1:R0
00433A  9FA1    	MUL XL,R17
00433B  0DF0    	ADD ZH,R0
00433C  E9A7    	LDI XL,$97
00433D  E0B7    	LDI XH,$07
00433E  0FAE    	ADD XL,ZL
00433F  1FBF    	ADC XH,ZH
004340  91EC    	LD ZL,X
004341  30E0    	CPI ZL,$00
004342  F109    	BREQ L886
004343  01F8    	MOVW R31:R30,R17:R16
004344  E0AC    	LDI XL,$0C
004345  E0B9    	LDI XH,$09
004346  0FEE    	LSL ZL
004347  1FFF    	ROL ZH
004348  0FEA    	ADD ZL,XL
004349  1FFB    	ADC ZH,XH
00434A  01CF    	MOVW R25:R24,R31:R30
00434B  E1AD    	LDI XL,$1D
00434C  E0B0    	LDI XH,$00
00434D  0FA0    	ADD XL,R16
00434E  1FB1    	ADC XH,R17
00434F  940E    	CALL L544
004350  6B16
004351  2F6E    	MOV R22,ZL
004352  2777    	CLR R23
004353  E0A6    	LDI XL,$06
004354  9FA0    	MUL XL,R16
004355  01F0    	MOVW R31:R30,R1:R0
004356  9FA1    	MUL XL,R17
004357  0DF0    	ADD ZH,R0
004358  E9AC    	LDI XL,$9C
004359  E0B7    	LDI XH,$07
00435A  0FAE    	ADD XL,ZL
00435B  1FBF    	ADC XH,ZH
00435C  91AC    	LD XL,X
00435D  27BB    	CLR XH
00435E  01FB    	MOVW R31:R30,R23:R22
00435F  1BEA    	SUB ZL,XL
004360  0BFB    	SBC ZH,XH
004361  01DC    	MOVW R27:R26,R25:R24
004362  93ED    	ST X+,ZL
004363  93FC    	ST X,ZH
004364  5F0F    L886:	SUBI R16,$FF
004365  4F1F    	SBCI R17,$FF
004366  CFCC    	RJMP L887
004367  8119    L885:	LDD R17,Y+1
004368  8108    	LD R16,Y
004369  9623    	ADIW YH:YL,3
00436A  9508    	RET
00436B  931A    L1052:	ST -Y,R17
00436C  930A    	ST -Y,R16
00436D  E000    	LDI R16,$00
00436E  E010    	LDI R17,$00
00436F  310F    L890:	CPI R16,$1F
004370  E0E0    	LDI ZL,$00
004371  071E    	CPC R17,ZL
004372  F010    	BRCS L888
004373  940C    	JMP L889
004374  43C5
004375  E0A6    L888:	LDI XL,$06
004376  9FA0    	MUL XL,R16
004377  01F0    	MOVW R31:R30,R1:R0
004378  9FA1    	MUL XL,R17
004379  0DF0    	ADD ZH,R0
00437A  E9A7    	LDI XL,$97
00437B  E0B7    	LDI XH,$07
00437C  0FAE    	ADD XL,ZL
00437D  1FBF    	ADC XH,ZH
00437E  E0E0    	LDI ZL,$00
00437F  93EC    	ST X,ZL
004380  E0A6    	LDI XL,$06
004381  9FA0    	MUL XL,R16
004382  01F0    	MOVW R31:R30,R1:R0
004383  9FA1    	MUL XL,R17
004384  0DF0    	ADD ZH,R0
004385  E9A8    	LDI XL,$98
004386  E0B7    	LDI XH,$07
004387  0FAE    	ADD XL,ZL
004388  1FBF    	ADC XH,ZH
004389  E0E0    	LDI ZL,$00
00438A  93EC    	ST X,ZL
00438B  E0A6    	LDI XL,$06
00438C  9FA0    	MUL XL,R16
00438D  01F0    	MOVW R31:R30,R1:R0
00438E  9FA1    	MUL XL,R17
00438F  0DF0    	ADD ZH,R0
004390  E9A9    	LDI XL,$99
004391  E0B7    	LDI XH,$07
004392  0FAE    	ADD XL,ZL
004393  1FBF    	ADC XH,ZH
004394  E0E0    	LDI ZL,$00
004395  93EC    	ST X,ZL
004396  E0A6    	LDI XL,$06
004397  9FA0    	MUL XL,R16
004398  01F0    	MOVW R31:R30,R1:R0
004399  9FA1    	MUL XL,R17
00439A  0DF0    	ADD ZH,R0
00439B  E9AA    	LDI XL,$9A
00439C  E0B7    	LDI XH,$07
00439D  0FAE    	ADD XL,ZL
00439E  1FBF    	ADC XH,ZH
00439F  E0E0    	LDI ZL,$00
0043A0  93EC    	ST X,ZL
0043A1  E0A6    	LDI XL,$06
0043A2  9FA0    	MUL XL,R16
0043A3  01F0    	MOVW R31:R30,R1:R0
0043A4  9FA1    	MUL XL,R17
0043A5  0DF0    	ADD ZH,R0
0043A6  E9AB    	LDI XL,$9B
0043A7  E0B7    	LDI XH,$07
0043A8  0FAE    	ADD XL,ZL
0043A9  1FBF    	ADC XH,ZH
0043AA  E0E0    	LDI ZL,$00
0043AB  93EC    	ST X,ZL
0043AC  E0A6    	LDI XL,$06
0043AD  9FA0    	MUL XL,R16
0043AE  01F0    	MOVW R31:R30,R1:R0
0043AF  9FA1    	MUL XL,R17
0043B0  0DF0    	ADD ZH,R0
0043B1  E9AC    	LDI XL,$9C
0043B2  E0B7    	LDI XH,$07
0043B3  0FAE    	ADD XL,ZL
0043B4  1FBF    	ADC XH,ZH
0043B5  E0E0    	LDI ZL,$00
0043B6  93EC    	ST X,ZL
0043B7  01F8    	MOVW R31:R30,R17:R16
0043B8  E0AC    	LDI XL,$0C
0043B9  E0B9    	LDI XH,$09
0043BA  0FEE    	LSL ZL
0043BB  1FFF    	ROL ZH
0043BC  0FAE    	ADD XL,ZL
0043BD  1FBF    	ADC XH,ZH
0043BE  E0E0    	LDI ZL,$00
0043BF  E0F0    	LDI ZH,$00
0043C0  93ED    	ST X+,ZL
0043C1  93FC    	ST X,ZH
0043C2  5F0F    	SUBI R16,$FF
0043C3  4F1F    	SBCI R17,$FF
0043C4  CFAA    	RJMP L890
0043C5  91E0    L889:	LDS ZL,$0795
0043C6  0795
0043C7  91F0    	LDS ZH,$0796
0043C8  0796
0043C9  9731    	SBIW ZH:ZL,1
0043CA  2766    	CLR R22
0043CB  2777    	CLR R23
0043CC  50E4    	SUBI ZL,$04
0043CD  4FFF    	SBCI ZH,$FF
0043CE  4F6F    	SBCI R22,$FF
0043CF  BF6B    	OUT RAMPZ,R22
0043D0  91E6    	ELPM ZL,Z
0043D1  93E0    	STS $076A,ZL
0043D2  076A
0043D3  E000    	LDI R16,$00
0043D4  E010    	LDI R17,$00
0043D5  91E0    L893:	LDS ZL,$0795
0043D6  0795
0043D7  91F0    	LDS ZH,$0796
0043D8  0796
0043D9  170E    	CP R16,ZL
0043DA  071F    	CPC R17,ZH
0043DB  F010    	BRCS L891
0043DC  940C    	JMP L892
0043DD  4478
0043DE  01F8    L891:	MOVW R31:R30,R17:R16
0043DF  2766    	CLR R22
0043E0  2777    	CLR R23
0043E1  50E4    	SUBI ZL,$04
0043E2  4FFF    	SBCI ZH,$FF
0043E3  4F6F    	SBCI R22,$FF
0043E4  BF6B    	OUT RAMPZ,R22
0043E5  91E6    	ELPM ZL,Z
0043E6  E0A6    	LDI XL,$06
0043E7  9FEA    	MUL ZL,XL
0043E8  01F0    	MOVW R31:R30,R1:R0
0043E9  E9A7    	LDI XL,$97
0043EA  E0B7    	LDI XH,$07
0043EB  0FAE    	ADD XL,ZL
0043EC  1FBF    	ADC XH,ZH
0043ED  E0E1    	LDI ZL,$01
0043EE  93EC    	ST X,ZL
0043EF  01F8    	MOVW R31:R30,R17:R16
0043F0  2766    	CLR R22
0043F1  2777    	CLR R23
0043F2  50E4    	SUBI ZL,$04
0043F3  4FFF    	SBCI ZH,$FF
0043F4  4F6F    	SBCI R22,$FF
0043F5  BF6B    	OUT RAMPZ,R22
0043F6  91E6    	ELPM ZL,Z
0043F7  E0A6    	LDI XL,$06
0043F8  9FEA    	MUL ZL,XL
0043F9  01F0    	MOVW R31:R30,R1:R0
0043FA  56E8    	SUBI ZL,$68
0043FB  4FF8    	SBCI ZH,$F8
0043FC  010F    	MOVW R1:R0,R31:R30
0043FD  01F8    	MOVW R31:R30,R17:R16
0043FE  91A0    	LDS XL,$0773
0043FF  0773
004400  91B0    	LDS XH,$0774
004401  0774
004402  9180    	LDS R24,$0775
004403  0775
004404  9190    	LDS R25,$0776
004405  0776
004406  2766    	CLR R22
004407  2777    	CLR R23
004408  940E    	CALL L871
004409  6A90
00440A  BF6B    	OUT RAMPZ,R22
00440B  91E6    	ELPM ZL,Z
00440C  01D0    	MOVW R27:R26,R1:R0
00440D  93EC    	ST X,ZL
00440E  01F8    	MOVW R31:R30,R17:R16
00440F  2766    	CLR R22
004410  2777    	CLR R23
004411  50E4    	SUBI ZL,$04
004412  4FFF    	SBCI ZH,$FF
004413  4F6F    	SBCI R22,$FF
004414  BF6B    	OUT RAMPZ,R22
004415  91E6    	ELPM ZL,Z
004416  E0A6    	LDI XL,$06
004417  9FEA    	MUL ZL,XL
004418  01F0    	MOVW R31:R30,R1:R0
004419  56E7    	SUBI ZL,$67
00441A  4FF8    	SBCI ZH,$F8
00441B  010F    	MOVW R1:R0,R31:R30
00441C  01F8    	MOVW R31:R30,R17:R16
00441D  91A0    	LDS XL,$0777
00441E  0777
00441F  91B0    	LDS XH,$0778
004420  0778
004421  9180    	LDS R24,$0779
004422  0779
004423  9190    	LDS R25,$077A
004424  077A
004425  2766    	CLR R22
004426  2777    	CLR R23
004427  940E    	CALL L871
004428  6A90
004429  BF6B    	OUT RAMPZ,R22
00442A  91E6    	ELPM ZL,Z
00442B  01D0    	MOVW R27:R26,R1:R0
00442C  93EC    	ST X,ZL
00442D  01F8    	MOVW R31:R30,R17:R16
00442E  2766    	CLR R22
00442F  2777    	CLR R23
004430  50E4    	SUBI ZL,$04
004431  4FFF    	SBCI ZH,$FF
004432  4F6F    	SBCI R22,$FF
004433  BF6B    	OUT RAMPZ,R22
004434  91E6    	ELPM ZL,Z
004435  E0A6    	LDI XL,$06
004436  9FEA    	MUL ZL,XL
004437  01F0    	MOVW R31:R30,R1:R0
004438  56E6    	SUBI ZL,$66
004439  4FF8    	SBCI ZH,$F8
00443A  010F    	MOVW R1:R0,R31:R30
00443B  01F8    	MOVW R31:R30,R17:R16
00443C  91A0    	LDS XL,$077B
00443D  077B
00443E  91B0    	LDS XH,$077C
00443F  077C
004440  9180    	LDS R24,$077D
004441  077D
004442  9190    	LDS R25,$077E
004443  077E
004444  2766    	CLR R22
004445  2777    	CLR R23
004446  940E    	CALL L871
004447  6A90
004448  BF6B    	OUT RAMPZ,R22
004449  91E6    	ELPM ZL,Z
00444A  01D0    	MOVW R27:R26,R1:R0
00444B  93EC    	ST X,ZL
00444C  01F8    	MOVW R31:R30,R17:R16
00444D  2766    	CLR R22
00444E  2777    	CLR R23
00444F  50E4    	SUBI ZL,$04
004450  4FFF    	SBCI ZH,$FF
004451  4F6F    	SBCI R22,$FF
004452  BF6B    	OUT RAMPZ,R22
004453  91E6    	ELPM ZL,Z
004454  E0A6    	LDI XL,$06
004455  9FEA    	MUL ZL,XL
004456  01F0    	MOVW R31:R30,R1:R0
004457  E9AB    	LDI XL,$9B
004458  E0B7    	LDI XH,$07
004459  0FAE    	ADD XL,ZL
00445A  1FBF    	ADC XH,ZH
00445B  E0E1    	LDI ZL,$01
00445C  93EC    	ST X,ZL
00445D  01F8    	MOVW R31:R30,R17:R16
00445E  2766    	CLR R22
00445F  2777    	CLR R23
004460  50E4    	SUBI ZL,$04
004461  4FFF    	SBCI ZH,$FF
004462  4F6F    	SBCI R22,$FF
004463  BF6B    	OUT RAMPZ,R22
004464  91E6    	ELPM ZL,Z
004465  E0A6    	LDI XL,$06
004466  9FEA    	MUL ZL,XL
004467  01F0    	MOVW R31:R30,R1:R0
004468  E9AC    	LDI XL,$9C
004469  E0B7    	LDI XH,$07
00446A  0FAE    	ADD XL,ZL
00446B  1FBF    	ADC XH,ZH
00446C  01F8    	MOVW R31:R30,R17:R16
00446D  2766    	CLR R22
00446E  2777    	CLR R23
00446F  5FE4    	SUBI ZL,$F4
004470  4FFE    	SBCI ZH,$FE
004471  4F6F    	SBCI R22,$FF
004472  BF6B    	OUT RAMPZ,R22
004473  91E6    	ELPM ZL,Z
004474  93EC    	ST X,ZL
004475  5F0F    	SUBI R16,$FF
004476  4F1F    	SBCI R17,$FF
004477  CF5D    	RJMP L893
004478  E000    L892:	LDI R16,$00
004479  E010    	LDI R17,$00
00447A  91E0    L895:	LDS ZL,$0795
00447B  0795
00447C  91F0    	LDS ZH,$0796
00447D  0796
00447E  170E    	CP R16,ZL
00447F  071F    	CPC R17,ZH
004480  F520    	BRCC L894
004481  01F8    	MOVW R31:R30,R17:R16
004482  E0AC    	LDI XL,$0C
004483  E0B9    	LDI XH,$09
004484  0FEE    	LSL ZL
004485  1FFF    	ROL ZH
004486  0FEA    	ADD ZL,XL
004487  1FFB    	ADC ZH,XH
004488  01CF    	MOVW R25:R24,R31:R30
004489  E1AD    	LDI XL,$1D
00448A  E0B0    	LDI XH,$00
00448B  0FA0    	ADD XL,R16
00448C  1FB1    	ADC XH,R17
00448D  940E    	CALL L544
00448E  6B16
00448F  2F6E    	MOV R22,ZL
004490  2777    	CLR R23
004491  E0A6    	LDI XL,$06
004492  9FA0    	MUL XL,R16
004493  01F0    	MOVW R31:R30,R1:R0
004494  9FA1    	MUL XL,R17
004495  0DF0    	ADD ZH,R0
004496  E9AC    	LDI XL,$9C
004497  E0B7    	LDI XH,$07
004498  0FAE    	ADD XL,ZL
004499  1FBF    	ADC XH,ZH
00449A  91AC    	LD XL,X
00449B  27BB    	CLR XH
00449C  01FB    	MOVW R31:R30,R23:R22
00449D  1BEA    	SUB ZL,XL
00449E  0BFB    	SBC ZH,XH
00449F  01DC    	MOVW R27:R26,R25:R24
0044A0  93ED    	ST X+,ZL
0044A1  93FC    	ST X,ZH
0044A2  5F0F    	SUBI R16,$FF
0044A3  4F1F    	SBCI R17,$FF
0044A4  CFD5    	RJMP L895
0044A5  C481    L894:	RJMP L896
0044A6  931A    L982:	ST -Y,R17
0044A7  930A    	ST -Y,R16
0044A8  9857    	CBI UCSR0B,RXCIE0
0044A9  9A56    	SBI UCSR0B,TXCIE0
0044AA  91E0    L897:	LDS ZL,$069B
0044AB  069B
0044AC  30E0    	CPI ZL,$00
0044AD  F7E1    	BRNE L897
0044AE  E000    	LDI R16,$00
0044AF  E010    	LDI R17,$00
0044B0  310F    L901:	CPI R16,$1F
0044B1  E0E0    	LDI ZL,$00
0044B2  071E    	CPC R17,ZL
0044B3  F550    	BRCC L898
0044B4  E0A6    	LDI XL,$06
0044B5  9FA0    	MUL XL,R16
0044B6  01F0    	MOVW R31:R30,R1:R0
0044B7  9FA1    	MUL XL,R17
0044B8  0DF0    	ADD ZH,R0
0044B9  E9A7    	LDI XL,$97
0044BA  E0B7    	LDI XH,$07
0044BB  0FAE    	ADD XL,ZL
0044BC  1FBF    	ADC XH,ZH
0044BD  91EC    	LD ZL,X
0044BE  30E0    	CPI ZL,$00
0044BF  F0D9    	BREQ L899
0044C0  930A    	ST -Y,R16
0044C1  E0EB    	LDI ZL,$0B
0044C2  93EA    	ST -Y,ZL
0044C3  E0A6    	LDI XL,$06
0044C4  9FA0    	MUL XL,R16
0044C5  01F0    	MOVW R31:R30,R1:R0
0044C6  9FA1    	MUL XL,R17
0044C7  0DF0    	ADD ZH,R0
0044C8  E9A8    	LDI XL,$98
0044C9  E0B7    	LDI XH,$07
0044CA  0FAE    	ADD XL,ZL
0044CB  1FBF    	ADC XH,ZH
0044CC  91EC    	LD ZL,X
0044CD  93EA    	ST -Y,ZL
0044CE  E0A6    	LDI XL,$06
0044CF  9FA0    	MUL XL,R16
0044D0  01F0    	MOVW R31:R30,R1:R0
0044D1  9FA1    	MUL XL,R17
0044D2  0DF0    	ADD ZH,R0
0044D3  E9A9    	LDI XL,$99
0044D4  E0B7    	LDI XH,$07
0044D5  0FAE    	ADD XL,ZL
0044D6  1FBF    	ADC XH,ZH
0044D7  91EC    	LD ZL,X
0044D8  93EA    	ST -Y,ZL
0044D9  940E    	CALL L900
0044DA  401D
0044DB  5F0F    L899:	SUBI R16,$FF
0044DC  4F1F    	SBCI R17,$FF
0044DD  CFD2    	RJMP L901
0044DE  91E0    L898:	LDS ZL,$069D
0044DF  069D
0044E0  5FEF    	SUBI ZL,$FF
0044E1  93E0    	STS $069D,ZL
0044E2  069D
0044E3  50E1    	SUBI ZL,$01
0044E4  E0F0    	LDI ZH,$00
0044E5  51EF    	SUBI ZL,$1F
0044E6  4FFA    	SBCI ZH,$FA
0044E7  81E0    	LD ZL,Z
0044E8  93EA    	ST -Y,ZL
0044E9  940E    	CALL L856
0044EA  3FDC
0044EB  91E0    L902:	LDS ZL,$069B
0044EC  069B
0044ED  30E0    	CPI ZL,$00
0044EE  F7E1    	BRNE L902
0044EF  E000    	LDI R16,$00
0044F0  E010    	LDI R17,$00
0044F1  310F    L905:	CPI R16,$1F
0044F2  E0E0    	LDI ZL,$00
0044F3  071E    	CPC R17,ZL
0044F4  F550    	BRCC L903
0044F5  E0A6    	LDI XL,$06
0044F6  9FA0    	MUL XL,R16
0044F7  01F0    	MOVW R31:R30,R1:R0
0044F8  9FA1    	MUL XL,R17
0044F9  0DF0    	ADD ZH,R0
0044FA  E9A7    	LDI XL,$97
0044FB  E0B7    	LDI XH,$07
0044FC  0FAE    	ADD XL,ZL
0044FD  1FBF    	ADC XH,ZH
0044FE  91EC    	LD ZL,X
0044FF  30E0    	CPI ZL,$00
004500  F0D9    	BREQ L904
004501  930A    	ST -Y,R16
004502  E1E8    	LDI ZL,$18
004503  93EA    	ST -Y,ZL
004504  E0A6    	LDI XL,$06
004505  9FA0    	MUL XL,R16
004506  01F0    	MOVW R31:R30,R1:R0
004507  9FA1    	MUL XL,R17
004508  0DF0    	ADD ZH,R0
004509  E9AA    	LDI XL,$9A
00450A  E0B7    	LDI XH,$07
00450B  0FAE    	ADD XL,ZL
00450C  1FBF    	ADC XH,ZH
00450D  91EC    	LD ZL,X
00450E  93EA    	ST -Y,ZL
00450F  E0A6    	LDI XL,$06
004510  9FA0    	MUL XL,R16
004511  01F0    	MOVW R31:R30,R1:R0
004512  9FA1    	MUL XL,R17
004513  0DF0    	ADD ZH,R0
004514  E9AA    	LDI XL,$9A
004515  E0B7    	LDI XH,$07
004516  0FAE    	ADD XL,ZL
004517  1FBF    	ADC XH,ZH
004518  91EC    	LD ZL,X
004519  93EA    	ST -Y,ZL
00451A  940E    	CALL L900
00451B  401D
00451C  5F0F    L904:	SUBI R16,$FF
00451D  4F1F    	SBCI R17,$FF
00451E  CFD2    	RJMP L905
00451F  91E0    L903:	LDS ZL,$069D
004520  069D
004521  5FEF    	SUBI ZL,$FF
004522  93E0    	STS $069D,ZL
004523  069D
004524  50E1    	SUBI ZL,$01
004525  E0F0    	LDI ZH,$00
004526  51EF    	SUBI ZL,$1F
004527  4FFA    	SBCI ZH,$FA
004528  81E0    	LD ZL,Z
004529  93EA    	ST -Y,ZL
00452A  940E    	CALL L856
00452B  3FDC
00452C  C3FA    	RJMP L896
00452D  931A    L997:	ST -Y,R17
00452E  930A    	ST -Y,R16
00452F  9857    	CBI UCSR0B,RXCIE0
004530  9A56    	SBI UCSR0B,TXCIE0
004531  91E0    L906:	LDS ZL,$069B
004532  069B
004533  30E0    	CPI ZL,$00
004534  F7E1    	BRNE L906
004535  E000    	LDI R16,$00
004536  E010    	LDI R17,$00
004537  310F    L909:	CPI R16,$1F
004538  E0E0    	LDI ZL,$00
004539  071E    	CPC R17,ZL
00453A  F550    	BRCC L907
00453B  E0A5    	LDI XL,$05
00453C  9FA0    	MUL XL,R16
00453D  01F0    	MOVW R31:R30,R1:R0
00453E  9FA1    	MUL XL,R17
00453F  0DF0    	ADD ZH,R0
004540  E5A9    	LDI XL,$59
004541  E0B8    	LDI XH,$08
004542  0FAE    	ADD XL,ZL
004543  1FBF    	ADC XH,ZH
004544  91EC    	LD ZL,X
004545  30E0    	CPI ZL,$00
004546  F0D9    	BREQ L908
004547  930A    	ST -Y,R16
004548  E6E4    	LDI ZL,$64
004549  93EA    	ST -Y,ZL
00454A  E0A5    	LDI XL,$05
00454B  9FA0    	MUL XL,R16
00454C  01F0    	MOVW R31:R30,R1:R0
00454D  9FA1    	MUL XL,R17
00454E  0DF0    	ADD ZH,R0
00454F  E5AD    	LDI XL,$5D
004550  E0B8    	LDI XH,$08
004551  0FAE    	ADD XL,ZL
004552  1FBF    	ADC XH,ZH
004553  91EC    	LD ZL,X
004554  93EA    	ST -Y,ZL
004555  E0A5    	LDI XL,$05
004556  9FA0    	MUL XL,R16
004557  01F0    	MOVW R31:R30,R1:R0
004558  9FA1    	MUL XL,R17
004559  0DF0    	ADD ZH,R0
00455A  E5AD    	LDI XL,$5D
00455B  E0B8    	LDI XH,$08
00455C  0FAE    	ADD XL,ZL
00455D  1FBF    	ADC XH,ZH
00455E  91EC    	LD ZL,X
00455F  93EA    	ST -Y,ZL
004560  940E    	CALL L900
004561  401D
004562  5F0F    L908:	SUBI R16,$FF
004563  4F1F    	SBCI R17,$FF
004564  CFD2    	RJMP L909
004565  91E0    L907:	LDS ZL,$069D
004566  069D
004567  5FEF    	SUBI ZL,$FF
004568  93E0    	STS $069D,ZL
004569  069D
00456A  50E1    	SUBI ZL,$01
00456B  E0F0    	LDI ZH,$00
00456C  51EF    	SUBI ZL,$1F
00456D  4FFA    	SBCI ZH,$FA
00456E  81E0    	LD ZL,Z
00456F  93EA    	ST -Y,ZL
004570  940E    	CALL L856
004571  3FDC
004572  C3B4    	RJMP L896
004573  940E    L1033:	CALL L910
004574  6CB8
004575  91E0    	LDS ZL,$0795
004576  0795
004577  91F0    	LDS ZH,$0796
004578  0796
004579  E0A5    	LDI XL,$05
00457A  E0B0    	LDI XH,$00
00457B  940E    	CALL L878
00457C  6AD1
00457D  9636    	ADIW ZH:ZL,6
00457E  019F    	MOVW R19:R18,R31:R30
00457F  91E0    	LDS ZL,$094A
004580  094A
004581  91F0    	LDS ZH,$094B
004582  094B
004583  93FA    	ST -Y,ZH
004584  93EA    	ST -Y,ZL
004585  933A    	ST -Y,R19
004586  932A    	ST -Y,R18
004587  940E    	CALL L538
004588  67F1
004589  01F9    	MOVW R31:R30,R19:R18
00458A  91A0    	LDS XL,$094A
00458B  094A
00458C  91B0    	LDS XH,$094B
00458D  094B
00458E  0FEA    	ADD ZL,XL
00458F  1FFB    	ADC ZH,XH
004590  93E0    	STS $094A,ZL
004591  094A
004592  93F0    	STS $094B,ZH
004593  094B
004594  E000    	LDI R16,$00
004595  E010    	LDI R17,$00
004596  3002    L912:	CPI R16,$02
004597  E0E0    	LDI ZL,$00
004598  071E    	CPC R17,ZL
004599  F4C0    	BRCC L911
00459A  E0E0    	LDI ZL,$00
00459B  93E0    	STS $090A,ZL
00459C  090A
00459D  93F0    	STS $090B,ZH
00459E  090B
00459F  E0A0    	LDI XL,$00
0045A0  E0B5    	LDI XH,$05
0045A1  0FA0    	ADD XL,R16
0045A2  1FB1    	ADC XH,R17
0045A3  91EC    	LD ZL,X
0045A4  91A0    	LDS XL,$090A
0045A5  090A
0045A6  91B0    	LDS XH,$090B
0045A7  090B
0045A8  E0F0    	LDI ZH,$00
0045A9  0FEA    	ADD ZL,XL
0045AA  1FFB    	ADC ZH,XH
0045AB  93E0    	STS $090A,ZL
0045AC  090A
0045AD  93F0    	STS $090B,ZH
0045AE  090B
0045AF  5F0F    	SUBI R16,$FF
0045B0  4F1F    	SBCI R17,$FF
0045B1  CFE4    	RJMP L912
0045B2  E002    L911:	LDI R16,$02
0045B3  E010    	LDI R17,$00
0045B4  3004    L914:	CPI R16,$04
0045B5  E0E0    	LDI ZL,$00
0045B6  071E    	CPC R17,ZL
0045B7  F4D0    	BRCC L913
0045B8  91F0    	LDS ZH,$0855
0045B9  0855
0045BA  E0E0    	LDI ZL,$00
0045BB  93E0    	STS $0855,ZL
0045BC  0855
0045BD  93F0    	STS $0856,ZH
0045BE  0856
0045BF  E5A5    	LDI XL,$55
0045C0  E0B8    	LDI XH,$08
0045C1  01BD    	MOVW R23:R22,R27:R26
0045C2  900D    	LD R0,X+
0045C3  901C    	LD R1,X
0045C4  E0A0    	LDI XL,$00
0045C5  E0B5    	LDI XH,$05
0045C6  0FA0    	ADD XL,R16
0045C7  1FB1    	ADC XH,R17
0045C8  91EC    	LD ZL,X
0045C9  E0F0    	LDI ZH,$00
0045CA  0DE0    	ADD ZL,R0
0045CB  1DF1    	ADC ZH,R1
0045CC  01DB    	MOVW R27:R26,R23:R22
0045CD  93ED    	ST X+,ZL
0045CE  93FC    	ST X,ZH
0045CF  5F0F    	SUBI R16,$FF
0045D0  4F1F    	SBCI R17,$FF
0045D1  CFE2    	RJMP L914
0045D2  E004    L913:	LDI R16,$04
0045D3  E010    	LDI R17,$00
0045D4  3006    L916:	CPI R16,$06
0045D5  E0E0    	LDI ZL,$00
0045D6  071E    	CPC R17,ZL
0045D7  F4D0    	BRCC L915
0045D8  91F0    	LDS ZH,$0857
0045D9  0857
0045DA  E0E0    	LDI ZL,$00
0045DB  93E0    	STS $0857,ZL
0045DC  0857
0045DD  93F0    	STS $0858,ZH
0045DE  0858
0045DF  E5A7    	LDI XL,$57
0045E0  E0B8    	LDI XH,$08
0045E1  01BD    	MOVW R23:R22,R27:R26
0045E2  900D    	LD R0,X+
0045E3  901C    	LD R1,X
0045E4  E0A0    	LDI XL,$00
0045E5  E0B5    	LDI XH,$05
0045E6  0FA0    	ADD XL,R16
0045E7  1FB1    	ADC XH,R17
0045E8  91EC    	LD ZL,X
0045E9  E0F0    	LDI ZH,$00
0045EA  0DE0    	ADD ZL,R0
0045EB  1DF1    	ADC ZH,R1
0045EC  01DB    	MOVW R27:R26,R23:R22
0045ED  93ED    	ST X+,ZL
0045EE  93FC    	ST X,ZH
0045EF  5F0F    	SUBI R16,$FF
0045F0  4F1F    	SBCI R17,$FF
0045F1  CFE2    	RJMP L916
0045F2  E000    L915:	LDI R16,$00
0045F3  E010    	LDI R17,$00
0045F4  310F    L918:	CPI R16,$1F
0045F5  E0E0    	LDI ZL,$00
0045F6  071E    	CPC R17,ZL
0045F7  F5D0    	BRCC L917
0045F8  E0A5    	LDI XL,$05
0045F9  9FA0    	MUL XL,R16
0045FA  01F0    	MOVW R31:R30,R1:R0
0045FB  9FA1    	MUL XL,R17
0045FC  0DF0    	ADD ZH,R0
0045FD  E5A9    	LDI XL,$59
0045FE  E0B8    	LDI XH,$08
0045FF  0FAE    	ADD XL,ZL
004600  1FBF    	ADC XH,ZH
004601  E0E0    	LDI ZL,$00
004602  93EC    	ST X,ZL
004603  E0A5    	LDI XL,$05
004604  9FA0    	MUL XL,R16
004605  01F0    	MOVW R31:R30,R1:R0
004606  9FA1    	MUL XL,R17
004607  0DF0    	ADD ZH,R0
004608  E5AA    	LDI XL,$5A
004609  E0B8    	LDI XH,$08
00460A  0FAE    	ADD XL,ZL
00460B  1FBF    	ADC XH,ZH
00460C  E0E0    	LDI ZL,$00
00460D  93EC    	ST X,ZL
00460E  E0A5    	LDI XL,$05
00460F  9FA0    	MUL XL,R16
004610  01F0    	MOVW R31:R30,R1:R0
004611  9FA1    	MUL XL,R17
004612  0DF0    	ADD ZH,R0
004613  E5AB    	LDI XL,$5B
004614  E0B8    	LDI XH,$08
004615  0FAE    	ADD XL,ZL
004616  1FBF    	ADC XH,ZH
004617  E0E0    	LDI ZL,$00
004618  93EC    	ST X,ZL
004619  E0A5    	LDI XL,$05
00461A  9FA0    	MUL XL,R16
00461B  01F0    	MOVW R31:R30,R1:R0
00461C  9FA1    	MUL XL,R17
00461D  0DF0    	ADD ZH,R0
00461E  E5AC    	LDI XL,$5C
00461F  E0B8    	LDI XH,$08
004620  0FAE    	ADD XL,ZL
004621  1FBF    	ADC XH,ZH
004622  E0E0    	LDI ZL,$00
004623  93EC    	ST X,ZL
004624  E0A5    	LDI XL,$05
004625  9FA0    	MUL XL,R16
004626  01F0    	MOVW R31:R30,R1:R0
004627  9FA1    	MUL XL,R17
004628  0DF0    	ADD ZH,R0
004629  E5AD    	LDI XL,$5D
00462A  E0B8    	LDI XH,$08
00462B  0FAE    	ADD XL,ZL
00462C  1FBF    	ADC XH,ZH
00462D  E0E0    	LDI ZL,$00
00462E  93EC    	ST X,ZL
00462F  5F0F    	SUBI R16,$FF
004630  4F1F    	SBCI R17,$FF
004631  CFC2    	RJMP L918
004632  E000    L917:	LDI R16,$00
004633  E010    	LDI R17,$00
004634  91E0    L921:	LDS ZL,$0795
004635  0795
004636  91F0    	LDS ZH,$0796
004637  0796
004638  170E    	CP R16,ZL
004639  071F    	CPC R17,ZH
00463A  F010    	BRCS L919
00463B  940C    	JMP L920
00463C  46B1
00463D  E0A5    L919:	LDI XL,$05
00463E  9FA0    	MUL XL,R16
00463F  01F0    	MOVW R31:R30,R1:R0
004640  9FA1    	MUL XL,R17
004641  0DF0    	ADD ZH,R0
004642  5FEA    	SUBI ZL,$FA
004643  4FFA    	SBCI ZH,$FA
004644  81E0    	LD ZL,Z
004645  E0A5    	LDI XL,$05
004646  9FEA    	MUL ZL,XL
004647  01F0    	MOVW R31:R30,R1:R0
004648  E5A9    	LDI XL,$59
004649  E0B8    	LDI XH,$08
00464A  0FAE    	ADD XL,ZL
00464B  1FBF    	ADC XH,ZH
00464C  E0E1    	LDI ZL,$01
00464D  93EC    	ST X,ZL
00464E  E0A5    	LDI XL,$05
00464F  9FA0    	MUL XL,R16
004650  01F0    	MOVW R31:R30,R1:R0
004651  9FA1    	MUL XL,R17
004652  0DF0    	ADD ZH,R0
004653  5FEA    	SUBI ZL,$FA
004654  4FFA    	SBCI ZH,$FA
004655  81E0    	LD ZL,Z
004656  E0A5    	LDI XL,$05
004657  9FEA    	MUL ZL,XL
004658  01F0    	MOVW R31:R30,R1:R0
004659  5AE6    	SUBI ZL,$A6
00465A  4FF7    	SBCI ZH,$F7
00465B  01BF    	MOVW R23:R22,R31:R30
00465C  E0A5    	LDI XL,$05
00465D  9FA0    	MUL XL,R16
00465E  01F0    	MOVW R31:R30,R1:R0
00465F  9FA1    	MUL XL,R17
004660  0DF0    	ADD ZH,R0
004661  5FE9    	SUBI ZL,$F9
004662  4FFA    	SBCI ZH,$FA
004663  81E0    	LD ZL,Z
004664  01DB    	MOVW R27:R26,R23:R22
004665  93EC    	ST X,ZL
004666  E0A5    	LDI XL,$05
004667  9FA0    	MUL XL,R16
004668  01F0    	MOVW R31:R30,R1:R0
004669  9FA1    	MUL XL,R17
00466A  0DF0    	ADD ZH,R0
00466B  5FEA    	SUBI ZL,$FA
00466C  4FFA    	SBCI ZH,$FA
00466D  81E0    	LD ZL,Z
00466E  E0A5    	LDI XL,$05
00466F  9FEA    	MUL ZL,XL
004670  01F0    	MOVW R31:R30,R1:R0
004671  5AE5    	SUBI ZL,$A5
004672  4FF7    	SBCI ZH,$F7
004673  01BF    	MOVW R23:R22,R31:R30
004674  E0A5    	LDI XL,$05
004675  9FA0    	MUL XL,R16
004676  01F0    	MOVW R31:R30,R1:R0
004677  9FA1    	MUL XL,R17
004678  0DF0    	ADD ZH,R0
004679  5FE8    	SUBI ZL,$F8
00467A  4FFA    	SBCI ZH,$FA
00467B  81E0    	LD ZL,Z
00467C  01DB    	MOVW R27:R26,R23:R22
00467D  93EC    	ST X,ZL
00467E  E0A5    	LDI XL,$05
00467F  9FA0    	MUL XL,R16
004680  01F0    	MOVW R31:R30,R1:R0
004681  9FA1    	MUL XL,R17
004682  0DF0    	ADD ZH,R0
004683  5FEA    	SUBI ZL,$FA
004684  4FFA    	SBCI ZH,$FA
004685  81E0    	LD ZL,Z
004686  E0A5    	LDI XL,$05
004687  9FEA    	MUL ZL,XL
004688  01F0    	MOVW R31:R30,R1:R0
004689  5AE4    	SUBI ZL,$A4
00468A  4FF7    	SBCI ZH,$F7
00468B  01BF    	MOVW R23:R22,R31:R30
00468C  E0A5    	LDI XL,$05
00468D  9FA0    	MUL XL,R16
00468E  01F0    	MOVW R31:R30,R1:R0
00468F  9FA1    	MUL XL,R17
004690  0DF0    	ADD ZH,R0
004691  5FE7    	SUBI ZL,$F7
004692  4FFA    	SBCI ZH,$FA
004693  81E0    	LD ZL,Z
004694  01DB    	MOVW R27:R26,R23:R22
004695  93EC    	ST X,ZL
004696  E0A5    	LDI XL,$05
004697  9FA0    	MUL XL,R16
004698  01F0    	MOVW R31:R30,R1:R0
004699  9FA1    	MUL XL,R17
00469A  0DF0    	ADD ZH,R0
00469B  5FEA    	SUBI ZL,$FA
00469C  4FFA    	SBCI ZH,$FA
00469D  81E0    	LD ZL,Z
00469E  E0A5    	LDI XL,$05
00469F  9FEA    	MUL ZL,XL
0046A0  01F0    	MOVW R31:R30,R1:R0
0046A1  5AE3    	SUBI ZL,$A3
0046A2  4FF7    	SBCI ZH,$F7
0046A3  01BF    	MOVW R23:R22,R31:R30
0046A4  E0A5    	LDI XL,$05
0046A5  9FA0    	MUL XL,R16
0046A6  01F0    	MOVW R31:R30,R1:R0
0046A7  9FA1    	MUL XL,R17
0046A8  0DF0    	ADD ZH,R0
0046A9  5FE6    	SUBI ZL,$F6
0046AA  4FFA    	SBCI ZH,$FA
0046AB  81E0    	LD ZL,Z
0046AC  01DB    	MOVW R27:R26,R23:R22
0046AD  93EC    	ST X,ZL
0046AE  5F0F    	SUBI R16,$FF
0046AF  4F1F    	SBCI R17,$FF
0046B0  CF83    	RJMP L921
0046B1  C516    L920:	RJMP L922
0046B2  931A    L1065:	ST -Y,R17
0046B3  930A    	ST -Y,R16
0046B4  91E0    	LDS ZL,$090A
0046B5  090A
0046B6  91F0    	LDS ZH,$090B
0046B7  090B
0046B8  91A0    	LDS XL,$077F
0046B9  077F
0046BA  91B0    	LDS XH,$0780
0046BB  0780
0046BC  9180    	LDS R24,$0781
0046BD  0781
0046BE  9190    	LDS R25,$0782
0046BF  0782
0046C0  2766    	CLR R22
0046C1  2777    	CLR R23
0046C2  940E    	CALL L923
0046C3  6ABC
0046C4  940E    	CALL L871
0046C5  6A90
0046C6  940E    	CALL L924
0046C7  6AFB
0046C8  93E0    	STS $0855,ZL
0046C9  0855
0046CA  93F0    	STS $0856,ZH
0046CB  0856
0046CC  91E0    	LDS ZL,$090A
0046CD  090A
0046CE  91F0    	LDS ZH,$090B
0046CF  090B
0046D0  91A0    	LDS XL,$0783
0046D1  0783
0046D2  91B0    	LDS XH,$0784
0046D3  0784
0046D4  9180    	LDS R24,$0785
0046D5  0785
0046D6  9190    	LDS R25,$0786
0046D7  0786
0046D8  2766    	CLR R22
0046D9  2777    	CLR R23
0046DA  940E    	CALL L923
0046DB  6ABC
0046DC  940E    	CALL L871
0046DD  6A90
0046DE  940E    	CALL L924
0046DF  6AFB
0046E0  93E0    	STS $0857,ZL
0046E1  0857
0046E2  93F0    	STS $0858,ZH
0046E3  0858
0046E4  E000    	LDI R16,$00
0046E5  E010    	LDI R17,$00
0046E6  310F    L926:	CPI R16,$1F
0046E7  E0E0    	LDI ZL,$00
0046E8  071E    	CPC R17,ZL
0046E9  F5D0    	BRCC L925
0046EA  E0A5    	LDI XL,$05
0046EB  9FA0    	MUL XL,R16
0046EC  01F0    	MOVW R31:R30,R1:R0
0046ED  9FA1    	MUL XL,R17
0046EE  0DF0    	ADD ZH,R0
0046EF  E5A9    	LDI XL,$59
0046F0  E0B8    	LDI XH,$08
0046F1  0FAE    	ADD XL,ZL
0046F2  1FBF    	ADC XH,ZH
0046F3  E0E0    	LDI ZL,$00
0046F4  93EC    	ST X,ZL
0046F5  E0A5    	LDI XL,$05
0046F6  9FA0    	MUL XL,R16
0046F7  01F0    	MOVW R31:R30,R1:R0
0046F8  9FA1    	MUL XL,R17
0046F9  0DF0    	ADD ZH,R0
0046FA  E5AA    	LDI XL,$5A
0046FB  E0B8    	LDI XH,$08
0046FC  0FAE    	ADD XL,ZL
0046FD  1FBF    	ADC XH,ZH
0046FE  E0E0    	LDI ZL,$00
0046FF  93EC    	ST X,ZL
004700  E0A5    	LDI XL,$05
004701  9FA0    	MUL XL,R16
004702  01F0    	MOVW R31:R30,R1:R0
004703  9FA1    	MUL XL,R17
004704  0DF0    	ADD ZH,R0
004705  E5AB    	LDI XL,$5B
004706  E0B8    	LDI XH,$08
004707  0FAE    	ADD XL,ZL
004708  1FBF    	ADC XH,ZH
004709  E0E0    	LDI ZL,$00
00470A  93EC    	ST X,ZL
00470B  E0A5    	LDI XL,$05
00470C  9FA0    	MUL XL,R16
00470D  01F0    	MOVW R31:R30,R1:R0
00470E  9FA1    	MUL XL,R17
00470F  0DF0    	ADD ZH,R0
004710  E5AC    	LDI XL,$5C
004711  E0B8    	LDI XH,$08
004712  0FAE    	ADD XL,ZL
004713  1FBF    	ADC XH,ZH
004714  E0E0    	LDI ZL,$00
004715  93EC    	ST X,ZL
004716  E0A5    	LDI XL,$05
004717  9FA0    	MUL XL,R16
004718  01F0    	MOVW R31:R30,R1:R0
004719  9FA1    	MUL XL,R17
00471A  0DF0    	ADD ZH,R0
00471B  E5AD    	LDI XL,$5D
00471C  E0B8    	LDI XH,$08
00471D  0FAE    	ADD XL,ZL
00471E  1FBF    	ADC XH,ZH
00471F  E0E0    	LDI ZL,$00
004720  93EC    	ST X,ZL
004721  5F0F    	SUBI R16,$FF
004722  4F1F    	SBCI R17,$FF
004723  CFC2    	RJMP L926
004724  E000    L925:	LDI R16,$00
004725  E010    	LDI R17,$00
004726  91E0    L929:	LDS ZL,$0795
004727  0795
004728  91F0    	LDS ZH,$0796
004729  0796
00472A  170E    	CP R16,ZL
00472B  071F    	CPC R17,ZH
00472C  F010    	BRCS L927
00472D  940C    	JMP L928
00472E  47F4
00472F  01F8    L927:	MOVW R31:R30,R17:R16
004730  2766    	CLR R22
004731  2777    	CLR R23
004732  50E4    	SUBI ZL,$04
004733  4FFF    	SBCI ZH,$FF
004734  4F6F    	SBCI R22,$FF
004735  BF6B    	OUT RAMPZ,R22
004736  91E6    	ELPM ZL,Z
004737  E0A5    	LDI XL,$05
004738  9FEA    	MUL ZL,XL
004739  01F0    	MOVW R31:R30,R1:R0
00473A  E5A9    	LDI XL,$59
00473B  E0B8    	LDI XH,$08
00473C  0FAE    	ADD XL,ZL
00473D  1FBF    	ADC XH,ZH
00473E  E0E1    	LDI ZL,$01
00473F  93EC    	ST X,ZL
004740  01F8    	MOVW R31:R30,R17:R16
004741  2766    	CLR R22
004742  2777    	CLR R23
004743  50E4    	SUBI ZL,$04
004744  4FFF    	SBCI ZH,$FF
004745  4F6F    	SBCI R22,$FF
004746  BF6B    	OUT RAMPZ,R22
004747  91E6    	ELPM ZL,Z
004748  E0A5    	LDI XL,$05
004749  9FEA    	MUL ZL,XL
00474A  01F0    	MOVW R31:R30,R1:R0
00474B  5AE6    	SUBI ZL,$A6
00474C  4FF7    	SBCI ZH,$F7
00474D  93FF    	PUSH ZH
00474E  93EF    	PUSH ZL
00474F  91E0    	LDS ZL,$0795
004750  0795
004751  91F0    	LDS ZH,$0796
004752  0796
004753  91A0    	LDS XL,$090A
004754  090A
004755  91B0    	LDS XH,$090B
004756  090B
004757  940E    	CALL L878
004758  6AD1
004759  0FE0    	ADD ZL,R16
00475A  1FF1    	ADC ZH,R17
00475B  91A0    	LDS XL,$0787
00475C  0787
00475D  91B0    	LDS XH,$0788
00475E  0788
00475F  9180    	LDS R24,$0789
004760  0789
004761  9190    	LDS R25,$078A
004762  078A
004763  2766    	CLR R22
004764  2777    	CLR R23
004765  940E    	CALL L871
004766  6A90
004767  BF6B    	OUT RAMPZ,R22
004768  91E6    	ELPM ZL,Z
004769  91AF    	POP XL
00476A  91BF    	POP XH
00476B  93EC    	ST X,ZL
00476C  01F8    	MOVW R31:R30,R17:R16
00476D  2766    	CLR R22
00476E  2777    	CLR R23
00476F  50E4    	SUBI ZL,$04
004770  4FFF    	SBCI ZH,$FF
004771  4F6F    	SBCI R22,$FF
004772  BF6B    	OUT RAMPZ,R22
004773  91E6    	ELPM ZL,Z
004774  E0A5    	LDI XL,$05
004775  9FEA    	MUL ZL,XL
004776  01F0    	MOVW R31:R30,R1:R0
004777  5AE5    	SUBI ZL,$A5
004778  4FF7    	SBCI ZH,$F7
004779  93FF    	PUSH ZH
00477A  93EF    	PUSH ZL
00477B  91A0    	LDS XL,$0795
00477C  0795
00477D  91B0    	LDS XH,$0796
00477E  0796
00477F  91E0    	LDS ZL,$090A
004780  090A
004781  91F0    	LDS ZH,$090B
004782  090B
004783  9631    	ADIW ZH:ZL,1
004784  940E    	CALL L878
004785  6AD1
004786  0FE0    	ADD ZL,R16
004787  1FF1    	ADC ZH,R17
004788  91A0    	LDS XL,$0787
004789  0787
00478A  91B0    	LDS XH,$0788
00478B  0788
00478C  9180    	LDS R24,$0789
00478D  0789
00478E  9190    	LDS R25,$078A
00478F  078A
004790  2766    	CLR R22
004791  2777    	CLR R23
004792  940E    	CALL L871
004793  6A90
004794  BF6B    	OUT RAMPZ,R22
004795  91E6    	ELPM ZL,Z
004796  91AF    	POP XL
004797  91BF    	POP XH
004798  93EC    	ST X,ZL
004799  01F8    	MOVW R31:R30,R17:R16
00479A  2766    	CLR R22
00479B  2777    	CLR R23
00479C  50E4    	SUBI ZL,$04
00479D  4FFF    	SBCI ZH,$FF
00479E  4F6F    	SBCI R22,$FF
00479F  BF6B    	OUT RAMPZ,R22
0047A0  91E6    	ELPM ZL,Z
0047A1  E0A5    	LDI XL,$05
0047A2  9FEA    	MUL ZL,XL
0047A3  01F0    	MOVW R31:R30,R1:R0
0047A4  5AE4    	SUBI ZL,$A4
0047A5  4FF7    	SBCI ZH,$F7
0047A6  93FF    	PUSH ZH
0047A7  93EF    	PUSH ZL
0047A8  91E0    	LDS ZL,$0795
0047A9  0795
0047AA  91F0    	LDS ZH,$0796
0047AB  0796
0047AC  91A0    	LDS XL,$090A
0047AD  090A
0047AE  91B0    	LDS XH,$090B
0047AF  090B
0047B0  940E    	CALL L878
0047B1  6AD1
0047B2  0FE0    	ADD ZL,R16
0047B3  1FF1    	ADC ZH,R17
0047B4  91A0    	LDS XL,$076B
0047B5  076B
0047B6  91B0    	LDS XH,$076C
0047B7  076C
0047B8  9180    	LDS R24,$076D
0047B9  076D
0047BA  9190    	LDS R25,$076E
0047BB  076E
0047BC  2766    	CLR R22
0047BD  2777    	CLR R23
0047BE  940E    	CALL L871
0047BF  6A90
0047C0  BF6B    	OUT RAMPZ,R22
0047C1  91E6    	ELPM ZL,Z
0047C2  91AF    	POP XL
0047C3  91BF    	POP XH
0047C4  93EC    	ST X,ZL
0047C5  01F8    	MOVW R31:R30,R17:R16
0047C6  2766    	CLR R22
0047C7  2777    	CLR R23
0047C8  50E4    	SUBI ZL,$04
0047C9  4FFF    	SBCI ZH,$FF
0047CA  4F6F    	SBCI R22,$FF
0047CB  BF6B    	OUT RAMPZ,R22
0047CC  91E6    	ELPM ZL,Z
0047CD  E0A5    	LDI XL,$05
0047CE  9FEA    	MUL ZL,XL
0047CF  01F0    	MOVW R31:R30,R1:R0
0047D0  5AE3    	SUBI ZL,$A3
0047D1  4FF7    	SBCI ZH,$F7
0047D2  93FF    	PUSH ZH
0047D3  93EF    	PUSH ZL
0047D4  91E0    	LDS ZL,$0795
0047D5  0795
0047D6  91F0    	LDS ZH,$0796
0047D7  0796
0047D8  91A0    	LDS XL,$090A
0047D9  090A
0047DA  91B0    	LDS XH,$090B
0047DB  090B
0047DC  940E    	CALL L878
0047DD  6AD1
0047DE  0FE0    	ADD ZL,R16
0047DF  1FF1    	ADC ZH,R17
0047E0  91A0    	LDS XL,$076F
0047E1  076F
0047E2  91B0    	LDS XH,$0770
0047E3  0770
0047E4  9180    	LDS R24,$0771
0047E5  0771
0047E6  9190    	LDS R25,$0772
0047E7  0772
0047E8  2766    	CLR R22
0047E9  2777    	CLR R23
0047EA  940E    	CALL L871
0047EB  6A90
0047EC  BF6B    	OUT RAMPZ,R22
0047ED  91E6    	ELPM ZL,Z
0047EE  91AF    	POP XL
0047EF  91BF    	POP XH
0047F0  93EC    	ST X,ZL
0047F1  5F0F    	SUBI R16,$FF
0047F2  4F1F    	SBCI R17,$FF
0047F3  CF32    	RJMP L929
0047F4  9857    L928:	CBI UCSR0B,RXCIE0
0047F5  9A56    	SBI UCSR0B,TXCIE0
0047F6  EB88    	LDI R24,$B8
0047F7  E192    	LDI R25,$12
0047F8  9701    L930:	SBIW R25:R24,1
0047F9  F7F1    	BRNE L930
0047FA  C12C    	RJMP L896
0047FB  9724    L998:	SBIW YH:YL,4
0047FC  91A0    	LDS XL,$0857
0047FD  0857
0047FE  91B0    	LDS XH,$0858
0047FF  0858
004800  91E0    	LDS ZL,$0855
004801  0855
004802  91F0    	LDS ZH,$0856
004803  0856
004804  940E    	CALL L931
004805  6AD9
004806  9774    	SBIW ZH:ZL,20
004807  F418    	BRCC L932
004808  E0E6    	LDI ZL,$06
004809  2EDE    	MOV R13,ZL
00480A  C04A    	RJMP L933
00480B  91E0    L932:	LDS ZL,$0857
00480C  0857
00480D  91F0    	LDS ZH,$0858
00480E  0858
00480F  2766    	CLR R22
004810  2777    	CLR R23
004811  940E    	CALL L934
004812  6B8F
004813  E6A6    	LDI XL,$66
004814  E6B6    	LDI XH,$66
004815  E686    	LDI R24,$66
004816  E491    	LDI R25,$41
004817  940E    	CALL L935
004818  6C1B
004819  83E8    	ST Y,ZL
00481A  83F9    	STD Y+1,ZH
00481B  836A    	STD Y+2,R22
00481C  837B    	STD Y+3,R23
00481D  91E0    	LDS ZL,$0855
00481E  0855
00481F  91F0    	LDS ZH,$0856
004820  0856
004821  2766    	CLR R22
004822  2777    	CLR R23
004823  940E    	CALL L934
004824  6B8F
004825  81A8    	LD XL,Y
004826  81B9    	LDD XH,Y+1
004827  818A    	LDD R24,Y+2
004828  819B    	LDD R25,Y+3
004829  940E    	CALL L936
00482A  6C4D
00482B  83E8    	ST Y,ZL
00482C  83F9    	STD Y+1,ZH
00482D  836A    	STD Y+2,R22
00482E  837B    	STD Y+3,R23
00482F  940E    	CALL L937
004830  6B5C
004831  EFAF    	LDI XL,$FF
004832  EFBF    	LDI XH,$FF
004833  1BAE    	SUB XL,ZL
004834  0BBF    	SBC XH,ZH
004835  979B    	SBIW XH:XL,43
004836  93A0    	STS $06EC,XL
004837  06EC
004838  93B0    	STS $06ED,XH
004839  06ED
00483A  98DD    	CBI PORTA,PA5
00483B  9468    	BSET 6
00483C  F820    	BLD R2,0
00483D  94E8    	BCLR 6
00483E  F823    	BLD R2,3
00483F  E0E5    	LDI ZL,$05
004840  BDEE    	OUT TCCR1B,ZL
004841  3EA6    	CPI XL,$E6
004842  EFEF    	LDI ZL,$FF
004843  07BE    	CPC XH,ZL
004844  F430    	BRCC L938
004845  91E0    	LDS ZL,$06EC
004846  06EC
004847  91F0    	LDS ZH,$06ED
004848  06ED
004849  967A    	ADIW ZH:ZL,26
00484A  C002    	RJMP L939
00484B  EFEF    L938:	LDI ZL,$FF
00484C  EFFF    	LDI ZH,$FF
00484D  BDFD    L939:	OUT TCNT1H,ZH
00484E  BDEC    	OUT TCNT1L,ZL
00484F  B7E6    	IN ZL,TIFR
004850  60E4    	ORI ZL,$04
004851  BFE6    	OUT TIFR,ZL
004852  B7E7    	IN ZL,TIMSK
004853  60E4    	ORI ZL,$04
004854  BFE7    	OUT TIMSK,ZL
004855  9624    L933:	ADIW YH:YL,4
004856  9508    	RET
004857  931A    L1000:	ST -Y,R17
004858  930A    	ST -Y,R16
004859  E000    	LDI R16,$00
00485A  E010    	LDI R17,$00
00485B  310F    L954:	CPI R16,$1F
00485C  E0E0    	LDI ZL,$00
00485D  071E    	CPC R17,ZL
00485E  F010    	BRCS L940
00485F  940C    	JMP L941
004860  4922
004861  E0A5    L940:	LDI XL,$05
004862  9FA0    	MUL XL,R16
004863  01F0    	MOVW R31:R30,R1:R0
004864  9FA1    	MUL XL,R17
004865  0DF0    	ADD ZH,R0
004866  E5A9    	LDI XL,$59
004867  E0B8    	LDI XH,$08
004868  0FAE    	ADD XL,ZL
004869  1FBF    	ADC XH,ZH
00486A  91EC    	LD ZL,X
00486B  30E0    	CPI ZL,$00
00486C  F411    	BRNE L942
00486D  940C    	JMP L943
00486E  491F
00486F  E0A5    L942:	LDI XL,$05
004870  9FA0    	MUL XL,R16
004871  01F0    	MOVW R31:R30,R1:R0
004872  9FA1    	MUL XL,R17
004873  0DF0    	ADD ZH,R0
004874  E5AA    	LDI XL,$5A
004875  E0B8    	LDI XH,$08
004876  0FAE    	ADD XL,ZL
004877  1FBF    	ADC XH,ZH
004878  916C    	LD R22,X
004879  E0A5    	LDI XL,$05
00487A  9FA0    	MUL XL,R16
00487B  01F0    	MOVW R31:R30,R1:R0
00487C  9FA1    	MUL XL,R17
00487D  0DF0    	ADD ZH,R0
00487E  E5AB    	LDI XL,$5B
00487F  E0B8    	LDI XH,$08
004880  0FAE    	ADD XL,ZL
004881  1FBF    	ADC XH,ZH
004882  91EC    	LD ZL,X
004883  17E6    	CP ZL,R22
004884  F411    	BRNE L944
004885  940C    	JMP L945
004886  4912
004887  01F8    L944:	MOVW R31:R30,R17:R16
004888  EEAE    	LDI XL,$EE
004889  E0B6    	LDI XH,$06
00488A  940E    	CALL L946
00488B  6AB7
00488C  0FEA    	ADD ZL,XL
00488D  1FFB    	ADC ZH,XH
00488E  01CF    	MOVW R25:R24,R31:R30
00488F  E0A5    	LDI XL,$05
004890  9FA0    	MUL XL,R16
004891  01F0    	MOVW R31:R30,R1:R0
004892  9FA1    	MUL XL,R17
004893  0DF0    	ADD ZH,R0
004894  E5AB    	LDI XL,$5B
004895  E0B8    	LDI XH,$08
004896  0FAE    	ADD XL,ZL
004897  1FBF    	ADC XH,ZH
004898  916C    	LD R22,X
004899  2777    	CLR R23
00489A  E0A5    	LDI XL,$05
00489B  9FA0    	MUL XL,R16
00489C  01F0    	MOVW R31:R30,R1:R0
00489D  9FA1    	MUL XL,R17
00489E  0DF0    	ADD ZH,R0
00489F  E5AA    	LDI XL,$5A
0048A0  E0B8    	LDI XH,$08
0048A1  0FAE    	ADD XL,ZL
0048A2  1FBF    	ADC XH,ZH
0048A3  91AC    	LD XL,X
0048A4  27BB    	CLR XH
0048A5  01FB    	MOVW R31:R30,R23:R22
0048A6  1BEA    	SUB ZL,XL
0048A7  0BFB    	SBC ZH,XH
0048A8  940E    	CALL L947
0048A9  6AC7
0048AA  940E    	CALL L934
0048AB  6B8F
0048AC  01DC    	MOVW R27:R26,R25:R24
0048AD  940E    	CALL L872
0048AE  6AF6
0048AF  01F8    	MOVW R31:R30,R17:R16
0048B0  EEAE    	LDI XL,$EE
0048B1  E0B6    	LDI XH,$06
0048B2  940E    	CALL L946
0048B3  6AB7
0048B4  0FEA    	ADD ZL,XL
0048B5  1FFB    	ADC ZH,XH
0048B6  93FF    	PUSH ZH
0048B7  93EF    	PUSH ZL
0048B8  01F8    	MOVW R31:R30,R17:R16
0048B9  EEAE    	LDI XL,$EE
0048BA  E0B6    	LDI XH,$06
0048BB  940E    	CALL L946
0048BC  6AB7
0048BD  0FAE    	ADD XL,ZL
0048BE  1FBF    	ADC XH,ZH
0048BF  940E    	CALL L870
0048C0  6AF0
0048C1  01DF    	MOVW R27:R26,R31:R30
0048C2  01CB    	MOVW R25:R24,R23:R22
0048C3  91E0    	LDS ZL,$0855
0048C4  0855
0048C5  91F0    	LDS ZH,$0856
0048C6  0856
0048C7  2766    	CLR R22
0048C8  2777    	CLR R23
0048C9  940E    	CALL L934
0048CA  6B8F
0048CB  940E    	CALL L936
0048CC  6C4D
0048CD  91AF    	POP XL
0048CE  91BF    	POP XH
0048CF  940E    	CALL L872
0048D0  6AF6
0048D1  01F8    	MOVW R31:R30,R17:R16
0048D2  EEAE    	LDI XL,$EE
0048D3  E0B6    	LDI XH,$06
0048D4  940E    	CALL L946
0048D5  6AB7
0048D6  0FAE    	ADD XL,ZL
0048D7  1FBF    	ADC XH,ZH
0048D8  940E    	CALL L870
0048D9  6AF0
0048DA  01DF    	MOVW R27:R26,R31:R30
0048DB  01CB    	MOVW R25:R24,R23:R22
0048DC  E0E0    	LDI ZL,$00
0048DD  E0F0    	LDI ZH,$00
0048DE  E76D    	LDI R22,$7D
0048DF  E473    	LDI R23,$43
0048E0  940E    	CALL L948
0048E1  6C8E
0048E2  F009    	BREQ L949
0048E3  F410    	BRCC L950
0048E4  940C    L949:	JMP L951
0048E5  48F2
0048E6  01F8    L950:	MOVW R31:R30,R17:R16
0048E7  EEAE    	LDI XL,$EE
0048E8  E0B6    	LDI XH,$06
0048E9  940E    	CALL L946
0048EA  6AB7
0048EB  0FAE    	ADD XL,ZL
0048EC  1FBF    	ADC XH,ZH
0048ED  E0E0    	LDI ZL,$00
0048EE  E0F0    	LDI ZH,$00
0048EF  E76E    	LDI R22,$7E
0048F0  E473    	LDI R23,$43
0048F1  C01D    	RJMP L952
0048F2  01F8    L951:	MOVW R31:R30,R17:R16
0048F3  EEAE    	LDI XL,$EE
0048F4  E0B6    	LDI XH,$06
0048F5  940E    	CALL L946
0048F6  6AB7
0048F7  0FAE    	ADD XL,ZL
0048F8  1FBF    	ADC XH,ZH
0048F9  940E    	CALL L870
0048FA  6AF0
0048FB  01DF    	MOVW R27:R26,R31:R30
0048FC  01CB    	MOVW R25:R24,R23:R22
0048FD  E0E0    	LDI ZL,$00
0048FE  E0F0    	LDI ZH,$00
0048FF  E76D    	LDI R22,$7D
004900  EC73    	LDI R23,$C3
004901  940E    	CALL L948
004902  6C8E
004903  F468    	BRCC L953
004904  01F8    	MOVW R31:R30,R17:R16
004905  EEAE    	LDI XL,$EE
004906  E0B6    	LDI XH,$06
004907  940E    	CALL L946
004908  6AB7
004909  0FAE    	ADD XL,ZL
00490A  1FBF    	ADC XH,ZH
00490B  E0E0    	LDI ZL,$00
00490C  E0F0    	LDI ZH,$00
00490D  E76E    	LDI R22,$7E
00490E  EC73    	LDI R23,$C3
00490F  940E    L952:	CALL L872
004910  6AF6
004911  C00D    L953:	RJMP L943
004912  01F8    L945:	MOVW R31:R30,R17:R16
004913  EEAE    	LDI XL,$EE
004914  E0B6    	LDI XH,$06
004915  940E    	CALL L946
004916  6AB7
004917  0FAE    	ADD XL,ZL
004918  1FBF    	ADC XH,ZH
004919  E0E0    	LDI ZL,$00
00491A  E0F0    	LDI ZH,$00
00491B  E060    	LDI R22,$00
00491C  E070    	LDI R23,$00
00491D  940E    	CALL L872
00491E  6AF6
00491F  5F0F    L943:	SUBI R16,$FF
004920  4F1F    	SBCI R17,$FF
004921  CF39    	RJMP L954
004922  E0E0    L941:	LDI ZL,$00
004923  93E0    	STS $06EA,ZL
004924  06EA
004925  93E0    	STS $06EB,ZL
004926  06EB
004927  9109    L896:	LD R16,Y+
004928  9119    	LD R17,Y+
004929  9508    	RET
00492A  940E    L754:	CALL L910
00492B  6CB8
00492C  91E0    L955:	LDS ZL,$069B
00492D  069B
00492E  30E0    	CPI ZL,$00
00492F  F7E1    	BRNE L955
004930  91E0    	LDS ZL,$06EA
004931  06EA
004932  91F0    	LDS ZH,$06EB
004933  06EB
004934  9631    	ADIW ZH:ZL,1
004935  93E0    	STS $06EA,ZL
004936  06EA
004937  93F0    	STS $06EB,ZH
004938  06EB
004939  E000    	LDI R16,$00
00493A  310F    L967:	CPI R16,$1F
00493B  F010    	BRCS L956
00493C  940C    	JMP L957
00493D  49AF
00493E  E0E5    L956:	LDI ZL,$05
00493F  9FE0    	MUL ZL,R16
004940  01F0    	MOVW R31:R30,R1:R0
004941  E5A9    	LDI XL,$59
004942  E0B8    	LDI XH,$08
004943  0FAE    	ADD XL,ZL
004944  1FBF    	ADC XH,ZH
004945  91EC    	LD ZL,X
004946  30E0    	CPI ZL,$00
004947  F411    	BRNE L958
004948  940C    	JMP L959
004949  49AD
00494A  E0E5    L958:	LDI ZL,$05
00494B  9FE0    	MUL ZL,R16
00494C  01F0    	MOVW R31:R30,R1:R0
00494D  E5AC    	LDI XL,$5C
00494E  E0B8    	LDI XH,$08
00494F  0FAE    	ADD XL,ZL
004950  1FBF    	ADC XH,ZH
004951  91AC    	LD XL,X
004952  30A5    	CPI XL,$05
004953  F010    	BRCS L960
004954  940C    	JMP L961
004955  4998
004956  E0E5    L960:	LDI ZL,$05
004957  9FE0    	MUL ZL,R16
004958  01F0    	MOVW R31:R30,R1:R0
004959  E5AA    	LDI XL,$5A
00495A  E0B8    	LDI XH,$08
00495B  0FAE    	ADD XL,ZL
00495C  1FBF    	ADC XH,ZH
00495D  91EC    	LD ZL,X
00495E  E0F0    	LDI ZH,$00
00495F  93FF    	PUSH ZH
004960  93EF    	PUSH ZL
004961  91E0    	LDS ZL,$06EA
004962  06EA
004963  91F0    	LDS ZH,$06EB
004964  06EB
004965  940E    	CALL L947
004966  6AC7
004967  940E    	CALL L934
004968  6B8F
004969  937F    	PUSH R23
00496A  936F    	PUSH R22
00496B  93FF    	PUSH ZH
00496C  93EF    	PUSH ZL
00496D  2FE0    	MOV ZL,R16
00496E  EEAE    	LDI XL,$EE
00496F  E0B6    	LDI XH,$06
004970  E0F0    	LDI ZH,$00
004971  940E    	CALL L946
004972  6AB7
004973  0FAE    	ADD XL,ZL
004974  1FBF    	ADC XH,ZH
004975  940E    	CALL L870
004976  6AF0
004977  91AF    	POP XL
004978  91BF    	POP XH
004979  918F    	POP R24
00497A  919F    	POP R25
00497B  940E    	CALL L935
00497C  6C1B
00497D  940E    	CALL L937
00497E  6B5C
00497F  91AF    	POP XL
004980  91BF    	POP XH
004981  0FEA    	ADD ZL,XL
004982  1FFB    	ADC ZH,XH
004983  019F    	MOVW R19:R18,R31:R30
004984  91A0    	LDS XL,$0792
004985  0792
004986  30A4    	CPI XL,$04
004987  F411    	BRNE L962
004988  2F12    	MOV R17,R18
004989  C00D    	RJMP L963
00498A  2FE0    L962:	MOV ZL,R16
00498B  E0AC    	LDI XL,$0C
00498C  E0B9    	LDI XH,$09
00498D  E0F0    	LDI ZH,$00
00498E  0FEE    	LSL ZL
00498F  1FFF    	ROL ZH
004990  0FAE    	ADD XL,ZL
004991  1FBF    	ADC XH,ZH
004992  940E    	CALL L964
004993  6AEC
004994  0FE2    	ADD ZL,R18
004995  1FF3    	ADC ZH,R19
004996  2F1E    	MOV R17,ZL
004997  C008    L963:	RJMP L965
004998  E0E5    L961:	LDI ZL,$05
004999  9FE0    	MUL ZL,R16
00499A  01F0    	MOVW R31:R30,R1:R0
00499B  E5AB    	LDI XL,$5B
00499C  E0B8    	LDI XH,$08
00499D  0FAE    	ADD XL,ZL
00499E  1FBF    	ADC XH,ZH
00499F  911C    	LD R17,X
0049A0  930A    L965:	ST -Y,R16
0049A1  931A    	ST -Y,R17
0049A2  E0E5    	LDI ZL,$05
0049A3  9FE0    	MUL ZL,R16
0049A4  01F0    	MOVW R31:R30,R1:R0
0049A5  E5AC    	LDI XL,$5C
0049A6  E0B8    	LDI XH,$08
0049A7  0FAE    	ADD XL,ZL
0049A8  1FBF    	ADC XH,ZH
0049A9  91EC    	LD ZL,X
0049AA  93EA    	ST -Y,ZL
0049AB  940E    	CALL L966
0049AC  406B
0049AD  5F0F    L959:	SUBI R16,$FF
0049AE  CF8B    	RJMP L967
0049AF  C218    L957:	RJMP L922
0049B0  91E0    L755:	LDS ZL,$069B
0049B1  069B
0049B2  30E0    	CPI ZL,$00
0049B3  F409    	BRNE L968
0049B4  9508    	RET


0049B5  91E0    L968:	LDS ZL,$069D
0049B6  069D
0049B7  5FEF    	SUBI ZL,$FF
0049B8  93E0    	STS $069D,ZL
0049B9  069D
0049BA  50E1    	SUBI ZL,$01
0049BB  E0F0    	LDI ZH,$00
0049BC  51EF    	SUBI ZL,$1F
0049BD  4FFA    	SBCI ZH,$FA
0049BE  81E0    	LD ZL,Z
0049BF  93EA    	ST -Y,ZL
0049C0  940E    	CALL L856
0049C1  3FDC
0049C2  9508    	RET


0049C3  931A    L809:	ST -Y,R17
0049C4  930A    	ST -Y,R16
0049C5  FC26    	SBRC R2,6
0049C6  C1BC    	RJMP L969
0049C7  E0E4    	LDI ZL,$04
0049C8  15EC    	CP ZL,R12
0049C9  F409    	BRNE L970
0049CA  C1B8    	RJMP L969
0049CB  E0E1    L970:	LDI ZL,$01
0049CC  15EC    	CP ZL,R12
0049CD  F019    	BREQ L971
0049CE  81AF    	LDD XL,Y+7
0049CF  30A0    	CPI XL,$00
0049D0  F009    	BREQ L972
0049D1  C003    L971:	RJMP L973
0049D2  E0E5    L972:	LDI ZL,$05
0049D3  2EDE    	MOV R13,ZL
0049D4  C1AE    	RJMP L969
0049D5  81AD    L973:	LDD XL,Y+5
0049D6  81BE    	LDD XH,Y+6
0049D7  9711    	SBIW XH:XL,1
0049D8  F061    	BREQ L974
0049D9  81AF    	LDD XL,Y+7
0049DA  30A1    	CPI XL,$01
0049DB  F411    	BRNE L975
0049DC  E0E1    	LDI ZL,$01
0049DD  C004    	RJMP L976
0049DE  81AF    L975:	LDD XL,Y+7
0049DF  30A3    	CPI XL,$03
0049E0  F421    	BRNE L974
0049E1  E0E9    	LDI ZL,$09
0049E2  93EA    L976:	ST -Y,ZL
0049E3  940E    	CALL L977
0049E4  4106
0049E5  81EF    L974:	LDD ZL,Y+7
0049E6  93E0    	STS $0792,ZL
0049E7  0792
0049E8  E0E1    	LDI ZL,$01
0049E9  E0F0    	LDI ZH,$00
0049EA  93E0    	STS $0793,ZL
0049EB  0793
0049EC  93F0    	STS $0794,ZH
0049ED  0794
0049EE  E1E0    	LDI ZL,$10
0049EF  E0F0    	LDI ZH,$00
0049F0  93E0    	STS $0795,ZL
0049F1  0795
0049F2  93F0    	STS $0796,ZH
0049F3  0796
0049F4  E0EF    	LDI ZL,$0F
0049F5  93E0    	STS $076A,ZL
0049F6  076A
0049F7  E000    	LDI R16,$00
0049F8  E010    	LDI R17,$00
0049F9  91E0    L981:	LDS ZL,$0795
0049FA  0795
0049FB  91F0    	LDS ZH,$0796
0049FC  0796
0049FD  170E    	CP R16,ZL
0049FE  071F    	CPC R17,ZH
0049FF  F010    	BRCS L978
004A00  940C    	JMP L979
004A01  4A6E
004A02  E0A6    L978:	LDI XL,$06
004A03  9FA0    	MUL XL,R16
004A04  01F0    	MOVW R31:R30,R1:R0
004A05  9FA1    	MUL XL,R17
004A06  0DF0    	ADD ZH,R0
004A07  E9A7    	LDI XL,$97
004A08  E0B7    	LDI XH,$07
004A09  0FAE    	ADD XL,ZL
004A0A  1FBF    	ADC XH,ZH
004A0B  E0E1    	LDI ZL,$01
004A0C  93EC    	ST X,ZL
004A0D  E0A6    	LDI XL,$06
004A0E  9FA0    	MUL XL,R16
004A0F  01F0    	MOVW R31:R30,R1:R0
004A10  9FA1    	MUL XL,R17
004A11  0DF0    	ADD ZH,R0
004A12  E9A8    	LDI XL,$98
004A13  E0B7    	LDI XH,$07
004A14  0FAE    	ADD XL,ZL
004A15  1FBF    	ADC XH,ZH
004A16  E1E4    	LDI ZL,$14
004A17  93EC    	ST X,ZL
004A18  E0A6    	LDI XL,$06
004A19  9FA0    	MUL XL,R16
004A1A  01F0    	MOVW R31:R30,R1:R0
004A1B  9FA1    	MUL XL,R17
004A1C  0DF0    	ADD ZH,R0
004A1D  E9A9    	LDI XL,$99
004A1E  E0B7    	LDI XH,$07
004A1F  0FAE    	ADD XL,ZL
004A20  1FBF    	ADC XH,ZH
004A21  E1EE    	LDI ZL,$1E
004A22  93EC    	ST X,ZL
004A23  E0A6    	LDI XL,$06
004A24  9FA0    	MUL XL,R16
004A25  01F0    	MOVW R31:R30,R1:R0
004A26  9FA1    	MUL XL,R17
004A27  0DF0    	ADD ZH,R0
004A28  E9AA    	LDI XL,$9A
004A29  E0B7    	LDI XH,$07
004A2A  0FAE    	ADD XL,ZL
004A2B  1FBF    	ADC XH,ZH
004A2C  E0E0    	LDI ZL,$00
004A2D  93EC    	ST X,ZL
004A2E  E0A6    	LDI XL,$06
004A2F  9FA0    	MUL XL,R16
004A30  01F0    	MOVW R31:R30,R1:R0
004A31  9FA1    	MUL XL,R17
004A32  0DF0    	ADD ZH,R0
004A33  E9AB    	LDI XL,$9B
004A34  E0B7    	LDI XH,$07
004A35  0FAE    	ADD XL,ZL
004A36  1FBF    	ADC XH,ZH
004A37  E0E1    	LDI ZL,$01
004A38  93EC    	ST X,ZL
004A39  E0A6    	LDI XL,$06
004A3A  9FA0    	MUL XL,R16
004A3B  01F0    	MOVW R31:R30,R1:R0
004A3C  9FA1    	MUL XL,R17
004A3D  0DF0    	ADD ZH,R0
004A3E  E9AC    	LDI XL,$9C
004A3F  E0B7    	LDI XH,$07
004A40  0FAE    	ADD XL,ZL
004A41  1FBF    	ADC XH,ZH
004A42  01F8    	MOVW R31:R30,R17:R16
004A43  2766    	CLR R22
004A44  2777    	CLR R23
004A45  5FE4    	SUBI ZL,$F4
004A46  4FFE    	SBCI ZH,$FE
004A47  4F6F    	SBCI R22,$FF
004A48  BF6B    	OUT RAMPZ,R22
004A49  91E6    	ELPM ZL,Z
004A4A  93EC    	ST X,ZL
004A4B  01F8    	MOVW R31:R30,R17:R16
004A4C  E0AC    	LDI XL,$0C
004A4D  E0B9    	LDI XH,$09
004A4E  0FEE    	LSL ZL
004A4F  1FFF    	ROL ZH
004A50  0FEA    	ADD ZL,XL
004A51  1FFB    	ADC ZH,XH
004A52  01CF    	MOVW R25:R24,R31:R30
004A53  E1AD    	LDI XL,$1D
004A54  E0B0    	LDI XH,$00
004A55  0FA0    	ADD XL,R16
004A56  1FB1    	ADC XH,R17
004A57  940E    	CALL L544
004A58  6B16
004A59  E0F0    	LDI ZH,$00
004A5A  01DF    	MOVW R27:R26,R31:R30
004A5B  01F8    	MOVW R31:R30,R17:R16
004A5C  2766    	CLR R22
004A5D  2777    	CLR R23
004A5E  5FE4    	SUBI ZL,$F4
004A5F  4FFE    	SBCI ZH,$FE
004A60  4F6F    	SBCI R22,$FF
004A61  BF6B    	OUT RAMPZ,R22
004A62  91E6    	ELPM ZL,Z
004A63  E0F0    	LDI ZH,$00
004A64  940E    	CALL L980
004A65  6B0B
004A66  1BEA    	SUB ZL,XL
004A67  0BFB    	SBC ZH,XH
004A68  01DC    	MOVW R27:R26,R25:R24
004A69  93ED    	ST X+,ZL
004A6A  93FC    	ST X,ZH
004A6B  5F0F    	SUBI R16,$FF
004A6C  4F1F    	SBCI R17,$FF
004A6D  CF8B    	RJMP L981
004A6E  940E    L979:	CALL L982
004A6F  44A6
004A70  EFEF    	LDI ZL,$FF
004A71  2EDE    	MOV R13,ZL
004A72  E000    	LDI R16,$00
004A73  E010    	LDI R17,$00
004A74  310F    L985:	CPI R16,$1F
004A75  E0E0    	LDI ZL,$00
004A76  071E    	CPC R17,ZL
004A77  F4D0    	BRCC L983
004A78  E0A6    	LDI XL,$06
004A79  9FA0    	MUL XL,R16
004A7A  01F0    	MOVW R31:R30,R1:R0
004A7B  9FA1    	MUL XL,R17
004A7C  0DF0    	ADD ZH,R0
004A7D  E9A7    	LDI XL,$97
004A7E  E0B7    	LDI XH,$07
004A7F  0FAE    	ADD XL,ZL
004A80  1FBF    	ADC XH,ZH
004A81  91EC    	LD ZL,X
004A82  30E0    	CPI ZL,$00
004A83  F059    	BREQ L984
004A84  E0A5    	LDI XL,$05
004A85  9FA0    	MUL XL,R16
004A86  01F0    	MOVW R31:R30,R1:R0
004A87  9FA1    	MUL XL,R17
004A88  0DF0    	ADD ZH,R0
004A89  E5A9    	LDI XL,$59
004A8A  E0B8    	LDI XH,$08
004A8B  0FAE    	ADD XL,ZL
004A8C  1FBF    	ADC XH,ZH
004A8D  E0E1    	LDI ZL,$01
004A8E  93EC    	ST X,ZL
004A8F  5F0F    L984:	SUBI R16,$FF
004A90  4F1F    	SBCI R17,$FF
004A91  CFE2    	RJMP L985
004A92  D0F4    L983:	RCALL L986
004A93  EFEF    	LDI ZL,$FF
004A94  15ED    	CP ZL,R13
004A95  F009    	BREQ L987
004A96  C0EC    	RJMP L969
004A97  81ED    L987:	LDD ZL,Y+5
004A98  81FE    	LDD ZH,Y+6
004A99  93E0    	STS $0855,ZL
004A9A  0855
004A9B  93F0    	STS $0856,ZH
004A9C  0856
004A9D  81EB    	LDD ZL,Y+3
004A9E  81FC    	LDD ZH,Y+4
004A9F  93E0    	STS $0857,ZL
004AA0  0857
004AA1  93F0    	STS $0858,ZH
004AA2  0858
004AA3  E000    	LDI R16,$00
004AA4  E010    	LDI R17,$00
004AA5  91E0    L996:	LDS ZL,$0795
004AA6  0795
004AA7  91F0    	LDS ZH,$0796
004AA8  0796
004AA9  170E    	CP R16,ZL
004AAA  071F    	CPC R17,ZH
004AAB  F010    	BRCS L988
004AAC  940C    	JMP L989
004AAD  4B1D
004AAE  81EF    L988:	LDD ZL,Y+7
004AAF  30E0    	CPI ZL,$00
004AB0  F481    	BRNE L990
004AB1  E0A5    	LDI XL,$05
004AB2  9FA0    	MUL XL,R16
004AB3  01F0    	MOVW R31:R30,R1:R0
004AB4  9FA1    	MUL XL,R17
004AB5  0DF0    	ADD ZH,R0
004AB6  5AE5    	SUBI ZL,$A5
004AB7  4FF7    	SBCI ZH,$F7
004AB8  010F    	MOVW R1:R0,R31:R30
004AB9  E1AD    	LDI XL,$1D
004ABA  E0B0    	LDI XH,$00
004ABB  0FA0    	ADD XL,R16
004ABC  1FB1    	ADC XH,R17
004ABD  940E    	CALL L544
004ABE  6B16
004ABF  01D0    	MOVW R27:R26,R1:R0
004AC0  C044    	RJMP L991
004AC1  81AF    L990:	LDD XL,Y+7
004AC2  30A1    	CPI XL,$01
004AC3  F479    	BRNE L992
004AC4  E0A5    	LDI XL,$05
004AC5  9FA0    	MUL XL,R16
004AC6  01F0    	MOVW R31:R30,R1:R0
004AC7  9FA1    	MUL XL,R17
004AC8  0DF0    	ADD ZH,R0
004AC9  5AE5    	SUBI ZL,$A5
004ACA  4FF7    	SBCI ZH,$F7
004ACB  01CF    	MOVW R25:R24,R31:R30
004ACC  01F8    	MOVW R31:R30,R17:R16
004ACD  2766    	CLR R22
004ACE  2777    	CLR R23
004ACF  58E0    	SUBI ZL,$80
004AD0  4AF3    	SBCI ZH,$A3
004AD1  4F6F    	SBCI R22,$FF
004AD2  C023    	RJMP L993
004AD3  81AF    L992:	LDD XL,Y+7
004AD4  30A2    	CPI XL,$02
004AD5  F479    	BRNE L994
004AD6  E0A5    	LDI XL,$05
004AD7  9FA0    	MUL XL,R16
004AD8  01F0    	MOVW R31:R30,R1:R0
004AD9  9FA1    	MUL XL,R17
004ADA  0DF0    	ADD ZH,R0
004ADB  5AE5    	SUBI ZL,$A5
004ADC  4FF7    	SBCI ZH,$F7
004ADD  01CF    	MOVW R25:R24,R31:R30
004ADE  01F8    	MOVW R31:R30,R17:R16
004ADF  2766    	CLR R22
004AE0  2777    	CLR R23
004AE1  57E0    	SUBI ZL,$70
004AE2  4AF3    	SBCI ZH,$A3
004AE3  4F6F    	SBCI R22,$FF
004AE4  C011    	RJMP L993
004AE5  81AF    L994:	LDD XL,Y+7
004AE6  30A3    	CPI XL,$03
004AE7  F4F1    	BRNE L995
004AE8  E0A5    	LDI XL,$05
004AE9  9FA0    	MUL XL,R16
004AEA  01F0    	MOVW R31:R30,R1:R0
004AEB  9FA1    	MUL XL,R17
004AEC  0DF0    	ADD ZH,R0
004AED  5AE5    	SUBI ZL,$A5
004AEE  4FF7    	SBCI ZH,$F7
004AEF  01CF    	MOVW R25:R24,R31:R30
004AF0  01F8    	MOVW R31:R30,R17:R16
004AF1  2766    	CLR R22
004AF2  2777    	CLR R23
004AF3  56E0    	SUBI ZL,$60
004AF4  4AF3    	SBCI ZH,$A3
004AF5  4F6F    	SBCI R22,$FF
004AF6  BF6B    L993:	OUT RAMPZ,R22
004AF7  9006    	ELPM R0,Z
004AF8  2411    	CLR R1
004AF9  01F8    	MOVW R31:R30,R17:R16
004AFA  E0AC    	LDI XL,$0C
004AFB  E0B9    	LDI XH,$09
004AFC  0FEE    	LSL ZL
004AFD  1FFF    	ROL ZH
004AFE  0FAE    	ADD XL,ZL
004AFF  1FBF    	ADC XH,ZH
004B00  940E    	CALL L964
004B01  6AEC
004B02  0DE0    	ADD ZL,R0
004B03  1DF1    	ADC ZH,R1
004B04  01DC    	MOVW R27:R26,R25:R24
004B05  93EC    L991:	ST X,ZL
004B06  E0A5    L995:	LDI XL,$05
004B07  9FA0    	MUL XL,R16
004B08  01F0    	MOVW R31:R30,R1:R0
004B09  9FA1    	MUL XL,R17
004B0A  0DF0    	ADD ZH,R0
004B0B  5AE4    	SUBI ZL,$A4
004B0C  4FF7    	SBCI ZH,$F7
004B0D  81AA    	LDD XL,Y+2
004B0E  83A0    	ST Z,XL
004B0F  E0A5    	LDI XL,$05
004B10  9FA0    	MUL XL,R16
004B11  01F0    	MOVW R31:R30,R1:R0
004B12  9FA1    	MUL XL,R17
004B13  0DF0    	ADD ZH,R0
004B14  E5AD    	LDI XL,$5D
004B15  E0B8    	LDI XH,$08
004B16  0FAE    	ADD XL,ZL
004B17  1FBF    	ADC XH,ZH
004B18  E0E0    	LDI ZL,$00
004B19  93EC    	ST X,ZL
004B1A  5F0F    	SUBI R16,$FF
004B1B  4F1F    	SBCI R17,$FF
004B1C  CF88    	RJMP L996
004B1D  98DD    L989:	CBI PORTA,PA5
004B1E  940E    	CALL L997
004B1F  452D
004B20  940E    	CALL L998
004B21  47FB
004B22  EFEF    	LDI ZL,$FF
004B23  15ED    	CP ZL,R13
004B24  F009    	BREQ L999
004B25  C05D    	RJMP L969
004B26  940E    L999:	CALL L1000
004B27  4857
004B28  940E    	CALL L754
004B29  492A
004B2A  940E    	CALL L755
004B2B  49B0
004B2C  FC20    L1001:	SBRC R2,0
004B2D  CFFE    	RJMP L1001
004B2E  FC23    	SBRC R2,3
004B2F  C053    	RJMP L969
004B30  81AD    	LDD XL,Y+5
004B31  81BE    	LDD XH,Y+6
004B32  9712    	SBIW XH:XL,2
004B33  F410    	BRCC L1002
004B34  940C    	JMP L1003
004B35  4B82
004B36  E6E4    L1002:	LDI ZL,$64
004B37  E0F0    	LDI ZH,$00
004B38  93FA    	ST -Y,ZH
004B39  93EA    	ST -Y,ZL
004B3A  940E    	CALL L537
004B3B  6A4C
004B3C  D04A    	RCALL L986
004B3D  EFEF    	LDI ZL,$FF
004B3E  15ED    	CP ZL,R13
004B3F  F009    	BREQ L1004
004B40  C042    	RJMP L969
004B41  E000    L1004:	LDI R16,$00
004B42  E010    	LDI R17,$00
004B43  91E0    L1009:	LDS ZL,$0795
004B44  0795
004B45  91F0    	LDS ZH,$0796
004B46  0796
004B47  170E    	CP R16,ZL
004B48  071F    	CPC R17,ZH
004B49  F5C0    	BRCC L1003
004B4A  E0A5    	LDI XL,$05
004B4B  9FA0    	MUL XL,R16
004B4C  01F0    	MOVW R31:R30,R1:R0
004B4D  9FA1    	MUL XL,R17
004B4E  0DF0    	ADD ZH,R0
004B4F  E5AB    	LDI XL,$5B
004B50  E0B8    	LDI XH,$08
004B51  0FAE    	ADD XL,ZL
004B52  1FBF    	ADC XH,ZH
004B53  91EC    	LD ZL,X
004B54  27FF    	CLR ZH
004B55  2766    	CLR R22
004B56  2777    	CLR R23
004B57  940E    	CALL L934
004B58  6B8F
004B59  937F    	PUSH R23
004B5A  936F    	PUSH R22
004B5B  93FF    	PUSH ZH
004B5C  93EF    	PUSH ZL
004B5D  E0A5    	LDI XL,$05
004B5E  9FA0    	MUL XL,R16
004B5F  01F0    	MOVW R31:R30,R1:R0
004B60  9FA1    	MUL XL,R17
004B61  0DF0    	ADD ZH,R0
004B62  E5AA    	LDI XL,$5A
004B63  E0B8    	LDI XH,$08
004B64  0FAE    	ADD XL,ZL
004B65  1FBF    	ADC XH,ZH
004B66  91EC    	LD ZL,X
004B67  27FF    	CLR ZH
004B68  2766    	CLR R22
004B69  2777    	CLR R23
004B6A  940E    	CALL L934
004B6B  6B8F
004B6C  91AF    	POP XL
004B6D  91BF    	POP XH
004B6E  918F    	POP R24
004B6F  919F    	POP R25
004B70  940E    	CALL L1005
004B71  6B05
004B72  940E    	CALL L1006
004B73  6BC6
004B74  940E    	CALL L937
004B75  6B5C
004B76  93FA    	ST -Y,ZH
004B77  93EA    	ST -Y,ZL
004B78  940E    	CALL L1007
004B79  6A2C
004B7A  973B    	SBIW ZH:ZL,11
004B7B  F018    	BRCS L1008
004B7C  E0EA    	LDI ZL,$0A
004B7D  2EDE    	MOV R13,ZL
004B7E  C003    	RJMP L1003
004B7F  5F0F    L1008:	SUBI R16,$FF
004B80  4F1F    	SBCI R17,$FF
004B81  CFC1    	RJMP L1009
004B82  9ADD    L1003:	SBI PORTA,PA5
004B83  8119    L969:	LDD R17,Y+1
004B84  8108    	LD R16,Y
004B85  9628    	ADIW YH:YL,8
004B86  9508    	RET
004B87  940E    L986:	CALL L910
004B88  6CB8
004B89  9A57    	SBI UCSR0B,RXCIE0
004B8A  9856    	CBI UCSR0B,TXCIE0
004B8B  E000    	LDI R16,$00
004B8C  E010    	LDI R17,$00
004B8D  310F    L1013:	CPI R16,$1F
004B8E  E0E0    	LDI ZL,$00
004B8F  071E    	CPC R17,ZL
004B90  F5B8    	BRCC L922
004B91  E0A6    	LDI XL,$06
004B92  9FA0    	MUL XL,R16
004B93  01F0    	MOVW R31:R30,R1:R0
004B94  9FA1    	MUL XL,R17
004B95  0DF0    	ADD ZH,R0
004B96  E9A7    	LDI XL,$97
004B97  E0B7    	LDI XH,$07
004B98  0FAE    	ADD XL,ZL
004B99  1FBF    	ADC XH,ZH
004B9A  91EC    	LD ZL,X
004B9B  30E0    	CPI ZL,$00
004B9C  F141    	BREQ L1010
004B9D  930A    	ST -Y,R16
004B9E  940E    	CALL L1011
004B9F  40BC
004BA0  019F    	MOVW R19:R18,R31:R30
004BA1  EBEC    	LDI ZL,$BC
004BA2  E0F1    	LDI ZH,$01
004BA3  17E2    	CP ZL,R18
004BA4  07F3    	CPC ZH,R19
004BA5  F4A9    	BRNE L1012
004BA6  930A    	ST -Y,R16
004BA7  940E    	CALL L1011
004BA8  40BC
004BA9  019F    	MOVW R19:R18,R31:R30
004BAA  EBEC    	LDI ZL,$BC
004BAB  E0F1    	LDI ZH,$01
004BAC  17E2    	CP ZL,R18
004BAD  07F3    	CPC ZH,R19
004BAE  F461    	BRNE L1012
004BAF  930A    	ST -Y,R16
004BB0  940E    	CALL L1011
004BB1  40BC
004BB2  019F    	MOVW R19:R18,R31:R30
004BB3  EBEC    	LDI ZL,$BC
004BB4  E0F1    	LDI ZH,$01
004BB5  17E2    	CP ZL,R18
004BB6  07F3    	CPC ZH,R19
004BB7  F419    	BRNE L1012
004BB8  E0EB    	LDI ZL,$0B
004BB9  2EDE    	MOV R13,ZL
004BBA  C00D    	RJMP L922
004BBB  E0A5    L1012:	LDI XL,$05
004BBC  9FA0    	MUL XL,R16
004BBD  01F0    	MOVW R31:R30,R1:R0
004BBE  9FA1    	MUL XL,R17
004BBF  0DF0    	ADD ZH,R0
004BC0  E5AA    	LDI XL,$5A
004BC1  E0B8    	LDI XH,$08
004BC2  0FAE    	ADD XL,ZL
004BC3  1FBF    	ADC XH,ZH
004BC4  932C    	ST X,R18
004BC5  5F0F    L1010:	SUBI R16,$FF
004BC6  4F1F    	SBCI R17,$FF
004BC7  CFC5    	RJMP L1013
004BC8  940E    L922:	CALL L1014
004BC9  6CBF
004BCA  9624    	ADIW YH:YL,4
004BCB  9508    	RET
004BCC  9724    L1221:	SBIW YH:YL,4
004BCD  E084    	LDI R24,$04
004BCE  E0A0    	LDI XL,$00
004BCF  E0B0    	LDI XH,$00
004BD0  EBE0    	LDI ZL,$B0
004BD1  E5FC    	LDI ZH,$5C
004BD2  E060    	LDI R22,$00
004BD3  940E    	CALL L1015
004BD4  6CC4
004BD5  931A    	ST -Y,R17
004BD6  930A    	ST -Y,R16
004BD7  FC26    	SBRC R2,6
004BD8  C105    	RJMP L1016
004BD9  01DE    	MOVW R27:R26,R29:R28
004BDA  9616    	ADIW XH:XL,6
004BDB  900C    	LD R0,X
004BDC  E2AE    	LDI XL,$2E
004BDD  E0B0    	LDI XH,$00
004BDE  940E    	CALL L544
004BDF  6B16
004BE0  15E0    	CP ZL,R0
004BE1  F408    	BRCC L1017
004BE2  C0FB    	RJMP L1016
004BE3  81EE    L1017:	LDD ZL,Y+6
004BE4  93EA    	ST -Y,ZL
004BE5  940E    	CALL L1018
004BE6  416C
004BE7  91A0    	LDS XL,$0792
004BE8  0792
004BE9  16CA    	CP R12,XL
004BEA  F019    	BREQ L1019
004BEB  E0E5    	LDI ZL,$05
004BEC  2EDE    	MOV R13,ZL
004BED  C0F0    	RJMP L1016
004BEE  940E    L1019:	CALL L982
004BEF  44A6
004BF0  EFEF    	LDI ZL,$FF
004BF1  2EDE    	MOV R13,ZL
004BF2  940E    	CALL L986
004BF3  4B87
004BF4  EFEF    	LDI ZL,$FF
004BF5  15ED    	CP ZL,R13
004BF6  F009    	BREQ L1020
004BF7  C0E6    	RJMP L1016
004BF8  91E0    L1020:	LDS ZL,$094A
004BF9  094A
004BFA  91F0    	LDS ZH,$094B
004BFB  094B
004BFC  9636    	ADIW ZH:ZL,6
004BFD  93FA    	ST -Y,ZH
004BFE  93EA    	ST -Y,ZL
004BFF  91E0    	LDS ZL,$0795
004C00  0795
004C01  91F0    	LDS ZH,$0796
004C02  0796
004C03  E0A5    	LDI XL,$05
004C04  E0B0    	LDI XH,$00
004C05  940E    	CALL L878
004C06  6AD1
004C07  93FA    	ST -Y,ZH
004C08  93EA    	ST -Y,ZL
004C09  940E    	CALL L538
004C0A  67F1
004C0B  E000    	LDI R16,$00
004C0C  E010    	LDI R17,$00
004C0D  91E0    L1028:	LDS ZL,$0795
004C0E  0795
004C0F  91F0    	LDS ZH,$0796
004C10  0796
004C11  170E    	CP R16,ZL
004C12  071F    	CPC R17,ZH
004C13  F010    	BRCS L1021
004C14  940C    	JMP L1022
004C15  4CA7
004C16  E0A5    L1021:	LDI XL,$05
004C17  9FA0    	MUL XL,R16
004C18  01F0    	MOVW R31:R30,R1:R0
004C19  9FA1    	MUL XL,R17
004C1A  0DF0    	ADD ZH,R0
004C1B  5FEE    	SUBI ZL,$FE
004C1C  4FFA    	SBCI ZH,$FA
004C1D  81E0    	LD ZL,Z
004C1E  27FF    	CLR ZH
004C1F  2766    	CLR R22
004C20  2777    	CLR R23
004C21  940E    	CALL L934
004C22  6B8F
004C23  937F    	PUSH R23
004C24  936F    	PUSH R22
004C25  93FF    	PUSH ZH
004C26  93EF    	PUSH ZL
004C27  E0A5    	LDI XL,$05
004C28  9FA0    	MUL XL,R16
004C29  01F0    	MOVW R31:R30,R1:R0
004C2A  9FA1    	MUL XL,R17
004C2B  0DF0    	ADD ZH,R0
004C2C  50E0    	SUBI ZL,$00
004C2D  4FFB    	SBCI ZH,$FB
004C2E  81E0    	LD ZL,Z
004C2F  E0A5    	LDI XL,$05
004C30  9FEA    	MUL ZL,XL
004C31  01F0    	MOVW R31:R30,R1:R0
004C32  E5AA    	LDI XL,$5A
004C33  E0B8    	LDI XH,$08
004C34  0FAE    	ADD XL,ZL
004C35  1FBF    	ADC XH,ZH
004C36  91EC    	LD ZL,X
004C37  27FF    	CLR ZH
004C38  2766    	CLR R22
004C39  2777    	CLR R23
004C3A  940E    	CALL L934
004C3B  6B8F
004C3C  91AF    	POP XL
004C3D  91BF    	POP XH
004C3E  918F    	POP R24
004C3F  919F    	POP R25
004C40  940E    	CALL L1005
004C41  6B05
004C42  940E    	CALL L1006
004C43  6BC6
004C44  940E    	CALL L937
004C45  6B5C
004C46  93FA    	ST -Y,ZH
004C47  93EA    	ST -Y,ZL
004C48  940E    	CALL L1007
004C49  6A2C
004C4A  01DF    	MOVW R27:R26,R31:R30
004C4B  81EA    	LDD ZL,Y+2
004C4C  81FB    	LDD ZH,Y+3
004C4D  816C    	LDD R22,Y+4
004C4E  817D    	LDD R23,Y+5
004C4F  2788    	CLR R24
004C50  2799    	CLR R25
004C51  940E    	CALL L1023
004C52  6B02
004C53  940E    	CALL L948
004C54  6C8E
004C55  F009    	BREQ L1024
004C56  F410    	BRCC L1025
004C57  940C    L1024:	JMP L1026
004C58  4C95
004C59  E0A5    L1025:	LDI XL,$05
004C5A  9FA0    	MUL XL,R16
004C5B  01F0    	MOVW R31:R30,R1:R0
004C5C  9FA1    	MUL XL,R17
004C5D  0DF0    	ADD ZH,R0
004C5E  5FEE    	SUBI ZL,$FE
004C5F  4FFA    	SBCI ZH,$FA
004C60  81E0    	LD ZL,Z
004C61  27FF    	CLR ZH
004C62  2766    	CLR R22
004C63  2777    	CLR R23
004C64  940E    	CALL L934
004C65  6B8F
004C66  937F    	PUSH R23
004C67  936F    	PUSH R22
004C68  93FF    	PUSH ZH
004C69  93EF    	PUSH ZL
004C6A  E0A5    	LDI XL,$05
004C6B  9FA0    	MUL XL,R16
004C6C  01F0    	MOVW R31:R30,R1:R0
004C6D  9FA1    	MUL XL,R17
004C6E  0DF0    	ADD ZH,R0
004C6F  50E0    	SUBI ZL,$00
004C70  4FFB    	SBCI ZH,$FB
004C71  81E0    	LD ZL,Z
004C72  E0A5    	LDI XL,$05
004C73  9FEA    	MUL ZL,XL
004C74  01F0    	MOVW R31:R30,R1:R0
004C75  E5AA    	LDI XL,$5A
004C76  E0B8    	LDI XH,$08
004C77  0FAE    	ADD XL,ZL
004C78  1FBF    	ADC XH,ZH
004C79  91EC    	LD ZL,X
004C7A  27FF    	CLR ZH
004C7B  2766    	CLR R22
004C7C  2777    	CLR R23
004C7D  940E    	CALL L934
004C7E  6B8F
004C7F  91AF    	POP XL
004C80  91BF    	POP XH
004C81  918F    	POP R24
004C82  919F    	POP R25
004C83  940E    	CALL L1005
004C84  6B05
004C85  940E    	CALL L1006
004C86  6BC6
004C87  940E    	CALL L937
004C88  6B5C
004C89  93FA    	ST -Y,ZH
004C8A  93EA    	ST -Y,ZL
004C8B  940E    	CALL L1007
004C8C  6A2C
004C8D  2766    	CLR R22
004C8E  2777    	CLR R23
004C8F  940E    	CALL L934
004C90  6B8F
004C91  83EA    	STD Y+2,ZL
004C92  83FB    	STD Y+3,ZH
004C93  836C    	STD Y+4,R22
004C94  837D    	STD Y+5,R23
004C95  E0A5    L1026:	LDI XL,$05
004C96  9FA0    	MUL XL,R16
004C97  01F0    	MOVW R31:R30,R1:R0
004C98  9FA1    	MUL XL,R17
004C99  0DF0    	ADD ZH,R0
004C9A  5FED    	SUBI ZL,$FD
004C9B  4FFA    	SBCI ZH,$FA
004C9C  81E0    	LD ZL,Z
004C9D  30E6    	CPI ZL,$06
004C9E  F429    	BRNE L1027
004C9F  E0E0    	LDI ZL,$00
004CA0  83EA    	STD Y+2,ZL
004CA1  83EB    	STD Y+3,ZL
004CA2  83EC    	STD Y+4,ZL
004CA3  83ED    	STD Y+5,ZL
004CA4  5F0F    L1027:	SUBI R16,$FF
004CA5  4F1F    	SBCI R17,$FF
004CA6  CF66    	RJMP L1028
004CA7  81AA    L1022:	LDD XL,Y+2
004CA8  81BB    	LDD XH,Y+3
004CA9  818C    	LDD R24,Y+4
004CAA  819D    	LDD R25,Y+5
004CAB  E0E0    	LDI ZL,$00
004CAC  E0F0    	LDI ZH,$00
004CAD  E260    	LDI R22,$20
004CAE  E471    	LDI R23,$41
004CAF  940E    	CALL L948
004CB0  6C8E
004CB1  F009    	BREQ L1029
004CB2  F410    	BRCC L1030
004CB3  940C    L1029:	JMP L1031
004CB4  4CBF
004CB5  E0E0    L1030:	LDI ZL,$00
004CB6  E0F0    	LDI ZH,$00
004CB7  E460    	LDI R22,$40
004CB8  E470    	LDI R23,$40
004CB9  940E    	CALL L936
004CBA  6C4D
004CBB  940E    	CALL L937
004CBC  6B5C
004CBD  93EA    	ST -Y,ZL
004CBE  D0DD    	RCALL L1032
004CBF  E000    L1031:	LDI R16,$00
004CC0  E010    	LDI R17,$00
004CC1  91E0    L1035:	LDS ZL,$0793
004CC2  0793
004CC3  91F0    	LDS ZH,$0794
004CC4  0794
004CC5  170E    	CP R16,ZL
004CC6  071F    	CPC R17,ZH
004CC7  F4B0    	BRCC L1016
004CC8  940E    	CALL L1033
004CC9  4573
004CCA  940E    	CALL L997
004CCB  452D
004CCC  940E    	CALL L998
004CCD  47FB
004CCE  EFEF    	LDI ZL,$FF
004CCF  15ED    	CP ZL,R13
004CD0  F469    	BRNE L1016
004CD1  940E    	CALL L1000
004CD2  4857
004CD3  940E    	CALL L754
004CD4  492A
004CD5  940E    	CALL L755
004CD6  49B0
004CD7  FC20    L1034:	SBRC R2,0
004CD8  CFFE    	RJMP L1034
004CD9  FC23    	SBRC R2,3
004CDA  C003    	RJMP L1016
004CDB  5F0F    	SUBI R16,$FF
004CDC  4F1F    	SBCI R17,$FF
004CDD  CFE3    	RJMP L1035
004CDE  8119    L1016:	LDD R17,Y+1
004CDF  8108    	LD R16,Y
004CE0  9627    	ADIW YH:YL,7
004CE1  9508    	RET
004CE2  931A    L1064:	ST -Y,R17
004CE3  930A    	ST -Y,R16
004CE4  81EA    	LDD ZL,Y+2
004CE5  E0F0    	LDI ZH,$00
004CE6  93E0    	STS $0855,ZL
004CE7  0855
004CE8  93F0    	STS $0856,ZH
004CE9  0856
004CEA  81EA    	LDD ZL,Y+2
004CEB  E1A4    	LDI XL,$14
004CEC  9FEA    	MUL ZL,XL
004CED  01F0    	MOVW R31:R30,R1:R0
004CEE  93E0    	STS $0857,ZL
004CEF  0857
004CF0  93F0    	STS $0858,ZH
004CF1  0858
004CF2  E000    	LDI R16,$00
004CF3  E010    	LDI R17,$00
004CF4  310F    L1037:	CPI R16,$1F
004CF5  E0E0    	LDI ZL,$00
004CF6  071E    	CPC R17,ZL
004CF7  F578    	BRCC L1036
004CF8  E0A5    	LDI XL,$05
004CF9  9FA0    	MUL XL,R16
004CFA  01F0    	MOVW R31:R30,R1:R0
004CFB  9FA1    	MUL XL,R17
004CFC  0DF0    	ADD ZH,R0
004CFD  E5A9    	LDI XL,$59
004CFE  E0B8    	LDI XH,$08
004CFF  0FAE    	ADD XL,ZL
004D00  1FBF    	ADC XH,ZH
004D01  E0E0    	LDI ZL,$00
004D02  93EC    	ST X,ZL
004D03  E0A5    	LDI XL,$05
004D04  9FA0    	MUL XL,R16
004D05  01F0    	MOVW R31:R30,R1:R0
004D06  9FA1    	MUL XL,R17
004D07  0DF0    	ADD ZH,R0
004D08  E5AB    	LDI XL,$5B
004D09  E0B8    	LDI XH,$08
004D0A  0FAE    	ADD XL,ZL
004D0B  1FBF    	ADC XH,ZH
004D0C  E0E0    	LDI ZL,$00
004D0D  93EC    	ST X,ZL
004D0E  E0A5    	LDI XL,$05
004D0F  9FA0    	MUL XL,R16
004D10  01F0    	MOVW R31:R30,R1:R0
004D11  9FA1    	MUL XL,R17
004D12  0DF0    	ADD ZH,R0
004D13  E5AC    	LDI XL,$5C
004D14  E0B8    	LDI XH,$08
004D15  0FAE    	ADD XL,ZL
004D16  1FBF    	ADC XH,ZH
004D17  E0E0    	LDI ZL,$00
004D18  93EC    	ST X,ZL
004D19  E0A5    	LDI XL,$05
004D1A  9FA0    	MUL XL,R16
004D1B  01F0    	MOVW R31:R30,R1:R0
004D1C  9FA1    	MUL XL,R17
004D1D  0DF0    	ADD ZH,R0
004D1E  E5AD    	LDI XL,$5D
004D1F  E0B8    	LDI XH,$08
004D20  0FAE    	ADD XL,ZL
004D21  1FBF    	ADC XH,ZH
004D22  E0E0    	LDI ZL,$00
004D23  93EC    	ST X,ZL
004D24  5F0F    	SUBI R16,$FF
004D25  4F1F    	SBCI R17,$FF
004D26  CFCD    	RJMP L1037
004D27  E000    L1036:	LDI R16,$00
004D28  E010    	LDI R17,$00
004D29  91E0    L1040:	LDS ZL,$0795
004D2A  0795
004D2B  91F0    	LDS ZH,$0796
004D2C  0796
004D2D  170E    	CP R16,ZL
004D2E  071F    	CPC R17,ZH
004D2F  F010    	BRCS L1038
004D30  940C    	JMP L1039
004D31  4D87
004D32  01F8    L1038:	MOVW R31:R30,R17:R16
004D33  2766    	CLR R22
004D34  2777    	CLR R23
004D35  50E4    	SUBI ZL,$04
004D36  4FFF    	SBCI ZH,$FF
004D37  4F6F    	SBCI R22,$FF
004D38  BF6B    	OUT RAMPZ,R22
004D39  91E6    	ELPM ZL,Z
004D3A  E0A5    	LDI XL,$05
004D3B  9FEA    	MUL ZL,XL
004D3C  01F0    	MOVW R31:R30,R1:R0
004D3D  E5A9    	LDI XL,$59
004D3E  E0B8    	LDI XH,$08
004D3F  0FAE    	ADD XL,ZL
004D40  1FBF    	ADC XH,ZH
004D41  E0E1    	LDI ZL,$01
004D42  93EC    	ST X,ZL
004D43  01F8    	MOVW R31:R30,R17:R16
004D44  2766    	CLR R22
004D45  2777    	CLR R23
004D46  50E4    	SUBI ZL,$04
004D47  4FFF    	SBCI ZH,$FF
004D48  4F6F    	SBCI R22,$FF
004D49  BF6B    	OUT RAMPZ,R22
004D4A  91E6    	ELPM ZL,Z
004D4B  E0A5    	LDI XL,$05
004D4C  9FEA    	MUL ZL,XL
004D4D  01F0    	MOVW R31:R30,R1:R0
004D4E  5AE5    	SUBI ZL,$A5
004D4F  4FF7    	SBCI ZH,$F7
004D50  010F    	MOVW R1:R0,R31:R30
004D51  01F8    	MOVW R31:R30,R17:R16
004D52  91A0    	LDS XL,$0787
004D53  0787
004D54  91B0    	LDS XH,$0788
004D55  0788
004D56  9180    	LDS R24,$0789
004D57  0789
004D58  9190    	LDS R25,$078A
004D59  078A
004D5A  2766    	CLR R22
004D5B  2777    	CLR R23
004D5C  940E    	CALL L871
004D5D  6A90
004D5E  BF6B    	OUT RAMPZ,R22
004D5F  91E6    	ELPM ZL,Z
004D60  01D0    	MOVW R27:R26,R1:R0
004D61  93EC    	ST X,ZL
004D62  01F8    	MOVW R31:R30,R17:R16
004D63  2766    	CLR R22
004D64  2777    	CLR R23
004D65  50E4    	SUBI ZL,$04
004D66  4FFF    	SBCI ZH,$FF
004D67  4F6F    	SBCI R22,$FF
004D68  BF6B    	OUT RAMPZ,R22
004D69  91E6    	ELPM ZL,Z
004D6A  E0A5    	LDI XL,$05
004D6B  9FEA    	MUL ZL,XL
004D6C  01F0    	MOVW R31:R30,R1:R0
004D6D  E5AC    	LDI XL,$5C
004D6E  E0B8    	LDI XH,$08
004D6F  0FAE    	ADD XL,ZL
004D70  1FBF    	ADC XH,ZH
004D71  E0E3    	LDI ZL,$03
004D72  93EC    	ST X,ZL
004D73  01F8    	MOVW R31:R30,R17:R16
004D74  2766    	CLR R22
004D75  2777    	CLR R23
004D76  50E4    	SUBI ZL,$04
004D77  4FFF    	SBCI ZH,$FF
004D78  4F6F    	SBCI R22,$FF
004D79  BF6B    	OUT RAMPZ,R22
004D7A  91E6    	ELPM ZL,Z
004D7B  E0A5    	LDI XL,$05
004D7C  9FEA    	MUL ZL,XL
004D7D  01F0    	MOVW R31:R30,R1:R0
004D7E  E5AD    	LDI XL,$5D
004D7F  E0B8    	LDI XH,$08
004D80  0FAE    	ADD XL,ZL
004D81  1FBF    	ADC XH,ZH
004D82  E0E0    	LDI ZL,$00
004D83  93EC    	ST X,ZL
004D84  5F0F    	SUBI R16,$FF
004D85  4F1F    	SBCI R17,$FF
004D86  CFA2    	RJMP L1040
004D87  9857    L1039:	CBI UCSR0B,RXCIE0
004D88  9A56    	SBI UCSR0B,TXCIE0
004D89  940E    	CALL L997
004D8A  452D
004D8B  940E    	CALL L998
004D8C  47FB
004D8D  EFEF    	LDI ZL,$FF
004D8E  15ED    	CP ZL,R13
004D8F  F009    	BREQ L1041
004D90  C64C    	RJMP L1042
004D91  940E    L1041:	CALL L1000
004D92  4857
004D93  940E    	CALL L754
004D94  492A
004D95  940E    	CALL L755
004D96  49B0
004D97  FC20    L1043:	SBRC R2,0
004D98  CFFE    	RJMP L1043
004D99  FC23    	SBRC R2,3
004D9A  C642    	RJMP L1042
004D9B  C641    	RJMP L1042
004D9C  931A    L1032:	ST -Y,R17
004D9D  930A    	ST -Y,R16
004D9E  81EA    	LDD ZL,Y+2
004D9F  E0F0    	LDI ZH,$00
004DA0  93E0    	STS $0855,ZL
004DA1  0855
004DA2  93F0    	STS $0856,ZH
004DA3  0856
004DA4  81EA    	LDD ZL,Y+2
004DA5  E1A4    	LDI XL,$14
004DA6  9FEA    	MUL ZL,XL
004DA7  01F0    	MOVW R31:R30,R1:R0
004DA8  93E0    	STS $0857,ZL
004DA9  0857
004DAA  93F0    	STS $0858,ZH
004DAB  0858
004DAC  91E0    	LDS ZL,$094A
004DAD  094A
004DAE  91F0    	LDS ZH,$094B
004DAF  094B
004DB0  9636    	ADIW ZH:ZL,6
004DB1  93FA    	ST -Y,ZH
004DB2  93EA    	ST -Y,ZL
004DB3  91E0    	LDS ZL,$0795
004DB4  0795
004DB5  91F0    	LDS ZH,$0796
004DB6  0796
004DB7  E0A5    	LDI XL,$05
004DB8  E0B0    	LDI XH,$00
004DB9  940E    	CALL L878
004DBA  6AD1
004DBB  93FA    	ST -Y,ZH
004DBC  93EA    	ST -Y,ZL
004DBD  940E    	CALL L538
004DBE  67F1
004DBF  E000    	LDI R16,$00
004DC0  E010    	LDI R17,$00
004DC1  310F    L1045:	CPI R16,$1F
004DC2  E0E0    	LDI ZL,$00
004DC3  071E    	CPC R17,ZL
004DC4  F578    	BRCC L1044
004DC5  E0A5    	LDI XL,$05
004DC6  9FA0    	MUL XL,R16
004DC7  01F0    	MOVW R31:R30,R1:R0
004DC8  9FA1    	MUL XL,R17
004DC9  0DF0    	ADD ZH,R0
004DCA  E5A9    	LDI XL,$59
004DCB  E0B8    	LDI XH,$08
004DCC  0FAE    	ADD XL,ZL
004DCD  1FBF    	ADC XH,ZH
004DCE  E0E0    	LDI ZL,$00
004DCF  93EC    	ST X,ZL
004DD0  E0A5    	LDI XL,$05
004DD1  9FA0    	MUL XL,R16
004DD2  01F0    	MOVW R31:R30,R1:R0
004DD3  9FA1    	MUL XL,R17
004DD4  0DF0    	ADD ZH,R0
004DD5  E5AB    	LDI XL,$5B
004DD6  E0B8    	LDI XH,$08
004DD7  0FAE    	ADD XL,ZL
004DD8  1FBF    	ADC XH,ZH
004DD9  E0E0    	LDI ZL,$00
004DDA  93EC    	ST X,ZL
004DDB  E0A5    	LDI XL,$05
004DDC  9FA0    	MUL XL,R16
004DDD  01F0    	MOVW R31:R30,R1:R0
004DDE  9FA1    	MUL XL,R17
004DDF  0DF0    	ADD ZH,R0
004DE0  E5AC    	LDI XL,$5C
004DE1  E0B8    	LDI XH,$08
004DE2  0FAE    	ADD XL,ZL
004DE3  1FBF    	ADC XH,ZH
004DE4  E0E0    	LDI ZL,$00
004DE5  93EC    	ST X,ZL
004DE6  E0A5    	LDI XL,$05
004DE7  9FA0    	MUL XL,R16
004DE8  01F0    	MOVW R31:R30,R1:R0
004DE9  9FA1    	MUL XL,R17
004DEA  0DF0    	ADD ZH,R0
004DEB  E5AD    	LDI XL,$5D
004DEC  E0B8    	LDI XH,$08
004DED  0FAE    	ADD XL,ZL
004DEE  1FBF    	ADC XH,ZH
004DEF  E0E0    	LDI ZL,$00
004DF0  93EC    	ST X,ZL
004DF1  5F0F    	SUBI R16,$FF
004DF2  4F1F    	SBCI R17,$FF
004DF3  CFCD    	RJMP L1045
004DF4  E000    L1044:	LDI R16,$00
004DF5  E010    	LDI R17,$00
004DF6  91E0    L1048:	LDS ZL,$0795
004DF7  0795
004DF8  91F0    	LDS ZH,$0796
004DF9  0796
004DFA  170E    	CP R16,ZL
004DFB  071F    	CPC R17,ZH
004DFC  F010    	BRCS L1046
004DFD  940C    	JMP L1047
004DFE  4E54
004DFF  E0A5    L1046:	LDI XL,$05
004E00  9FA0    	MUL XL,R16
004E01  01F0    	MOVW R31:R30,R1:R0
004E02  9FA1    	MUL XL,R17
004E03  0DF0    	ADD ZH,R0
004E04  50E0    	SUBI ZL,$00
004E05  4FFB    	SBCI ZH,$FB
004E06  81E0    	LD ZL,Z
004E07  E0A5    	LDI XL,$05
004E08  9FEA    	MUL ZL,XL
004E09  01F0    	MOVW R31:R30,R1:R0
004E0A  E5A9    	LDI XL,$59
004E0B  E0B8    	LDI XH,$08
004E0C  0FAE    	ADD XL,ZL
004E0D  1FBF    	ADC XH,ZH
004E0E  E0E1    	LDI ZL,$01
004E0F  93EC    	ST X,ZL
004E10  E0A5    	LDI XL,$05
004E11  9FA0    	MUL XL,R16
004E12  01F0    	MOVW R31:R30,R1:R0
004E13  9FA1    	MUL XL,R17
004E14  0DF0    	ADD ZH,R0
004E15  50E0    	SUBI ZL,$00
004E16  4FFB    	SBCI ZH,$FB
004E17  81E0    	LD ZL,Z
004E18  E0A5    	LDI XL,$05
004E19  9FEA    	MUL ZL,XL
004E1A  01F0    	MOVW R31:R30,R1:R0
004E1B  5AE5    	SUBI ZL,$A5
004E1C  4FF7    	SBCI ZH,$F7
004E1D  01BF    	MOVW R23:R22,R31:R30
004E1E  E0A5    	LDI XL,$05
004E1F  9FA0    	MUL XL,R16
004E20  01F0    	MOVW R31:R30,R1:R0
004E21  9FA1    	MUL XL,R17
004E22  0DF0    	ADD ZH,R0
004E23  5FEF    	SUBI ZL,$FF
004E24  4FFA    	SBCI ZH,$FA
004E25  81E0    	LD ZL,Z
004E26  01DB    	MOVW R27:R26,R23:R22
004E27  93EC    	ST X,ZL
004E28  E0A5    	LDI XL,$05
004E29  9FA0    	MUL XL,R16
004E2A  01F0    	MOVW R31:R30,R1:R0
004E2B  9FA1    	MUL XL,R17
004E2C  0DF0    	ADD ZH,R0
004E2D  50E0    	SUBI ZL,$00
004E2E  4FFB    	SBCI ZH,$FB
004E2F  81E0    	LD ZL,Z
004E30  E0A5    	LDI XL,$05
004E31  9FEA    	MUL ZL,XL
004E32  01F0    	MOVW R31:R30,R1:R0
004E33  E5AC    	LDI XL,$5C
004E34  E0B8    	LDI XH,$08
004E35  0FAE    	ADD XL,ZL
004E36  1FBF    	ADC XH,ZH
004E37  E0E3    	LDI ZL,$03
004E38  93EC    	ST X,ZL
004E39  E0A5    	LDI XL,$05
004E3A  9FA0    	MUL XL,R16
004E3B  01F0    	MOVW R31:R30,R1:R0
004E3C  9FA1    	MUL XL,R17
004E3D  0DF0    	ADD ZH,R0
004E3E  50E0    	SUBI ZL,$00
004E3F  4FFB    	SBCI ZH,$FB
004E40  81E0    	LD ZL,Z
004E41  E0A5    	LDI XL,$05
004E42  9FEA    	MUL ZL,XL
004E43  01F0    	MOVW R31:R30,R1:R0
004E44  5AE3    	SUBI ZL,$A3
004E45  4FF7    	SBCI ZH,$F7
004E46  01BF    	MOVW R23:R22,R31:R30
004E47  E0A5    	LDI XL,$05
004E48  9FA0    	MUL XL,R16
004E49  01F0    	MOVW R31:R30,R1:R0
004E4A  9FA1    	MUL XL,R17
004E4B  0DF0    	ADD ZH,R0
004E4C  5FEC    	SUBI ZL,$FC
004E4D  4FFA    	SBCI ZH,$FA
004E4E  81E0    	LD ZL,Z
004E4F  01DB    	MOVW R27:R26,R23:R22
004E50  93EC    	ST X,ZL
004E51  5F0F    	SUBI R16,$FF
004E52  4F1F    	SBCI R17,$FF
004E53  CFA2    	RJMP L1048
004E54  9857    L1047:	CBI UCSR0B,RXCIE0
004E55  9A56    	SBI UCSR0B,TXCIE0
004E56  940E    	CALL L997
004E57  452D
004E58  940E    	CALL L998
004E59  47FB
004E5A  EFEF    	LDI ZL,$FF
004E5B  15ED    	CP ZL,R13
004E5C  F009    	BREQ L1049
004E5D  C57F    	RJMP L1042
004E5E  940E    L1049:	CALL L1000
004E5F  4857
004E60  940E    	CALL L754
004E61  492A
004E62  940E    	CALL L755
004E63  49B0
004E64  FC20    L1050:	SBRC R2,0
004E65  CFFE    	RJMP L1050
004E66  FC23    	SBRC R2,3
004E67  C575    	RJMP L1042
004E68  C574    	RJMP L1042
004E69  9724    L1284:	SBIW YH:YL,4
004E6A  E084    	LDI R24,$04
004E6B  E0A0    	LDI XL,$00
004E6C  E0B0    	LDI XH,$00
004E6D  EBE4    	LDI ZL,$B4
004E6E  E5FC    	LDI ZH,$5C
004E6F  E060    	LDI R22,$00
004E70  940E    	CALL L1015
004E71  6CC4
004E72  931A    	ST -Y,R17
004E73  930A    	ST -Y,R16
004E74  FC26    	SBRC R2,6
004E75  C0ED    	RJMP L1051
004E76  940E    	CALL L1052
004E77  436B
004E78  940E    	CALL L982
004E79  44A6
004E7A  EFEF    	LDI ZL,$FF
004E7B  2EDE    	MOV R13,ZL
004E7C  940E    	CALL L986
004E7D  4B87
004E7E  EFEF    	LDI ZL,$FF
004E7F  15ED    	CP ZL,R13
004E80  F009    	BREQ L1053
004E81  C0E1    	RJMP L1051
004E82  E000    L1053:	LDI R16,$00
004E83  E010    	LDI R17,$00
004E84  91E0    L1060:	LDS ZL,$0795
004E85  0795
004E86  91F0    	LDS ZH,$0796
004E87  0796
004E88  170E    	CP R16,ZL
004E89  071F    	CPC R17,ZH
004E8A  F010    	BRCS L1054
004E8B  940C    	JMP L1055
004E8C  4F27
004E8D  01F8    L1054:	MOVW R31:R30,R17:R16
004E8E  91A0    	LDS XL,$0787
004E8F  0787
004E90  91B0    	LDS XH,$0788
004E91  0788
004E92  9180    	LDS R24,$0789
004E93  0789
004E94  9190    	LDS R25,$078A
004E95  078A
004E96  2766    	CLR R22
004E97  2777    	CLR R23
004E98  940E    	CALL L871
004E99  6A90
004E9A  BF6B    	OUT RAMPZ,R22
004E9B  91E6    	ELPM ZL,Z
004E9C  27FF    	CLR ZH
004E9D  2766    	CLR R22
004E9E  2777    	CLR R23
004E9F  940E    	CALL L934
004EA0  6B8F
004EA1  937F    	PUSH R23
004EA2  936F    	PUSH R22
004EA3  93FF    	PUSH ZH
004EA4  93EF    	PUSH ZL
004EA5  E0A5    	LDI XL,$05
004EA6  9FA0    	MUL XL,R16
004EA7  01F0    	MOVW R31:R30,R1:R0
004EA8  9FA1    	MUL XL,R17
004EA9  0DF0    	ADD ZH,R0
004EAA  E5AA    	LDI XL,$5A
004EAB  E0B8    	LDI XH,$08
004EAC  0FAE    	ADD XL,ZL
004EAD  1FBF    	ADC XH,ZH
004EAE  91EC    	LD ZL,X
004EAF  27FF    	CLR ZH
004EB0  2766    	CLR R22
004EB1  2777    	CLR R23
004EB2  940E    	CALL L934
004EB3  6B8F
004EB4  91AF    	POP XL
004EB5  91BF    	POP XH
004EB6  918F    	POP R24
004EB7  919F    	POP R25
004EB8  940E    	CALL L1005
004EB9  6B05
004EBA  940E    	CALL L1006
004EBB  6BC6
004EBC  940E    	CALL L937
004EBD  6B5C
004EBE  93FA    	ST -Y,ZH
004EBF  93EA    	ST -Y,ZL
004EC0  940E    	CALL L1007
004EC1  6A2C
004EC2  01DF    	MOVW R27:R26,R31:R30
004EC3  81EA    	LDD ZL,Y+2
004EC4  81FB    	LDD ZH,Y+3
004EC5  816C    	LDD R22,Y+4
004EC6  817D    	LDD R23,Y+5
004EC7  2788    	CLR R24
004EC8  2799    	CLR R25
004EC9  940E    	CALL L1023
004ECA  6B02
004ECB  940E    	CALL L948
004ECC  6C8E
004ECD  F009    	BREQ L1056
004ECE  F410    	BRCC L1057
004ECF  940C    L1056:	JMP L1058
004ED0  4F0E
004ED1  01F8    L1057:	MOVW R31:R30,R17:R16
004ED2  91A0    	LDS XL,$0787
004ED3  0787
004ED4  91B0    	LDS XH,$0788
004ED5  0788
004ED6  9180    	LDS R24,$0789
004ED7  0789
004ED8  9190    	LDS R25,$078A
004ED9  078A
004EDA  2766    	CLR R22
004EDB  2777    	CLR R23
004EDC  940E    	CALL L871
004EDD  6A90
004EDE  BF6B    	OUT RAMPZ,R22
004EDF  91E6    	ELPM ZL,Z
004EE0  27FF    	CLR ZH
004EE1  2766    	CLR R22
004EE2  2777    	CLR R23
004EE3  940E    	CALL L934
004EE4  6B8F
004EE5  937F    	PUSH R23
004EE6  936F    	PUSH R22
004EE7  93FF    	PUSH ZH
004EE8  93EF    	PUSH ZL
004EE9  E0A5    	LDI XL,$05
004EEA  9FA0    	MUL XL,R16
004EEB  01F0    	MOVW R31:R30,R1:R0
004EEC  9FA1    	MUL XL,R17
004EED  0DF0    	ADD ZH,R0
004EEE  E5AA    	LDI XL,$5A
004EEF  E0B8    	LDI XH,$08
004EF0  0FAE    	ADD XL,ZL
004EF1  1FBF    	ADC XH,ZH
004EF2  91EC    	LD ZL,X
004EF3  27FF    	CLR ZH
004EF4  2766    	CLR R22
004EF5  2777    	CLR R23
004EF6  940E    	CALL L934
004EF7  6B8F
004EF8  91AF    	POP XL
004EF9  91BF    	POP XH
004EFA  918F    	POP R24
004EFB  919F    	POP R25
004EFC  940E    	CALL L1005
004EFD  6B05
004EFE  940E    	CALL L1006
004EFF  6BC6
004F00  940E    	CALL L937
004F01  6B5C
004F02  93FA    	ST -Y,ZH
004F03  93EA    	ST -Y,ZL
004F04  940E    	CALL L1007
004F05  6A2C
004F06  2766    	CLR R22
004F07  2777    	CLR R23
004F08  940E    	CALL L934
004F09  6B8F
004F0A  83EA    	STD Y+2,ZL
004F0B  83FB    	STD Y+3,ZH
004F0C  836C    	STD Y+4,R22
004F0D  837D    	STD Y+5,R23
004F0E  01F8    L1058:	MOVW R31:R30,R17:R16
004F0F  91A0    	LDS XL,$076B
004F10  076B
004F11  91B0    	LDS XH,$076C
004F12  076C
004F13  9180    	LDS R24,$076D
004F14  076D
004F15  9190    	LDS R25,$076E
004F16  076E
004F17  2766    	CLR R22
004F18  2777    	CLR R23
004F19  940E    	CALL L871
004F1A  6A90
004F1B  BF6B    	OUT RAMPZ,R22
004F1C  91E6    	ELPM ZL,Z
004F1D  30E6    	CPI ZL,$06
004F1E  F429    	BRNE L1059
004F1F  E0E0    	LDI ZL,$00
004F20  83EA    	STD Y+2,ZL
004F21  83EB    	STD Y+3,ZL
004F22  83EC    	STD Y+4,ZL
004F23  83ED    	STD Y+5,ZL
004F24  5F0F    L1059:	SUBI R16,$FF
004F25  4F1F    	SBCI R17,$FF
004F26  CF5D    	RJMP L1060
004F27  81AA    L1055:	LDD XL,Y+2
004F28  81BB    	LDD XH,Y+3
004F29  818C    	LDD R24,Y+4
004F2A  819D    	LDD R25,Y+5
004F2B  E0E0    	LDI ZL,$00
004F2C  E0F0    	LDI ZH,$00
004F2D  E260    	LDI R22,$20
004F2E  E471    	LDI R23,$41
004F2F  940E    	CALL L948
004F30  6C8E
004F31  F009    	BREQ L1061
004F32  F410    	BRCC L1062
004F33  940C    L1061:	JMP L1063
004F34  4F40
004F35  E0E0    L1062:	LDI ZL,$00
004F36  E0F0    	LDI ZH,$00
004F37  E460    	LDI R22,$40
004F38  E470    	LDI R23,$40
004F39  940E    	CALL L936
004F3A  6C4D
004F3B  940E    	CALL L937
004F3C  6B5C
004F3D  93EA    	ST -Y,ZL
004F3E  940E    	CALL L1064
004F3F  4CE2
004F40  E000    L1063:	LDI R16,$00
004F41  E010    	LDI R17,$00
004F42  91E0    L1067:	LDS ZL,$0793
004F43  0793
004F44  91F0    	LDS ZH,$0794
004F45  0794
004F46  170E    	CP R16,ZL
004F47  071F    	CPC R17,ZH
004F48  F4D0    	BRCC L1051
004F49  9300    	STS $090A,R16
004F4A  090A
004F4B  9310    	STS $090B,R17
004F4C  090B
004F4D  940E    	CALL L1065
004F4E  46B2
004F4F  940E    	CALL L997
004F50  452D
004F51  940E    	CALL L998
004F52  47FB
004F53  EFEF    	LDI ZL,$FF
004F54  15ED    	CP ZL,R13
004F55  F469    	BRNE L1051
004F56  940E    	CALL L1000
004F57  4857
004F58  940E    	CALL L754
004F59  492A
004F5A  940E    	CALL L755
004F5B  49B0
004F5C  FC20    L1066:	SBRC R2,0
004F5D  CFFE    	RJMP L1066
004F5E  FC23    	SBRC R2,3
004F5F  C003    	RJMP L1051
004F60  5F0F    	SUBI R16,$FF
004F61  4F1F    	SBCI R17,$FF
004F62  CFDF    	RJMP L1067
004F63  8119    L1051:	LDD R17,Y+1
004F64  8108    	LD R16,Y
004F65  9626    	ADIW YH:YL,6
004F66  9508    	RET
004F67  931A    L1093:	ST -Y,R17
004F68  930A    	ST -Y,R16
004F69  81EA    	LDD ZL,Y+2
004F6A  93E0    	STS $0900,ZL
004F6B  0900
004F6C  50E1    	SUBI ZL,$01
004F6D  E8A0    	LDI XL,$80
004F6E  E0B0    	LDI XH,$00
004F6F  E0F0    	LDI ZH,$00
004F70  0FEE    	LSL ZL
004F71  1FFF    	ROL ZH
004F72  0FAE    	ADD XL,ZL
004F73  1FBF    	ADC XH,ZH
004F74  940E    	CALL L601
004F75  6B12
004F76  93FA    	ST -Y,ZH
004F77  93EA    	ST -Y,ZL
004F78  E0E7    	LDI ZL,$07
004F79  E0F0    	LDI ZH,$00
004F7A  93FA    	ST -Y,ZH
004F7B  93EA    	ST -Y,ZL
004F7C  940E    	CALL L538
004F7D  67F1
004F7E  E000    	LDI R16,$00
004F7F  E010    	LDI R17,$00
004F80  3004    L1069:	CPI R16,$04
004F81  E0E0    	LDI ZL,$00
004F82  071E    	CPC R17,ZL
004F83  F590    	BRCC L1068
004F84  91A0    	LDS XL,$0901
004F85  0901
004F86  91B0    	LDS XH,$0902
004F87  0902
004F88  9180    	LDS R24,$0903
004F89  0903
004F8A  9190    	LDS R25,$0904
004F8B  0904
004F8C  E0E8    	LDI ZL,$08
004F8D  940E    	CALL L869
004F8E  6AAB
004F8F  93E0    	STS $0901,ZL
004F90  0901
004F91  93F0    	STS $0902,ZH
004F92  0902
004F93  9360    	STS $0903,R22
004F94  0903
004F95  9370    	STS $0904,R23
004F96  0904
004F97  E0A1    	LDI XL,$01
004F98  E0B9    	LDI XH,$09
004F99  93BF    	PUSH XH
004F9A  93AF    	PUSH XL
004F9B  940E    	CALL L870
004F9C  6AF0
004F9D  937F    	PUSH R23
004F9E  936F    	PUSH R22
004F9F  93FF    	PUSH ZH
004FA0  93EF    	PUSH ZL
004FA1  E0A0    	LDI XL,$00
004FA2  E0B5    	LDI XH,$05
004FA3  0FA0    	ADD XL,R16
004FA4  1FB1    	ADC XH,R17
004FA5  91EC    	LD ZL,X
004FA6  91AF    	POP XL
004FA7  91BF    	POP XH
004FA8  918F    	POP R24
004FA9  919F    	POP R25
004FAA  27FF    	CLR ZH
004FAB  2766    	CLR R22
004FAC  2777    	CLR R23
004FAD  940E    	CALL L871
004FAE  6A90
004FAF  91AF    	POP XL
004FB0  91BF    	POP XH
004FB1  940E    	CALL L872
004FB2  6AF6
004FB3  5F0F    	SUBI R16,$FF
004FB4  4F1F    	SBCI R17,$FF
004FB5  CFCA    	RJMP L1069
004FB6  91E0    L1068:	LDS ZL,$0504
004FB7  0504
004FB8  93E0    	STS $0905,ZL
004FB9  0905
004FBA  E005    	LDI R16,$05
004FBB  E010    	LDI R17,$00
004FBC  3007    L1071:	CPI R16,$07
004FBD  E0E0    	LDI ZL,$00
004FBE  071E    	CPC R17,ZL
004FBF  F4D0    	BRCC L1070
004FC0  91F0    	LDS ZH,$0906
004FC1  0906
004FC2  E0E0    	LDI ZL,$00
004FC3  93E0    	STS $0906,ZL
004FC4  0906
004FC5  93F0    	STS $0907,ZH
004FC6  0907
004FC7  E0A6    	LDI XL,$06
004FC8  E0B9    	LDI XH,$09
004FC9  01BD    	MOVW R23:R22,R27:R26
004FCA  900D    	LD R0,X+
004FCB  901C    	LD R1,X
004FCC  E0A0    	LDI XL,$00
004FCD  E0B5    	LDI XH,$05
004FCE  0FA0    	ADD XL,R16
004FCF  1FB1    	ADC XH,R17
004FD0  91EC    	LD ZL,X
004FD1  E0F0    	LDI ZH,$00
004FD2  0DE0    	ADD ZL,R0
004FD3  1DF1    	ADC ZH,R1
004FD4  01DB    	MOVW R27:R26,R23:R22
004FD5  93ED    	ST X+,ZL
004FD6  93FC    	ST X,ZH
004FD7  5F0F    	SUBI R16,$FF
004FD8  4F1F    	SBCI R17,$FF
004FD9  CFE2    	RJMP L1071
004FDA  C402    L1070:	RJMP L1042
004FDB  931A    L1097:	ST -Y,R17
004FDC  930A    	ST -Y,R16
004FDD  81EC    	LDD ZL,Y+4
004FDE  50E1    	SUBI ZL,$01
004FDF  E8A0    	LDI XL,$80
004FE0  E0B0    	LDI XH,$00
004FE1  E0F0    	LDI ZH,$00
004FE2  0FEE    	LSL ZL
004FE3  1FFF    	ROL ZH
004FE4  0FAE    	ADD XL,ZL
004FE5  1FBF    	ADC XH,ZH
004FE6  940E    	CALL L601
004FE7  6B12
004FE8  9637    	ADIW ZH:ZL,7
004FE9  01BF    	MOVW R23:R22,R31:R30
004FEA  81EA    	LDD ZL,Y+2
004FEB  81FB    	LDD ZH,Y+3
004FEC  E0AC    	LDI XL,$0C
004FED  E0B0    	LDI XH,$00
004FEE  940E    	CALL L878
004FEF  6AD1
004FF0  0FE6    	ADD ZL,R22
004FF1  1FF7    	ADC ZH,R23
004FF2  93FA    	ST -Y,ZH
004FF3  93EA    	ST -Y,ZL
004FF4  E0EC    	LDI ZL,$0C
004FF5  E0F0    	LDI ZH,$00
004FF6  93FA    	ST -Y,ZH
004FF7  93EA    	ST -Y,ZL
004FF8  940E    	CALL L538
004FF9  67F1
004FFA  E000    	LDI R16,$00
004FFB  E010    	LDI R17,$00
004FFC  3002    L1073:	CPI R16,$02
004FFD  E0E0    	LDI ZL,$00
004FFE  071E    	CPC R17,ZL
004FFF  F4C8    	BRCC L1072
005000  E0E0    	LDI ZL,$00
005001  93E0    	STS $08F4,ZL
005002  08F4
005003  93F0    	STS $08F5,ZH
005004  08F5
005005  EFA4    	LDI XL,$F4
005006  E0B8    	LDI XH,$08
005007  01BD    	MOVW R23:R22,R27:R26
005008  900D    	LD R0,X+
005009  901C    	LD R1,X
00500A  E0A0    	LDI XL,$00
00500B  E0B5    	LDI XH,$05
00500C  0FA0    	ADD XL,R16
00500D  1FB1    	ADC XH,R17
00500E  91EC    	LD ZL,X
00500F  E0F0    	LDI ZH,$00
005010  70F0    	ANDI ZH,$00
005011  0DE0    	ADD ZL,R0
005012  1DF1    	ADC ZH,R1
005013  01DB    	MOVW R27:R26,R23:R22
005014  93ED    	ST X+,ZL
005015  93FC    	ST X,ZH
005016  5F0F    	SUBI R16,$FF
005017  4F1F    	SBCI R17,$FF
005018  CFE3    	RJMP L1073
005019  91E0    L1072:	LDS ZL,$0502
00501A  0502
00501B  93E0    	STS $08F6,ZL
00501C  08F6
00501D  91E0    	LDS ZL,$0503
00501E  0503
00501F  93E0    	STS $08F7,ZL
005020  08F7
005021  91E0    	LDS ZL,$0504
005022  0504
005023  93E0    	STS $08F8,ZL
005024  08F8
005025  91E0    	LDS ZL,$0505
005026  0505
005027  93E0    	STS $08F9,ZL
005028  08F9
005029  91E0    	LDS ZL,$0506
00502A  0506
00502B  93E0    	STS $08FA,ZL
00502C  08FA
00502D  91E0    	LDS ZL,$0507
00502E  0507
00502F  93E0    	STS $08FB,ZL
005030  08FB
005031  91E0    	LDS ZL,$0508
005032  0508
005033  93E0    	STS $08FC,ZL
005034  08FC
005035  91E0    	LDS ZL,$0509
005036  0509
005037  93E0    	STS $08FD,ZL
005038  08FD
005039  91E0    	LDS ZL,$050A
00503A  050A
00503B  93E0    	STS $08FE,ZL
00503C  08FE
00503D  91E0    	LDS ZL,$050B
00503E  050B
00503F  93E0    	STS $08FF,ZL
005040  08FF
005041  8119    	LDD R17,Y+1
005042  8108    	LD R16,Y
005043  9625    	ADIW YH:YL,5
005044  9508    	RET
005045  81E8    L1142:	LD ZL,Y
005046  30E7    	CPI ZL,$07
005047  F411    	BRNE L1074
005048  E0E7    	LDI ZL,$07
005049  C03B    	RJMP L1075
00504A  30E6    L1074:	CPI ZL,$06
00504B  F411    	BRNE L1076
00504C  E0E6    	LDI ZL,$06
00504D  C037    	RJMP L1075
00504E  30E5    L1076:	CPI ZL,$05
00504F  F411    	BRNE L1077
005050  E0E5    	LDI ZL,$05
005051  C033    	RJMP L1075
005052  30E4    L1077:	CPI ZL,$04
005053  F411    	BRNE L1078
005054  E0E4    	LDI ZL,$04
005055  C02F    	RJMP L1075
005056  30E3    L1078:	CPI ZL,$03
005057  F411    	BRNE L1079
005058  E0E3    	LDI ZL,$03
005059  C02B    	RJMP L1075
00505A  30E2    L1079:	CPI ZL,$02
00505B  F411    	BRNE L1080
00505C  E0E2    	LDI ZL,$02
00505D  C027    	RJMP L1075
00505E  30E1    L1080:	CPI ZL,$01
00505F  F411    	BRNE L1081
005060  E0E1    	LDI ZL,$01
005061  C023    	RJMP L1075
005062  30E0    L1081:	CPI ZL,$00
005063  F411    	BRNE L1082
005064  E0E0    	LDI ZL,$00
005065  C01F    	RJMP L1075
005066  30EF    L1082:	CPI ZL,$0F
005067  F411    	BRNE L1083
005068  EFEF    	LDI ZL,$FF
005069  C01B    	RJMP L1075
00506A  30EE    L1083:	CPI ZL,$0E
00506B  F411    	BRNE L1084
00506C  EFEE    	LDI ZL,$FE
00506D  C017    	RJMP L1075
00506E  30ED    L1084:	CPI ZL,$0D
00506F  F411    	BRNE L1085
005070  EFED    	LDI ZL,$FD
005071  C013    	RJMP L1075
005072  30EC    L1085:	CPI ZL,$0C
005073  F411    	BRNE L1086
005074  EFEC    	LDI ZL,$FC
005075  C00F    	RJMP L1075
005076  30EB    L1086:	CPI ZL,$0B
005077  F411    	BRNE L1087
005078  EFEB    	LDI ZL,$FB
005079  C00B    	RJMP L1075
00507A  30EA    L1087:	CPI ZL,$0A
00507B  F411    	BRNE L1088
00507C  EFEA    	LDI ZL,$FA
00507D  C007    	RJMP L1075
00507E  30E9    L1088:	CPI ZL,$09
00507F  F411    	BRNE L1089
005080  EFE9    	LDI ZL,$F9
005081  C003    	RJMP L1075
005082  30E8    L1089:	CPI ZL,$08
005083  F409    	BRNE L1075
005084  EFE8    	LDI ZL,$F8
005085  9621    L1075:	ADIW YH:YL,1
005086  9508    	RET
005087  940E    L1390:	CALL L1090
005088  6CB6
005089  FC26    	SBRC R2,6
00508A  C30A    	RJMP L1091
00508B  01DE    	MOVW R27:R26,R29:R28
00508C  9616    	ADIW XH:XL,6
00508D  900C    	LD R0,X
00508E  E2AF    	LDI XL,$2F
00508F  E0B0    	LDI XH,$00
005090  940E    	CALL L544
005091  6B16
005092  15E0    	CP ZL,R0
005093  F408    	BRCC L1092
005094  C300    	RJMP L1091
005095  81EE    L1092:	LDD ZL,Y+6
005096  93EA    	ST -Y,ZL
005097  940E    	CALL L1093
005098  4F67
005099  91A0    	LDS XL,$0905
00509A  0905
00509B  16CA    	CP R12,XL
00509C  F019    	BREQ L1094
00509D  E0E5    	LDI ZL,$05
00509E  2EDE    	MOV R13,ZL
00509F  C2F5    	RJMP L1091
0050A0  EFEF    L1094:	LDI ZL,$FF
0050A1  2EDE    	MOV R13,ZL
0050A2  9468    	BSET 6
0050A3  F821    	BLD R2,1
0050A4  E0E0    	LDI ZL,$00
0050A5  93E0    	STS $078B,ZL
0050A6  078B
0050A7  93E0    	STS $078C,ZL
0050A8  078C
0050A9  91E0    L1171:	LDS ZL,$0906
0050AA  0906
0050AB  91F0    	LDS ZH,$0907
0050AC  0907
0050AD  91A0    	LDS XL,$078B
0050AE  078B
0050AF  91B0    	LDS XH,$078C
0050B0  078C
0050B1  17EA    	CP ZL,XL
0050B2  07FB    	CPC ZH,XH
0050B3  F411    	BRNE L1095
0050B4  940C    	JMP L1096
0050B5  5394
0050B6  98DD    L1095:	CBI PORTA,PA5
0050B7  81EE    	LDD ZL,Y+6
0050B8  93EA    	ST -Y,ZL
0050B9  91E0    	LDS ZL,$078B
0050BA  078B
0050BB  91F0    	LDS ZH,$078C
0050BC  078C
0050BD  93FA    	ST -Y,ZH
0050BE  93EA    	ST -Y,ZL
0050BF  940E    	CALL L1097
0050C0  4FDB
0050C1  91E0    	LDS ZL,$078B
0050C2  078B
0050C3  91F0    	LDS ZH,$078C
0050C4  078C
0050C5  9631    	ADIW ZH:ZL,1
0050C6  93E0    	STS $078B,ZL
0050C7  078B
0050C8  93F0    	STS $078C,ZH
0050C9  078C
0050CA  91E0    	LDS ZL,$08F6
0050CB  08F6
0050CC  30E0    	CPI ZL,$00
0050CD  F429    	BRNE L1098
0050CE  91E0    	LDS ZL,$08FB
0050CF  08FB
0050D0  93EA    	ST -Y,ZL
0050D1  D2C7    	RCALL L1099
0050D2  C2BB    	RJMP L1100
0050D3  30E1    L1098:	CPI ZL,$01
0050D4  F5D9    	BRNE L1101
0050D5  940E    	CALL L1102
0050D6  6882
0050D7  91A0    	LDS XL,$08F7
0050D8  08F7
0050D9  30A1    	CPI XL,$01
0050DA  F449    	BRNE L1103
0050DB  91E0    	LDS ZL,$08F8
0050DC  08F8
0050DD  15E7    	CP ZL,R7
0050DE  F421    	BRNE L1104
0050DF  91E0    	LDS ZL,$08FB
0050E0  08FB
0050E1  93EA    	ST -Y,ZL
0050E2  D2B6    	RCALL L1099
0050E3  C02B    L1104:	RJMP L1105
0050E4  91A0    L1103:	LDS XL,$08F7
0050E5  08F7
0050E6  30A2    	CPI XL,$02
0050E7  F449    	BRNE L1106
0050E8  91E0    	LDS ZL,$08F8
0050E9  08F8
0050EA  15E7    	CP ZL,R7
0050EB  F420    	BRCC L1107
0050EC  91E0    	LDS ZL,$08FB
0050ED  08FB
0050EE  93EA    	ST -Y,ZL
0050EF  D2A9    	RCALL L1099
0050F0  C01E    L1107:	RJMP L1105
0050F1  91A0    L1106:	LDS XL,$08F7
0050F2  08F7
0050F3  30A3    	CPI XL,$03
0050F4  F449    	BRNE L1108
0050F5  91E0    	LDS ZL,$08F9
0050F6  08F9
0050F7  167E    	CP R7,ZL
0050F8  F420    	BRCC L1109
0050F9  91E0    	LDS ZL,$08FB
0050FA  08FB
0050FB  93EA    	ST -Y,ZL
0050FC  D29C    	RCALL L1099
0050FD  C011    L1109:	RJMP L1105
0050FE  91A0    L1108:	LDS XL,$08F7
0050FF  08F7
005100  30A4    	CPI XL,$04
005101  F469    	BRNE L1105
005102  91E0    	LDS ZL,$08F8
005103  08F8
005104  15E7    	CP ZL,R7
005105  F420    	BRCC L1110
005106  91E0    	LDS ZL,$08F9
005107  08F9
005108  167E    	CP R7,ZL
005109  F008    	BRCS L1111
00510A  C004    L1110:	RJMP L1105
00510B  91E0    L1111:	LDS ZL,$08FB
00510C  08FB
00510D  93EA    	ST -Y,ZL
00510E  D28A    	RCALL L1099
00510F  C27E    L1105:	RJMP L1100
005110  30E2    L1101:	CPI ZL,$02
005111  F5D9    	BRNE L1112
005112  940E    	CALL L1113
005113  68FB
005114  91A0    	LDS XL,$08F7
005115  08F7
005116  30A1    	CPI XL,$01
005117  F449    	BRNE L1114
005118  91E0    	LDS ZL,$08F8
005119  08F8
00511A  15E8    	CP ZL,R8
00511B  F421    	BRNE L1115
00511C  91E0    	LDS ZL,$08FB
00511D  08FB
00511E  93EA    	ST -Y,ZL
00511F  D279    	RCALL L1099
005120  C02B    L1115:	RJMP L1116
005121  91A0    L1114:	LDS XL,$08F7
005122  08F7
005123  30A2    	CPI XL,$02
005124  F449    	BRNE L1117
005125  91E0    	LDS ZL,$08F8
005126  08F8
005127  15E8    	CP ZL,R8
005128  F420    	BRCC L1118
005129  91E0    	LDS ZL,$08FB
00512A  08FB
00512B  93EA    	ST -Y,ZL
00512C  D26C    	RCALL L1099
00512D  C01E    L1118:	RJMP L1116
00512E  91A0    L1117:	LDS XL,$08F7
00512F  08F7
005130  30A3    	CPI XL,$03
005131  F449    	BRNE L1119
005132  91E0    	LDS ZL,$08F9
005133  08F9
005134  168E    	CP R8,ZL
005135  F420    	BRCC L1120
005136  91E0    	LDS ZL,$08FB
005137  08FB
005138  93EA    	ST -Y,ZL
005139  D25F    	RCALL L1099
00513A  C011    L1120:	RJMP L1116
00513B  91A0    L1119:	LDS XL,$08F7
00513C  08F7
00513D  30A4    	CPI XL,$04
00513E  F469    	BRNE L1116
00513F  91E0    	LDS ZL,$08F8
005140  08F8
005141  15E8    	CP ZL,R8
005142  F420    	BRCC L1121
005143  91E0    	LDS ZL,$08F9
005144  08F9
005145  168E    	CP R8,ZL
005146  F008    	BRCS L1122
005147  C004    L1121:	RJMP L1116
005148  91E0    L1122:	LDS ZL,$08FB
005149  08FB
00514A  93EA    	ST -Y,ZL
00514B  D24D    	RCALL L1099
00514C  C241    L1116:	RJMP L1100
00514D  30E3    L1112:	CPI ZL,$03
00514E  F549    	BRNE L1123
00514F  B3E9    	IN ZL,PINA
005150  70E3    	ANDI ZL,$03
005151  2F2E    	MOV R18,ZL
005152  91A0    	LDS XL,$08F7
005153  08F7
005154  30A1    	CPI XL,$01
005155  F479    	BRNE L1124
005156  3022    	CPI R18,$02
005157  F461    	BRNE L1125
005158  E1EE    	LDI ZL,$1E
005159  E0F0    	LDI ZH,$00
00515A  93FA    	ST -Y,ZH
00515B  93EA    	ST -Y,ZL
00515C  940E    	CALL L537
00515D  6A4C
00515E  3022    	CPI R18,$02
00515F  F421    	BRNE L1125
005160  91E0    	LDS ZL,$08FB
005161  08FB
005162  93EA    	ST -Y,ZL
005163  D235    	RCALL L1099
005164  C012    L1125:	RJMP L1126
005165  91A0    L1124:	LDS XL,$08F7
005166  08F7
005167  30A2    	CPI XL,$02
005168  F471    	BRNE L1126
005169  3021    	CPI R18,$01
00516A  F461    	BRNE L1126
00516B  E1EE    	LDI ZL,$1E
00516C  E0F0    	LDI ZH,$00
00516D  93FA    	ST -Y,ZH
00516E  93EA    	ST -Y,ZL
00516F  940E    	CALL L537
005170  6A4C
005171  3021    	CPI R18,$01
005172  F421    	BRNE L1126
005173  91E0    	LDS ZL,$08FB
005174  08FB
005175  93EA    	ST -Y,ZL
005176  D222    	RCALL L1099
005177  C216    L1126:	RJMP L1100
005178  30E4    L1123:	CPI ZL,$04
005179  F011    	BREQ L1127
00517A  940C    	JMP L1128
00517B  521E
00517C  E000    L1127:	LDI R16,$00
00517D  E010    	LDI R17,$00
00517E  3004    L1130:	CPI R16,$04
00517F  E0E0    	LDI ZL,$00
005180  071E    	CPC R17,ZL
005181  F448    	BRCC L1129
005182  EEA1    	LDI XL,$E1
005183  E0B6    	LDI XH,$06
005184  0FA0    	ADD XL,R16
005185  1FB1    	ADC XH,R17
005186  E0E0    	LDI ZL,$00
005187  93EC    	ST X,ZL
005188  5F0F    	SUBI R16,$FF
005189  4F1F    	SBCI R17,$FF
00518A  CFF3    	RJMP L1130
00518B  B7E9    L1129:	IN ZL,EIMSK
00518C  64E0    	ORI ZL,$40
00518D  BFE9    	OUT EIMSK,ZL
00518E  FE32    	SBRS R3,2
00518F  C08D    	RJMP L1131
005190  B7E9    	IN ZL,EIMSK
005191  7BEF    	ANDI ZL,$BF
005192  BFE9    	OUT EIMSK,ZL
005193  94E8    	BCLR 6
005194  F832    	BLD R3,2
005195  E0AE    	LDI XL,$0E
005196  E0B0    	LDI XH,$00
005197  940E    	CALL L544
005198  6B16
005199  91A0    	LDS XL,$06E1
00519A  06E1
00519B  17EA    	CP ZL,XL
00519C  F489    	BRNE L1132
00519D  E1A3    	LDI XL,$13
00519E  E0B0    	LDI XH,$00
00519F  940E    	CALL L544
0051A0  6B16
0051A1  91A0    	LDS XL,$06E2
0051A2  06E2
0051A3  17EA    	CP ZL,XL
0051A4  F449    	BRNE L1132
0051A5  E1A8    	LDI XL,$18
0051A6  E0B0    	LDI XH,$00
0051A7  940E    	CALL L544
0051A8  6B16
0051A9  91A0    	LDS XL,$06E3
0051AA  06E3
0051AB  17EA    	CP ZL,XL
0051AC  F409    	BRNE L1132
0051AD  C062    	RJMP L1133
0051AE  E0AF    L1132:	LDI XL,$0F
0051AF  E0B0    	LDI XH,$00
0051B0  940E    	CALL L544
0051B1  6B16
0051B2  91A0    	LDS XL,$06E1
0051B3  06E1
0051B4  17EA    	CP ZL,XL
0051B5  F489    	BRNE L1134
0051B6  E1A4    	LDI XL,$14
0051B7  E0B0    	LDI XH,$00
0051B8  940E    	CALL L544
0051B9  6B16
0051BA  91A0    	LDS XL,$06E2
0051BB  06E2
0051BC  17EA    	CP ZL,XL
0051BD  F449    	BRNE L1134
0051BE  E1A9    	LDI XL,$19
0051BF  E0B0    	LDI XH,$00
0051C0  940E    	CALL L544
0051C1  6B16
0051C2  91A0    	LDS XL,$06E3
0051C3  06E3
0051C4  17EA    	CP ZL,XL
0051C5  F409    	BRNE L1134
0051C6  C049    	RJMP L1133
0051C7  E1A0    L1134:	LDI XL,$10
0051C8  E0B0    	LDI XH,$00
0051C9  940E    	CALL L544
0051CA  6B16
0051CB  91A0    	LDS XL,$06E1
0051CC  06E1
0051CD  17EA    	CP ZL,XL
0051CE  F481    	BRNE L1135
0051CF  E1A5    	LDI XL,$15
0051D0  E0B0    	LDI XH,$00
0051D1  940E    	CALL L544
0051D2  6B16
0051D3  91A0    	LDS XL,$06E2
0051D4  06E2
0051D5  17EA    	CP ZL,XL
0051D6  F441    	BRNE L1135
0051D7  E1AA    	LDI XL,$1A
0051D8  E0B0    	LDI XH,$00
0051D9  940E    	CALL L544
0051DA  6B16
0051DB  91A0    	LDS XL,$06E3
0051DC  06E3
0051DD  17EA    	CP ZL,XL
0051DE  F189    	BREQ L1133
0051DF  E1A1    L1135:	LDI XL,$11
0051E0  E0B0    	LDI XH,$00
0051E1  940E    	CALL L544
0051E2  6B16
0051E3  91A0    	LDS XL,$06E1
0051E4  06E1
0051E5  17EA    	CP ZL,XL
0051E6  F481    	BRNE L1136
0051E7  E1A6    	LDI XL,$16
0051E8  E0B0    	LDI XH,$00
0051E9  940E    	CALL L544
0051EA  6B16
0051EB  91A0    	LDS XL,$06E2
0051EC  06E2
0051ED  17EA    	CP ZL,XL
0051EE  F441    	BRNE L1136
0051EF  E1AB    	LDI XL,$1B
0051F0  E0B0    	LDI XH,$00
0051F1  940E    	CALL L544
0051F2  6B16
0051F3  91A0    	LDS XL,$06E3
0051F4  06E3
0051F5  17EA    	CP ZL,XL
0051F6  F0C9    	BREQ L1133
0051F7  E1A2    L1136:	LDI XL,$12
0051F8  E0B0    	LDI XH,$00
0051F9  940E    	CALL L544
0051FA  6B16
0051FB  91A0    	LDS XL,$06E1
0051FC  06E1
0051FD  17EA    	CP ZL,XL
0051FE  F481    	BRNE L1137
0051FF  E1A7    	LDI XL,$17
005200  E0B0    	LDI XH,$00
005201  940E    	CALL L544
005202  6B16
005203  91A0    	LDS XL,$06E2
005204  06E2
005205  17EA    	CP ZL,XL
005206  F441    	BRNE L1137
005207  E1AC    	LDI XL,$1C
005208  E0B0    	LDI XH,$00
005209  940E    	CALL L544
00520A  6B16
00520B  91A0    	LDS XL,$06E3
00520C  06E3
00520D  17EA    	CP ZL,XL
00520E  F009    	BREQ L1133
00520F  C00A    L1137:	RJMP L1138
005210  91A0    L1133:	LDS XL,$06E4
005211  06E4
005212  91E0    	LDS ZL,$08F7
005213  08F7
005214  17EA    	CP ZL,XL
005215  F421    	BRNE L1138
005216  91E0    	LDS ZL,$08FB
005217  08FB
005218  93EA    	ST -Y,ZL
005219  D17F    	RCALL L1099
00521A  B7E9    L1138:	IN ZL,EIMSK
00521B  64E0    	ORI ZL,$40
00521C  BFE9    	OUT EIMSK,ZL
00521D  C170    L1131:	RJMP L1100
00521E  30E5    L1128:	CPI ZL,$05
00521F  F011    	BREQ L1139
005220  940C    	JMP L1100
005221  538E
005222  940E    L1139:	CALL L1140
005223  69E6
005224  E030    	LDI R19,$00
005225  E040    	LDI R20,$00
005226  E050    	LDI R21,$00
005227  91A0    	LDS XL,$08F7
005228  08F7
005229  E0E3    	LDI ZL,$03
00522A  23EA    	AND ZL,XL
00522B  F489    	BRNE L1141
00522C  91A0    	LDS XL,$08F8
00522D  08F8
00522E  E0EF    	LDI ZL,$0F
00522F  23EA    	AND ZL,XL
005230  93EA    	ST -Y,ZL
005231  940E    	CALL L1142
005232  5045
005233  2FAE    	MOV XL,ZL
005234  E1E0    	LDI ZL,$10
005235  02EA    	MULS ZL,XL
005236  01F0    	MOVW R31:R30,R1:R0
005237  91A0    	LDS XL,$06E6
005238  06E6
005239  17EA    	CP ZL,XL
00523A  F409    	BRNE L1143
00523B  E031    	LDI R19,$01
00523C  C058    L1143:	RJMP L1144
00523D  91A0    L1141:	LDS XL,$08F7
00523E  08F7
00523F  E0E3    	LDI ZL,$03
005240  23EA    	AND ZL,XL
005241  30E1    	CPI ZL,$01
005242  F489    	BRNE L1145
005243  91A0    	LDS XL,$08F8
005244  08F8
005245  E0EF    	LDI ZL,$0F
005246  23EA    	AND ZL,XL
005247  93EA    	ST -Y,ZL
005248  940E    	CALL L1142
005249  5045
00524A  2FAE    	MOV XL,ZL
00524B  E1E0    	LDI ZL,$10
00524C  02EA    	MULS ZL,XL
00524D  01F0    	MOVW R31:R30,R1:R0
00524E  91A0    	LDS XL,$06E6
00524F  06E6
005250  17EA    	CP ZL,XL
005251  F40C    	BRGE L1146
005252  E031    	LDI R19,$01
005253  C041    L1146:	RJMP L1144
005254  91A0    L1145:	LDS XL,$08F7
005255  08F7
005256  E0E3    	LDI ZL,$03
005257  23EA    	AND ZL,XL
005258  30E2    	CPI ZL,$02
005259  F499    	BRNE L1147
00525A  91A0    	LDS XL,$08F8
00525B  08F8
00525C  EFE0    	LDI ZL,$F0
00525D  23EA    	AND ZL,XL
00525E  95E2    	SWAP ZL
00525F  70EF    	ANDI ZL,$0F
005260  93EA    	ST -Y,ZL
005261  940E    	CALL L1142
005262  5045
005263  2FAE    	MOV XL,ZL
005264  E1E0    	LDI ZL,$10
005265  02EA    	MULS ZL,XL
005266  01F0    	MOVW R31:R30,R1:R0
005267  91A0    	LDS XL,$06E6
005268  06E6
005269  17AE    	CP XL,ZL
00526A  F40C    	BRGE L1148
00526B  E031    	LDI R19,$01
00526C  C028    L1148:	RJMP L1144
00526D  91A0    L1147:	LDS XL,$08F7
00526E  08F7
00526F  E0E3    	LDI ZL,$03
005270  23EA    	AND ZL,XL
005271  30E3    	CPI ZL,$03
005272  F511    	BRNE L1144
005273  91A0    	LDS XL,$08F8
005274  08F8
005275  E0EF    	LDI ZL,$0F
005276  23EA    	AND ZL,XL
005277  93EA    	ST -Y,ZL
005278  940E    	CALL L1142
005279  5045
00527A  2FAE    	MOV XL,ZL
00527B  E1E0    	LDI ZL,$10
00527C  02EA    	MULS ZL,XL
00527D  01F0    	MOVW R31:R30,R1:R0
00527E  91A0    	LDS XL,$06E6
00527F  06E6
005280  17EA    	CP ZL,XL
005281  F48C    	BRGE L1149
005282  91A0    	LDS XL,$08F8
005283  08F8
005284  EFE0    	LDI ZL,$F0
005285  23EA    	AND ZL,XL
005286  95E2    	SWAP ZL
005287  70EF    	ANDI ZL,$0F
005288  93EA    	ST -Y,ZL
005289  940E    	CALL L1142
00528A  5045
00528B  2FAE    	MOV XL,ZL
00528C  E1E0    	LDI ZL,$10
00528D  02EA    	MULS ZL,XL
00528E  01F0    	MOVW R31:R30,R1:R0
00528F  91A0    	LDS XL,$06E6
005290  06E6
005291  17AE    	CP XL,ZL
005292  F00C    	BRLT L1150
005293  C001    L1149:	RJMP L1144
005294  E031    L1150:	LDI R19,$01
005295  91A0    L1144:	LDS XL,$08F7
005296  08F7
005297  E0EC    	LDI ZL,$0C
005298  23EA    	AND ZL,XL
005299  95E6    	LSR ZL
00529A  95E6    	LSR ZL
00529B  30E0    	CPI ZL,$00
00529C  F489    	BRNE L1151
00529D  91A0    	LDS XL,$08F9
00529E  08F9
00529F  E0EF    	LDI ZL,$0F
0052A0  23EA    	AND ZL,XL
0052A1  93EA    	ST -Y,ZL
0052A2  940E    	CALL L1142
0052A3  5045
0052A4  2FAE    	MOV XL,ZL
0052A5  E1E0    	LDI ZL,$10
0052A6  02EA    	MULS ZL,XL
0052A7  01F0    	MOVW R31:R30,R1:R0
0052A8  91A0    	LDS XL,$06E7
0052A9  06E7
0052AA  17EA    	CP ZL,XL
0052AB  F409    	BRNE L1152
0052AC  E041    	LDI R20,$01
0052AD  C05E    L1152:	RJMP L1153
0052AE  91A0    L1151:	LDS XL,$08F7
0052AF  08F7
0052B0  E0EC    	LDI ZL,$0C
0052B1  23EA    	AND ZL,XL
0052B2  95E6    	LSR ZL
0052B3  95E6    	LSR ZL
0052B4  30E1    	CPI ZL,$01
0052B5  F489    	BRNE L1154
0052B6  91A0    	LDS XL,$08F9
0052B7  08F9
0052B8  E0EF    	LDI ZL,$0F
0052B9  23EA    	AND ZL,XL
0052BA  93EA    	ST -Y,ZL
0052BB  940E    	CALL L1142
0052BC  5045
0052BD  2FAE    	MOV XL,ZL
0052BE  E1E0    	LDI ZL,$10
0052BF  02EA    	MULS ZL,XL
0052C0  01F0    	MOVW R31:R30,R1:R0
0052C1  91A0    	LDS XL,$06E7
0052C2  06E7
0052C3  17EA    	CP ZL,XL
0052C4  F40C    	BRGE L1155
0052C5  E041    	LDI R20,$01
0052C6  C045    L1155:	RJMP L1153
0052C7  91A0    L1154:	LDS XL,$08F7
0052C8  08F7
0052C9  E0EC    	LDI ZL,$0C
0052CA  23EA    	AND ZL,XL
0052CB  95E6    	LSR ZL
0052CC  95E6    	LSR ZL
0052CD  30E2    	CPI ZL,$02
0052CE  F499    	BRNE L1156
0052CF  91A0    	LDS XL,$08F9
0052D0  08F9
0052D1  EFE0    	LDI ZL,$F0
0052D2  23EA    	AND ZL,XL
0052D3  95E2    	SWAP ZL
0052D4  70EF    	ANDI ZL,$0F
0052D5  93EA    	ST -Y,ZL
0052D6  940E    	CALL L1142
0052D7  5045
0052D8  2FAE    	MOV XL,ZL
0052D9  E1E0    	LDI ZL,$10
0052DA  02EA    	MULS ZL,XL
0052DB  01F0    	MOVW R31:R30,R1:R0
0052DC  91A0    	LDS XL,$06E7
0052DD  06E7
0052DE  17AE    	CP XL,ZL
0052DF  F40C    	BRGE L1157
0052E0  E041    	LDI R20,$01
0052E1  C02A    L1157:	RJMP L1153
0052E2  91A0    L1156:	LDS XL,$08F7
0052E3  08F7
0052E4  E0EC    	LDI ZL,$0C
0052E5  23EA    	AND ZL,XL
0052E6  95E6    	LSR ZL
0052E7  95E6    	LSR ZL
0052E8  30E3    	CPI ZL,$03
0052E9  F511    	BRNE L1153
0052EA  91A0    	LDS XL,$08F9
0052EB  08F9
0052EC  E0EF    	LDI ZL,$0F
0052ED  23EA    	AND ZL,XL
0052EE  93EA    	ST -Y,ZL
0052EF  940E    	CALL L1142
0052F0  5045
0052F1  2FAE    	MOV XL,ZL
0052F2  E1E0    	LDI ZL,$10
0052F3  02EA    	MULS ZL,XL
0052F4  01F0    	MOVW R31:R30,R1:R0
0052F5  91A0    	LDS XL,$06E7
0052F6  06E7
0052F7  17EA    	CP ZL,XL
0052F8  F48C    	BRGE L1158
0052F9  91A0    	LDS XL,$08F9
0052FA  08F9
0052FB  EFE0    	LDI ZL,$F0
0052FC  23EA    	AND ZL,XL
0052FD  95E2    	SWAP ZL
0052FE  70EF    	ANDI ZL,$0F
0052FF  93EA    	ST -Y,ZL
005300  940E    	CALL L1142
005301  5045
005302  2FAE    	MOV XL,ZL
005303  E1E0    	LDI ZL,$10
005304  02EA    	MULS ZL,XL
005305  01F0    	MOVW R31:R30,R1:R0
005306  91A0    	LDS XL,$06E7
005307  06E7
005308  17AE    	CP XL,ZL
005309  F00C    	BRLT L1159
00530A  C001    L1158:	RJMP L1153
00530B  E041    L1159:	LDI R20,$01
00530C  91A0    L1153:	LDS XL,$08F7
00530D  08F7
00530E  E3E0    	LDI ZL,$30
00530F  23EA    	AND ZL,XL
005310  95E2    	SWAP ZL
005311  70EF    	ANDI ZL,$0F
005312  30E0    	CPI ZL,$00
005313  F489    	BRNE L1160
005314  91A0    	LDS XL,$08FA
005315  08FA
005316  E0EF    	LDI ZL,$0F
005317  23EA    	AND ZL,XL
005318  93EA    	ST -Y,ZL
005319  940E    	CALL L1142
00531A  5045
00531B  2FAE    	MOV XL,ZL
00531C  E1E0    	LDI ZL,$10
00531D  02EA    	MULS ZL,XL
00531E  01F0    	MOVW R31:R30,R1:R0
00531F  91A0    	LDS XL,$06E8
005320  06E8
005321  17EA    	CP ZL,XL
005322  F409    	BRNE L1161
005323  E051    	LDI R21,$01
005324  C05E    L1161:	RJMP L1162
005325  91A0    L1160:	LDS XL,$08F7
005326  08F7
005327  E3E0    	LDI ZL,$30
005328  23EA    	AND ZL,XL
005329  95E2    	SWAP ZL
00532A  70EF    	ANDI ZL,$0F
00532B  30E1    	CPI ZL,$01
00532C  F489    	BRNE L1163
00532D  91A0    	LDS XL,$08FA
00532E  08FA
00532F  E0EF    	LDI ZL,$0F
005330  23EA    	AND ZL,XL
005331  93EA    	ST -Y,ZL
005332  940E    	CALL L1142
005333  5045
005334  2FAE    	MOV XL,ZL
005335  E1E0    	LDI ZL,$10
005336  02EA    	MULS ZL,XL
005337  01F0    	MOVW R31:R30,R1:R0
005338  91A0    	LDS XL,$06E8
005339  06E8
00533A  17EA    	CP ZL,XL
00533B  F40C    	BRGE L1164
00533C  E051    	LDI R21,$01
00533D  C045    L1164:	RJMP L1162
00533E  91A0    L1163:	LDS XL,$08F7
00533F  08F7
005340  E3E0    	LDI ZL,$30
005341  23EA    	AND ZL,XL
005342  95E2    	SWAP ZL
005343  70EF    	ANDI ZL,$0F
005344  30E2    	CPI ZL,$02
005345  F499    	BRNE L1165
005346  91A0    	LDS XL,$08FA
005347  08FA
005348  EFE0    	LDI ZL,$F0
005349  23EA    	AND ZL,XL
00534A  95E2    	SWAP ZL
00534B  70EF    	ANDI ZL,$0F
00534C  93EA    	ST -Y,ZL
00534D  940E    	CALL L1142
00534E  5045
00534F  2FAE    	MOV XL,ZL
005350  E1E0    	LDI ZL,$10
005351  02EA    	MULS ZL,XL
005352  01F0    	MOVW R31:R30,R1:R0
005353  91A0    	LDS XL,$06E8
005354  06E8
005355  17AE    	CP XL,ZL
005356  F40C    	BRGE L1166
005357  E051    	LDI R21,$01
005358  C02A    L1166:	RJMP L1162
005359  91A0    L1165:	LDS XL,$08F7
00535A  08F7
00535B  E3E0    	LDI ZL,$30
00535C  23EA    	AND ZL,XL
00535D  95E2    	SWAP ZL
00535E  70EF    	ANDI ZL,$0F
00535F  30E3    	CPI ZL,$03
005360  F511    	BRNE L1162
005361  91A0    	LDS XL,$08FA
005362  08FA
005363  E0EF    	LDI ZL,$0F
005364  23EA    	AND ZL,XL
005365  93EA    	ST -Y,ZL
005366  940E    	CALL L1142
005367  5045
005368  2FAE    	MOV XL,ZL
005369  E1E0    	LDI ZL,$10
00536A  02EA    	MULS ZL,XL
00536B  01F0    	MOVW R31:R30,R1:R0
00536C  91A0    	LDS XL,$06E8
00536D  06E8
00536E  17EA    	CP ZL,XL
00536F  F48C    	BRGE L1167
005370  91A0    	LDS XL,$08FA
005371  08FA
005372  EFE0    	LDI ZL,$F0
005373  23EA    	AND ZL,XL
005374  95E2    	SWAP ZL
005375  70EF    	ANDI ZL,$0F
005376  93EA    	ST -Y,ZL
005377  940E    	CALL L1142
005378  5045
005379  2FAE    	MOV XL,ZL
00537A  E1E0    	LDI ZL,$10
00537B  02EA    	MULS ZL,XL
00537C  01F0    	MOVW R31:R30,R1:R0
00537D  91A0    	LDS XL,$06E8
00537E  06E8
00537F  17AE    	CP XL,ZL
005380  F00C    	BRLT L1168
005381  C001    L1167:	RJMP L1162
005382  E051    L1168:	LDI R21,$01
005383  3030    L1162:	CPI R19,$00
005384  F021    	BREQ L1169
005385  3040    	CPI R20,$00
005386  F011    	BREQ L1169
005387  3050    	CPI R21,$00
005388  F409    	BRNE L1170
005389  C004    L1169:	RJMP L1100
00538A  91E0    L1170:	LDS ZL,$08FB
00538B  08FB
00538C  93EA    	ST -Y,ZL
00538D  D00B    	RCALL L1099
00538E  FE21    L1100:	SBRS R2,1
00538F  C004    	RJMP L1096
005390  EFEF    	LDI ZL,$FF
005391  15ED    	CP ZL,R13
005392  F409    	BRNE L1096
005393  CD15    	RJMP L1171
005394  9ADD    L1096:	SBI PORTA,PA5
005395  940E    L1091:	CALL L1172
005396  6CBD
005397  9627    	ADIW YH:YL,7
005398  9508    	RET
005399  931A    L1099:	ST -Y,R17
00539A  930A    	ST -Y,R16
00539B  81EA    	LDD ZL,Y+2
00539C  30E0    	CPI ZL,$00
00539D  F409    	BRNE L1173
00539E  C03E    	RJMP L1042
00539F  30E1    L1173:	CPI ZL,$01
0053A0  F429    	BRNE L1174
0053A1  91E0    	LDS ZL,$08FC
0053A2  08FC
0053A3  93EA    	ST -Y,ZL
0053A4  D03C    	RCALL L1175
0053A5  C037    	RJMP L1042
0053A6  30E2    L1174:	CPI ZL,$02
0053A7  F431    	BRNE L1176
0053A8  91E0    	LDS ZL,$08FC
0053A9  08FC
0053AA  93EA    	ST -Y,ZL
0053AB  940E    	CALL L977
0053AC  4106
0053AD  C02F    	RJMP L1042
0053AE  30E3    L1176:	CPI ZL,$03
0053AF  F4B9    	BRNE L1177
0053B0  9100    	LDS R16,$08FC
0053B1  08FC
0053B2  2711    	CLR R17
0053B3  2FF0    	MOV ZH,R16
0053B4  E0E0    	LDI ZL,$00
0053B5  01DF    	MOVW R27:R26,R31:R30
0053B6  91E0    	LDS ZL,$08FD
0053B7  08FD
0053B8  E0F0    	LDI ZH,$00
0053B9  2BEA    	OR ZL,XL
0053BA  2BFB    	OR ZH,XH
0053BB  018F    	MOVW R17:R16,R31:R30
0053BC  3003    	CPI R16,$03
0053BD  E0E0    	LDI ZL,$00
0053BE  071E    	CPC R17,ZL
0053BF  F030    	BRCS L1178
0053C0  01F8    	MOVW R31:R30,R17:R16
0053C1  9732    	SBIW ZH:ZL,2
0053C2  93FA    	ST -Y,ZH
0053C3  93EA    	ST -Y,ZL
0053C4  940E    	CALL L537
0053C5  6A4C
0053C6  C016    L1178:	RJMP L1042
0053C7  30E4    L1177:	CPI ZL,$04
0053C8  F4A1    	BRNE L1042
0053C9  91E0    	LDS ZL,$08FC
0053CA  08FC
0053CB  E0F0    	LDI ZH,$00
0053CC  93E0    	STS $078B,ZL
0053CD  078B
0053CE  93F0    	STS $078C,ZH
0053CF  078C
0053D0  91F0    	LDS ZH,$078B
0053D1  078B
0053D2  E0E0    	LDI ZL,$00
0053D3  01DF    	MOVW R27:R26,R31:R30
0053D4  91E0    	LDS ZL,$08FD
0053D5  08FD
0053D6  E0F0    	LDI ZH,$00
0053D7  2BEA    	OR ZL,XL
0053D8  2BFB    	OR ZH,XH
0053D9  93E0    	STS $078B,ZL
0053DA  078B
0053DB  93F0    	STS $078C,ZH
0053DC  078C
0053DD  8119    L1042:	LDD R17,Y+1
0053DE  8108    	LD R16,Y
0053DF  9623    	ADIW YH:YL,3
0053E0  9508    	RET
0053E1  81A8    L1175:	LD XL,Y
0053E2  30A7    	CPI XL,$07
0053E3  F011    	BREQ L1179
0053E4  940C    	JMP L1180
0053E5  5461
0053E6  98C6    L1179:	CBI PORTB,PB6
0053E7  E1E4    	LDI ZL,$14
0053E8  E0F0    	LDI ZH,$00
0053E9  93FA    	ST -Y,ZH
0053EA  93EA    	ST -Y,ZL
0053EB  940E    	CALL L537
0053EC  6A4C
0053ED  9AC6    	SBI PORTB,PB6
0053EE  E1E4    	LDI ZL,$14
0053EF  E0F0    	LDI ZH,$00
0053F0  93FA    	ST -Y,ZH
0053F1  93EA    	ST -Y,ZL
0053F2  940E    	CALL L537
0053F3  6A4C
0053F4  92CA    	ST -Y,R12
0053F5  E3E2    	LDI ZL,$32
0053F6  E0F0    	LDI ZH,$00
0053F7  93FA    	ST -Y,ZH
0053F8  93EA    	ST -Y,ZL
0053F9  EEE8    	LDI ZL,$E8
0053FA  E0F3    	LDI ZH,$03
0053FB  93FA    	ST -Y,ZH
0053FC  93EA    	ST -Y,ZL
0053FD  E0E4    	LDI ZL,$04
0053FE  93EA    	ST -Y,ZL
0053FF  940E    	CALL L809
005400  49C3
005401  EFEF    	LDI ZL,$FF
005402  15ED    	CP ZL,R13
005403  F411    	BRNE L1181
005404  940C    	JMP L1182
005405  5453
005406  E1EE    L1181:	LDI ZL,$1E
005407  E0F0    	LDI ZH,$00
005408  93E0    	STS $06D7,ZL
005409  06D7
00540A  93F0    	STS $06D8,ZH
00540B  06D8
00540C  B7E9    	IN ZL,EIMSK
00540D  7BEF    	ANDI ZL,$BF
00540E  BFE9    	OUT EIMSK,ZL
00540F  91E0    L1191:	LDS ZL,$06D7
005410  06D7
005411  91F0    	LDS ZH,$06D8
005412  06D8
005413  9730    	SBIW ZH:ZL,0
005414  F1C1    	BREQ L1183
005415  91A0    	LDS XL,$06D2
005416  06D2
005417  91B0    	LDS XH,$06D3
005418  06D3
005419  940E    	CALL L750
00541A  6CAE
00541B  F021    	BREQ L1184
00541C  3FA4    	CPI XL,$F4
00541D  E0E1    	LDI ZL,$01
00541E  07BE    	CPC XH,ZL
00541F  F431    	BRNE L1185
005420  940E    L1184:	CALL L784
005421  693E
005422  940E    	CALL L785
005423  3C5B
005424  940E    	CALL L847
005425  62EA
005426  91A0    L1185:	LDS XL,$06D2
005427  06D2
005428  91B0    	LDS XH,$06D3
005429  06D3
00542A  3FAA    	CPI XL,$FA
00542B  E0E0    	LDI ZL,$00
00542C  07BE    	CPC XH,ZL
00542D  F410    	BRCC L1186
00542E  98DF    	CBI PORTA,PA7               //ERRROR
00542F  C01C    	RJMP L1187
005430  91A0    L1186:	LDS XL,$06D2
005431  06D2
005432  91B0    	LDS XH,$06D3
005433  06D3
005434  3FA4    	CPI XL,$F4
005435  E0E1    	LDI ZL,$01
005436  07BE    	CPC XH,ZL
005437  F408    	BRCC L1188
005438  C012    	RJMP L1189
005439  91A0    L1188:	LDS XL,$06D2
00543A  06D2
00543B  91B0    	LDS XH,$06D3
00543C  06D3
00543D  3EAE    	CPI XL,$EE
00543E  E0E2    	LDI ZL,$02
00543F  07BE    	CPC XH,ZL
005440  F410    	BRCC L1190
005441  98DF    	CBI PORTA,PA7            //ERRROR
005442  C009    	RJMP L1187
005443  91A0    L1190:	LDS XL,$06D2
005444  06D2
005445  91B0    	LDS XH,$06D3
005446  06D3
005447  3EA8    	CPI XL,$E8
005448  E0E3    	LDI ZL,$03
005449  07BE    	CPC XH,ZL
00544A  F408    	BRCC L1187
00544B  9ADF    L1189:	SBI PORTA,PA7
00544C  CFC2    L1187:	RJMP L1191
00544D  EFEF    L1183:	LDI ZL,$FF
00544E  2EDE    	MOV R13,ZL
00544F  B7E9    	IN ZL,EIMSK
005450  64E0    	ORI ZL,$40
005451  BFE9    	OUT EIMSK,ZL
005452  C00D    	RJMP L1192
005453  92CA    L1182:	ST -Y,R12
005454  E0E1    	LDI ZL,$01
005455  E0F0    	LDI ZH,$00
005456  93FA    	ST -Y,ZH
005457  93EA    	ST -Y,ZL
005458  E6E4    	LDI ZL,$64
005459  E0F0    	LDI ZH,$00
00545A  93FA    	ST -Y,ZH
00545B  93EA    	ST -Y,ZL
00545C  E0E2    	LDI ZL,$02
00545D  93EA    	ST -Y,ZL
00545E  940E    	CALL L809
00545F  49C3
005460  C459    L1192:	RJMP L1193
005461  E0E1    L1180:	LDI ZL,$01
005462  15EC    	CP ZL,R12
005463  F011    	BREQ L1194
005464  940C    	JMP L1195
005465  58BE
005466  81E8    L1194:	LD ZL,Y
005467  30E1    	CPI ZL,$01
005468  F011    	BREQ L1196
005469  940C    	JMP L1197
00546A  54D4
00546B  E0E7    L1196:	LDI ZL,$07
00546C  93EA    	ST -Y,ZL
00546D  940E    	CALL L977
00546E  4106
00546F  ECE0    	LDI ZL,$C0
005470  E0FC    	LDI ZH,$0C
005471  E060    	LDI R22,$00
005472  93E0    	STS $076B,ZL
005473  076B
005474  93F0    	STS $076C,ZH
005475  076C
005476  9360    	STS $076D,R22
005477  076D
005478  9370    	STS $076E,R23
005479  076E
00547A  E5E0    	LDI ZL,$50
00547B  E0FD    	LDI ZH,$0D
00547C  E060    	LDI R22,$00
00547D  93E0    	STS $076F,ZL
00547E  076F
00547F  93F0    	STS $0770,ZH
005480  0770
005481  9360    	STS $0771,R22
005482  0771
005483  9370    	STS $0772,R23
005484  0772
005485  ECEC    	LDI ZL,$CC
005486  E0FB    	LDI ZH,$0B
005487  E060    	LDI R22,$00
005488  93E0    	STS $0773,ZL
005489  0773
00548A  93F0    	STS $0774,ZH
00548B  0774
00548C  9360    	STS $0775,R22
00548D  0775
00548E  9370    	STS $0776,R23
00548F  0776
005490  EDEC    	LDI ZL,$DC
005491  E0FB    	LDI ZH,$0B
005492  E060    	LDI R22,$00
005493  93E0    	STS $0777,ZL
005494  0777
005495  93F0    	STS $0778,ZH
005496  0778
005497  9360    	STS $0779,R22
005498  0779
005499  9370    	STS $077A,R23
00549A  077A
00549B  EEEC    	LDI ZL,$EC
00549C  E0FB    	LDI ZH,$0B
00549D  E060    	LDI R22,$00
00549E  93E0    	STS $077B,ZL
00549F  077B
0054A0  93F0    	STS $077C,ZH
0054A1  077C
0054A2  9360    	STS $077D,R22
0054A3  077D
0054A4  9370    	STS $077E,R23
0054A5  077E
0054A6  EFEC    	LDI ZL,$FC
0054A7  E0FB    	LDI ZH,$0B
0054A8  E060    	LDI R22,$00
0054A9  93E0    	STS $077F,ZL
0054AA  077F
0054AB  93F0    	STS $0780,ZH
0054AC  0780
0054AD  9360    	STS $0781,R22
0054AE  0781
0054AF  9370    	STS $0782,R23
0054B0  0782
0054B1  E0EE    	LDI ZL,$0E
0054B2  E0FC    	LDI ZH,$0C
0054B3  E060    	LDI R22,$00
0054B4  93E0    	STS $0783,ZL
0054B5  0783
0054B6  93F0    	STS $0784,ZH
0054B7  0784
0054B8  9360    	STS $0785,R22
0054B9  0785
0054BA  9370    	STS $0786,R23
0054BB  0786
0054BC  E2E0    	LDI ZL,$20
0054BD  E0FC    	LDI ZH,$0C
0054BE  E060    	LDI R22,$00
0054BF  93E0    	STS $0787,ZL
0054C0  0787
0054C1  93F0    	STS $0788,ZH
0054C2  0788
0054C3  9360    	STS $0789,R22
0054C4  0789
0054C5  9370    	STS $078A,R23
0054C6  078A
0054C7  E0E9    	LDI ZL,$09
0054C8  E0F0    	LDI ZH,$00
0054C9  93E0    	STS $0793,ZL
0054CA  0793
0054CB  93F0    	STS $0794,ZH
0054CC  0794
0054CD  E1E0    	LDI ZL,$10
0054CE  E0F0    	LDI ZH,$00
0054CF  93E0    	STS $0795,ZL
0054D0  0795
0054D1  93F0    	STS $0796,ZH
0054D2  0796
0054D3  C3E8    	RJMP L1198
0054D4  30E2    L1197:	CPI ZL,$02
0054D5  F011    	BREQ L1199
0054D6  940C    	JMP L1200
0054D7  5541
0054D8  E0E8    L1199:	LDI ZL,$08
0054D9  93EA    	ST -Y,ZL
0054DA  940E    	CALL L977
0054DB  4106
0054DC  E8EC    	LDI ZL,$8C
0054DD  E0FA    	LDI ZH,$0A
0054DE  E060    	LDI R22,$00
0054DF  93E0    	STS $076B,ZL
0054E0  076B
0054E1  93F0    	STS $076C,ZH
0054E2  076C
0054E3  9360    	STS $076D,R22
0054E4  076D
0054E5  9370    	STS $076E,R23
0054E6  076E
0054E7  E2EC    	LDI ZL,$2C
0054E8  E0FB    	LDI ZH,$0B
0054E9  E060    	LDI R22,$00
0054EA  93E0    	STS $076F,ZL
0054EB  076F
0054EC  93F0    	STS $0770,ZH
0054ED  0770
0054EE  9360    	STS $0771,R22
0054EF  0771
0054F0  9370    	STS $0772,R23
0054F1  0772
0054F2  E8E4    	LDI ZL,$84
0054F3  E0F9    	LDI ZH,$09
0054F4  E060    	LDI R22,$00
0054F5  93E0    	STS $0773,ZL
0054F6  0773
0054F7  93F0    	STS $0774,ZH
0054F8  0774
0054F9  9360    	STS $0775,R22
0054FA  0775
0054FB  9370    	STS $0776,R23
0054FC  0776
0054FD  E9E4    	LDI ZL,$94
0054FE  E0F9    	LDI ZH,$09
0054FF  E060    	LDI R22,$00
005500  93E0    	STS $0777,ZL
005501  0777
005502  93F0    	STS $0778,ZH
005503  0778
005504  9360    	STS $0779,R22
005505  0779
005506  9370    	STS $077A,R23
005507  077A
005508  EAE4    	LDI ZL,$A4
005509  E0F9    	LDI ZH,$09
00550A  E060    	LDI R22,$00
00550B  93E0    	STS $077B,ZL
00550C  077B
00550D  93F0    	STS $077C,ZH
00550E  077C
00550F  9360    	STS $077D,R22
005510  077D
005511  9370    	STS $077E,R23
005512  077E
005513  EBE4    	LDI ZL,$B4
005514  E0F9    	LDI ZH,$09
005515  E060    	LDI R22,$00
005516  93E0    	STS $077F,ZL
005517  077F
005518  93F0    	STS $0780,ZH
005519  0780
00551A  9360    	STS $0781,R22
00551B  0781
00551C  9370    	STS $0782,R23
00551D  0782
00551E  ECE8    	LDI ZL,$C8
00551F  E0F9    	LDI ZH,$09
005520  E060    	LDI R22,$00
005521  93E0    	STS $0783,ZL
005522  0783
005523  93F0    	STS $0784,ZH
005524  0784
005525  9360    	STS $0785,R22
005526  0785
005527  9370    	STS $0786,R23
005528  0786
005529  EDEC    	LDI ZL,$DC
00552A  E0F9    	LDI ZH,$09
00552B  E060    	LDI R22,$00
00552C  93E0    	STS $0787,ZL
00552D  0787
00552E  93F0    	STS $0788,ZH
00552F  0788
005530  9360    	STS $0789,R22
005531  0789
005532  9370    	STS $078A,R23
005533  078A
005534  E0EA    	LDI ZL,$0A
005535  E0F0    	LDI ZH,$00
005536  93E0    	STS $0793,ZL
005537  0793
005538  93F0    	STS $0794,ZH
005539  0794
00553A  E1E0    	LDI ZL,$10
00553B  E0F0    	LDI ZH,$00
00553C  93E0    	STS $0795,ZL
00553D  0795
00553E  93F0    	STS $0796,ZH
00553F  0796
005540  C37B    	RJMP L1198
005541  30E3    L1200:	CPI ZL,$03
005542  F011    	BREQ L1201
005543  940C    	JMP L1202
005544  55AE
005545  E0E4    L1201:	LDI ZL,$04
005546  93EA    	ST -Y,ZL
005547  940E    	CALL L977
005548  4106
005549  E4EC    	LDI ZL,$4C
00554A  E0F7    	LDI ZH,$07
00554B  E060    	LDI R22,$00
00554C  93E0    	STS $076B,ZL
00554D  076B
00554E  93F0    	STS $076C,ZH
00554F  076C
005550  9360    	STS $076D,R22
005551  076D
005552  9370    	STS $076E,R23
005553  076E
005554  EAEC    	LDI ZL,$AC
005555  E0F7    	LDI ZH,$07
005556  E060    	LDI R22,$00
005557  93E0    	STS $076F,ZL
005558  076F
005559  93F0    	STS $0770,ZH
00555A  0770
00555B  9360    	STS $0771,R22
00555C  0771
00555D  9370    	STS $0772,R23
00555E  0772
00555F  E9E4    	LDI ZL,$94
005560  E0F6    	LDI ZH,$06
005561  E060    	LDI R22,$00
005562  93E0    	STS $0773,ZL
005563  0773
005564  93F0    	STS $0774,ZH
005565  0774
005566  9360    	STS $0775,R22
005567  0775
005568  9370    	STS $0776,R23
005569  0776
00556A  EAE4    	LDI ZL,$A4
00556B  E0F6    	LDI ZH,$06
00556C  E060    	LDI R22,$00
00556D  93E0    	STS $0777,ZL
00556E  0777
00556F  93F0    	STS $0778,ZH
005570  0778
005571  9360    	STS $0779,R22
005572  0779
005573  9370    	STS $077A,R23
005574  077A
005575  EBE4    	LDI ZL,$B4
005576  E0F6    	LDI ZH,$06
005577  E060    	LDI R22,$00
005578  93E0    	STS $077B,ZL
005579  077B
00557A  93F0    	STS $077C,ZH
00557B  077C
00557C  9360    	STS $077D,R22
00557D  077D
00557E  9370    	STS $077E,R23
00557F  077E
005580  ECE4    	LDI ZL,$C4
005581  E0F6    	LDI ZH,$06
005582  E060    	LDI R22,$00
005583  93E0    	STS $077F,ZL
005584  077F
005585  93F0    	STS $0780,ZH
005586  0780
005587  9360    	STS $0781,R22
005588  0781
005589  9370    	STS $0782,R23
00558A  0782
00558B  EDE0    	LDI ZL,$D0
00558C  E0F6    	LDI ZH,$06
00558D  E060    	LDI R22,$00
00558E  93E0    	STS $0783,ZL
00558F  0783
005590  93F0    	STS $0784,ZH
005591  0784
005592  9360    	STS $0785,R22
005593  0785
005594  9370    	STS $0786,R23
005595  0786
005596  EDEC    	LDI ZL,$DC
005597  E0F6    	LDI ZH,$06
005598  E060    	LDI R22,$00
005599  93E0    	STS $0787,ZL
00559A  0787
00559B  93F0    	STS $0788,ZH
00559C  0788
00559D  9360    	STS $0789,R22
00559E  0789
00559F  9370    	STS $078A,R23
0055A0  078A
0055A1  E0E6    	LDI ZL,$06
0055A2  E0F0    	LDI ZH,$00
0055A3  93E0    	STS $0793,ZL
0055A4  0793
0055A5  93F0    	STS $0794,ZH
0055A6  0794
0055A7  E1E0    	LDI ZL,$10
0055A8  E0F0    	LDI ZH,$00
0055A9  93E0    	STS $0795,ZL
0055AA  0795
0055AB  93F0    	STS $0796,ZH
0055AC  0796
0055AD  C30E    	RJMP L1198
0055AE  30E4    L1202:	CPI ZL,$04
0055AF  F011    	BREQ L1203
0055B0  940C    	JMP L1204
0055B1  561B
0055B2  E0E2    L1203:	LDI ZL,$02
0055B3  93EA    	ST -Y,ZL
0055B4  940E    	CALL L977
0055B5  4106
0055B6  E4E0    	LDI ZL,$40
0055B7  E1F1    	LDI ZH,$11
0055B8  E060    	LDI R22,$00
0055B9  93E0    	STS $076B,ZL
0055BA  076B
0055BB  93F0    	STS $076C,ZH
0055BC  076C
0055BD  9360    	STS $076D,R22
0055BE  076D
0055BF  9370    	STS $076E,R23
0055C0  076E
0055C1  ECE0    	LDI ZL,$C0
0055C2  E1F3    	LDI ZH,$13
0055C3  E060    	LDI R22,$00
0055C4  93E0    	STS $076F,ZL
0055C5  076F
0055C6  93F0    	STS $0770,ZH
0055C7  0770
0055C8  9360    	STS $0771,R22
0055C9  0771
0055CA  9370    	STS $0772,R23
0055CB  0772
0055CC  EEE0    	LDI ZL,$E0
0055CD  E0FD    	LDI ZH,$0D
0055CE  E060    	LDI R22,$00
0055CF  93E0    	STS $0773,ZL
0055D0  0773
0055D1  93F0    	STS $0774,ZH
0055D2  0774
0055D3  9360    	STS $0775,R22
0055D4  0775
0055D5  9370    	STS $0776,R23
0055D6  0776
0055D7  EFE0    	LDI ZL,$F0
0055D8  E0FD    	LDI ZH,$0D
0055D9  E060    	LDI R22,$00
0055DA  93E0    	STS $0777,ZL
0055DB  0777
0055DC  93F0    	STS $0778,ZH
0055DD  0778
0055DE  9360    	STS $0779,R22
0055DF  0779
0055E0  9370    	STS $077A,R23
0055E1  077A
0055E2  E0E0    	LDI ZL,$00
0055E3  E0FE    	LDI ZH,$0E
0055E4  E060    	LDI R22,$00
0055E5  93E0    	STS $077B,ZL
0055E6  077B
0055E7  93F0    	STS $077C,ZH
0055E8  077C
0055E9  9360    	STS $077D,R22
0055EA  077D
0055EB  9370    	STS $077E,R23
0055EC  077E
0055ED  E1E0    	LDI ZL,$10
0055EE  E0FE    	LDI ZH,$0E
0055EF  E060    	LDI R22,$00
0055F0  93E0    	STS $077F,ZL
0055F1  077F
0055F2  93F0    	STS $0780,ZH
0055F3  0780
0055F4  9360    	STS $0781,R22
0055F5  0781
0055F6  9370    	STS $0782,R23
0055F7  0782
0055F8  E6E0    	LDI ZL,$60
0055F9  E0FE    	LDI ZH,$0E
0055FA  E060    	LDI R22,$00
0055FB  93E0    	STS $0783,ZL
0055FC  0783
0055FD  93F0    	STS $0784,ZH
0055FE  0784
0055FF  9360    	STS $0785,R22
005600  0785
005601  9370    	STS $0786,R23
005602  0786
005603  EBE0    	LDI ZL,$B0
005604  E0FE    	LDI ZH,$0E
005605  E060    	LDI R22,$00
005606  93E0    	STS $0787,ZL
005607  0787
005608  93F0    	STS $0788,ZH
005609  0788
00560A  9360    	STS $0789,R22
00560B  0789
00560C  9370    	STS $078A,R23
00560D  078A
00560E  E2E8    	LDI ZL,$28
00560F  E0F0    	LDI ZH,$00
005610  93E0    	STS $0793,ZL
005611  0793
005612  93F0    	STS $0794,ZH
005613  0794
005614  E1E0    	LDI ZL,$10
005615  E0F0    	LDI ZH,$00
005616  93E0    	STS $0795,ZL
005617  0795
005618  93F0    	STS $0796,ZH
005619  0796
00561A  C2A1    	RJMP L1198
00561B  30E5    L1204:	CPI ZL,$05
00561C  F011    	BREQ L1205
00561D  940C    	JMP L1206
00561E  5688
00561F  E0E4    L1205:	LDI ZL,$04
005620  93EA    	ST -Y,ZL
005621  940E    	CALL L977
005622  4106
005623  ECE4    	LDI ZL,$C4
005624  E0F8    	LDI ZH,$08
005625  E060    	LDI R22,$00
005626  93E0    	STS $076B,ZL
005627  076B
005628  93F0    	STS $076C,ZH
005629  076C
00562A  9360    	STS $076D,R22
00562B  076D
00562C  9370    	STS $076E,R23
00562D  076E
00562E  E2E4    	LDI ZL,$24
00562F  E0F9    	LDI ZH,$09
005630  E060    	LDI R22,$00
005631  93E0    	STS $076F,ZL
005632  076F
005633  93F0    	STS $0770,ZH
005634  0770
005635  9360    	STS $0771,R22
005636  0771
005637  9370    	STS $0772,R23
005638  0772
005639  E0EC    	LDI ZL,$0C
00563A  E0F8    	LDI ZH,$08
00563B  E060    	LDI R22,$00
00563C  93E0    	STS $0773,ZL
00563D  0773
00563E  93F0    	STS $0774,ZH
00563F  0774
005640  9360    	STS $0775,R22
005641  0775
005642  9370    	STS $0776,R23
005643  0776
005644  E1EC    	LDI ZL,$1C
005645  E0F8    	LDI ZH,$08
005646  E060    	LDI R22,$00
005647  93E0    	STS $0777,ZL
005648  0777
005649  93F0    	STS $0778,ZH
00564A  0778
00564B  9360    	STS $0779,R22
00564C  0779
00564D  9370    	STS $077A,R23
00564E  077A
00564F  E2EC    	LDI ZL,$2C
005650  E0F8    	LDI ZH,$08
005651  E060    	LDI R22,$00
005652  93E0    	STS $077B,ZL
005653  077B
005654  93F0    	STS $077C,ZH
005655  077C
005656  9360    	STS $077D,R22
005657  077D
005658  9370    	STS $077E,R23
005659  077E
00565A  E3EC    	LDI ZL,$3C
00565B  E0F8    	LDI ZH,$08
00565C  E060    	LDI R22,$00
00565D  93E0    	STS $077F,ZL
00565E  077F
00565F  93F0    	STS $0780,ZH
005660  0780
005661  9360    	STS $0781,R22
005662  0781
005663  9370    	STS $0782,R23
005664  0782
005665  E4E8    	LDI ZL,$48
005666  E0F8    	LDI ZH,$08
005667  E060    	LDI R22,$00
005668  93E0    	STS $0783,ZL
005669  0783
00566A  93F0    	STS $0784,ZH
00566B  0784
00566C  9360    	STS $0785,R22
00566D  0785
00566E  9370    	STS $0786,R23
00566F  0786
005670  E5E4    	LDI ZL,$54
005671  E0F8    	LDI ZH,$08
005672  E060    	LDI R22,$00
005673  93E0    	STS $0787,ZL
005674  0787
005675  93F0    	STS $0788,ZH
005676  0788
005677  9360    	STS $0789,R22
005678  0789
005679  9370    	STS $078A,R23
00567A  078A
00567B  E0E6    	LDI ZL,$06
00567C  E0F0    	LDI ZH,$00
00567D  93E0    	STS $0793,ZL
00567E  0793
00567F  93F0    	STS $0794,ZH
005680  0794
005681  E1E0    	LDI ZL,$10
005682  E0F0    	LDI ZH,$00
005683  93E0    	STS $0795,ZL
005684  0795
005685  93F0    	STS $0796,ZH
005686  0796
005687  C234    	RJMP L1198
005688  30E6    L1206:	CPI ZL,$06
005689  F011    	BREQ L1207
00568A  940C    	JMP L1208
00568B  56F5
00568C  E0E5    L1207:	LDI ZL,$05
00568D  93EA    	ST -Y,ZL
00568E  940E    	CALL L977
00568F  4106
005690  E5EC    	LDI ZL,$5C
005691  E0F4    	LDI ZH,$04
005692  E060    	LDI R22,$00
005693  93E0    	STS $076B,ZL
005694  076B
005695  93F0    	STS $076C,ZH
005696  076C
005697  9360    	STS $076D,R22
005698  076D
005699  9370    	STS $076E,R23
00569A  076E
00569B  EBEC    	LDI ZL,$BC
00569C  E0F4    	LDI ZH,$04
00569D  E060    	LDI R22,$00
00569E  93E0    	STS $076F,ZL
00569F  076F
0056A0  93F0    	STS $0770,ZH
0056A1  0770
0056A2  9360    	STS $0771,R22
0056A3  0771
0056A4  9370    	STS $0772,R23
0056A5  0772
0056A6  EAE4    	LDI ZL,$A4
0056A7  E0F3    	LDI ZH,$03
0056A8  E060    	LDI R22,$00
0056A9  93E0    	STS $0773,ZL
0056AA  0773
0056AB  93F0    	STS $0774,ZH
0056AC  0774
0056AD  9360    	STS $0775,R22
0056AE  0775
0056AF  9370    	STS $0776,R23
0056B0  0776
0056B1  EBE4    	LDI ZL,$B4
0056B2  E0F3    	LDI ZH,$03
0056B3  E060    	LDI R22,$00
0056B4  93E0    	STS $0777,ZL
0056B5  0777
0056B6  93F0    	STS $0778,ZH
0056B7  0778
0056B8  9360    	STS $0779,R22
0056B9  0779
0056BA  9370    	STS $077A,R23
0056BB  077A
0056BC  ECE4    	LDI ZL,$C4
0056BD  E0F3    	LDI ZH,$03
0056BE  E060    	LDI R22,$00
0056BF  93E0    	STS $077B,ZL
0056C0  077B
0056C1  93F0    	STS $077C,ZH
0056C2  077C
0056C3  9360    	STS $077D,R22
0056C4  077D
0056C5  9370    	STS $077E,R23
0056C6  077E
0056C7  EDE4    	LDI ZL,$D4
0056C8  E0F3    	LDI ZH,$03
0056C9  E060    	LDI R22,$00
0056CA  93E0    	STS $077F,ZL
0056CB  077F
0056CC  93F0    	STS $0780,ZH
0056CD  0780
0056CE  9360    	STS $0781,R22
0056CF  0781
0056D0  9370    	STS $0782,R23
0056D1  0782
0056D2  EEE0    	LDI ZL,$E0
0056D3  E0F3    	LDI ZH,$03
0056D4  E060    	LDI R22,$00
0056D5  93E0    	STS $0783,ZL
0056D6  0783
0056D7  93F0    	STS $0784,ZH
0056D8  0784
0056D9  9360    	STS $0785,R22
0056DA  0785
0056DB  9370    	STS $0786,R23
0056DC  0786
0056DD  EEEC    	LDI ZL,$EC
0056DE  E0F3    	LDI ZH,$03
0056DF  E060    	LDI R22,$00
0056E0  93E0    	STS $0787,ZL
0056E1  0787
0056E2  93F0    	STS $0788,ZH
0056E3  0788
0056E4  9360    	STS $0789,R22
0056E5  0789
0056E6  9370    	STS $078A,R23
0056E7  078A
0056E8  E0E6    	LDI ZL,$06
0056E9  E0F0    	LDI ZH,$00
0056EA  93E0    	STS $0793,ZL
0056EB  0793
0056EC  93F0    	STS $0794,ZH
0056ED  0794
0056EE  E1E0    	LDI ZL,$10
0056EF  E0F0    	LDI ZH,$00
0056F0  93E0    	STS $0795,ZL
0056F1  0795
0056F2  93F0    	STS $0796,ZH
0056F3  0796
0056F4  C1C7    	RJMP L1198
0056F5  30E8    L1208:	CPI ZL,$08
0056F6  F011    	BREQ L1209
0056F7  940C    	JMP L1210
0056F8  5762
0056F9  E0E5    L1209:	LDI ZL,$05
0056FA  93EA    	ST -Y,ZL
0056FB  940E    	CALL L977
0056FC  4106
0056FD  EDE4    	LDI ZL,$D4
0056FE  E0F5    	LDI ZH,$05
0056FF  E060    	LDI R22,$00
005700  93E0    	STS $076B,ZL
005701  076B
005702  93F0    	STS $076C,ZH
005703  076C
005704  9360    	STS $076D,R22
005705  076D
005706  9370    	STS $076E,R23
005707  076E
005708  E3E4    	LDI ZL,$34
005709  E0F6    	LDI ZH,$06
00570A  E060    	LDI R22,$00
00570B  93E0    	STS $076F,ZL
00570C  076F
00570D  93F0    	STS $0770,ZH
00570E  0770
00570F  9360    	STS $0771,R22
005710  0771
005711  9370    	STS $0772,R23
005712  0772
005713  E1EC    	LDI ZL,$1C
005714  E0F5    	LDI ZH,$05
005715  E060    	LDI R22,$00
005716  93E0    	STS $0773,ZL
005717  0773
005718  93F0    	STS $0774,ZH
005719  0774
00571A  9360    	STS $0775,R22
00571B  0775
00571C  9370    	STS $0776,R23
00571D  0776
00571E  E2EC    	LDI ZL,$2C
00571F  E0F5    	LDI ZH,$05
005720  E060    	LDI R22,$00
005721  93E0    	STS $0777,ZL
005722  0777
005723  93F0    	STS $0778,ZH
005724  0778
005725  9360    	STS $0779,R22
005726  0779
005727  9370    	STS $077A,R23
005728  077A
005729  E3EC    	LDI ZL,$3C
00572A  E0F5    	LDI ZH,$05
00572B  E060    	LDI R22,$00
00572C  93E0    	STS $077B,ZL
00572D  077B
00572E  93F0    	STS $077C,ZH
00572F  077C
005730  9360    	STS $077D,R22
005731  077D
005732  9370    	STS $077E,R23
005733  077E
005734  E4EC    	LDI ZL,$4C
005735  E0F5    	LDI ZH,$05
005736  E060    	LDI R22,$00
005737  93E0    	STS $077F,ZL
005738  077F
005739  93F0    	STS $0780,ZH
00573A  0780
00573B  9360    	STS $0781,R22
00573C  0781
00573D  9370    	STS $0782,R23
00573E  0782
00573F  E5E8    	LDI ZL,$58
005740  E0F5    	LDI ZH,$05
005741  E060    	LDI R22,$00
005742  93E0    	STS $0783,ZL
005743  0783
005744  93F0    	STS $0784,ZH
005745  0784
005746  9360    	STS $0785,R22
005747  0785
005748  9370    	STS $0786,R23
005749  0786
00574A  E6E4    	LDI ZL,$64
00574B  E0F5    	LDI ZH,$05
00574C  E060    	LDI R22,$00
00574D  93E0    	STS $0787,ZL
00574E  0787
00574F  93F0    	STS $0788,ZH
005750  0788
005751  9360    	STS $0789,R22
005752  0789
005753  9370    	STS $078A,R23
005754  078A
005755  E0E6    	LDI ZL,$06
005756  E0F0    	LDI ZH,$00
005757  93E0    	STS $0793,ZL
005758  0793
005759  93F0    	STS $0794,ZH
00575A  0794
00575B  E1E0    	LDI ZL,$10
00575C  E0F0    	LDI ZH,$00
00575D  93E0    	STS $0795,ZL
00575E  0795
00575F  93F0    	STS $0796,ZH
005760  0796
005761  C15A    	RJMP L1198
005762  30E9    L1210:	CPI ZL,$09
005763  F011    	BREQ L1211
005764  940C    	JMP L1212
005765  57CF
005766  E0E6    L1211:	LDI ZL,$06
005767  93EA    	ST -Y,ZL
005768  940E    	CALL L977
005769  4106
00576A  ECE0    	LDI ZL,$C0
00576B  E0F1    	LDI ZH,$01
00576C  E060    	LDI R22,$00
00576D  93E0    	STS $076B,ZL
00576E  076B
00576F  93F0    	STS $076C,ZH
005770  076C
005771  9360    	STS $076D,R22
005772  076D
005773  9370    	STS $076E,R23
005774  076E
005775  E1E0    	LDI ZL,$10
005776  E0F2    	LDI ZH,$02
005777  E060    	LDI R22,$00
005778  93E0    	STS $076F,ZL
005779  076F
00577A  93F0    	STS $0770,ZH
00577B  0770
00577C  9360    	STS $0771,R22
00577D  0771
00577E  9370    	STS $0772,R23
00577F  0772
005780  E1EC    	LDI ZL,$1C
005781  E0F1    	LDI ZH,$01
005782  E060    	LDI R22,$00
005783  93E0    	STS $0773,ZL
005784  0773
005785  93F0    	STS $0774,ZH
005786  0774
005787  9360    	STS $0775,R22
005788  0775
005789  9370    	STS $0776,R23
00578A  0776
00578B  E2EC    	LDI ZL,$2C
00578C  E0F1    	LDI ZH,$01
00578D  E060    	LDI R22,$00
00578E  93E0    	STS $0777,ZL
00578F  0777
005790  93F0    	STS $0778,ZH
005791  0778
005792  9360    	STS $0779,R22
005793  0779
005794  9370    	STS $077A,R23
005795  077A
005796  E3EC    	LDI ZL,$3C
005797  E0F1    	LDI ZH,$01
005798  E060    	LDI R22,$00
005799  93E0    	STS $077B,ZL
00579A  077B
00579B  93F0    	STS $077C,ZH
00579C  077C
00579D  9360    	STS $077D,R22
00579E  077D
00579F  9370    	STS $077E,R23
0057A0  077E
0057A1  E4EC    	LDI ZL,$4C
0057A2  E0F1    	LDI ZH,$01
0057A3  E060    	LDI R22,$00
0057A4  93E0    	STS $077F,ZL
0057A5  077F
0057A6  93F0    	STS $0780,ZH
0057A7  0780
0057A8  9360    	STS $0781,R22
0057A9  0781
0057AA  9370    	STS $0782,R23
0057AB  0782
0057AC  E5E6    	LDI ZL,$56
0057AD  E0F1    	LDI ZH,$01
0057AE  E060    	LDI R22,$00
0057AF  93E0    	STS $0783,ZL
0057B0  0783
0057B1  93F0    	STS $0784,ZH
0057B2  0784
0057B3  9360    	STS $0785,R22
0057B4  0785
0057B5  9370    	STS $0786,R23
0057B6  0786
0057B7  E6E0    	LDI ZL,$60
0057B8  E0F1    	LDI ZH,$01
0057B9  E060    	LDI R22,$00
0057BA  93E0    	STS $0787,ZL
0057BB  0787
0057BC  93F0    	STS $0788,ZH
0057BD  0788
0057BE  9360    	STS $0789,R22
0057BF  0789
0057C0  9370    	STS $078A,R23
0057C1  078A
0057C2  E0E5    	LDI ZL,$05
0057C3  E0F0    	LDI ZH,$00
0057C4  93E0    	STS $0793,ZL
0057C5  0793
0057C6  93F0    	STS $0794,ZH
0057C7  0794
0057C8  E1E0    	LDI ZL,$10
0057C9  E0F0    	LDI ZH,$00
0057CA  93E0    	STS $0795,ZL
0057CB  0795
0057CC  93F0    	STS $0796,ZH
0057CD  0796
0057CE  C0ED    	RJMP L1198
0057CF  30EA    L1212:	CPI ZL,$0A
0057D0  F011    	BREQ L1213
0057D1  940C    	JMP L1214
0057D2  583C
0057D3  E0E3    L1213:	LDI ZL,$03
0057D4  93EA    	ST -Y,ZL
0057D5  940E    	CALL L977
0057D6  4106
0057D7  ECE8    	LDI ZL,$C8
0057D8  E1F9    	LDI ZH,$19
0057D9  E060    	LDI R22,$00
0057DA  93E0    	STS $076B,ZL
0057DB  076B
0057DC  93F0    	STS $076C,ZH
0057DD  076C
0057DE  9360    	STS $076D,R22
0057DF  076D
0057E0  9370    	STS $076E,R23
0057E1  076E
0057E2  E6E8    	LDI ZL,$68
0057E3  E1FC    	LDI ZH,$1C
0057E4  E060    	LDI R22,$00
0057E5  93E0    	STS $076F,ZL
0057E6  076F
0057E7  93F0    	STS $0770,ZH
0057E8  0770
0057E9  9360    	STS $0771,R22
0057EA  0771
0057EB  9370    	STS $0772,R23
0057EC  0772
0057ED  E4E0    	LDI ZL,$40
0057EE  E1F6    	LDI ZH,$16
0057EF  E060    	LDI R22,$00
0057F0  93E0    	STS $0773,ZL
0057F1  0773
0057F2  93F0    	STS $0774,ZH
0057F3  0774
0057F4  9360    	STS $0775,R22
0057F5  0775
0057F6  9370    	STS $0776,R23
0057F7  0776
0057F8  E5E0    	LDI ZL,$50
0057F9  E1F6    	LDI ZH,$16
0057FA  E060    	LDI R22,$00
0057FB  93E0    	STS $0777,ZL
0057FC  0777
0057FD  93F0    	STS $0778,ZH
0057FE  0778
0057FF  9360    	STS $0779,R22
005800  0779
005801  9370    	STS $077A,R23
005802  077A
005803  E6E0    	LDI ZL,$60
005804  E1F6    	LDI ZH,$16
005805  E060    	LDI R22,$00
005806  93E0    	STS $077B,ZL
005807  077B
005808  93F0    	STS $077C,ZH
005809  077C
00580A  9360    	STS $077D,R22
00580B  077D
00580C  9370    	STS $077E,R23
00580D  077E
00580E  E7E0    	LDI ZL,$70
00580F  E1F6    	LDI ZH,$16
005810  E060    	LDI R22,$00
005811  93E0    	STS $077F,ZL
005812  077F
005813  93F0    	STS $0780,ZH
005814  0780
005815  9360    	STS $0781,R22
005816  0781
005817  9370    	STS $0782,R23
005818  0782
005819  ECE4    	LDI ZL,$C4
00581A  E1F6    	LDI ZH,$16
00581B  E060    	LDI R22,$00
00581C  93E0    	STS $0783,ZL
00581D  0783
00581E  93F0    	STS $0784,ZH
00581F  0784
005820  9360    	STS $0785,R22
005821  0785
005822  9370    	STS $0786,R23
005823  0786
005824  E1E8    	LDI ZL,$18
005825  E1F7    	LDI ZH,$17
005826  E060    	LDI R22,$00
005827  93E0    	STS $0787,ZL
005828  0787
005829  93F0    	STS $0788,ZH
00582A  0788
00582B  9360    	STS $0789,R22
00582C  0789
00582D  9370    	STS $078A,R23
00582E  078A
00582F  E2EA    	LDI ZL,$2A
005830  E0F0    	LDI ZH,$00
005831  93E0    	STS $0793,ZL
005832  0793
005833  93F0    	STS $0794,ZH
005834  0794
005835  E1E0    	LDI ZL,$10
005836  E0F0    	LDI ZH,$00
005837  93E0    	STS $0795,ZL
005838  0795
005839  93F0    	STS $0796,ZH
00583A  0796
00583B  C080    	RJMP L1198
00583C  30EB    L1214:	CPI ZL,$0B
00583D  F011    	BREQ L1215
00583E  940C    	JMP L1216
00583F  58A9
005840  E0E6    L1215:	LDI ZL,$06
005841  93EA    	ST -Y,ZL
005842  940E    	CALL L977
005843  4106
005844  E0E4    	LDI ZL,$04
005845  E0F3    	LDI ZH,$03
005846  E060    	LDI R22,$00
005847  93E0    	STS $076B,ZL
005848  076B
005849  93F0    	STS $076C,ZH
00584A  076C
00584B  9360    	STS $076D,R22
00584C  076D
00584D  9370    	STS $076E,R23
00584E  076E
00584F  E5E4    	LDI ZL,$54
005850  E0F3    	LDI ZH,$03
005851  E060    	LDI R22,$00
005852  93E0    	STS $076F,ZL
005853  076F
005854  93F0    	STS $0770,ZH
005855  0770
005856  9360    	STS $0771,R22
005857  0771
005858  9370    	STS $0772,R23
005859  0772
00585A  E6E0    	LDI ZL,$60
00585B  E0F2    	LDI ZH,$02
00585C  E060    	LDI R22,$00
00585D  93E0    	STS $0773,ZL
00585E  0773
00585F  93F0    	STS $0774,ZH
005860  0774
005861  9360    	STS $0775,R22
005862  0775
005863  9370    	STS $0776,R23
005864  0776
005865  E7E0    	LDI ZL,$70
005866  E0F2    	LDI ZH,$02
005867  E060    	LDI R22,$00
005868  93E0    	STS $0777,ZL
005869  0777
00586A  93F0    	STS $0778,ZH
00586B  0778
00586C  9360    	STS $0779,R22
00586D  0779
00586E  9370    	STS $077A,R23
00586F  077A
005870  E8E0    	LDI ZL,$80
005871  E0F2    	LDI ZH,$02
005872  E060    	LDI R22,$00
005873  93E0    	STS $077B,ZL
005874  077B
005875  93F0    	STS $077C,ZH
005876  077C
005877  9360    	STS $077D,R22
005878  077D
005879  9370    	STS $077E,R23
00587A  077E
00587B  E9E0    	LDI ZL,$90
00587C  E0F2    	LDI ZH,$02
00587D  E060    	LDI R22,$00
00587E  93E0    	STS $077F,ZL
00587F  077F
005880  93F0    	STS $0780,ZH
005881  0780
005882  9360    	STS $0781,R22
005883  0781
005884  9370    	STS $0782,R23
005885  0782
005886  E9EA    	LDI ZL,$9A
005887  E0F2    	LDI ZH,$02
005888  E060    	LDI R22,$00
005889  93E0    	STS $0783,ZL
00588A  0783
00588B  93F0    	STS $0784,ZH
00588C  0784
00588D  9360    	STS $0785,R22
00588E  0785
00588F  9370    	STS $0786,R23
005890  0786
005891  EAE4    	LDI ZL,$A4
005892  E0F2    	LDI ZH,$02
005893  E060    	LDI R22,$00
005894  93E0    	STS $0787,ZL
005895  0787
005896  93F0    	STS $0788,ZH
005897  0788
005898  9360    	STS $0789,R22
005899  0789
00589A  9370    	STS $078A,R23
00589B  078A
00589C  E0E5    	LDI ZL,$05
00589D  E0F0    	LDI ZH,$00
00589E  93E0    	STS $0793,ZL
00589F  0793
0058A0  93F0    	STS $0794,ZH
0058A1  0794
0058A2  E1E0    	LDI ZL,$10
0058A3  E0F0    	LDI ZH,$00
0058A4  93E0    	STS $0795,ZL
0058A5  0795
0058A6  93F0    	STS $0796,ZH
0058A7  0796
0058A8  C013    	RJMP L1198
0058A9  81A8    L1216:	LD XL,Y
0058AA  31A6    	CPI XL,$16
0058AB  F418    	BRCC L1217
0058AC  81E8    	LD ZL,Y
0058AD  50EB    	SUBI ZL,$0B
0058AE  C008    	RJMP L1218
0058AF  81A8    L1217:	LD XL,Y
0058B0  32A1    	CPI XL,$21
0058B1  F010    	BRCS L1219
0058B2  32AB    	CPI XL,$2B
0058B3  F008    	BRCS L1220
0058B4  C005    L1219:	RJMP L1193
0058B5  81E8    L1220:	LD ZL,Y
0058B6  51E6    	SUBI ZL,$16
0058B7  93EA    L1218:	ST -Y,ZL
0058B8  940E    	CALL L1221
0058B9  4BCC
0058BA  9621    L1193:	ADIW YH:YL,1
0058BB  9508    	RET
0058BC  940C    L1198:	JMP L1222
0058BD  6188
0058BE  E0E2    L1195:	LDI ZL,$02
0058BF  15EC    	CP ZL,R12
0058C0  F011    	BREQ L1223
0058C1  940C    	JMP L1224
0058C2  5D19
0058C3  81E8    L1223:	LD ZL,Y
0058C4  30E1    	CPI ZL,$01
0058C5  F011    	BREQ L1225
0058C6  940C    	JMP L1226
0058C7  5931
0058C8  E0ED    L1225:	LDI ZL,$0D
0058C9  93EA    	ST -Y,ZL
0058CA  940E    	CALL L977
0058CB  4106
0058CC  E8E4    	LDI ZL,$84
0058CD  E3F9    	LDI ZH,$39
0058CE  E060    	LDI R22,$00
0058CF  93E0    	STS $076B,ZL
0058D0  076B
0058D1  93F0    	STS $076C,ZH
0058D2  076C
0058D3  9360    	STS $076D,R22
0058D4  076D
0058D5  9370    	STS $076E,R23
0058D6  076E
0058D7  EEE4    	LDI ZL,$E4
0058D8  E3F9    	LDI ZH,$39
0058D9  E060    	LDI R22,$00
0058DA  93E0    	STS $076F,ZL
0058DB  076F
0058DC  93F0    	STS $0770,ZH
0058DD  0770
0058DE  9360    	STS $0771,R22
0058DF  0771
0058E0  9370    	STS $0772,R23
0058E1  0772
0058E2  ECEC    	LDI ZL,$CC
0058E3  E3F8    	LDI ZH,$38
0058E4  E060    	LDI R22,$00
0058E5  93E0    	STS $0773,ZL
0058E6  0773
0058E7  93F0    	STS $0774,ZH
0058E8  0774
0058E9  9360    	STS $0775,R22
0058EA  0775
0058EB  9370    	STS $0776,R23
0058EC  0776
0058ED  EDEC    	LDI ZL,$DC
0058EE  E3F8    	LDI ZH,$38
0058EF  E060    	LDI R22,$00
0058F0  93E0    	STS $0777,ZL
0058F1  0777
0058F2  93F0    	STS $0778,ZH
0058F3  0778
0058F4  9360    	STS $0779,R22
0058F5  0779
0058F6  9370    	STS $077A,R23
0058F7  077A
0058F8  EEEC    	LDI ZL,$EC
0058F9  E3F8    	LDI ZH,$38
0058FA  E060    	LDI R22,$00
0058FB  93E0    	STS $077B,ZL
0058FC  077B
0058FD  93F0    	STS $077C,ZH
0058FE  077C
0058FF  9360    	STS $077D,R22
005900  077D
005901  9370    	STS $077E,R23
005902  077E
005903  EFEC    	LDI ZL,$FC
005904  E3F8    	LDI ZH,$38
005905  E060    	LDI R22,$00
005906  93E0    	STS $077F,ZL
005907  077F
005908  93F0    	STS $0780,ZH
005909  0780
00590A  9360    	STS $0781,R22
00590B  0781
00590C  9370    	STS $0782,R23
00590D  0782
00590E  E0E8    	LDI ZL,$08
00590F  E3F9    	LDI ZH,$39
005910  E060    	LDI R22,$00
005911  93E0    	STS $0783,ZL
005912  0783
005913  93F0    	STS $0784,ZH
005914  0784
005915  9360    	STS $0785,R22
005916  0785
005917  9370    	STS $0786,R23
005918  0786
005919  E1E4    	LDI ZL,$14
00591A  E3F9    	LDI ZH,$39
00591B  E060    	LDI R22,$00
00591C  93E0    	STS $0787,ZL
00591D  0787
00591E  93F0    	STS $0788,ZH
00591F  0788
005920  9360    	STS $0789,R22
005921  0789
005922  9370    	STS $078A,R23
005923  078A
005924  E0E6    	LDI ZL,$06
005925  E0F0    	LDI ZH,$00
005926  93E0    	STS $0793,ZL
005927  0793
005928  93F0    	STS $0794,ZH
005929  0794
00592A  E1E0    	LDI ZL,$10
00592B  E0F0    	LDI ZH,$00
00592C  93E0    	STS $0795,ZL
00592D  0795
00592E  93F0    	STS $0796,ZH
00592F  0796
005930  C3E7    	RJMP L1227
005931  30E2    L1226:	CPI ZL,$02
005932  F011    	BREQ L1228
005933  940C    	JMP L1229
005934  599E
005935  E0ED    L1228:	LDI ZL,$0D
005936  93EA    	ST -Y,ZL
005937  940E    	CALL L977
005938  4106
005939  EFEC    	LDI ZL,$FC
00593A  E3FA    	LDI ZH,$3A
00593B  E060    	LDI R22,$00
00593C  93E0    	STS $076B,ZL
00593D  076B
00593E  93F0    	STS $076C,ZH
00593F  076C
005940  9360    	STS $076D,R22
005941  076D
005942  9370    	STS $076E,R23
005943  076E
005944  E5EC    	LDI ZL,$5C
005945  E3FB    	LDI ZH,$3B
005946  E060    	LDI R22,$00
005947  93E0    	STS $076F,ZL
005948  076F
005949  93F0    	STS $0770,ZH
00594A  0770
00594B  9360    	STS $0771,R22
00594C  0771
00594D  9370    	STS $0772,R23
00594E  0772
00594F  E4E4    	LDI ZL,$44
005950  E3FA    	LDI ZH,$3A
005951  E060    	LDI R22,$00
005952  93E0    	STS $0773,ZL
005953  0773
005954  93F0    	STS $0774,ZH
005955  0774
005956  9360    	STS $0775,R22
005957  0775
005958  9370    	STS $0776,R23
005959  0776
00595A  E5E4    	LDI ZL,$54
00595B  E3FA    	LDI ZH,$3A
00595C  E060    	LDI R22,$00
00595D  93E0    	STS $0777,ZL
00595E  0777
00595F  93F0    	STS $0778,ZH
005960  0778
005961  9360    	STS $0779,R22
005962  0779
005963  9370    	STS $077A,R23
005964  077A
005965  E6E4    	LDI ZL,$64
005966  E3FA    	LDI ZH,$3A
005967  E060    	LDI R22,$00
005968  93E0    	STS $077B,ZL
005969  077B
00596A  93F0    	STS $077C,ZH
00596B  077C
00596C  9360    	STS $077D,R22
00596D  077D
00596E  9370    	STS $077E,R23
00596F  077E
005970  E7E4    	LDI ZL,$74
005971  E3FA    	LDI ZH,$3A
005972  E060    	LDI R22,$00
005973  93E0    	STS $077F,ZL
005974  077F
005975  93F0    	STS $0780,ZH
005976  0780
005977  9360    	STS $0781,R22
005978  0781
005979  9370    	STS $0782,R23
00597A  0782
00597B  E8E0    	LDI ZL,$80
00597C  E3FA    	LDI ZH,$3A
00597D  E060    	LDI R22,$00
00597E  93E0    	STS $0783,ZL
00597F  0783
005980  93F0    	STS $0784,ZH
005981  0784
005982  9360    	STS $0785,R22
005983  0785
005984  9370    	STS $0786,R23
005985  0786
005986  E8EC    	LDI ZL,$8C
005987  E3FA    	LDI ZH,$3A
005988  E060    	LDI R22,$00
005989  93E0    	STS $0787,ZL
00598A  0787
00598B  93F0    	STS $0788,ZH
00598C  0788
00598D  9360    	STS $0789,R22
00598E  0789
00598F  9370    	STS $078A,R23
005990  078A
005991  E0E6    	LDI ZL,$06
005992  E0F0    	LDI ZH,$00
005993  93E0    	STS $0793,ZL
005994  0793
005995  93F0    	STS $0794,ZH
005996  0794
005997  E1E0    	LDI ZL,$10
005998  E0F0    	LDI ZH,$00
005999  93E0    	STS $0795,ZL
00599A  0795
00599B  93F0    	STS $0796,ZH
00599C  0796
00599D  C37A    	RJMP L1227
00599E  30E3    L1229:	CPI ZL,$03
00599F  F011    	BREQ L1230
0059A0  940C    	JMP L1231
0059A1  5A0B
0059A2  E0ED    L1230:	LDI ZL,$0D
0059A3  93EA    	ST -Y,ZL
0059A4  940E    	CALL L977
0059A5  4106
0059A6  E4E0    	LDI ZL,$40
0059A7  E3F4    	LDI ZH,$34
0059A8  E060    	LDI R22,$00
0059A9  93E0    	STS $076B,ZL
0059AA  076B
0059AB  93F0    	STS $076C,ZH
0059AC  076C
0059AD  9360    	STS $076D,R22
0059AE  076D
0059AF  9370    	STS $076E,R23
0059B0  076E
0059B1  EAE0    	LDI ZL,$A0
0059B2  E3F4    	LDI ZH,$34
0059B3  E060    	LDI R22,$00
0059B4  93E0    	STS $076F,ZL
0059B5  076F
0059B6  93F0    	STS $0770,ZH
0059B7  0770
0059B8  9360    	STS $0771,R22
0059B9  0771
0059BA  9370    	STS $0772,R23
0059BB  0772
0059BC  E8E8    	LDI ZL,$88
0059BD  E3F3    	LDI ZH,$33
0059BE  E060    	LDI R22,$00
0059BF  93E0    	STS $0773,ZL
0059C0  0773
0059C1  93F0    	STS $0774,ZH
0059C2  0774
0059C3  9360    	STS $0775,R22
0059C4  0775
0059C5  9370    	STS $0776,R23
0059C6  0776
0059C7  E9E8    	LDI ZL,$98
0059C8  E3F3    	LDI ZH,$33
0059C9  E060    	LDI R22,$00
0059CA  93E0    	STS $0777,ZL
0059CB  0777
0059CC  93F0    	STS $0778,ZH
0059CD  0778
0059CE  9360    	STS $0779,R22
0059CF  0779
0059D0  9370    	STS $077A,R23
0059D1  077A
0059D2  EAE8    	LDI ZL,$A8
0059D3  E3F3    	LDI ZH,$33
0059D4  E060    	LDI R22,$00
0059D5  93E0    	STS $077B,ZL
0059D6  077B
0059D7  93F0    	STS $077C,ZH
0059D8  077C
0059D9  9360    	STS $077D,R22
0059DA  077D
0059DB  9370    	STS $077E,R23
0059DC  077E
0059DD  EBE8    	LDI ZL,$B8
0059DE  E3F3    	LDI ZH,$33
0059DF  E060    	LDI R22,$00
0059E0  93E0    	STS $077F,ZL
0059E1  077F
0059E2  93F0    	STS $0780,ZH
0059E3  0780
0059E4  9360    	STS $0781,R22
0059E5  0781
0059E6  9370    	STS $0782,R23
0059E7  0782
0059E8  ECE4    	LDI ZL,$C4
0059E9  E3F3    	LDI ZH,$33
0059EA  E060    	LDI R22,$00
0059EB  93E0    	STS $0783,ZL
0059EC  0783
0059ED  93F0    	STS $0784,ZH
0059EE  0784
0059EF  9360    	STS $0785,R22
0059F0  0785
0059F1  9370    	STS $0786,R23
0059F2  0786
0059F3  EDE0    	LDI ZL,$D0
0059F4  E3F3    	LDI ZH,$33
0059F5  E060    	LDI R22,$00
0059F6  93E0    	STS $0787,ZL
0059F7  0787
0059F8  93F0    	STS $0788,ZH
0059F9  0788
0059FA  9360    	STS $0789,R22
0059FB  0789
0059FC  9370    	STS $078A,R23
0059FD  078A
0059FE  E0E6    	LDI ZL,$06
0059FF  E0F0    	LDI ZH,$00
005A00  93E0    	STS $0793,ZL
005A01  0793
005A02  93F0    	STS $0794,ZH
005A03  0794
005A04  E1E0    	LDI ZL,$10
005A05  E0F0    	LDI ZH,$00
005A06  93E0    	STS $0795,ZL
005A07  0795
005A08  93F0    	STS $0796,ZH
005A09  0796
005A0A  C30D    	RJMP L1227
005A0B  30E4    L1231:	CPI ZL,$04
005A0C  F011    	BREQ L1232
005A0D  940C    	JMP L1233
005A0E  5A78
005A0F  E0EE    L1232:	LDI ZL,$0E
005A10  93EA    	ST -Y,ZL
005A11  940E    	CALL L977
005A12  4106
005A13  E9E0    	LDI ZL,$90
005A14  E2F2    	LDI ZH,$22
005A15  E060    	LDI R22,$00
005A16  93E0    	STS $076B,ZL
005A17  076B
005A18  93F0    	STS $076C,ZH
005A19  076C
005A1A  9360    	STS $076D,R22
005A1B  076D
005A1C  9370    	STS $076E,R23
005A1D  076E
005A1E  E3E0    	LDI ZL,$30
005A1F  E2F5    	LDI ZH,$25
005A20  E060    	LDI R22,$00
005A21  93E0    	STS $076F,ZL
005A22  076F
005A23  93F0    	STS $0770,ZH
005A24  0770
005A25  9360    	STS $0771,R22
005A26  0771
005A27  9370    	STS $0772,R23
005A28  0772
005A29  E0E8    	LDI ZL,$08
005A2A  E1FF    	LDI ZH,$1F
005A2B  E060    	LDI R22,$00
005A2C  93E0    	STS $0773,ZL
005A2D  0773
005A2E  93F0    	STS $0774,ZH
005A2F  0774
005A30  9360    	STS $0775,R22
005A31  0775
005A32  9370    	STS $0776,R23
005A33  0776
005A34  E1E8    	LDI ZL,$18
005A35  E1FF    	LDI ZH,$1F
005A36  E060    	LDI R22,$00
005A37  93E0    	STS $0777,ZL
005A38  0777
005A39  93F0    	STS $0778,ZH
005A3A  0778
005A3B  9360    	STS $0779,R22
005A3C  0779
005A3D  9370    	STS $077A,R23
005A3E  077A
005A3F  E2E8    	LDI ZL,$28
005A40  E1FF    	LDI ZH,$1F
005A41  E060    	LDI R22,$00
005A42  93E0    	STS $077B,ZL
005A43  077B
005A44  93F0    	STS $077C,ZH
005A45  077C
005A46  9360    	STS $077D,R22
005A47  077D
005A48  9370    	STS $077E,R23
005A49  077E
005A4A  E3E8    	LDI ZL,$38
005A4B  E1FF    	LDI ZH,$1F
005A4C  E060    	LDI R22,$00
005A4D  93E0    	STS $077F,ZL
005A4E  077F
005A4F  93F0    	STS $0780,ZH
005A50  0780
005A51  9360    	STS $0781,R22
005A52  0781
005A53  9370    	STS $0782,R23
005A54  0782
005A55  E8EC    	LDI ZL,$8C
005A56  E1FF    	LDI ZH,$1F
005A57  E060    	LDI R22,$00
005A58  93E0    	STS $0783,ZL
005A59  0783
005A5A  93F0    	STS $0784,ZH
005A5B  0784
005A5C  9360    	STS $0785,R22
005A5D  0785
005A5E  9370    	STS $0786,R23
005A5F  0786
005A60  EEE0    	LDI ZL,$E0
005A61  E1FF    	LDI ZH,$1F
005A62  E060    	LDI R22,$00
005A63  93E0    	STS $0787,ZL
005A64  0787
005A65  93F0    	STS $0788,ZH
005A66  0788
005A67  9360    	STS $0789,R22
005A68  0789
005A69  9370    	STS $078A,R23
005A6A  078A
005A6B  E2EA    	LDI ZL,$2A
005A6C  E0F0    	LDI ZH,$00
005A6D  93E0    	STS $0793,ZL
005A6E  0793
005A6F  93F0    	STS $0794,ZH
005A70  0794
005A71  E1E0    	LDI ZL,$10
005A72  E0F0    	LDI ZH,$00
005A73  93E0    	STS $0795,ZL
005A74  0795
005A75  93F0    	STS $0796,ZH
005A76  0796
005A77  C2A0    	RJMP L1227
005A78  30E5    L1233:	CPI ZL,$05
005A79  F011    	BREQ L1234
005A7A  940C    	JMP L1235
005A7B  5AE5
005A7C  E0ED    L1234:	LDI ZL,$0D
005A7D  93EA    	ST -Y,ZL
005A7E  940E    	CALL L977
005A7F  4106
005A80  ECEC    	LDI ZL,$CC
005A81  E3F5    	LDI ZH,$35
005A82  E060    	LDI R22,$00
005A83  93E0    	STS $076B,ZL
005A84  076B
005A85  93F0    	STS $076C,ZH
005A86  076C
005A87  9360    	STS $076D,R22
005A88  076D
005A89  9370    	STS $076E,R23
005A8A  076E
005A8B  E3EC    	LDI ZL,$3C
005A8C  E3F6    	LDI ZH,$36
005A8D  E060    	LDI R22,$00
005A8E  93E0    	STS $076F,ZL
005A8F  076F
005A90  93F0    	STS $0770,ZH
005A91  0770
005A92  9360    	STS $0771,R22
005A93  0771
005A94  9370    	STS $0772,R23
005A95  0772
005A96  E0E0    	LDI ZL,$00
005A97  E3F5    	LDI ZH,$35
005A98  E060    	LDI R22,$00
005A99  93E0    	STS $0773,ZL
005A9A  0773
005A9B  93F0    	STS $0774,ZH
005A9C  0774
005A9D  9360    	STS $0775,R22
005A9E  0775
005A9F  9370    	STS $0776,R23
005AA0  0776
005AA1  E1E0    	LDI ZL,$10
005AA2  E3F5    	LDI ZH,$35
005AA3  E060    	LDI R22,$00
005AA4  93E0    	STS $0777,ZL
005AA5  0777
005AA6  93F0    	STS $0778,ZH
005AA7  0778
005AA8  9360    	STS $0779,R22
005AA9  0779
005AAA  9370    	STS $077A,R23
005AAB  077A
005AAC  E2E0    	LDI ZL,$20
005AAD  E3F5    	LDI ZH,$35
005AAE  E060    	LDI R22,$00
005AAF  93E0    	STS $077B,ZL
005AB0  077B
005AB1  93F0    	STS $077C,ZH
005AB2  077C
005AB3  9360    	STS $077D,R22
005AB4  077D
005AB5  9370    	STS $077E,R23
005AB6  077E
005AB7  E3E0    	LDI ZL,$30
005AB8  E3F5    	LDI ZH,$35
005AB9  E060    	LDI R22,$00
005ABA  93E0    	STS $077F,ZL
005ABB  077F
005ABC  93F0    	STS $0780,ZH
005ABD  0780
005ABE  9360    	STS $0781,R22
005ABF  0781
005AC0  9370    	STS $0782,R23
005AC1  0782
005AC2  E3EE    	LDI ZL,$3E
005AC3  E3F5    	LDI ZH,$35
005AC4  E060    	LDI R22,$00
005AC5  93E0    	STS $0783,ZL
005AC6  0783
005AC7  93F0    	STS $0784,ZH
005AC8  0784
005AC9  9360    	STS $0785,R22
005ACA  0785
005ACB  9370    	STS $0786,R23
005ACC  0786
005ACD  E4EC    	LDI ZL,$4C
005ACE  E3F5    	LDI ZH,$35
005ACF  E060    	LDI R22,$00
005AD0  93E0    	STS $0787,ZL
005AD1  0787
005AD2  93F0    	STS $0788,ZH
005AD3  0788
005AD4  9360    	STS $0789,R22
005AD5  0789
005AD6  9370    	STS $078A,R23
005AD7  078A
005AD8  E0E7    	LDI ZL,$07
005AD9  E0F0    	LDI ZH,$00
005ADA  93E0    	STS $0793,ZL
005ADB  0793
005ADC  93F0    	STS $0794,ZH
005ADD  0794
005ADE  E1E0    	LDI ZL,$10
005ADF  E0F0    	LDI ZH,$00
005AE0  93E0    	STS $0795,ZL
005AE1  0795
005AE2  93F0    	STS $0796,ZH
005AE3  0796
005AE4  C233    	RJMP L1227
005AE5  30E6    L1235:	CPI ZL,$06
005AE6  F011    	BREQ L1236
005AE7  940C    	JMP L1237
005AE8  5B52
005AE9  E0ED    L1236:	LDI ZL,$0D
005AEA  93EA    	ST -Y,ZL
005AEB  940E    	CALL L977
005AEC  4106
005AED  E5E0    	LDI ZL,$50
005AEE  E3F1    	LDI ZH,$31
005AEF  E060    	LDI R22,$00
005AF0  93E0    	STS $076B,ZL
005AF1  076B
005AF2  93F0    	STS $076C,ZH
005AF3  076C
005AF4  9360    	STS $076D,R22
005AF5  076D
005AF6  9370    	STS $076E,R23
005AF7  076E
005AF8  EBE0    	LDI ZL,$B0
005AF9  E3F1    	LDI ZH,$31
005AFA  E060    	LDI R22,$00
005AFB  93E0    	STS $076F,ZL
005AFC  076F
005AFD  93F0    	STS $0770,ZH
005AFE  0770
005AFF  9360    	STS $0771,R22
005B00  0771
005B01  9370    	STS $0772,R23
005B02  0772
005B03  E9E8    	LDI ZL,$98
005B04  E3F0    	LDI ZH,$30
005B05  E060    	LDI R22,$00
005B06  93E0    	STS $0773,ZL
005B07  0773
005B08  93F0    	STS $0774,ZH
005B09  0774
005B0A  9360    	STS $0775,R22
005B0B  0775
005B0C  9370    	STS $0776,R23
005B0D  0776
005B0E  EAE8    	LDI ZL,$A8
005B0F  E3F0    	LDI ZH,$30
005B10  E060    	LDI R22,$00
005B11  93E0    	STS $0777,ZL
005B12  0777
005B13  93F0    	STS $0778,ZH
005B14  0778
005B15  9360    	STS $0779,R22
005B16  0779
005B17  9370    	STS $077A,R23
005B18  077A
005B19  EBE8    	LDI ZL,$B8
005B1A  E3F0    	LDI ZH,$30
005B1B  E060    	LDI R22,$00
005B1C  93E0    	STS $077B,ZL
005B1D  077B
005B1E  93F0    	STS $077C,ZH
005B1F  077C
005B20  9360    	STS $077D,R22
005B21  077D
005B22  9370    	STS $077E,R23
005B23  077E
005B24  ECE8    	LDI ZL,$C8
005B25  E3F0    	LDI ZH,$30
005B26  E060    	LDI R22,$00
005B27  93E0    	STS $077F,ZL
005B28  077F
005B29  93F0    	STS $0780,ZH
005B2A  0780
005B2B  9360    	STS $0781,R22
005B2C  0781
005B2D  9370    	STS $0782,R23
005B2E  0782
005B2F  EDE4    	LDI ZL,$D4
005B30  E3F0    	LDI ZH,$30
005B31  E060    	LDI R22,$00
005B32  93E0    	STS $0783,ZL
005B33  0783
005B34  93F0    	STS $0784,ZH
005B35  0784
005B36  9360    	STS $0785,R22
005B37  0785
005B38  9370    	STS $0786,R23
005B39  0786
005B3A  EEE0    	LDI ZL,$E0
005B3B  E3F0    	LDI ZH,$30
005B3C  E060    	LDI R22,$00
005B3D  93E0    	STS $0787,ZL
005B3E  0787
005B3F  93F0    	STS $0788,ZH
005B40  0788
005B41  9360    	STS $0789,R22
005B42  0789
005B43  9370    	STS $078A,R23
005B44  078A
005B45  E0E6    	LDI ZL,$06
005B46  E0F0    	LDI ZH,$00
005B47  93E0    	STS $0793,ZL
005B48  0793
005B49  93F0    	STS $0794,ZH
005B4A  0794
005B4B  E1E0    	LDI ZL,$10
005B4C  E0F0    	LDI ZH,$00
005B4D  93E0    	STS $0795,ZL
005B4E  0795
005B4F  93F0    	STS $0796,ZH
005B50  0796
005B51  C1C6    	RJMP L1227
005B52  30E8    L1237:	CPI ZL,$08
005B53  F011    	BREQ L1238
005B54  940C    	JMP L1239
005B55  5BBF
005B56  E0ED    L1238:	LDI ZL,$0D
005B57  93EA    	ST -Y,ZL
005B58  940E    	CALL L977
005B59  4106
005B5A  ECE8    	LDI ZL,$C8
005B5B  E3F2    	LDI ZH,$32
005B5C  E060    	LDI R22,$00
005B5D  93E0    	STS $076B,ZL
005B5E  076B
005B5F  93F0    	STS $076C,ZH
005B60  076C
005B61  9360    	STS $076D,R22
005B62  076D
005B63  9370    	STS $076E,R23
005B64  076E
005B65  E2E8    	LDI ZL,$28
005B66  E3F3    	LDI ZH,$33
005B67  E060    	LDI R22,$00
005B68  93E0    	STS $076F,ZL
005B69  076F
005B6A  93F0    	STS $0770,ZH
005B6B  0770
005B6C  9360    	STS $0771,R22
005B6D  0771
005B6E  9370    	STS $0772,R23
005B6F  0772
005B70  E1E0    	LDI ZL,$10
005B71  E3F2    	LDI ZH,$32
005B72  E060    	LDI R22,$00
005B73  93E0    	STS $0773,ZL
005B74  0773
005B75  93F0    	STS $0774,ZH
005B76  0774
005B77  9360    	STS $0775,R22
005B78  0775
005B79  9370    	STS $0776,R23
005B7A  0776
005B7B  E2E0    	LDI ZL,$20
005B7C  E3F2    	LDI ZH,$32
005B7D  E060    	LDI R22,$00
005B7E  93E0    	STS $0777,ZL
005B7F  0777
005B80  93F0    	STS $0778,ZH
005B81  0778
005B82  9360    	STS $0779,R22
005B83  0779
005B84  9370    	STS $077A,R23
005B85  077A
005B86  E3E0    	LDI ZL,$30
005B87  E3F2    	LDI ZH,$32
005B88  E060    	LDI R22,$00
005B89  93E0    	STS $077B,ZL
005B8A  077B
005B8B  93F0    	STS $077C,ZH
005B8C  077C
005B8D  9360    	STS $077D,R22
005B8E  077D
005B8F  9370    	STS $077E,R23
005B90  077E
005B91  E4E0    	LDI ZL,$40
005B92  E3F2    	LDI ZH,$32
005B93  E060    	LDI R22,$00
005B94  93E0    	STS $077F,ZL
005B95  077F
005B96  93F0    	STS $0780,ZH
005B97  0780
005B98  9360    	STS $0781,R22
005B99  0781
005B9A  9370    	STS $0782,R23
005B9B  0782
005B9C  E4EC    	LDI ZL,$4C
005B9D  E3F2    	LDI ZH,$32
005B9E  E060    	LDI R22,$00
005B9F  93E0    	STS $0783,ZL
005BA0  0783
005BA1  93F0    	STS $0784,ZH
005BA2  0784
005BA3  9360    	STS $0785,R22
005BA4  0785
005BA5  9370    	STS $0786,R23
005BA6  0786
005BA7  E5E8    	LDI ZL,$58
005BA8  E3F2    	LDI ZH,$32
005BA9  E060    	LDI R22,$00
005BAA  93E0    	STS $0787,ZL
005BAB  0787
005BAC  93F0    	STS $0788,ZH
005BAD  0788
005BAE  9360    	STS $0789,R22
005BAF  0789
005BB0  9370    	STS $078A,R23
005BB1  078A
005BB2  E0E6    	LDI ZL,$06
005BB3  E0F0    	LDI ZH,$00
005BB4  93E0    	STS $0793,ZL
005BB5  0793
005BB6  93F0    	STS $0794,ZH
005BB7  0794
005BB8  E1E0    	LDI ZL,$10
005BB9  E0F0    	LDI ZH,$00
005BBA  93E0    	STS $0795,ZL
005BBB  0795
005BBC  93F0    	STS $0796,ZH
005BBD  0796
005BBE  C159    	RJMP L1227
005BBF  30E9    L1239:	CPI ZL,$09
005BC0  F011    	BREQ L1240
005BC1  940C    	JMP L1241
005BC2  5C2C
005BC3  E0ED    L1240:	LDI ZL,$0D
005BC4  93EA    	ST -Y,ZL
005BC5  940E    	CALL L977
005BC6  4106
005BC7  E3EC    	LDI ZL,$3C
005BC8  E3F7    	LDI ZH,$37
005BC9  E060    	LDI R22,$00
005BCA  93E0    	STS $076B,ZL
005BCB  076B
005BCC  93F0    	STS $076C,ZH
005BCD  076C
005BCE  9360    	STS $076D,R22
005BCF  076D
005BD0  9370    	STS $076E,R23
005BD1  076E
005BD2  E7EC    	LDI ZL,$7C
005BD3  E3F7    	LDI ZH,$37
005BD4  E060    	LDI R22,$00
005BD5  93E0    	STS $076F,ZL
005BD6  076F
005BD7  93F0    	STS $0770,ZH
005BD8  0770
005BD9  9360    	STS $0771,R22
005BDA  0771
005BDB  9370    	STS $0772,R23
005BDC  0772
005BDD  EAEC    	LDI ZL,$AC
005BDE  E3F6    	LDI ZH,$36
005BDF  E060    	LDI R22,$00
005BE0  93E0    	STS $0773,ZL
005BE1  0773
005BE2  93F0    	STS $0774,ZH
005BE3  0774
005BE4  9360    	STS $0775,R22
005BE5  0775
005BE6  9370    	STS $0776,R23
005BE7  0776
005BE8  EBEC    	LDI ZL,$BC
005BE9  E3F6    	LDI ZH,$36
005BEA  E060    	LDI R22,$00
005BEB  93E0    	STS $0777,ZL
005BEC  0777
005BED  93F0    	STS $0778,ZH
005BEE  0778
005BEF  9360    	STS $0779,R22
005BF0  0779
005BF1  9370    	STS $077A,R23
005BF2  077A
005BF3  ECEC    	LDI ZL,$CC
005BF4  E3F6    	LDI ZH,$36
005BF5  E060    	LDI R22,$00
005BF6  93E0    	STS $077B,ZL
005BF7  077B
005BF8  93F0    	STS $077C,ZH
005BF9  077C
005BFA  9360    	STS $077D,R22
005BFB  077D
005BFC  9370    	STS $077E,R23
005BFD  077E
005BFE  EDEC    	LDI ZL,$DC
005BFF  E3F6    	LDI ZH,$36
005C00  E060    	LDI R22,$00
005C01  93E0    	STS $077F,ZL
005C02  077F
005C03  93F0    	STS $0780,ZH
005C04  0780
005C05  9360    	STS $0781,R22
005C06  0781
005C07  9370    	STS $0782,R23
005C08  0782
005C09  EEE4    	LDI ZL,$E4
005C0A  E3F6    	LDI ZH,$36
005C0B  E060    	LDI R22,$00
005C0C  93E0    	STS $0783,ZL
005C0D  0783
005C0E  93F0    	STS $0784,ZH
005C0F  0784
005C10  9360    	STS $0785,R22
005C11  0785
005C12  9370    	STS $0786,R23
005C13  0786
005C14  EEEC    	LDI ZL,$EC
005C15  E3F6    	LDI ZH,$36
005C16  E060    	LDI R22,$00
005C17  93E0    	STS $0787,ZL
005C18  0787
005C19  93F0    	STS $0788,ZH
005C1A  0788
005C1B  9360    	STS $0789,R22
005C1C  0789
005C1D  9370    	STS $078A,R23
005C1E  078A
005C1F  E0E4    	LDI ZL,$04
005C20  E0F0    	LDI ZH,$00
005C21  93E0    	STS $0793,ZL
005C22  0793
005C23  93F0    	STS $0794,ZH
005C24  0794
005C25  E1E0    	LDI ZL,$10
005C26  E0F0    	LDI ZH,$00
005C27  93E0    	STS $0795,ZL
005C28  0795
005C29  93F0    	STS $0796,ZH
005C2A  0796
005C2B  C0EC    	RJMP L1227
005C2C  30EA    L1241:	CPI ZL,$0A
005C2D  F011    	BREQ L1242
005C2E  940C    	JMP L1243
005C2F  5C99
005C30  E0ED    L1242:	LDI ZL,$0D
005C31  93EA    	ST -Y,ZL
005C32  940E    	CALL L977
005C33  4106
005C34  E5E8    	LDI ZL,$58
005C35  E2FB    	LDI ZH,$2B
005C36  E060    	LDI R22,$00
005C37  93E0    	STS $076B,ZL
005C38  076B
005C39  93F0    	STS $076C,ZH
005C3A  076C
005C3B  9360    	STS $076D,R22
005C3C  076D
005C3D  9370    	STS $076E,R23
005C3E  076E
005C3F  EFE8    	LDI ZL,$F8
005C40  E2FD    	LDI ZH,$2D
005C41  E060    	LDI R22,$00
005C42  93E0    	STS $076F,ZL
005C43  076F
005C44  93F0    	STS $0770,ZH
005C45  0770
005C46  9360    	STS $0771,R22
005C47  0771
005C48  9370    	STS $0772,R23
005C49  0772
005C4A  EDE0    	LDI ZL,$D0
005C4B  E2F7    	LDI ZH,$27
005C4C  E060    	LDI R22,$00
005C4D  93E0    	STS $0773,ZL
005C4E  0773
005C4F  93F0    	STS $0774,ZH
005C50  0774
005C51  9360    	STS $0775,R22
005C52  0775
005C53  9370    	STS $0776,R23
005C54  0776
005C55  EEE0    	LDI ZL,$E0
005C56  E2F7    	LDI ZH,$27
005C57  E060    	LDI R22,$00
005C58  93E0    	STS $0777,ZL
005C59  0777
005C5A  93F0    	STS $0778,ZH
005C5B  0778
005C5C  9360    	STS $0779,R22
005C5D  0779
005C5E  9370    	STS $077A,R23
005C5F  077A
005C60  EFE0    	LDI ZL,$F0
005C61  E2F7    	LDI ZH,$27
005C62  E060    	LDI R22,$00
005C63  93E0    	STS $077B,ZL
005C64  077B
005C65  93F0    	STS $077C,ZH
005C66  077C
005C67  9360    	STS $077D,R22
005C68  077D
005C69  9370    	STS $077E,R23
005C6A  077E
005C6B  E0E0    	LDI ZL,$00
005C6C  E2F8    	LDI ZH,$28
005C6D  E060    	LDI R22,$00
005C6E  93E0    	STS $077F,ZL
005C6F  077F
005C70  93F0    	STS $0780,ZH
005C71  0780
005C72  9360    	STS $0781,R22
005C73  0781
005C74  9370    	STS $0782,R23
005C75  0782
005C76  E5E4    	LDI ZL,$54
005C77  E2F8    	LDI ZH,$28
005C78  E060    	LDI R22,$00
005C79  93E0    	STS $0783,ZL
005C7A  0783
005C7B  93F0    	STS $0784,ZH
005C7C  0784
005C7D  9360    	STS $0785,R22
005C7E  0785
005C7F  9370    	STS $0786,R23
005C80  0786
005C81  EAE8    	LDI ZL,$A8
005C82  E2F8    	LDI ZH,$28
005C83  E060    	LDI R22,$00
005C84  93E0    	STS $0787,ZL
005C85  0787
005C86  93F0    	STS $0788,ZH
005C87  0788
005C88  9360    	STS $0789,R22
005C89  0789
005C8A  9370    	STS $078A,R23
005C8B  078A
005C8C  E2EA    	LDI ZL,$2A
005C8D  E0F0    	LDI ZH,$00
005C8E  93E0    	STS $0793,ZL
005C8F  0793
005C90  93F0    	STS $0794,ZH
005C91  0794
005C92  E1E0    	LDI ZL,$10
005C93  E0F0    	LDI ZH,$00
005C94  93E0    	STS $0795,ZL
005C95  0795
005C96  93F0    	STS $0796,ZH
005C97  0796
005C98  C07F    	RJMP L1227
005C99  30EB    L1243:	CPI ZL,$0B
005C9A  F011    	BREQ L1244
005C9B  940C    	JMP L1245
005C9C  5D06
005C9D  E0ED    L1244:	LDI ZL,$0D
005C9E  93EA    	ST -Y,ZL
005C9F  940E    	CALL L977
005CA0  4106
005CA1  E4EC    	LDI ZL,$4C
005CA2  E3F8    	LDI ZH,$38
005CA3  E060    	LDI R22,$00
005CA4  93E0    	STS $076B,ZL
005CA5  076B
005CA6  93F0    	STS $076C,ZH
005CA7  076C
005CA8  9360    	STS $076D,R22
005CA9  076D
005CAA  9370    	STS $076E,R23
005CAB  076E
005CAC  E8EC    	LDI ZL,$8C
005CAD  E3F8    	LDI ZH,$38
005CAE  E060    	LDI R22,$00
005CAF  93E0    	STS $076F,ZL
005CB0  076F
005CB1  93F0    	STS $0770,ZH
005CB2  0770
005CB3  9360    	STS $0771,R22
005CB4  0771
005CB5  9370    	STS $0772,R23
005CB6  0772
005CB7  EBEC    	LDI ZL,$BC
005CB8  E3F7    	LDI ZH,$37
005CB9  E060    	LDI R22,$00
005CBA  93E0    	STS $0773,ZL
005CBB  0773
005CBC  93F0    	STS $0774,ZH
005CBD  0774
005CBE  9360    	STS $0775,R22
005CBF  0775
005CC0  9370    	STS $0776,R23
005CC1  0776
005CC2  ECEC    	LDI ZL,$CC
005CC3  E3F7    	LDI ZH,$37
005CC4  E060    	LDI R22,$00
005CC5  93E0    	STS $0777,ZL
005CC6  0777
005CC7  93F0    	STS $0778,ZH
005CC8  0778
005CC9  9360    	STS $0779,R22
005CCA  0779
005CCB  9370    	STS $077A,R23
005CCC  077A
005CCD  EDEC    	LDI ZL,$DC
005CCE  E3F7    	LDI ZH,$37
005CCF  E060    	LDI R22,$00
005CD0  93E0    	STS $077B,ZL
005CD1  077B
005CD2  93F0    	STS $077C,ZH
005CD3  077C
005CD4  9360    	STS $077D,R22
005CD5  077D
005CD6  9370    	STS $077E,R23
005CD7  077E
005CD8  EEEC    	LDI ZL,$EC
005CD9  E3F7    	LDI ZH,$37
005CDA  E060    	LDI R22,$00
005CDB  93E0    	STS $077F,ZL
005CDC  077F
005CDD  93F0    	STS $0780,ZH
005CDE  0780
005CDF  9360    	STS $0781,R22
005CE0  0781
005CE1  9370    	STS $0782,R23
005CE2  0782
005CE3  EFE4    	LDI ZL,$F4
005CE4  E3F7    	LDI ZH,$37
005CE5  E060    	LDI R22,$00
005CE6  93E0    	STS $0783,ZL
005CE7  0783
005CE8  93F0    	STS $0784,ZH
005CE9  0784
005CEA  9360    	STS $0785,R22
005CEB  0785
005CEC  9370    	STS $0786,R23
005CED  0786
005CEE  EFEC    	LDI ZL,$FC
005CEF  E3F7    	LDI ZH,$37
005CF0  E060    	LDI R22,$00
005CF1  93E0    	STS $0787,ZL
005CF2  0787
005CF3  93F0    	STS $0788,ZH
005CF4  0788
005CF5  9360    	STS $0789,R22
005CF6  0789
005CF7  9370    	STS $078A,R23
005CF8  078A
005CF9  E0E4    	LDI ZL,$04
005CFA  E0F0    	LDI ZH,$00
005CFB  93E0    	STS $0793,ZL
005CFC  0793
005CFD  93F0    	STS $0794,ZH
005CFE  0794
005CFF  E1E0    	LDI ZL,$10
005D00  E0F0    	LDI ZH,$00
005D01  93E0    	STS $0795,ZL
005D02  0795
005D03  93F0    	STS $0796,ZH
005D04  0796
005D05  C012    	RJMP L1227
005D06  81A8    L1245:	LD XL,Y
005D07  31A6    	CPI XL,$16
005D08  F418    	BRCC L1246
005D09  81E8    	LD ZL,Y
005D0A  50EB    	SUBI ZL,$0B
005D0B  C008    	RJMP L1247
005D0C  81A8    L1246:	LD XL,Y
005D0D  32A1    	CPI XL,$21
005D0E  F010    	BRCS L1248
005D0F  32AB    	CPI XL,$2B
005D10  F008    	BRCS L1249
005D11  C005    L1248:	RJMP L1250
005D12  81E8    L1249:	LD ZL,Y
005D13  51E6    	SUBI ZL,$16
005D14  93EA    L1247:	ST -Y,ZL
005D15  940E    	CALL L1221
005D16  4BCC
005D17  C474    L1250:	RJMP L1251
005D18  C46F    L1227:	RJMP L1222
005D19  E0E3    L1224:	LDI ZL,$03
005D1A  15EC    	CP ZL,R12
005D1B  F011    	BREQ L1252
005D1C  940C    	JMP L1253
005D1D  6174
005D1E  81E8    L1252:	LD ZL,Y
005D1F  30E1    	CPI ZL,$01
005D20  F011    	BREQ L1254
005D21  940C    	JMP L1255
005D22  5D8C
005D23  E0EC    L1254:	LDI ZL,$0C
005D24  93EA    	ST -Y,ZL
005D25  940E    	CALL L977
005D26  4106
005D27  E7E0    	LDI ZL,$70
005D28  E5F5    	LDI ZH,$55
005D29  E060    	LDI R22,$00
005D2A  93E0    	STS $076B,ZL
005D2B  076B
005D2C  93F0    	STS $076C,ZH
005D2D  076C
005D2E  9360    	STS $076D,R22
005D2F  076D
005D30  9370    	STS $076E,R23
005D31  076E
005D32  ECE0    	LDI ZL,$C0
005D33  E5F5    	LDI ZH,$55
005D34  E060    	LDI R22,$00
005D35  93E0    	STS $076F,ZL
005D36  076F
005D37  93F0    	STS $0770,ZH
005D38  0770
005D39  9360    	STS $0771,R22
005D3A  0771
005D3B  9370    	STS $0772,R23
005D3C  0772
005D3D  ECEC    	LDI ZL,$CC
005D3E  E5F4    	LDI ZH,$54
005D3F  E060    	LDI R22,$00
005D40  93E0    	STS $0773,ZL
005D41  0773
005D42  93F0    	STS $0774,ZH
005D43  0774
005D44  9360    	STS $0775,R22
005D45  0775
005D46  9370    	STS $0776,R23
005D47  0776
005D48  EDEC    	LDI ZL,$DC
005D49  E5F4    	LDI ZH,$54
005D4A  E060    	LDI R22,$00
005D4B  93E0    	STS $0777,ZL
005D4C  0777
005D4D  93F0    	STS $0778,ZH
005D4E  0778
005D4F  9360    	STS $0779,R22
005D50  0779
005D51  9370    	STS $077A,R23
005D52  077A
005D53  EEEC    	LDI ZL,$EC
005D54  E5F4    	LDI ZH,$54
005D55  E060    	LDI R22,$00
005D56  93E0    	STS $077B,ZL
005D57  077B
005D58  93F0    	STS $077C,ZH
005D59  077C
005D5A  9360    	STS $077D,R22
005D5B  077D
005D5C  9370    	STS $077E,R23
005D5D  077E
005D5E  EFEC    	LDI ZL,$FC
005D5F  E5F4    	LDI ZH,$54
005D60  E060    	LDI R22,$00
005D61  93E0    	STS $077F,ZL
005D62  077F
005D63  93F0    	STS $0780,ZH
005D64  0780
005D65  9360    	STS $0781,R22
005D66  0781
005D67  9370    	STS $0782,R23
005D68  0782
005D69  E0E6    	LDI ZL,$06
005D6A  E5F5    	LDI ZH,$55
005D6B  E060    	LDI R22,$00
005D6C  93E0    	STS $0783,ZL
005D6D  0783
005D6E  93F0    	STS $0784,ZH
005D6F  0784
005D70  9360    	STS $0785,R22
005D71  0785
005D72  9370    	STS $0786,R23
005D73  0786
005D74  E1E0    	LDI ZL,$10
005D75  E5F5    	LDI ZH,$55
005D76  E060    	LDI R22,$00
005D77  93E0    	STS $0787,ZL
005D78  0787
005D79  93F0    	STS $0788,ZH
005D7A  0788
005D7B  9360    	STS $0789,R22
005D7C  0789
005D7D  9370    	STS $078A,R23
005D7E  078A
005D7F  E0E5    	LDI ZL,$05
005D80  E0F0    	LDI ZH,$00
005D81  93E0    	STS $0793,ZL
005D82  0793
005D83  93F0    	STS $0794,ZH
005D84  0794
005D85  E1E0    	LDI ZL,$10
005D86  E0F0    	LDI ZH,$00
005D87  93E0    	STS $0795,ZL
005D88  0795
005D89  93F0    	STS $0796,ZH
005D8A  0796
005D8B  C3E7    	RJMP L1256
005D8C  30E2    L1255:	CPI ZL,$02
005D8D  F011    	BREQ L1257
005D8E  940C    	JMP L1258
005D8F  5DF9
005D90  E0EC    L1257:	LDI ZL,$0C
005D91  93EA    	ST -Y,ZL
005D92  940E    	CALL L977
005D93  4106
005D94  E2EC    	LDI ZL,$2C
005D95  E5F4    	LDI ZH,$54
005D96  E060    	LDI R22,$00
005D97  93E0    	STS $076B,ZL
005D98  076B
005D99  93F0    	STS $076C,ZH
005D9A  076C
005D9B  9360    	STS $076D,R22
005D9C  076D
005D9D  9370    	STS $076E,R23
005D9E  076E
005D9F  E7EC    	LDI ZL,$7C
005DA0  E5F4    	LDI ZH,$54
005DA1  E060    	LDI R22,$00
005DA2  93E0    	STS $076F,ZL
005DA3  076F
005DA4  93F0    	STS $0770,ZH
005DA5  0770
005DA6  9360    	STS $0771,R22
005DA7  0771
005DA8  9370    	STS $0772,R23
005DA9  0772
005DAA  E8E8    	LDI ZL,$88
005DAB  E5F3    	LDI ZH,$53
005DAC  E060    	LDI R22,$00
005DAD  93E0    	STS $0773,ZL
005DAE  0773
005DAF  93F0    	STS $0774,ZH
005DB0  0774
005DB1  9360    	STS $0775,R22
005DB2  0775
005DB3  9370    	STS $0776,R23
005DB4  0776
005DB5  E9E8    	LDI ZL,$98
005DB6  E5F3    	LDI ZH,$53
005DB7  E060    	LDI R22,$00
005DB8  93E0    	STS $0777,ZL
005DB9  0777
005DBA  93F0    	STS $0778,ZH
005DBB  0778
005DBC  9360    	STS $0779,R22
005DBD  0779
005DBE  9370    	STS $077A,R23
005DBF  077A
005DC0  EAE8    	LDI ZL,$A8
005DC1  E5F3    	LDI ZH,$53
005DC2  E060    	LDI R22,$00
005DC3  93E0    	STS $077B,ZL
005DC4  077B
005DC5  93F0    	STS $077C,ZH
005DC6  077C
005DC7  9360    	STS $077D,R22
005DC8  077D
005DC9  9370    	STS $077E,R23
005DCA  077E
005DCB  EBE8    	LDI ZL,$B8
005DCC  E5F3    	LDI ZH,$53
005DCD  E060    	LDI R22,$00
005DCE  93E0    	STS $077F,ZL
005DCF  077F
005DD0  93F0    	STS $0780,ZH
005DD1  0780
005DD2  9360    	STS $0781,R22
005DD3  0781
005DD4  9370    	STS $0782,R23
005DD5  0782
005DD6  ECE2    	LDI ZL,$C2
005DD7  E5F3    	LDI ZH,$53
005DD8  E060    	LDI R22,$00
005DD9  93E0    	STS $0783,ZL
005DDA  0783
005DDB  93F0    	STS $0784,ZH
005DDC  0784
005DDD  9360    	STS $0785,R22
005DDE  0785
005DDF  9370    	STS $0786,R23
005DE0  0786
005DE1  ECEC    	LDI ZL,$CC
005DE2  E5F3    	LDI ZH,$53
005DE3  E060    	LDI R22,$00
005DE4  93E0    	STS $0787,ZL
005DE5  0787
005DE6  93F0    	STS $0788,ZH
005DE7  0788
005DE8  9360    	STS $0789,R22
005DE9  0789
005DEA  9370    	STS $078A,R23
005DEB  078A
005DEC  E0E5    	LDI ZL,$05
005DED  E0F0    	LDI ZH,$00
005DEE  93E0    	STS $0793,ZL
005DEF  0793
005DF0  93F0    	STS $0794,ZH
005DF1  0794
005DF2  E1E0    	LDI ZL,$10
005DF3  E0F0    	LDI ZH,$00
005DF4  93E0    	STS $0795,ZL
005DF5  0795
005DF6  93F0    	STS $0796,ZH
005DF7  0796
005DF8  C37A    	RJMP L1256
005DF9  30E3    L1258:	CPI ZL,$03
005DFA  F011    	BREQ L1259
005DFB  940C    	JMP L1260
005DFC  5E66
005DFD  E0EB    L1259:	LDI ZL,$0B
005DFE  93EA    	ST -Y,ZL
005DFF  940E    	CALL L977
005E00  4106
005E01  E0E0    	LDI ZL,$00
005E02  E5F0    	LDI ZH,$50
005E03  E060    	LDI R22,$00
005E04  93E0    	STS $076B,ZL
005E05  076B
005E06  93F0    	STS $076C,ZH
005E07  076C
005E08  9360    	STS $076D,R22
005E09  076D
005E0A  9370    	STS $076E,R23
005E0B  076E
005E0C  EAE0    	LDI ZL,$A0
005E0D  E5F0    	LDI ZH,$50
005E0E  E060    	LDI R22,$00
005E0F  93E0    	STS $076F,ZL
005E10  076F
005E11  93F0    	STS $0770,ZH
005E12  0770
005E13  9360    	STS $0771,R22
005E14  0771
005E15  9370    	STS $0772,R23
005E16  0772
005E17  EFE8    	LDI ZL,$F8
005E18  E4FE    	LDI ZH,$4E
005E19  E060    	LDI R22,$00
005E1A  93E0    	STS $0773,ZL
005E1B  0773
005E1C  93F0    	STS $0774,ZH
005E1D  0774
005E1E  9360    	STS $0775,R22
005E1F  0775
005E20  9370    	STS $0776,R23
005E21  0776
005E22  E0E8    	LDI ZL,$08
005E23  E4FF    	LDI ZH,$4F
005E24  E060    	LDI R22,$00
005E25  93E0    	STS $0777,ZL
005E26  0777
005E27  93F0    	STS $0778,ZH
005E28  0778
005E29  9360    	STS $0779,R22
005E2A  0779
005E2B  9370    	STS $077A,R23
005E2C  077A
005E2D  E1E8    	LDI ZL,$18
005E2E  E4FF    	LDI ZH,$4F
005E2F  E060    	LDI R22,$00
005E30  93E0    	STS $077B,ZL
005E31  077B
005E32  93F0    	STS $077C,ZH
005E33  077C
005E34  9360    	STS $077D,R22
005E35  077D
005E36  9370    	STS $077E,R23
005E37  077E
005E38  E2E8    	LDI ZL,$28
005E39  E4FF    	LDI ZH,$4F
005E3A  E060    	LDI R22,$00
005E3B  93E0    	STS $077F,ZL
005E3C  077F
005E3D  93F0    	STS $0780,ZH
005E3E  0780
005E3F  9360    	STS $0781,R22
005E40  0781
005E41  9370    	STS $0782,R23
005E42  0782
005E43  E3EC    	LDI ZL,$3C
005E44  E4FF    	LDI ZH,$4F
005E45  E060    	LDI R22,$00
005E46  93E0    	STS $0783,ZL
005E47  0783
005E48  93F0    	STS $0784,ZH
005E49  0784
005E4A  9360    	STS $0785,R22
005E4B  0785
005E4C  9370    	STS $0786,R23
005E4D  0786
005E4E  E5E0    	LDI ZL,$50
005E4F  E4FF    	LDI ZH,$4F
005E50  E060    	LDI R22,$00
005E51  93E0    	STS $0787,ZL
005E52  0787
005E53  93F0    	STS $0788,ZH
005E54  0788
005E55  9360    	STS $0789,R22
005E56  0789
005E57  9370    	STS $078A,R23
005E58  078A
005E59  E0EA    	LDI ZL,$0A
005E5A  E0F0    	LDI ZH,$00
005E5B  93E0    	STS $0793,ZL
005E5C  0793
005E5D  93F0    	STS $0794,ZH
005E5E  0794
005E5F  E1E0    	LDI ZL,$10
005E60  E0F0    	LDI ZH,$00
005E61  93E0    	STS $0795,ZL
005E62  0795
005E63  93F0    	STS $0796,ZH
005E64  0796
005E65  C30D    	RJMP L1256
005E66  30E4    L1260:	CPI ZL,$04
005E67  F011    	BREQ L1261
005E68  940C    	JMP L1262
005E69  5ED3
005E6A  E0EA    L1261:	LDI ZL,$0A
005E6B  93EA    	ST -Y,ZL
005E6C  940E    	CALL L977
005E6D  4106
005E6E  EFE8    	LDI ZL,$F8
005E6F  E3FF    	LDI ZH,$3F
005E70  E060    	LDI R22,$00
005E71  93E0    	STS $076B,ZL
005E72  076B
005E73  93F0    	STS $076C,ZH
005E74  076C
005E75  9360    	STS $076D,R22
005E76  076D
005E77  9370    	STS $076E,R23
005E78  076E
005E79  E2E8    	LDI ZL,$28
005E7A  E4F3    	LDI ZH,$43
005E7B  E060    	LDI R22,$00
005E7C  93E0    	STS $076F,ZL
005E7D  076F
005E7E  93F0    	STS $0770,ZH
005E7F  0770
005E80  9360    	STS $0771,R22
005E81  0771
005E82  9370    	STS $0772,R23
005E83  0772
005E84  EBEC    	LDI ZL,$BC
005E85  E3FB    	LDI ZH,$3B
005E86  E060    	LDI R22,$00
005E87  93E0    	STS $0773,ZL
005E88  0773
005E89  93F0    	STS $0774,ZH
005E8A  0774
005E8B  9360    	STS $0775,R22
005E8C  0775
005E8D  9370    	STS $0776,R23
005E8E  0776
005E8F  ECEC    	LDI ZL,$CC
005E90  E3FB    	LDI ZH,$3B
005E91  E060    	LDI R22,$00
005E92  93E0    	STS $0777,ZL
005E93  0777
005E94  93F0    	STS $0778,ZH
005E95  0778
005E96  9360    	STS $0779,R22
005E97  0779
005E98  9370    	STS $077A,R23
005E99  077A
005E9A  EDEC    	LDI ZL,$DC
005E9B  E3FB    	LDI ZH,$3B
005E9C  E060    	LDI R22,$00
005E9D  93E0    	STS $077B,ZL
005E9E  077B
005E9F  93F0    	STS $077C,ZH
005EA0  077C
005EA1  9360    	STS $077D,R22
005EA2  077D
005EA3  9370    	STS $077E,R23
005EA4  077E
005EA5  EEEC    	LDI ZL,$EC
005EA6  E3FB    	LDI ZH,$3B
005EA7  E060    	LDI R22,$00
005EA8  93E0    	STS $077F,ZL
005EA9  077F
005EAA  93F0    	STS $0780,ZH
005EAB  0780
005EAC  9360    	STS $0781,R22
005EAD  0781
005EAE  9370    	STS $0782,R23
005EAF  0782
005EB0  E5E2    	LDI ZL,$52
005EB1  E3FC    	LDI ZH,$3C
005EB2  E060    	LDI R22,$00
005EB3  93E0    	STS $0783,ZL
005EB4  0783
005EB5  93F0    	STS $0784,ZH
005EB6  0784
005EB7  9360    	STS $0785,R22
005EB8  0785
005EB9  9370    	STS $0786,R23
005EBA  0786
005EBB  EBE8    	LDI ZL,$B8
005EBC  E3FC    	LDI ZH,$3C
005EBD  E060    	LDI R22,$00
005EBE  93E0    	STS $0787,ZL
005EBF  0787
005EC0  93F0    	STS $0788,ZH
005EC1  0788
005EC2  9360    	STS $0789,R22
005EC3  0789
005EC4  9370    	STS $078A,R23
005EC5  078A
005EC6  E3E3    	LDI ZL,$33
005EC7  E0F0    	LDI ZH,$00
005EC8  93E0    	STS $0793,ZL
005EC9  0793
005ECA  93F0    	STS $0794,ZH
005ECB  0794
005ECC  E1E0    	LDI ZL,$10
005ECD  E0F0    	LDI ZH,$00
005ECE  93E0    	STS $0795,ZL
005ECF  0795
005ED0  93F0    	STS $0796,ZH
005ED1  0796
005ED2  C2A0    	RJMP L1256
005ED3  30E5    L1262:	CPI ZL,$05
005ED4  F011    	BREQ L1263
005ED5  940C    	JMP L1264
005ED6  5F40
005ED7  E0EB    L1263:	LDI ZL,$0B
005ED8  93EA    	ST -Y,ZL
005ED9  940E    	CALL L977
005EDA  4106
005EDB  E4E8    	LDI ZL,$48
005EDC  E5F2    	LDI ZH,$52
005EDD  E060    	LDI R22,$00
005EDE  93E0    	STS $076B,ZL
005EDF  076B
005EE0  93F0    	STS $076C,ZH
005EE1  076C
005EE2  9360    	STS $076D,R22
005EE3  076D
005EE4  9370    	STS $076E,R23
005EE5  076E
005EE6  EEE8    	LDI ZL,$E8
005EE7  E5F2    	LDI ZH,$52
005EE8  E060    	LDI R22,$00
005EE9  93E0    	STS $076F,ZL
005EEA  076F
005EEB  93F0    	STS $0770,ZH
005EEC  0770
005EED  9360    	STS $0771,R22
005EEE  0771
005EEF  9370    	STS $0772,R23
005EF0  0772
005EF1  E4E0    	LDI ZL,$40
005EF2  E5F1    	LDI ZH,$51
005EF3  E060    	LDI R22,$00
005EF4  93E0    	STS $0773,ZL
005EF5  0773
005EF6  93F0    	STS $0774,ZH
005EF7  0774
005EF8  9360    	STS $0775,R22
005EF9  0775
005EFA  9370    	STS $0776,R23
005EFB  0776
005EFC  E5E0    	LDI ZL,$50
005EFD  E5F1    	LDI ZH,$51
005EFE  E060    	LDI R22,$00
005EFF  93E0    	STS $0777,ZL
005F00  0777
005F01  93F0    	STS $0778,ZH
005F02  0778
005F03  9360    	STS $0779,R22
005F04  0779
005F05  9370    	STS $077A,R23
005F06  077A
005F07  E6E0    	LDI ZL,$60
005F08  E5F1    	LDI ZH,$51
005F09  E060    	LDI R22,$00
005F0A  93E0    	STS $077B,ZL
005F0B  077B
005F0C  93F0    	STS $077C,ZH
005F0D  077C
005F0E  9360    	STS $077D,R22
005F0F  077D
005F10  9370    	STS $077E,R23
005F11  077E
005F12  E7E0    	LDI ZL,$70
005F13  E5F1    	LDI ZH,$51
005F14  E060    	LDI R22,$00
005F15  93E0    	STS $077F,ZL
005F16  077F
005F17  93F0    	STS $0780,ZH
005F18  0780
005F19  9360    	STS $0781,R22
005F1A  0781
005F1B  9370    	STS $0782,R23
005F1C  0782
005F1D  E8E4    	LDI ZL,$84
005F1E  E5F1    	LDI ZH,$51
005F1F  E060    	LDI R22,$00
005F20  93E0    	STS $0783,ZL
005F21  0783
005F22  93F0    	STS $0784,ZH
005F23  0784
005F24  9360    	STS $0785,R22
005F25  0785
005F26  9370    	STS $0786,R23
005F27  0786
005F28  E9E8    	LDI ZL,$98
005F29  E5F1    	LDI ZH,$51
005F2A  E060    	LDI R22,$00
005F2B  93E0    	STS $0787,ZL
005F2C  0787
005F2D  93F0    	STS $0788,ZH
005F2E  0788
005F2F  9360    	STS $0789,R22
005F30  0789
005F31  9370    	STS $078A,R23
005F32  078A
005F33  E0EA    	LDI ZL,$0A
005F34  E0F0    	LDI ZH,$00
005F35  93E0    	STS $0793,ZL
005F36  0793
005F37  93F0    	STS $0794,ZH
005F38  0794
005F39  E1E0    	LDI ZL,$10
005F3A  E0F0    	LDI ZH,$00
005F3B  93E0    	STS $0795,ZL
005F3C  0795
005F3D  93F0    	STS $0796,ZH
005F3E  0796
005F3F  C233    	RJMP L1256
005F40  30E6    L1264:	CPI ZL,$06
005F41  F011    	BREQ L1265
005F42  940C    	JMP L1266
005F43  5FAD
005F44  E0EB    L1265:	LDI ZL,$0B
005F45  93EA    	ST -Y,ZL
005F46  940E    	CALL L977
005F47  4106
005F48  E2E8    	LDI ZL,$28
005F49  E4F8    	LDI ZH,$48
005F4A  E060    	LDI R22,$00
005F4B  93E0    	STS $076B,ZL
005F4C  076B
005F4D  93F0    	STS $076C,ZH
005F4E  076C
005F4F  9360    	STS $076D,R22
005F50  076D
005F51  9370    	STS $076E,R23
005F52  076E
005F53  E6E8    	LDI ZL,$68
005F54  E4F9    	LDI ZH,$49
005F55  E060    	LDI R22,$00
005F56  93E0    	STS $076F,ZL
005F57  076F
005F58  93F0    	STS $0770,ZH
005F59  0770
005F5A  9360    	STS $0771,R22
005F5B  0771
005F5C  9370    	STS $0772,R23
005F5D  0772
005F5E  E5E8    	LDI ZL,$58
005F5F  E4F6    	LDI ZH,$46
005F60  E060    	LDI R22,$00
005F61  93E0    	STS $0773,ZL
005F62  0773
005F63  93F0    	STS $0774,ZH
005F64  0774
005F65  9360    	STS $0775,R22
005F66  0775
005F67  9370    	STS $0776,R23
005F68  0776
005F69  E6E8    	LDI ZL,$68
005F6A  E4F6    	LDI ZH,$46
005F6B  E060    	LDI R22,$00
005F6C  93E0    	STS $0777,ZL
005F6D  0777
005F6E  93F0    	STS $0778,ZH
005F6F  0778
005F70  9360    	STS $0779,R22
005F71  0779
005F72  9370    	STS $077A,R23
005F73  077A
005F74  E7E8    	LDI ZL,$78
005F75  E4F6    	LDI ZH,$46
005F76  E060    	LDI R22,$00
005F77  93E0    	STS $077B,ZL
005F78  077B
005F79  93F0    	STS $077C,ZH
005F7A  077C
005F7B  9360    	STS $077D,R22
005F7C  077D
005F7D  9370    	STS $077E,R23
005F7E  077E
005F7F  E8E8    	LDI ZL,$88
005F80  E4F6    	LDI ZH,$46
005F81  E060    	LDI R22,$00
005F82  93E0    	STS $077F,ZL
005F83  077F
005F84  93F0    	STS $0780,ZH
005F85  0780
005F86  9360    	STS $0781,R22
005F87  0781
005F88  9370    	STS $0782,R23
005F89  0782
005F8A  EBE0    	LDI ZL,$B0
005F8B  E4F6    	LDI ZH,$46
005F8C  E060    	LDI R22,$00
005F8D  93E0    	STS $0783,ZL
005F8E  0783
005F8F  93F0    	STS $0784,ZH
005F90  0784
005F91  9360    	STS $0785,R22
005F92  0785
005F93  9370    	STS $0786,R23
005F94  0786
005F95  EDE8    	LDI ZL,$D8
005F96  E4F6    	LDI ZH,$46
005F97  E060    	LDI R22,$00
005F98  93E0    	STS $0787,ZL
005F99  0787
005F9A  93F0    	STS $0788,ZH
005F9B  0788
005F9C  9360    	STS $0789,R22
005F9D  0789
005F9E  9370    	STS $078A,R23
005F9F  078A
005FA0  E1E4    	LDI ZL,$14
005FA1  E0F0    	LDI ZH,$00
005FA2  93E0    	STS $0793,ZL
005FA3  0793
005FA4  93F0    	STS $0794,ZH
005FA5  0794
005FA6  E1E0    	LDI ZL,$10
005FA7  E0F0    	LDI ZH,$00
005FA8  93E0    	STS $0795,ZL
005FA9  0795
005FAA  93F0    	STS $0796,ZH
005FAB  0796
005FAC  C1C6    	RJMP L1256
005FAD  30E8    L1266:	CPI ZL,$08
005FAE  F011    	BREQ L1267
005FAF  940C    	JMP L1268
005FB0  601A
005FB1  E0EB    L1267:	LDI ZL,$0B
005FB2  93EA    	ST -Y,ZL
005FB3  940E    	CALL L977
005FB4  4106
005FB5  E7E8    	LDI ZL,$78
005FB6  E4FC    	LDI ZH,$4C
005FB7  E060    	LDI R22,$00
005FB8  93E0    	STS $076B,ZL
005FB9  076B
005FBA  93F0    	STS $076C,ZH
005FBB  076C
005FBC  9360    	STS $076D,R22
005FBD  076D
005FBE  9370    	STS $076E,R23
005FBF  076E
005FC0  EBE8    	LDI ZL,$B8
005FC1  E4FD    	LDI ZH,$4D
005FC2  E060    	LDI R22,$00
005FC3  93E0    	STS $076F,ZL
005FC4  076F
005FC5  93F0    	STS $0770,ZH
005FC6  0770
005FC7  9360    	STS $0771,R22
005FC8  0771
005FC9  9370    	STS $0772,R23
005FCA  0772
005FCB  EAE8    	LDI ZL,$A8
005FCC  E4FA    	LDI ZH,$4A
005FCD  E060    	LDI R22,$00
005FCE  93E0    	STS $0773,ZL
005FCF  0773
005FD0  93F0    	STS $0774,ZH
005FD1  0774
005FD2  9360    	STS $0775,R22
005FD3  0775
005FD4  9370    	STS $0776,R23
005FD5  0776
005FD6  EBE8    	LDI ZL,$B8
005FD7  E4FA    	LDI ZH,$4A
005FD8  E060    	LDI R22,$00
005FD9  93E0    	STS $0777,ZL
005FDA  0777
005FDB  93F0    	STS $0778,ZH
005FDC  0778
005FDD  9360    	STS $0779,R22
005FDE  0779
005FDF  9370    	STS $077A,R23
005FE0  077A
005FE1  ECE8    	LDI ZL,$C8
005FE2  E4FA    	LDI ZH,$4A
005FE3  E060    	LDI R22,$00
005FE4  93E0    	STS $077B,ZL
005FE5  077B
005FE6  93F0    	STS $077C,ZH
005FE7  077C
005FE8  9360    	STS $077D,R22
005FE9  077D
005FEA  9370    	STS $077E,R23
005FEB  077E
005FEC  EDE8    	LDI ZL,$D8
005FED  E4FA    	LDI ZH,$4A
005FEE  E060    	LDI R22,$00
005FEF  93E0    	STS $077F,ZL
005FF0  077F
005FF1  93F0    	STS $0780,ZH
005FF2  0780
005FF3  9360    	STS $0781,R22
005FF4  0781
005FF5  9370    	STS $0782,R23
005FF6  0782
005FF7  E0E0    	LDI ZL,$00
005FF8  E4FB    	LDI ZH,$4B
005FF9  E060    	LDI R22,$00
005FFA  93E0    	STS $0783,ZL
005FFB  0783
005FFC  93F0    	STS $0784,ZH
005FFD  0784
005FFE  9360    	STS $0785,R22
005FFF  0785
006000  9370    	STS $0786,R23
006001  0786
006002  E2E8    	LDI ZL,$28
006003  E4FB    	LDI ZH,$4B
006004  E060    	LDI R22,$00
006005  93E0    	STS $0787,ZL
006006  0787
006007  93F0    	STS $0788,ZH
006008  0788
006009  9360    	STS $0789,R22
00600A  0789
00600B  9370    	STS $078A,R23
00600C  078A
00600D  E1E4    	LDI ZL,$14
00600E  E0F0    	LDI ZH,$00
00600F  93E0    	STS $0793,ZL
006010  0793
006011  93F0    	STS $0794,ZH
006012  0794
006013  E1E0    	LDI ZL,$10
006014  E0F0    	LDI ZH,$00
006015  93E0    	STS $0795,ZL
006016  0795
006017  93F0    	STS $0796,ZH
006018  0796
006019  C159    	RJMP L1256
00601A  30E9    L1268:	CPI ZL,$09
00601B  F011    	BREQ L1269
00601C  940C    	JMP L1270
00601D  6087
00601E  E0EB    L1269:	LDI ZL,$0B
00601F  93EA    	ST -Y,ZL
006020  940E    	CALL L977
006021  4106
006022  EFE0    	LDI ZL,$F0
006023  E5FA    	LDI ZH,$5A
006024  E060    	LDI R22,$00
006025  93E0    	STS $076B,ZL
006026  076B
006027  93F0    	STS $076C,ZH
006028  076C
006029  9360    	STS $076D,R22
00602A  076D
00602B  9370    	STS $076E,R23
00602C  076E
00602D  E3E0    	LDI ZL,$30
00602E  E5FB    	LDI ZH,$5B
00602F  E060    	LDI R22,$00
006030  93E0    	STS $076F,ZL
006031  076F
006032  93F0    	STS $0770,ZH
006033  0770
006034  9360    	STS $0771,R22
006035  0771
006036  9370    	STS $0772,R23
006037  0772
006038  E6E0    	LDI ZL,$60
006039  E5FA    	LDI ZH,$5A
00603A  E060    	LDI R22,$00
00603B  93E0    	STS $0773,ZL
00603C  0773
00603D  93F0    	STS $0774,ZH
00603E  0774
00603F  9360    	STS $0775,R22
006040  0775
006041  9370    	STS $0776,R23
006042  0776
006043  E7E0    	LDI ZL,$70
006044  E5FA    	LDI ZH,$5A
006045  E060    	LDI R22,$00
006046  93E0    	STS $0777,ZL
006047  0777
006048  93F0    	STS $0778,ZH
006049  0778
00604A  9360    	STS $0779,R22
00604B  0779
00604C  9370    	STS $077A,R23
00604D  077A
00604E  E8E0    	LDI ZL,$80
00604F  E5FA    	LDI ZH,$5A
006050  E060    	LDI R22,$00
006051  93E0    	STS $077B,ZL
006052  077B
006053  93F0    	STS $077C,ZH
006054  077C
006055  9360    	STS $077D,R22
006056  077D
006057  9370    	STS $077E,R23
006058  077E
006059  E9E0    	LDI ZL,$90
00605A  E5FA    	LDI ZH,$5A
00605B  E060    	LDI R22,$00
00605C  93E0    	STS $077F,ZL
00605D  077F
00605E  93F0    	STS $0780,ZH
00605F  0780
006060  9360    	STS $0781,R22
006061  0781
006062  9370    	STS $0782,R23
006063  0782
006064  E9E8    	LDI ZL,$98
006065  E5FA    	LDI ZH,$5A
006066  E060    	LDI R22,$00
006067  93E0    	STS $0783,ZL
006068  0783
006069  93F0    	STS $0784,ZH
00606A  0784
00606B  9360    	STS $0785,R22
00606C  0785
00606D  9370    	STS $0786,R23
00606E  0786
00606F  EAE0    	LDI ZL,$A0
006070  E5FA    	LDI ZH,$5A
006071  E060    	LDI R22,$00
006072  93E0    	STS $0787,ZL
006073  0787
006074  93F0    	STS $0788,ZH
006075  0788
006076  9360    	STS $0789,R22
006077  0789
006078  9370    	STS $078A,R23
006079  078A
00607A  E0E4    	LDI ZL,$04
00607B  E0F0    	LDI ZH,$00
00607C  93E0    	STS $0793,ZL
00607D  0793
00607E  93F0    	STS $0794,ZH
00607F  0794
006080  E1E0    	LDI ZL,$10
006081  E0F0    	LDI ZH,$00
006082  93E0    	STS $0795,ZL
006083  0795
006084  93F0    	STS $0796,ZH
006085  0796
006086  C0EC    	RJMP L1256
006087  30EA    L1270:	CPI ZL,$0A
006088  F011    	BREQ L1271
006089  940C    	JMP L1272
00608A  60F4
00608B  E0EB    L1271:	LDI ZL,$0B
00608C  93EA    	ST -Y,ZL
00608D  940E    	CALL L977
00608E  4106
00608F  EEE0    	LDI ZL,$E0
006090  E5F7    	LDI ZH,$57
006091  E060    	LDI R22,$00
006092  93E0    	STS $076B,ZL
006093  076B
006094  93F0    	STS $076C,ZH
006095  076C
006096  9360    	STS $076D,R22
006097  076D
006098  9370    	STS $076E,R23
006099  076E
00609A  E2E0    	LDI ZL,$20
00609B  E5F9    	LDI ZH,$59
00609C  E060    	LDI R22,$00
00609D  93E0    	STS $076F,ZL
00609E  076F
00609F  93F0    	STS $0770,ZH
0060A0  0770
0060A1  9360    	STS $0771,R22
0060A2  0771
0060A3  9370    	STS $0772,R23
0060A4  0772
0060A5  E1E0    	LDI ZL,$10
0060A6  E5F6    	LDI ZH,$56
0060A7  E060    	LDI R22,$00
0060A8  93E0    	STS $0773,ZL
0060A9  0773
0060AA  93F0    	STS $0774,ZH
0060AB  0774
0060AC  9360    	STS $0775,R22
0060AD  0775
0060AE  9370    	STS $0776,R23
0060AF  0776
0060B0  E2E0    	LDI ZL,$20
0060B1  E5F6    	LDI ZH,$56
0060B2  E060    	LDI R22,$00
0060B3  93E0    	STS $0777,ZL
0060B4  0777
0060B5  93F0    	STS $0778,ZH
0060B6  0778
0060B7  9360    	STS $0779,R22
0060B8  0779
0060B9  9370    	STS $077A,R23
0060BA  077A
0060BB  E3E0    	LDI ZL,$30
0060BC  E5F6    	LDI ZH,$56
0060BD  E060    	LDI R22,$00
0060BE  93E0    	STS $077B,ZL
0060BF  077B
0060C0  93F0    	STS $077C,ZH
0060C1  077C
0060C2  9360    	STS $077D,R22
0060C3  077D
0060C4  9370    	STS $077E,R23
0060C5  077E
0060C6  E4E0    	LDI ZL,$40
0060C7  E5F6    	LDI ZH,$56
0060C8  E060    	LDI R22,$00
0060C9  93E0    	STS $077F,ZL
0060CA  077F
0060CB  93F0    	STS $0780,ZH
0060CC  0780
0060CD  9360    	STS $0781,R22
0060CE  0781
0060CF  9370    	STS $0782,R23
0060D0  0782
0060D1  E6E8    	LDI ZL,$68
0060D2  E5F6    	LDI ZH,$56
0060D3  E060    	LDI R22,$00
0060D4  93E0    	STS $0783,ZL
0060D5  0783
0060D6  93F0    	STS $0784,ZH
0060D7  0784
0060D8  9360    	STS $0785,R22
0060D9  0785
0060DA  9370    	STS $0786,R23
0060DB  0786
0060DC  E9E0    	LDI ZL,$90
0060DD  E5F6    	LDI ZH,$56
0060DE  E060    	LDI R22,$00
0060DF  93E0    	STS $0787,ZL
0060E0  0787
0060E1  93F0    	STS $0788,ZH
0060E2  0788
0060E3  9360    	STS $0789,R22
0060E4  0789
0060E5  9370    	STS $078A,R23
0060E6  078A
0060E7  E1E4    	LDI ZL,$14
0060E8  E0F0    	LDI ZH,$00
0060E9  93E0    	STS $0793,ZL
0060EA  0793
0060EB  93F0    	STS $0794,ZH
0060EC  0794
0060ED  E1E0    	LDI ZL,$10
0060EE  E0F0    	LDI ZH,$00
0060EF  93E0    	STS $0795,ZL
0060F0  0795
0060F1  93F0    	STS $0796,ZH
0060F2  0796
0060F3  C07F    	RJMP L1256
0060F4  30EB    L1272:	CPI ZL,$0B
0060F5  F011    	BREQ L1273
0060F6  940C    	JMP L1274
0060F7  6161
0060F8  E0EB    L1273:	LDI ZL,$0B
0060F9  93EA    	ST -Y,ZL
0060FA  940E    	CALL L977
0060FB  4106
0060FC  E0E0    	LDI ZL,$00
0060FD  E5FC    	LDI ZH,$5C
0060FE  E060    	LDI R22,$00
0060FF  93E0    	STS $076B,ZL
006100  076B
006101  93F0    	STS $076C,ZH
006102  076C
006103  9360    	STS $076D,R22
006104  076D
006105  9370    	STS $076E,R23
006106  076E
006107  E4E0    	LDI ZL,$40
006108  E5FC    	LDI ZH,$5C
006109  E060    	LDI R22,$00
00610A  93E0    	STS $076F,ZL
00610B  076F
00610C  93F0    	STS $0770,ZH
00610D  0770
00610E  9360    	STS $0771,R22
00610F  0771
006110  9370    	STS $0772,R23
006111  0772
006112  E7E0    	LDI ZL,$70
006113  E5FB    	LDI ZH,$5B
006114  E060    	LDI R22,$00
006115  93E0    	STS $0773,ZL
006116  0773
006117  93F0    	STS $0774,ZH
006118  0774
006119  9360    	STS $0775,R22
00611A  0775
00611B  9370    	STS $0776,R23
00611C  0776
00611D  E8E0    	LDI ZL,$80
00611E  E5FB    	LDI ZH,$5B
00611F  E060    	LDI R22,$00
006120  93E0    	STS $0777,ZL
006121  0777
006122  93F0    	STS $0778,ZH
006123  0778
006124  9360    	STS $0779,R22
006125  0779
006126  9370    	STS $077A,R23
006127  077A
006128  E9E0    	LDI ZL,$90
006129  E5FB    	LDI ZH,$5B
00612A  E060    	LDI R22,$00
00612B  93E0    	STS $077B,ZL
00612C  077B
00612D  93F0    	STS $077C,ZH
00612E  077C
00612F  9360    	STS $077D,R22
006130  077D
006131  9370    	STS $077E,R23
006132  077E
006133  EAE0    	LDI ZL,$A0
006134  E5FB    	LDI ZH,$5B
006135  E060    	LDI R22,$00
006136  93E0    	STS $077F,ZL
006137  077F
006138  93F0    	STS $0780,ZH
006139  0780
00613A  9360    	STS $0781,R22
00613B  0781
00613C  9370    	STS $0782,R23
00613D  0782
00613E  EAE8    	LDI ZL,$A8
00613F  E5FB    	LDI ZH,$5B
006140  E060    	LDI R22,$00
006141  93E0    	STS $0783,ZL
006142  0783
006143  93F0    	STS $0784,ZH
006144  0784
006145  9360    	STS $0785,R22
006146  0785
006147  9370    	STS $0786,R23
006148  0786
006149  EBE0    	LDI ZL,$B0
00614A  E5FB    	LDI ZH,$5B
00614B  E060    	LDI R22,$00
00614C  93E0    	STS $0787,ZL
00614D  0787
00614E  93F0    	STS $0788,ZH
00614F  0788
006150  9360    	STS $0789,R22
006151  0789
006152  9370    	STS $078A,R23
006153  078A
006154  E0E4    	LDI ZL,$04
006155  E0F0    	LDI ZH,$00
006156  93E0    	STS $0793,ZL
006157  0793
006158  93F0    	STS $0794,ZH
006159  0794
00615A  E1E0    	LDI ZL,$10
00615B  E0F0    	LDI ZH,$00
00615C  93E0    	STS $0795,ZL
00615D  0795
00615E  93F0    	STS $0796,ZH
00615F  0796
006160  C012    	RJMP L1256
006161  81A8    L1274:	LD XL,Y
006162  31A6    	CPI XL,$16
006163  F418    	BRCC L1275
006164  81E8    	LD ZL,Y
006165  50EB    	SUBI ZL,$0B
006166  C008    	RJMP L1276
006167  81A8    L1275:	LD XL,Y
006168  32A1    	CPI XL,$21
006169  F010    	BRCS L1277
00616A  32AB    	CPI XL,$2B
00616B  F008    	BRCS L1278
00616C  C005    L1277:	RJMP L1279
00616D  81E8    L1278:	LD ZL,Y
00616E  51E6    	SUBI ZL,$16
00616F  93EA    L1276:	ST -Y,ZL
006170  940E    	CALL L1221
006171  4BCC
006172  C019    L1279:	RJMP L1251
006173  C014    L1256:	RJMP L1222
006174  E0E4    L1253:	LDI ZL,$04
006175  15EC    	CP ZL,R12
006176  F489    	BRNE L1222
006177  81A8    	LD XL,Y
006178  31A6    	CPI XL,$16
006179  F418    	BRCC L1280
00617A  81E8    	LD ZL,Y
00617B  50EB    	SUBI ZL,$0B
00617C  C008    	RJMP L1281
00617D  81A8    L1280:	LD XL,Y
00617E  32A1    	CPI XL,$21
00617F  F010    	BRCS L1282
006180  32AB    	CPI XL,$2B
006181  F008    	BRCS L1283
006182  C005    L1282:	RJMP L1222
006183  81E8    L1283:	LD ZL,Y
006184  51E6    	SUBI ZL,$16
006185  93EA    L1281:	ST -Y,ZL
006186  940E    	CALL L1221
006187  4BCC
006188  92C0    L1222:	STS $0792,R12
006189  0792
00618A  940E    	CALL L1284
00618B  4E69
00618C  9621    L1251:	ADIW YH:YL,1
00618D  9508    	RET
00618E  930A    L845:	ST -Y,R16
00618F  B3E9    	IN ZL,PINA
006190  70E3    	ANDI ZL,$03
006191  2F0E    	MOV R16,ZL
006192  FC24    	SBRC R2,4
006193  C0B9    	RJMP L1285
006194  3002    	CPI R16,$02
006195  F521    	BRNE L1286
006196  91E0    	LDS ZL,$06CB
006197  06CB
006198  91F0    	LDS ZH,$06CC
006199  06CC
00619A  9631    	ADIW ZH:ZL,1
00619B  93E0    	STS $06CB,ZL
00619C  06CB
00619D  93F0    	STS $06CC,ZH
00619E  06CC
00619F  E0E0    	LDI ZL,$00
0061A0  93E0    	STS $06CD,ZL
0061A1  06CD
0061A2  93E0    	STS $06CE,ZL
0061A3  06CE
0061A4  E0E0    	LDI ZL,$00
0061A5  93E0    	STS $06CF,ZL
0061A6  06CF
0061A7  93E0    	STS $06D0,ZL
0061A8  06D0
0061A9  91A0    	LDS XL,$06CB
0061AA  06CB
0061AB  91B0    	LDS XH,$06CC
0061AC  06CC
0061AD  3BA9    	CPI XL,$B9
0061AE  E0EB    	LDI ZL,$0B
0061AF  07BE    	CPC XH,ZL
0061B0  F040    	BRCS L1287
0061B1  E0E4    	LDI ZL,$04
0061B2  93E0    	STS $06D1,ZL
0061B3  06D1
0061B4  E0E0    	LDI ZL,$00
0061B5  93E0    	STS $06CB,ZL
0061B6  06CB
0061B7  93E0    	STS $06CC,ZL
0061B8  06CC
0061B9  C093    L1287:	RJMP L1285
0061BA  3001    L1286:	CPI R16,$01
0061BB  F521    	BRNE L1288
0061BC  E0E0    	LDI ZL,$00
0061BD  93E0    	STS $06CB,ZL
0061BE  06CB
0061BF  93E0    	STS $06CC,ZL
0061C0  06CC
0061C1  91E0    	LDS ZL,$06CD
0061C2  06CD
0061C3  91F0    	LDS ZH,$06CE
0061C4  06CE
0061C5  9631    	ADIW ZH:ZL,1
0061C6  93E0    	STS $06CD,ZL
0061C7  06CD
0061C8  93F0    	STS $06CE,ZH
0061C9  06CE
0061CA  E0E0    	LDI ZL,$00
0061CB  93E0    	STS $06CF,ZL
0061CC  06CF
0061CD  93E0    	STS $06D0,ZL
0061CE  06D0
0061CF  91A0    	LDS XL,$06CD
0061D0  06CD
0061D1  91B0    	LDS XH,$06CE
0061D2  06CE
0061D3  3BA9    	CPI XL,$B9
0061D4  E0EB    	LDI ZL,$0B
0061D5  07BE    	CPC XH,ZL
0061D6  F040    	BRCS L1289
0061D7  E0E5    	LDI ZL,$05
0061D8  93E0    	STS $06D1,ZL
0061D9  06D1
0061DA  E0E0    	LDI ZL,$00
0061DB  93E0    	STS $06CD,ZL
0061DC  06CD
0061DD  93E0    	STS $06CE,ZL
0061DE  06CE
0061DF  C06D    L1289:	RJMP L1285
0061E0  3000    L1288:	CPI R16,$00
0061E1  F531    	BRNE L1290
0061E2  E0E0    	LDI ZL,$00
0061E3  93E0    	STS $06CB,ZL
0061E4  06CB
0061E5  93E0    	STS $06CC,ZL
0061E6  06CC
0061E7  E0E0    	LDI ZL,$00
0061E8  93E0    	STS $06CD,ZL
0061E9  06CD
0061EA  93E0    	STS $06CE,ZL
0061EB  06CE
0061EC  91E0    	LDS ZL,$06CF
0061ED  06CF
0061EE  91F0    	LDS ZH,$06D0
0061EF  06D0
0061F0  9631    	ADIW ZH:ZL,1
0061F1  93E0    	STS $06CF,ZL
0061F2  06CF
0061F3  93F0    	STS $06D0,ZH
0061F4  06D0
0061F5  91A0    	LDS XL,$06CF
0061F6  06CF
0061F7  91B0    	LDS XH,$06D0
0061F8  06D0
0061F9  3DA1    	CPI XL,$D1
0061FA  E0E7    	LDI ZL,$07
0061FB  07BE    	CPC XH,ZL
0061FC  F050    	BRCS L1291
0061FD  FC31    	SBRC R3,1
0061FE  C008    	RJMP L1291
0061FF  E0E6    	LDI ZL,$06
006200  93E0    	STS $06D1,ZL
006201  06D1
006202  E0E0    	LDI ZL,$00
006203  93E0    	STS $06CF,ZL
006204  06CF
006205  93E0    	STS $06D0,ZL
006206  06D0
006207  C045    L1291:	RJMP L1285
006208  91A0    L1290:	LDS XL,$06CB
006209  06CB
00620A  91B0    	LDS XH,$06CC
00620B  06CC
00620C  9799    	SBIW XH:XL,41
00620D  F040    	BRCS L1292
00620E  91A0    	LDS XL,$06CB
00620F  06CB
006210  91B0    	LDS XH,$06CC
006211  06CC
006212  3FA4    	CPI XL,$F4
006213  E0E1    	LDI ZL,$01
006214  07BE    	CPC XH,ZL
006215  F008    	BRCS L1293
006216  C002    L1292:	RJMP L1294
006217  E0E1    L1293:	LDI ZL,$01
006218  C021    	RJMP L1295
006219  91A0    L1294:	LDS XL,$06CD
00621A  06CD
00621B  91B0    	LDS XH,$06CE
00621C  06CE
00621D  9799    	SBIW XH:XL,41
00621E  F040    	BRCS L1296
00621F  91A0    	LDS XL,$06CD
006220  06CD
006221  91B0    	LDS XH,$06CE
006222  06CE
006223  3FA4    	CPI XL,$F4
006224  E0E1    	LDI ZL,$01
006225  07BE    	CPC XH,ZL
006226  F008    	BRCS L1297
006227  C002    L1296:	RJMP L1298
006228  E0E2    L1297:	LDI ZL,$02
006229  C010    	RJMP L1295
00622A  91A0    L1298:	LDS XL,$06CF
00622B  06CF
00622C  91B0    	LDS XH,$06D0
00622D  06D0
00622E  9799    	SBIW XH:XL,41
00622F  F040    	BRCS L1299
006230  91A0    	LDS XL,$06CF
006231  06CF
006232  91B0    	LDS XH,$06D0
006233  06D0
006234  3FA4    	CPI XL,$F4
006235  E0E1    	LDI ZL,$01
006236  07BE    	CPC XH,ZL
006237  F008    	BRCS L1300
006238  C003    L1299:	RJMP L1301
006239  E0E3    L1300:	LDI ZL,$03
00623A  93E0    L1295:	STS $06D1,ZL
00623B  06D1
00623C  E0E0    L1301:	LDI ZL,$00
00623D  93E0    	STS $06CB,ZL
00623E  06CB
00623F  93E0    	STS $06CC,ZL
006240  06CC
006241  E0E0    	LDI ZL,$00
006242  93E0    	STS $06CD,ZL
006243  06CD
006244  93E0    	STS $06CE,ZL
006245  06CE
006246  E0E0    	LDI ZL,$00
006247  93E0    	STS $06CF,ZL
006248  06CF
006249  93E0    	STS $06D0,ZL
00624A  06D0
00624B  94E8    	BCLR 6
00624C  F831    	BLD R3,1
00624D  9109    L1285:	LD R16,Y+
00624E  9508    	RET
00624F  931A    L846:	ST -Y,R17
006250  930A    	ST -Y,R16
006251  91A0    	LDS XL,$06D1
006252  06D1
006253  30A6    	CPI XL,$06
006254  F451    	BRNE L1302
006255  E0E0    	LDI ZL,$00
006256  93E0    	STS $06D1,ZL
006257  06D1
006258  FE25    	SBRS R2,5
006259  C004    	RJMP L1303
00625A  940E    	CALL L805
00625B  407B
00625C  940E    	CALL L1304
00625D  3CA8
00625E  C08A    L1303:	RJMP L1305
00625F  91A0    L1302:	LDS XL,$06D1
006260  06D1
006261  30A4    	CPI XL,$04
006262  F011    	BREQ L1306
006263  940C    	JMP L1307
006264  62D1
006265  E0E0    L1306:	LDI ZL,$00
006266  93E0    	STS $06D1,ZL
006267  06D1
006268  E0E1    	LDI ZL,$01
006269  15EC    	CP ZL,R12
00626A  F509    	BRNE L1308
00626B  E0E2    	LDI ZL,$02
00626C  2ECE    	MOV R12,ZL
00626D  E000    	LDI R16,$00
00626E  E010    	LDI R17,$00
00626F  3100    L1310:	CPI R16,$10
006270  E0E0    	LDI ZL,$00
006271  071E    	CPC R17,ZL
006272  F4C0    	BRCC L1309
006273  930A    	ST -Y,R16
006274  01F8    	MOVW R31:R30,R17:R16
006275  2766    	CLR R22
006276  2777    	CLR R23
006277  53E4    	SUBI ZL,$34
006278  4FFF    	SBCI ZH,$FF
006279  4F6F    	SBCI R22,$FF
00627A  BF6B    	OUT RAMPZ,R22
00627B  91E6    	ELPM ZL,Z
00627C  93EA    	ST -Y,ZL
00627D  01F8    	MOVW R31:R30,R17:R16
00627E  2766    	CLR R22
00627F  2777    	CLR R23
006280  54E4    	SUBI ZL,$44
006281  4FFF    	SBCI ZH,$FF
006282  4F6F    	SBCI R22,$FF
006283  BF6B    	OUT RAMPZ,R22
006284  91E6    	ELPM ZL,Z
006285  93EA    	ST -Y,ZL
006286  940E    	CALL L795
006287  4094
006288  5F0F    	SUBI R16,$FF
006289  4F1F    	SBCI R17,$FF
00628A  CFE4    	RJMP L1310
00628B  C044    L1309:	RJMP L1311
00628C  E0E2    L1308:	LDI ZL,$02
00628D  15EC    	CP ZL,R12
00628E  F509    	BRNE L1312
00628F  E0E3    	LDI ZL,$03
006290  2ECE    	MOV R12,ZL
006291  E000    	LDI R16,$00
006292  E010    	LDI R17,$00
006293  3100    L1314:	CPI R16,$10
006294  E0E0    	LDI ZL,$00
006295  071E    	CPC R17,ZL
006296  F4C0    	BRCC L1313
006297  930A    	ST -Y,R16
006298  01F8    	MOVW R31:R30,R17:R16
006299  2766    	CLR R22
00629A  2777    	CLR R23
00629B  51E4    	SUBI ZL,$14
00629C  4FFF    	SBCI ZH,$FF
00629D  4F6F    	SBCI R22,$FF
00629E  BF6B    	OUT RAMPZ,R22
00629F  91E6    	ELPM ZL,Z
0062A0  93EA    	ST -Y,ZL
0062A1  01F8    	MOVW R31:R30,R17:R16
0062A2  2766    	CLR R22
0062A3  2777    	CLR R23
0062A4  52E4    	SUBI ZL,$24
0062A5  4FFF    	SBCI ZH,$FF
0062A6  4F6F    	SBCI R22,$FF
0062A7  BF6B    	OUT RAMPZ,R22
0062A8  91E6    	ELPM ZL,Z
0062A9  93EA    	ST -Y,ZL
0062AA  940E    	CALL L795
0062AB  4094
0062AC  5F0F    	SUBI R16,$FF
0062AD  4F1F    	SBCI R17,$FF
0062AE  CFE4    	RJMP L1314
0062AF  C020    L1313:	RJMP L1311
0062B0  E0E1    L1312:	LDI ZL,$01
0062B1  2ECE    	MOV R12,ZL
0062B2  E000    	LDI R16,$00
0062B3  E010    	LDI R17,$00
0062B4  3100    L1315:	CPI R16,$10
0062B5  E0E0    	LDI ZL,$00
0062B6  071E    	CPC R17,ZL
0062B7  F4C0    	BRCC L1311
0062B8  930A    	ST -Y,R16
0062B9  01F8    	MOVW R31:R30,R17:R16
0062BA  2766    	CLR R22
0062BB  2777    	CLR R23
0062BC  55E4    	SUBI ZL,$54
0062BD  4FFF    	SBCI ZH,$FF
0062BE  4F6F    	SBCI R22,$FF
0062BF  BF6B    	OUT RAMPZ,R22
0062C0  91E6    	ELPM ZL,Z
0062C1  93EA    	ST -Y,ZL
0062C2  01F8    	MOVW R31:R30,R17:R16
0062C3  2766    	CLR R22
0062C4  2777    	CLR R23
0062C5  56E4    	SUBI ZL,$64
0062C6  4FFF    	SBCI ZH,$FF
0062C7  4F6F    	SBCI R22,$FF
0062C8  BF6B    	OUT RAMPZ,R22
0062C9  91E6    	ELPM ZL,Z
0062CA  93EA    	ST -Y,ZL
0062CB  940E    	CALL L795
0062CC  4094
0062CD  5F0F    	SUBI R16,$FF
0062CE  4F1F    	SBCI R17,$FF
0062CF  CFE4    	RJMP L1315
0062D0  C009    L1311:	RJMP L1316
0062D1  91A0    L1307:	LDS XL,$06D1
0062D2  06D1
0062D3  30A5    	CPI XL,$05
0062D4  F4A1    	BRNE L1305
0062D5  E0E0    	LDI ZL,$00
0062D6  93E0    	STS $06D1,ZL
0062D7  06D1
0062D8  E0E4    	LDI ZL,$04
0062D9  2ECE    	MOV R12,ZL
0062DA  940E    L1316:	CALL L805
0062DB  407B
0062DC  E0EA    	LDI ZL,$0A
0062DD  E0F0    	LDI ZH,$00
0062DE  93FA    	ST -Y,ZH
0062DF  93EA    	ST -Y,ZL
0062E0  940E    	CALL L537
0062E1  6A4C
0062E2  9468    	BSET 6
0062E3  F831    	BLD R3,1
0062E4  2DEC    	MOV ZL,R12
0062E5  E2AD    	LDI XL,$2D
0062E6  E0B0    	LDI XH,$00
0062E7  940E    	CALL L545
0062E8  6B2A
0062E9  C4A9    L1305:	RJMP L1317
0062EA  FC24    L847:	SBRC R2,4
0062EB  9508    	RET
0062EC  FE22    	SBRS R2,2
0062ED  C004    	RJMP L1318
0062EE  98DA    	CBI PORTA,PA2
0062EF  9ADB    	SBI PORTA,PA3
0062F0  98DC    	CBI PORTA,PA4
0062F1  9508    	RET
0062F2  2DEC    L1318:	MOV ZL,R12
0062F3  30E1    	CPI ZL,$01
0062F4  F421    	BRNE L1319
0062F5  98DA    	CBI PORTA,PA2
0062F6  9ADB    	SBI PORTA,PA3
0062F7  9ADC    	SBI PORTA,PA4
0062F8  C014    	RJMP L1320
0062F9  30E2    L1319:	CPI ZL,$02
0062FA  F421    	BRNE L1321
0062FB  98DA    	CBI PORTA,PA2
0062FC  98DB    	CBI PORTA,PA3
0062FD  9ADC    	SBI PORTA,PA4
0062FE  C00E    	RJMP L1320
0062FF  30E3    L1321:	CPI ZL,$03
006300  F421    	BRNE L1322
006301  9ADA    	SBI PORTA,PA2
006302  98DB    	CBI PORTA,PA3
006303  9ADC    	SBI PORTA,PA4
006304  C008    	RJMP L1320
006305  30E4    L1322:	CPI ZL,$04
006306  F421    	BRNE L1323
006307  9ADA    	SBI PORTA,PA2
006308  9ADB    	SBI PORTA,PA3
006309  98DC    	CBI PORTA,PA4
00630A  C002    	RJMP L1320
00630B  E0E4    L1323:	LDI ZL,$04
00630C  2ECE    	MOV R12,ZL
00630D  E9E8    L1320:	LDI ZL,$98
00630E  E2F1    	LDI ZH,$21
00630F  15E5    	CP ZL,R5
006310  05F6    	CPC ZH,R6
006311  F460    	BRCC L1324
006312  91E0    	LDS ZL,$0065
006313  0065
006314  7FEB    	ANDI ZL,$FB
006315  93E0    	STS $0065,ZL
006316  0065
006317  9AAF    	SBI PORTC,PC7
006318  E0E0    	LDI ZL,$00
006319  93E0    	STS $06DF,ZL
00631A  06DF
00631B  93E0    	STS $06E0,ZL
00631C  06E0
00631D  C067    	RJMP L1325
00631E  EAE4    L1324:	LDI ZL,$A4
00631F  E1FF    	LDI ZH,$1F
006320  15E5    	CP ZL,R5
006321  05F6    	CPC ZH,R6
006322  F4F8    	BRCC L1326
006323  91E0    	LDS ZL,$0065
006324  0065
006325  60E4    	ORI ZL,$04
006326  93E0    	STS $0065,ZL
006327  0065
006328  98AF    	CBI PORTC,PC7
006329  91E0    	LDS ZL,$06DF
00632A  06DF
00632B  91F0    	LDS ZH,$06E0
00632C  06E0
00632D  9631    	ADIW ZH:ZL,1
00632E  93E0    	STS $06DF,ZL
00632F  06DF
006330  93F0    	STS $06E0,ZH
006331  06E0
006332  91A0    	LDS XL,$06DF
006333  06DF
006334  91B0    	LDS XH,$06E0
006335  06E0
006336  38A9    	CPI XL,$89
006337  E1E3    	LDI ZL,$13
006338  07BE    	CPC XH,ZL
006339  F038    	BRCS L1327
00633A  E0E0    	LDI ZL,$00
00633B  93E0    	STS $06DF,ZL
00633C  06DF
00633D  93E0    	STS $06E0,ZL
00633E  06E0
00633F  940E    	CALL L805
006340  407B
006341  C043    L1327:	RJMP L1325
006342  91E0    L1326:	LDS ZL,$0065
006343  0065
006344  60E4    	ORI ZL,$04
006345  93E0    	STS $0065,ZL
006346  0065
006347  91A0    	LDS XL,$06D2
006348  06D2
006349  91B0    	LDS XH,$06D3
00634A  06D3
00634B  3FAA    	CPI XL,$FA
00634C  E0E0    	LDI ZL,$00
00634D  07BE    	CPC XH,ZL
00634E  F410    	BRCC L1328
00634F  98AF    	CBI PORTC,PC7
006350  C01C    	RJMP L1329
006351  91A0    L1328:	LDS XL,$06D2
006352  06D2
006353  91B0    	LDS XH,$06D3
006354  06D3
006355  3FA4    	CPI XL,$F4
006356  E0E1    	LDI ZL,$01
006357  07BE    	CPC XH,ZL
006358  F408    	BRCC L1330
006359  C012    	RJMP L1331
00635A  91A0    L1330:	LDS XL,$06D2
00635B  06D2
00635C  91B0    	LDS XH,$06D3
00635D  06D3
00635E  3EAE    	CPI XL,$EE
00635F  E0E2    	LDI ZL,$02
006360  07BE    	CPC XH,ZL
006361  F410    	BRCC L1332
006362  98AF    	CBI PORTC,PC7
006363  C009    	RJMP L1329
006364  91A0    L1332:	LDS XL,$06D2
006365  06D2
006366  91B0    	LDS XH,$06D3
006367  06D3
006368  3EA8    	CPI XL,$E8
006369  E0E3    	LDI ZL,$03
00636A  07BE    	CPC XH,ZL
00636B  F408    	BRCC L1329
00636C  9AAF    L1331:	SBI PORTC,PC7
00636D  91E0    L1329:	LDS ZL,$06DF
00636E  06DF
00636F  91F0    	LDS ZH,$06E0
006370  06E0
006371  9631    	ADIW ZH:ZL,1
006372  93E0    	STS $06DF,ZL
006373  06DF
006374  93F0    	STS $06E0,ZH
006375  06E0
006376  91A0    	LDS XL,$06DF
006377  06DF
006378  91B0    	LDS XH,$06E0
006379  06E0
00637A  3BA9    	CPI XL,$B9
00637B  E0EB    	LDI ZL,$0B
00637C  07BE    	CPC XH,ZL
00637D  F038    	BRCS L1325
00637E  E0E0    	LDI ZL,$00
00637F  93E0    	STS $06DF,ZL
006380  06DF
006381  93E0    	STS $06E0,ZL
006382  06E0
006383  940E    	CALL L805
006384  407B
006385  EFEF    L1325:	LDI ZL,$FF            //function (test) if -1 sets error
006386  15ED    	CP ZL,R13
006387  F411    	BRNE L1333
006388  9ADF    	SBI PORTA,PA7
006389  C001    	RJMP L1334
00638A  98DF    L1333:	CBI PORTA,PA7           //ERRROR
00638B  9508    L1334:	RET 
00638C  931A    L844:	ST -Y,R17
00638D  930A    	ST -Y,R16
00638E  FC22    	SBRC R2,2
00638F  C403    	RJMP L1317
006390  E000    	LDI R16,$00
006391  E010    	LDI R17,$00
006392  3100    L1338:	CPI R16,$10
006393  E0E0    	LDI ZL,$00
006394  071E    	CPC R17,ZL
006395  F520    	BRCC L1335
006396  01F8    	MOVW R31:R30,R17:R16
006397  2766    	CLR R22
006398  2777    	CLR R23
006399  57E4    	SUBI ZL,$74
00639A  4FFF    	SBCI ZH,$FF
00639B  4F6F    	SBCI R22,$FF
00639C  BF6B    	OUT RAMPZ,R22
00639D  91E6    	ELPM ZL,Z
00639E  2E1E    	MOV R1,ZL
00639F  5FE7    	SUBI ZL,$F7
0063A0  2E0E    	MOV R0,ZL
0063A1  E1AD    	LDI XL,$1D
0063A2  E0B0    	LDI XH,$00
0063A3  0FA0    	ADD XL,R16
0063A4  1FB1    	ADC XH,R17
0063A5  940E    	CALL L544
0063A6  6B16
0063A7  160E    	CP R0,ZL
0063A8  F058    	BRCS L1336
0063A9  2DE1    	MOV ZL,R1
0063AA  50E9    	SUBI ZL,$09
0063AB  2E0E    	MOV R0,ZL
0063AC  E1AD    	LDI XL,$1D
0063AD  E0B0    	LDI XH,$00
0063AE  0FA0    	ADD XL,R16
0063AF  1FB1    	ADC XH,R17
0063B0  940E    	CALL L544
0063B1  6B16
0063B2  15E0    	CP ZL,R0
0063B3  F418    	BRCC L1337
0063B4  E0E8    L1336:	LDI ZL,$08
0063B5  2EDE    	MOV R13,ZL
0063B6  C3DC    	RJMP L1317
0063B7  5F0F    L1337:	SUBI R16,$FF
0063B8  4F1F    	SBCI R17,$FF
0063B9  CFD8    	RJMP L1338
0063BA  91E0    L1335:	LDS ZL,$0065
0063BB  0065
0063BC  7FEB    	ANDI ZL,$FB
0063BD  93E0    	STS $0065,ZL
0063BE  0065
0063BF  E3EC    	LDI ZL,$3C
0063C0  E0F0    	LDI ZH,$00
0063C1  93FA    	ST -Y,ZH
0063C2  93EA    	ST -Y,ZL
0063C3  940E    	CALL L537
0063C4  6A4C
0063C5  91E0    	LDS ZL,$0065
0063C6  0065
0063C7  60E4    	ORI ZL,$04
0063C8  93E0    	STS $0065,ZL
0063C9  0065
0063CA  98AF    	CBI PORTC,PC7
0063CB  E3EC    	LDI ZL,$3C
0063CC  E0F0    	LDI ZH,$00
0063CD  93FA    	ST -Y,ZH
0063CE  93EA    	ST -Y,ZL
0063CF  940E    	CALL L537
0063D0  6A4C
0063D1  9AAF    	SBI PORTC,PC7
0063D2  98DD    	CBI PORTA,PA5
0063D3  E3EC    	LDI ZL,$3C
0063D4  E0F0    	LDI ZH,$00
0063D5  93FA    	ST -Y,ZH
0063D6  93EA    	ST -Y,ZL
0063D7  940E    	CALL L537
0063D8  6A4C
0063D9  9ADD    	SBI PORTA,PA5
0063DA  98DE    	CBI PORTA,PA6
0063DB  E3EC    	LDI ZL,$3C
0063DC  E0F0    	LDI ZH,$00
0063DD  93FA    	ST -Y,ZH
0063DE  93EA    	ST -Y,ZL
0063DF  940E    	CALL L537
0063E0  6A4C
0063E1  9ADE    	SBI PORTA,PA6
0063E2  98DF    	CBI PORTA,PA7       L1325
0063E3  E3EC    	LDI ZL,$3C
0063E4  E0F0    	LDI ZH,$00
0063E5  93FA    	ST -Y,ZH
0063E6  93EA    	ST -Y,ZL
0063E7  940E    	CALL L537
0063E8  6A4C
0063E9  9ADF    	SBI PORTA,PA7
0063EA  98DC    	CBI PORTA,PA4
0063EB  E3EC    	LDI ZL,$3C
0063EC  E0F0    	LDI ZH,$00
0063ED  93FA    	ST -Y,ZH
0063EE  93EA    	ST -Y,ZL
0063EF  940E    	CALL L537
0063F0  6A4C
0063F1  9ADC    	SBI PORTA,PA4
0063F2  98DB    	CBI PORTA,PA3
0063F3  E3EC    	LDI ZL,$3C
0063F4  E0F0    	LDI ZH,$00
0063F5  93FA    	ST -Y,ZH
0063F6  93EA    	ST -Y,ZL
0063F7  940E    	CALL L537
0063F8  6A4C
0063F9  9ADB    	SBI PORTA,PA3
0063FA  98DA    	CBI PORTA,PA2
0063FB  E3EC    	LDI ZL,$3C
0063FC  E0F0    	LDI ZH,$00
0063FD  93FA    	ST -Y,ZH
0063FE  93EA    	ST -Y,ZL
0063FF  940E    	CALL L537
006400  6A4C
006401  9ADA    	SBI PORTA,PA2
006402  C390    	RJMP L1317
006403  931A    L853:	ST -Y,R17
006404  930A    	ST -Y,R16
006405  94E8    	BCLR 6
006406  F834    	BLD R3,4
006407  B7E7    	IN ZL,TIMSK
006408  7FEE    	ANDI ZL,$FE
006409  BFE7    	OUT TIMSK,ZL
00640A  B7E9    	IN ZL,EIMSK
00640B  7BEF    	ANDI ZL,$BF
00640C  BFE9    	OUT EIMSK,ZL
00640D  9856    	CBI UCSR0B,TXCIE0
00640E  E0E0    	LDI ZL,$00
00640F  93EA    	ST -Y,ZL
006410  940E    	CALL L1339
006411  3C54
006412  E0E1    	LDI ZL,$01
006413  2E4E    	MOV R4,ZL
006414  EEED    	LDI ZL,$ED
006415  93EA    	ST -Y,ZL
006416  940E    	CALL L1339
006417  3C54
006418  9468    	BSET 6
006419  F827    	BLD R2,7
00641A  FC27    L1340:	SBRC R2,7
00641B  CFFE    	RJMP L1340
00641C  E0E0    	LDI ZL,$00
00641D  93EA    	ST -Y,ZL
00641E  940E    	CALL L1339
00641F  3C54
006420  92B0    	STS $06C7,R11
006421  06C7
006422  E0E0    	LDI ZL,$00
006423  93EA    	ST -Y,ZL
006424  940E    	CALL L1339
006425  3C54
006426  2444    	CLR R4
006427  EEED    	LDI ZL,$ED
006428  93EA    	ST -Y,ZL
006429  940E    	CALL L1339
00642A  3C54
00642B  9468    	BSET 6
00642C  F827    	BLD R2,7
00642D  FC27    L1341:	SBRC R2,7
00642E  CFFE    	RJMP L1341
00642F  E0E0    	LDI ZL,$00
006430  93EA    	ST -Y,ZL
006431  940E    	CALL L1339
006432  3C54
006433  92B0    	STS $06C8,R11
006434  06C8
006435  E0E0    	LDI ZL,$00
006436  93EA    	ST -Y,ZL
006437  940E    	CALL L1339
006438  3C54
006439  E0EF    	LDI ZL,$0F
00643A  2E4E    	MOV R4,ZL
00643B  EEED    	LDI ZL,$ED
00643C  93EA    	ST -Y,ZL
00643D  940E    	CALL L1339
00643E  3C54
00643F  9468    	BSET 6
006440  F827    	BLD R2,7
006441  FC27    L1342:	SBRC R2,7
006442  CFFE    	RJMP L1342
006443  E0E0    	LDI ZL,$00
006444  93EA    	ST -Y,ZL
006445  940E    	CALL L1339
006446  3C54
006447  92B0    	STS $06C9,R11
006448  06C9
006449  9A57    	SBI UCSR0B,RXCIE0
00644A  B7E7    	IN ZL,TIMSK
00644B  60E1    	ORI ZL,$01
00644C  BFE7    	OUT TIMSK,ZL
00644D  E0E0    	LDI ZL,$00
00644E  93EA    	ST -Y,ZL
00644F  940E    	CALL L1011
006450  40BC
006451  018F    	MOVW R17:R16,R31:R30
006452  EBEC    	LDI ZL,$BC
006453  E0F1    	LDI ZH,$01
006454  17E0    	CP ZL,R16
006455  07F1    	CPC ZH,R17
006456  F421    	BRNE L1343
006457  EFEF    	LDI ZL,$FF
006458  93E0    	STS $06CA,ZL
006459  06CA
00645A  C002    	RJMP L1344
00645B  9300    L1343:	STS $06CA,R16
00645C  06CA
00645D  B7E7    L1344:	IN ZL,TIMSK
00645E  7FEE    	ANDI ZL,$FE
00645F  BFE7    	OUT TIMSK,ZL
006460  9857    	CBI UCSR0B,RXCIE0
006461  E1E3    	LDI ZL,$13
006462  93EA    	ST -Y,ZL
006463  E0E4    	LDI ZL,$04
006464  93EA    	ST -Y,ZL
006465  940E    	CALL L569
006466  4133
006467  E0E0    	LDI ZL,$00
006468  93E0    	STS $06C5,ZL
006469  06C5
00646A  91E0    	LDS ZL,$06C7
00646B  06C7
00646C  93EA    	ST -Y,ZL
00646D  940E    	CALL L546
00646E  3FE1
00646F  91E0    	LDS ZL,$06C7
006470  06C7
006471  91A0    	LDS XL,$06C5
006472  06C5
006473  27EA    	EOR ZL,XL
006474  93E0    	STS $06C5,ZL
006475  06C5
006476  91E0    	LDS ZL,$06C8
006477  06C8
006478  93EA    	ST -Y,ZL
006479  940E    	CALL L546
00647A  3FE1
00647B  91E0    	LDS ZL,$06C8
00647C  06C8
00647D  91A0    	LDS XL,$06C5
00647E  06C5
00647F  27EA    	EOR ZL,XL
006480  93E0    	STS $06C5,ZL
006481  06C5
006482  91E0    	LDS ZL,$06C9
006483  06C9
006484  93EA    	ST -Y,ZL
006485  940E    	CALL L546
006486  3FE1
006487  91E0    	LDS ZL,$06C9
006488  06C9
006489  91A0    	LDS XL,$06C5
00648A  06C5
00648B  27EA    	EOR ZL,XL
00648C  93E0    	STS $06C5,ZL
00648D  06C5
00648E  91E0    	LDS ZL,$06CA
00648F  06CA
006490  93EA    	ST -Y,ZL
006491  940E    	CALL L546
006492  3FE1
006493  91E0    	LDS ZL,$06CA
006494  06CA
006495  91A0    	LDS XL,$06C5
006496  06C5
006497  27EA    	EOR ZL,XL
006498  93E0    	STS $06C5,ZL
006499  06C5
00649A  93EA    	ST -Y,ZL
00649B  940E    	CALL L546
00649C  3FE1
00649D  E0E2    	LDI ZL,$02
00649E  93EA    	ST -Y,ZL
00649F  940E    	CALL L977
0064A0  4106
0064A1  9ADA    	SBI PORTA,PA2
0064A2  9ADB    	SBI PORTA,PA3
0064A3  9ADC    	SBI PORTA,PA4
0064A4  9ADD    	SBI PORTA,PA5
0064A5  9ADE    	SBI PORTA,PA6
0064A6  9ADF    	SBI PORTA,PA7
0064A7  91E0    	LDS ZL,$0065
0064A8  0065
0064A9  60E4    	ORI ZL,$04
0064AA  93E0    	STS $0065,ZL
0064AB  0065
0064AC  9AAF    	SBI PORTC,PC7
0064AD  EEE8    	LDI ZL,$E8
0064AE  E0F3    	LDI ZH,$03
0064AF  93FA    	ST -Y,ZH
0064B0  93EA    	ST -Y,ZL
0064B1  940E    	CALL L537
0064B2  6A4C
0064B3  91E0    	LDS ZL,$0065
0064B4  0065
0064B5  7FEB    	ANDI ZL,$FB
0064B6  93E0    	STS $0065,ZL
0064B7  0065
0064B8  EFE4    	LDI ZL,$F4
0064B9  E0F1    	LDI ZH,$01
0064BA  93FA    	ST -Y,ZH
0064BB  93EA    	ST -Y,ZL
0064BC  940E    	CALL L537
0064BD  6A4C
0064BE  9ADA    	SBI PORTA,PA2
0064BF  9ADB    	SBI PORTA,PA3
0064C0  9ADC    	SBI PORTA,PA4
0064C1  9ADD    	SBI PORTA,PA5
0064C2  9ADE    	SBI PORTA,PA6
0064C3  9ADF    	SBI PORTA,PA7
0064C4  91E0    	LDS ZL,$0065
0064C5  0065
0064C6  60E4    	ORI ZL,$04
0064C7  93E0    	STS $0065,ZL
0064C8  0065
0064C9  9AAF    	SBI PORTC,PC7
0064CA  E2EC    	LDI ZL,$2C
0064CB  E0F1    	LDI ZH,$01
0064CC  93FA    	ST -Y,ZH
0064CD  93EA    	ST -Y,ZL
0064CE  940E    	CALL L537
0064CF  6A4C
0064D0  98AF    	CBI PORTC,PC7
0064D1  EFE4    	LDI ZL,$F4
0064D2  E0F1    	LDI ZH,$01
0064D3  93FA    	ST -Y,ZH
0064D4  93EA    	ST -Y,ZL
0064D5  940E    	CALL L537
0064D6  6A4C
0064D7  9ADA    	SBI PORTA,PA2
0064D8  9ADB    	SBI PORTA,PA3
0064D9  9ADC    	SBI PORTA,PA4
0064DA  9ADD    	SBI PORTA,PA5
0064DB  9ADE    	SBI PORTA,PA6
0064DC  9ADF    	SBI PORTA,PA7
0064DD  91E0    	LDS ZL,$0065
0064DE  0065
0064DF  60E4    	ORI ZL,$04
0064E0  93E0    	STS $0065,ZL
0064E1  0065
0064E2  9AAF    	SBI PORTC,PC7
0064E3  E2EC    	LDI ZL,$2C
0064E4  E0F1    	LDI ZH,$01
0064E5  93FA    	ST -Y,ZH
0064E6  93EA    	ST -Y,ZL
0064E7  940E    	CALL L537
0064E8  6A4C
0064E9  98DD    	CBI PORTA,PA5
0064EA  EFE4    	LDI ZL,$F4
0064EB  E0F1    	LDI ZH,$01
0064EC  93FA    	ST -Y,ZH
0064ED  93EA    	ST -Y,ZL
0064EE  940E    	CALL L537
0064EF  6A4C
0064F0  9ADA    	SBI PORTA,PA2
0064F1  9ADB    	SBI PORTA,PA3
0064F2  9ADC    	SBI PORTA,PA4
0064F3  9ADD    	SBI PORTA,PA5
0064F4  9ADE    	SBI PORTA,PA6
0064F5  9ADF    	SBI PORTA,PA7
0064F6  91E0    	LDS ZL,$0065
0064F7  0065
0064F8  60E4    	ORI ZL,$04
0064F9  93E0    	STS $0065,ZL
0064FA  0065
0064FB  9AAF    	SBI PORTC,PC7
0064FC  E2EC    	LDI ZL,$2C
0064FD  E0F1    	LDI ZH,$01
0064FE  93FA    	ST -Y,ZH
0064FF  93EA    	ST -Y,ZL
006500  940E    	CALL L537
006501  6A4C
006502  98DE    	CBI PORTA,PA6
006503  EFE4    	LDI ZL,$F4
006504  E0F1    	LDI ZH,$01
006505  93FA    	ST -Y,ZH
006506  93EA    	ST -Y,ZL
006507  940E    	CALL L537
006508  6A4C
006509  9ADA    	SBI PORTA,PA2
00650A  9ADB    	SBI PORTA,PA3
00650B  9ADC    	SBI PORTA,PA4
00650C  9ADD    	SBI PORTA,PA5
00650D  9ADE    	SBI PORTA,PA6
00650E  9ADF    	SBI PORTA,PA7
00650F  91E0    	LDS ZL,$0065
006510  0065
006511  60E4    	ORI ZL,$04
006512  93E0    	STS $0065,ZL
006513  0065
006514  9AAF    	SBI PORTC,PC7
006515  E2EC    	LDI ZL,$2C
006516  E0F1    	LDI ZH,$01
006517  93FA    	ST -Y,ZH
006518  93EA    	ST -Y,ZL
006519  940E    	CALL L537
00651A  6A4C
00651B  98DF    	CBI PORTA,PA7   // error
00651C  EFE4    	LDI ZL,$F4
00651D  E0F1    	LDI ZH,$01
00651E  93FA    	ST -Y,ZH
00651F  93EA    	ST -Y,ZL
006520  940E    	CALL L537        /delay 500ms     
006521  6A4C
006522  9ADA    	SBI PORTA,PA2
006523  9ADB    	SBI PORTA,PA3
006524  9ADC    	SBI PORTA,PA4
006525  9ADD    	SBI PORTA,PA5
006526  9ADE    	SBI PORTA,PA6
006527  9ADF    	SBI PORTA,PA7
006528  91E0    	LDS ZL,$0065
006529  0065
00652A  60E4    	ORI ZL,$04
00652B  93E0    	STS $0065,ZL
00652C  0065
00652D  9AAF    	SBI PORTC,PC7
00652E  E2EC    	LDI ZL,$2C
00652F  E0F1    	LDI ZH,$01
006530  93FA    	ST -Y,ZH
006531  93EA    	ST -Y,ZL
006532  940E    	CALL L537
006533  6A4C
006534  98DC    	CBI PORTA,PA4
006535  EFE4    	LDI ZL,$F4
006536  E0F1    	LDI ZH,$01
006537  93FA    	ST -Y,ZH
006538  93EA    	ST -Y,ZL
006539  940E    	CALL L537
00653A  6A4C
00653B  9ADA    	SBI PORTA,PA2
00653C  9ADB    	SBI PORTA,PA3
00653D  9ADC    	SBI PORTA,PA4
00653E  9ADD    	SBI PORTA,PA5
00653F  9ADE    	SBI PORTA,PA6
006540  9ADF    	SBI PORTA,PA7
006541  91E0    	LDS ZL,$0065
006542  0065
006543  60E4    	ORI ZL,$04
006544  93E0    	STS $0065,ZL
006545  0065
006546  9AAF    	SBI PORTC,PC7
006547  E2EC    	LDI ZL,$2C
006548  E0F1    	LDI ZH,$01
006549  93FA    	ST -Y,ZH
00654A  93EA    	ST -Y,ZL
00654B  940E    	CALL L537
00654C  6A4C
00654D  98DA    	CBI PORTA,PA2
00654E  EFE4    	LDI ZL,$F4
00654F  E0F1    	LDI ZH,$01
006550  93FA    	ST -Y,ZH
006551  93EA    	ST -Y,ZL
006552  940E    	CALL L537
006553  6A4C
006554  9ADA    	SBI PORTA,PA2
006555  9ADB    	SBI PORTA,PA3
006556  9ADC    	SBI PORTA,PA4
006557  9ADD    	SBI PORTA,PA5
006558  9ADE    	SBI PORTA,PA6
006559  9ADF    	SBI PORTA,PA7
00655A  91E0    	LDS ZL,$0065
00655B  0065
00655C  60E4    	ORI ZL,$04
00655D  93E0    	STS $0065,ZL
00655E  0065
00655F  9AAF    	SBI PORTC,PC7
006560  E2EC    	LDI ZL,$2C
006561  E0F1    	LDI ZH,$01
006562  93FA    	ST -Y,ZH
006563  93EA    	ST -Y,ZL
006564  940E    	CALL L537
006565  6A4C
006566  98DB    	CBI PORTA,PA3
006567  EFE4    	LDI ZL,$F4
006568  E0F1    	LDI ZH,$01
006569  93FA    	ST -Y,ZH
00656A  93EA    	ST -Y,ZL
00656B  940E    	CALL L537
00656C  6A4C
00656D  E0E5    	LDI ZL,$05
00656E  93EA    	ST -Y,ZL
00656F  940E    	CALL L977
006570  4106
006571  9ADA    	SBI PORTA,PA2
006572  9ADB    	SBI PORTA,PA3
006573  9ADC    	SBI PORTA,PA4
006574  9ADD    	SBI PORTA,PA5
006575  9ADE    	SBI PORTA,PA6
006576  9ADF    	SBI PORTA,PA7
006577  91E0    	LDS ZL,$0065
006578  0065
006579  60E4    	ORI ZL,$04
00657A  93E0    	STS $0065,ZL
00657B  0065
00657C  9AAF    	SBI PORTC,PC7
00657D  EEE8    	LDI ZL,$E8
00657E  E0F3    	LDI ZH,$03
00657F  93FA    	ST -Y,ZH
006580  93EA    	ST -Y,ZL
006581  940E    	CALL L537
006582  6A4C
006583  9A56    	SBI UCSR0B,TXCIE0
006584  B7E9    	IN ZL,EIMSK
006585  64E0    	ORI ZL,$40
006586  BFE9    	OUT EIMSK,ZL
006587  B7E7    	IN ZL,TIMSK
006588  60E1    	ORI ZL,$01
006589  BFE7    	OUT TIMSK,ZL
00658A  C208    	RJMP L1317
00658B  931A    L850:	ST -Y,R17
00658C  930A    	ST -Y,R16
00658D  FC24    	SBRC R2,4
00658E  C204    	RJMP L1317
00658F  FE33    	SBRS R3,3
006590  C00B    	RJMP L1345
006591  91E0    	LDS ZL,$06E4
006592  06E4
006593  30E7    	CPI ZL,$07
006594  F039    	BREQ L1345
006595  91E0    	LDS ZL,$06E4
006596  06E4
006597  32EB    	CPI ZL,$2B
006598  F019    	BREQ L1345
006599  E0E4    	LDI ZL,$04
00659A  15EC    	CP ZL,R12
00659B  F409    	BRNE L1346
00659C  C001    L1345:	RJMP L1347
00659D  C1F5    L1346:	RJMP L1317
00659E  FE32    L1347:	SBRS R3,2
00659F  C1F3    	RJMP L1317
0065A0  B7E9    	IN ZL,EIMSK
0065A1  7BEF    	ANDI ZL,$BF
0065A2  BFE9    	OUT EIMSK,ZL
0065A3  94E8    	BCLR 6
0065A4  F832    	BLD R3,2
0065A5  E0AE    	LDI XL,$0E
0065A6  E0B0    	LDI XH,$00
0065A7  940E    	CALL L544
0065A8  6B16
0065A9  91A0    	LDS XL,$06E1
0065AA  06E1
0065AB  17EA    	CP ZL,XL
0065AC  F489    	BRNE L1348
0065AD  E1A3    	LDI XL,$13
0065AE  E0B0    	LDI XH,$00
0065AF  940E    	CALL L544
0065B0  6B16
0065B1  91A0    	LDS XL,$06E2
0065B2  06E2
0065B3  17EA    	CP ZL,XL
0065B4  F449    	BRNE L1348
0065B5  E1A8    	LDI XL,$18
0065B6  E0B0    	LDI XH,$00
0065B7  940E    	CALL L544
0065B8  6B16
0065B9  91A0    	LDS XL,$06E3
0065BA  06E3
0065BB  17EA    	CP ZL,XL
0065BC  F409    	BRNE L1348
0065BD  C062    	RJMP L1349
0065BE  E0AF    L1348:	LDI XL,$0F
0065BF  E0B0    	LDI XH,$00
0065C0  940E    	CALL L544
0065C1  6B16
0065C2  91A0    	LDS XL,$06E1
0065C3  06E1
0065C4  17EA    	CP ZL,XL
0065C5  F489    	BRNE L1350
0065C6  E1A4    	LDI XL,$14
0065C7  E0B0    	LDI XH,$00
0065C8  940E    	CALL L544
0065C9  6B16
0065CA  91A0    	LDS XL,$06E2
0065CB  06E2
0065CC  17EA    	CP ZL,XL
0065CD  F449    	BRNE L1350
0065CE  E1A9    	LDI XL,$19
0065CF  E0B0    	LDI XH,$00
0065D0  940E    	CALL L544
0065D1  6B16
0065D2  91A0    	LDS XL,$06E3
0065D3  06E3
0065D4  17EA    	CP ZL,XL
0065D5  F409    	BRNE L1350
0065D6  C049    	RJMP L1349
0065D7  E1A0    L1350:	LDI XL,$10
0065D8  E0B0    	LDI XH,$00
0065D9  940E    	CALL L544
0065DA  6B16
0065DB  91A0    	LDS XL,$06E1
0065DC  06E1
0065DD  17EA    	CP ZL,XL
0065DE  F481    	BRNE L1351
0065DF  E1A5    	LDI XL,$15
0065E0  E0B0    	LDI XH,$00
0065E1  940E    	CALL L544
0065E2  6B16
0065E3  91A0    	LDS XL,$06E2
0065E4  06E2
0065E5  17EA    	CP ZL,XL
0065E6  F441    	BRNE L1351
0065E7  E1AA    	LDI XL,$1A
0065E8  E0B0    	LDI XH,$00
0065E9  940E    	CALL L544
0065EA  6B16
0065EB  91A0    	LDS XL,$06E3
0065EC  06E3
0065ED  17EA    	CP ZL,XL
0065EE  F189    	BREQ L1349
0065EF  E1A1    L1351:	LDI XL,$11
0065F0  E0B0    	LDI XH,$00
0065F1  940E    	CALL L544
0065F2  6B16
0065F3  91A0    	LDS XL,$06E1
0065F4  06E1
0065F5  17EA    	CP ZL,XL
0065F6  F481    	BRNE L1352
0065F7  E1A6    	LDI XL,$16
0065F8  E0B0    	LDI XH,$00
0065F9  940E    	CALL L544
0065FA  6B16
0065FB  91A0    	LDS XL,$06E2
0065FC  06E2
0065FD  17EA    	CP ZL,XL
0065FE  F441    	BRNE L1352
0065FF  E1AB    	LDI XL,$1B
006600  E0B0    	LDI XH,$00
006601  940E    	CALL L544
006602  6B16
006603  91A0    	LDS XL,$06E3
006604  06E3
006605  17EA    	CP ZL,XL
006606  F0C9    	BREQ L1349
006607  E1A2    L1352:	LDI XL,$12
006608  E0B0    	LDI XH,$00
006609  940E    	CALL L544
00660A  6B16
00660B  91A0    	LDS XL,$06E1
00660C  06E1
00660D  17EA    	CP ZL,XL
00660E  F481    	BRNE L1353
00660F  E1A7    	LDI XL,$17
006610  E0B0    	LDI XH,$00
006611  940E    	CALL L544
006612  6B16
006613  91A0    	LDS XL,$06E2
006614  06E2
006615  17EA    	CP ZL,XL
006616  F441    	BRNE L1353
006617  E1AC    	LDI XL,$1C
006618  E0B0    	LDI XH,$00
006619  940E    	CALL L544
00661A  6B16
00661B  91A0    	LDS XL,$06E3
00661C  06E3
00661D  17EA    	CP ZL,XL
00661E  F009    	BREQ L1349
00661F  C161    L1353:	RJMP L1354
006620  91E0    L1349:	LDS ZL,$06E4
006621  06E4
006622  30E1    	CPI ZL,$01
006623  F429    	BRNE L1355
006624  E0E1    	LDI ZL,$01
006625  93EA    	ST -Y,ZL
006626  940E    	CALL L1175
006627  53E1
006628  C158    	RJMP L1354
006629  30E2    L1355:	CPI ZL,$02
00662A  F429    	BRNE L1356
00662B  E0E2    	LDI ZL,$02
00662C  93EA    	ST -Y,ZL
00662D  940E    	CALL L1175
00662E  53E1
00662F  C151    	RJMP L1354
006630  30E3    L1356:	CPI ZL,$03
006631  F429    	BRNE L1357
006632  E0E3    	LDI ZL,$03
006633  93EA    	ST -Y,ZL
006634  940E    	CALL L1175
006635  53E1
006636  C14A    	RJMP L1354
006637  30E4    L1357:	CPI ZL,$04
006638  F429    	BRNE L1358
006639  E0E4    	LDI ZL,$04
00663A  93EA    	ST -Y,ZL
00663B  940E    	CALL L1175
00663C  53E1
00663D  C143    	RJMP L1354
00663E  30E5    L1358:	CPI ZL,$05
00663F  F429    	BRNE L1359
006640  E0E5    	LDI ZL,$05
006641  93EA    	ST -Y,ZL
006642  940E    	CALL L1175
006643  53E1
006644  C13C    	RJMP L1354
006645  30E6    L1359:	CPI ZL,$06
006646  F429    	BRNE L1360
006647  E0E6    	LDI ZL,$06
006648  93EA    	ST -Y,ZL
006649  940E    	CALL L1175
00664A  53E1
00664B  C135    	RJMP L1354
00664C  30E8    L1360:	CPI ZL,$08
00664D  F429    	BRNE L1361
00664E  E0E8    	LDI ZL,$08
00664F  93EA    	ST -Y,ZL
006650  940E    	CALL L1175
006651  53E1
006652  C12E    	RJMP L1354
006653  30E9    L1361:	CPI ZL,$09
006654  F429    	BRNE L1362
006655  E0E9    	LDI ZL,$09
006656  93EA    	ST -Y,ZL
006657  940E    	CALL L1175
006658  53E1
006659  C127    	RJMP L1354
00665A  30EA    L1362:	CPI ZL,$0A
00665B  F429    	BRNE L1363
00665C  E0EA    	LDI ZL,$0A
00665D  93EA    	ST -Y,ZL
00665E  940E    	CALL L1175
00665F  53E1
006660  C120    	RJMP L1354
006661  30EB    L1363:	CPI ZL,$0B
006662  F429    	BRNE L1364
006663  E0EB    	LDI ZL,$0B
006664  93EA    	ST -Y,ZL
006665  940E    	CALL L1175
006666  53E1
006667  C119    	RJMP L1354
006668  30E7    L1364:	CPI ZL,$07
006669  F439    	BRNE L1365
00666A  94E8    	BCLR 6
00666B  F833    	BLD R3,3
00666C  E0E7    	LDI ZL,$07
00666D  93EA    	ST -Y,ZL
00666E  940E    	CALL L1175
00666F  53E1
006670  C110    	RJMP L1354
006671  30EC    L1365:	CPI ZL,$0C
006672  F429    	BRNE L1366
006673  E0EC    	LDI ZL,$0C
006674  93EA    	ST -Y,ZL
006675  940E    	CALL L1175
006676  53E1
006677  C109    	RJMP L1354
006678  30ED    L1366:	CPI ZL,$0D
006679  F429    	BRNE L1367
00667A  E0ED    	LDI ZL,$0D
00667B  93EA    	ST -Y,ZL
00667C  940E    	CALL L1175
00667D  53E1
00667E  C102    	RJMP L1354
00667F  30EE    L1367:	CPI ZL,$0E
006680  F429    	BRNE L1368
006681  E0EE    	LDI ZL,$0E
006682  93EA    	ST -Y,ZL
006683  940E    	CALL L1175
006684  53E1
006685  C0FB    	RJMP L1354
006686  30EF    L1368:	CPI ZL,$0F
006687  F429    	BRNE L1369
006688  E0EF    	LDI ZL,$0F
006689  93EA    	ST -Y,ZL
00668A  940E    	CALL L1175
00668B  53E1
00668C  C0F4    	RJMP L1354
00668D  31E0    L1369:	CPI ZL,$10
00668E  F429    	BRNE L1370
00668F  E1E0    	LDI ZL,$10
006690  93EA    	ST -Y,ZL
006691  940E    	CALL L1175
006692  53E1
006693  C0ED    	RJMP L1354
006694  31E1    L1370:	CPI ZL,$11
006695  F429    	BRNE L1371
006696  E1E1    	LDI ZL,$11
006697  93EA    	ST -Y,ZL
006698  940E    	CALL L1175
006699  53E1
00669A  C0E6    	RJMP L1354
00669B  31E2    L1371:	CPI ZL,$12
00669C  F429    	BRNE L1372
00669D  E1E2    	LDI ZL,$12
00669E  93EA    	ST -Y,ZL
00669F  940E    	CALL L1175
0066A0  53E1
0066A1  C0DF    	RJMP L1354
0066A2  31E3    L1372:	CPI ZL,$13
0066A3  F429    	BRNE L1373
0066A4  E1E3    	LDI ZL,$13
0066A5  93EA    	ST -Y,ZL
0066A6  940E    	CALL L1175
0066A7  53E1
0066A8  C0D8    	RJMP L1354
0066A9  31E4    L1373:	CPI ZL,$14
0066AA  F429    	BRNE L1374
0066AB  E1E4    	LDI ZL,$14
0066AC  93EA    	ST -Y,ZL
0066AD  940E    	CALL L1175
0066AE  53E1
0066AF  C0D1    	RJMP L1354
0066B0  31E5    L1374:	CPI ZL,$15
0066B1  F429    	BRNE L1375
0066B2  E1E5    	LDI ZL,$15
0066B3  93EA    	ST -Y,ZL
0066B4  940E    	CALL L1175
0066B5  53E1
0066B6  C0CA    	RJMP L1354
0066B7  31E6    L1375:	CPI ZL,$16
0066B8  F429    	BRNE L1376
0066B9  E1E6    	LDI ZL,$16
0066BA  93EA    	ST -Y,ZL
0066BB  940E    	CALL L1175
0066BC  53E1
0066BD  C0C3    	RJMP L1354
0066BE  31E7    L1376:	CPI ZL,$17
0066BF  F429    	BRNE L1377
0066C0  E1E7    	LDI ZL,$17
0066C1  93EA    	ST -Y,ZL
0066C2  940E    	CALL L1175
0066C3  53E1
0066C4  C0BC    	RJMP L1354
0066C5  31EC    L1377:	CPI ZL,$1C
0066C6  F429    	BRNE L1378
0066C7  E1EC    	LDI ZL,$1C
0066C8  93EA    	ST -Y,ZL
0066C9  940E    	CALL L1175
0066CA  53E1
0066CB  C0B5    	RJMP L1354
0066CC  32E1    L1378:	CPI ZL,$21
0066CD  F429    	BRNE L1379
0066CE  E2E1    	LDI ZL,$21
0066CF  93EA    	ST -Y,ZL
0066D0  940E    	CALL L1175
0066D1  53E1
0066D2  C0AE    	RJMP L1354
0066D3  32E2    L1379:	CPI ZL,$22
0066D4  F429    	BRNE L1380
0066D5  E2E2    	LDI ZL,$22
0066D6  93EA    	ST -Y,ZL
0066D7  940E    	CALL L1175
0066D8  53E1
0066D9  C0A7    	RJMP L1354
0066DA  32E3    L1380:	CPI ZL,$23
0066DB  F429    	BRNE L1381
0066DC  E2E3    	LDI ZL,$23
0066DD  93EA    	ST -Y,ZL
0066DE  940E    	CALL L1175
0066DF  53E1
0066E0  C0A0    	RJMP L1354
0066E1  32E4    L1381:	CPI ZL,$24
0066E2  F429    	BRNE L1382
0066E3  E2E4    	LDI ZL,$24
0066E4  93EA    	ST -Y,ZL
0066E5  940E    	CALL L1175
0066E6  53E1
0066E7  C099    	RJMP L1354
0066E8  32E5    L1382:	CPI ZL,$25
0066E9  F429    	BRNE L1383
0066EA  E2E5    	LDI ZL,$25
0066EB  93EA    	ST -Y,ZL
0066EC  940E    	CALL L1175
0066ED  53E1
0066EE  C092    	RJMP L1354
0066EF  32E6    L1383:	CPI ZL,$26
0066F0  F429    	BRNE L1384
0066F1  E2E6    	LDI ZL,$26
0066F2  93EA    	ST -Y,ZL
0066F3  940E    	CALL L1175
0066F4  53E1
0066F5  C08B    	RJMP L1354
0066F6  32E7    L1384:	CPI ZL,$27
0066F7  F429    	BRNE L1385
0066F8  E2E7    	LDI ZL,$27
0066F9  93EA    	ST -Y,ZL
0066FA  940E    	CALL L1175
0066FB  53E1
0066FC  C084    	RJMP L1354
0066FD  32E8    L1385:	CPI ZL,$28
0066FE  F429    	BRNE L1386
0066FF  E2E8    	LDI ZL,$28
006700  93EA    	ST -Y,ZL
006701  940E    	CALL L1175
006702  53E1
006703  C07D    	RJMP L1354
006704  32E9    L1386:	CPI ZL,$29
006705  F429    	BRNE L1387
006706  E2E9    	LDI ZL,$29
006707  93EA    	ST -Y,ZL
006708  940E    	CALL L1175
006709  53E1
00670A  C076    	RJMP L1354
00670B  32EA    L1387:	CPI ZL,$2A
00670C  F429    	BRNE L1388
00670D  E2EA    	LDI ZL,$2A
00670E  93EA    	ST -Y,ZL
00670F  940E    	CALL L1175
006710  53E1
006711  C06F    	RJMP L1354
006712  33E6    L1388:	CPI ZL,$36
006713  F429    	BRNE L1389
006714  E0E1    	LDI ZL,$01
006715  93EA    	ST -Y,ZL
006716  940E    	CALL L1390
006717  5087
006718  C068    	RJMP L1354
006719  33E7    L1389:	CPI ZL,$37
00671A  F429    	BRNE L1391
00671B  E0E2    	LDI ZL,$02
00671C  93EA    	ST -Y,ZL
00671D  940E    	CALL L1390
00671E  5087
00671F  C061    	RJMP L1354
006720  33E8    L1391:	CPI ZL,$38
006721  F429    	BRNE L1392
006722  E0E3    	LDI ZL,$03
006723  93EA    	ST -Y,ZL
006724  940E    	CALL L1390
006725  5087
006726  C05A    	RJMP L1354
006727  33E9    L1392:	CPI ZL,$39
006728  F429    	BRNE L1393
006729  E0E4    	LDI ZL,$04
00672A  93EA    	ST -Y,ZL
00672B  940E    	CALL L1390
00672C  5087
00672D  C053    	RJMP L1354
00672E  33EA    L1393:	CPI ZL,$3A
00672F  F429    	BRNE L1394
006730  E0E5    	LDI ZL,$05
006731  93EA    	ST -Y,ZL
006732  940E    	CALL L1390
006733  5087
006734  C04C    	RJMP L1354
006735  33EB    L1394:	CPI ZL,$3B
006736  F429    	BRNE L1395
006737  E0E6    	LDI ZL,$06
006738  93EA    	ST -Y,ZL
006739  940E    	CALL L1390
00673A  5087
00673B  C045    	RJMP L1354
00673C  33EC    L1395:	CPI ZL,$3C
00673D  F429    	BRNE L1396
00673E  E0E7    	LDI ZL,$07
00673F  93EA    	ST -Y,ZL
006740  940E    	CALL L1390
006741  5087
006742  C03E    	RJMP L1354
006743  33ED    L1396:	CPI ZL,$3D
006744  F429    	BRNE L1397
006745  E0E8    	LDI ZL,$08
006746  93EA    	ST -Y,ZL
006747  940E    	CALL L1390
006748  5087
006749  C037    	RJMP L1354
00674A  33EE    L1397:	CPI ZL,$3E
00674B  F429    	BRNE L1398
00674C  E0E9    	LDI ZL,$09
00674D  93EA    	ST -Y,ZL
00674E  940E    	CALL L1390
00674F  5087
006750  C030    	RJMP L1354
006751  33EF    L1398:	CPI ZL,$3F
006752  F429    	BRNE L1399
006753  E0E0    	LDI ZL,$00
006754  93EA    	ST -Y,ZL
006755  940E    	CALL L1390
006756  5087
006757  C029    	RJMP L1354
006758  32EB    L1399:	CPI ZL,$2B
006759  F439    	BRNE L1400
00675A  FE25    	SBRS R2,5
00675B  C004    	RJMP L1401
00675C  940E    	CALL L805
00675D  407B
00675E  940E    	CALL L1304
00675F  3CA8
006760  C020    L1401:	RJMP L1354
006761  32EC    L1400:	CPI ZL,$2C
006762  F0F1    	BREQ L1354
006763  33E1    	CPI ZL,$31
006764  F4E1    	BRNE L1354
006765  E0E0    	LDI ZL,$00
006766  93EA    	ST -Y,ZL
006767  E3E2    	LDI ZL,$32
006768  E0F0    	LDI ZH,$00
006769  93FA    	ST -Y,ZH
00676A  93EA    	ST -Y,ZL
00676B  EEE8    	LDI ZL,$E8
00676C  E0F3    	LDI ZH,$03
00676D  93FA    	ST -Y,ZH
00676E  93EA    	ST -Y,ZL
00676F  E0E4    	LDI ZL,$04
006770  93EA    	ST -Y,ZL
006771  940E    	CALL L809
006772  49C3
006773  E0E0    	LDI ZL,$00
006774  93EA    	ST -Y,ZL
006775  E0E1    	LDI ZL,$01
006776  E0F0    	LDI ZH,$00
006777  93FA    	ST -Y,ZH
006778  93EA    	ST -Y,ZL
006779  E6E4    	LDI ZL,$64
00677A  E0F0    	LDI ZH,$00
00677B  93FA    	ST -Y,ZH
00677C  93EA    	ST -Y,ZL
00677D  E0E1    	LDI ZL,$01
00677E  93EA    	ST -Y,ZL
00677F  940E    	CALL L809
006780  49C3
006781  E000    L1354:	LDI R16,$00
006782  E010    	LDI R17,$00
006783  3004    L1403:	CPI R16,$04
006784  E0E0    	LDI ZL,$00
006785  071E    	CPC R17,ZL
006786  F448    	BRCC L1402
006787  EEA1    	LDI XL,$E1
006788  E0B6    	LDI XH,$06
006789  0FA0    	ADD XL,R16
00678A  1FB1    	ADC XH,R17
00678B  E0E0    	LDI ZL,$00
00678C  93EC    	ST X,ZL
00678D  5F0F    	SUBI R16,$FF
00678E  4F1F    	SBCI R17,$FF
00678F  CFF3    	RJMP L1403
006790  B7E9    L1402:	IN ZL,EIMSK
006791  64E0    	ORI ZL,$40
006792  BFE9    	OUT EIMSK,ZL
006793  9109    L1317:	LD R16,Y+
006794  9119    	LD R17,Y+
006795  9508    	RET
006796  9891    L1420:	CBI PORTD,PD1
006797  9A90    	SBI PORTD,PD0
006798  0000    	NOP
006799  0000    	NOP
00679A  9890    	CBI PORTD,PD0
00679B  9A91    	SBI PORTD,PD1
00679C  9508    	RET
00679D  9A88    L1416:	SBI DDRD,DDD0
00679E  9889    	CBI DDRD,DDD1
00679F  9A90    	SBI PORTD,PD0
0067A0  0000    	NOP
0067A1  0000    	NOP
0067A2  9890    	CBI PORTD,PD0
0067A3  9A89    	SBI DDRD,DDD1
0067A4  9A88    	SBI DDRD,DDD0
0067A5  9508    	RET
0067A6  931A    L1418:	ST -Y,R17
0067A7  930A    	ST -Y,R16
0067A8  E010    	LDI R17,$00
0067A9  9A88    	SBI DDRD,DDD0
0067AA  9889    	CBI DDRD,DDD1
0067AB  E000    	LDI R16,$00
0067AC  3008    L1405:	CPI R16,$08
0067AD  F470    	BRCC L1404
0067AE  0F11    	LSL R17
0067AF  9A90    	SBI PORTD,PD0
0067B0  0000    	NOP
0067B1  0000    	NOP
0067B2  9981    	SBIC PIND,PIND1
0067B3  6011    	ORI R17,$01
0067B4  0000    	NOP
0067B5  0000    	NOP
0067B6  9890    	CBI PORTD,PD0
0067B7  0000    	NOP
0067B8  0000    	NOP
0067B9  5F0F    	SUBI R16,$FF
0067BA  940C    	JMP L1405
0067BB  67AC
0067BC  9A89    L1404:	SBI DDRD,DDD1
0067BD  9A88    	SBI DDRD,DDD0
0067BE  2FE1    	MOV ZL,R17
0067BF  9109    	LD R16,Y+
0067C0  9119    	LD R17,Y+
0067C1  9508    	RET
0067C2  931A    L1415:	ST -Y,R17
0067C3  930A    	ST -Y,R16
0067C4  E000    	LDI R16,$00
0067C5  3008    L1409:	CPI R16,$08
0067C6  F490    	BRCC L1406
0067C7  81EA    	LDD ZL,Y+2
0067C8  78E0    	ANDI ZL,$80
0067C9  2F1E    	MOV R17,ZL
0067CA  3010    	CPI R17,$00
0067CB  F011    	BREQ L1407
0067CC  9A91    	SBI PORTD,PD1
0067CD  C001    	RJMP L1408
0067CE  9891    L1407:	CBI PORTD,PD1
0067CF  9A90    L1408:	SBI PORTD,PD0
0067D0  0000    	NOP
0067D1  0000    	NOP
0067D2  9890    	CBI PORTD,PD0
0067D3  81EA    	LDD ZL,Y+2
0067D4  0FEE    	LSL ZL
0067D5  83EA    	STD Y+2,ZL
0067D6  5F0F    	SUBI R16,$FF
0067D7  940C    	JMP L1409
0067D8  67C5
0067D9  8119    L1406:	LDD R17,Y+1
0067DA  8108    	LD R16,Y
0067DB  9623    	ADIW YH:YL,3
0067DC  9508    	RET
0067DD  9A89    L1414:	SBI DDRD,DDD1
0067DE  9A88    	SBI DDRD,DDD0
0067DF  9A91    	SBI PORTD,PD1
0067E0  9A90    	SBI PORTD,PD0
0067E1  0000    	NOP
0067E2  0000    	NOP
0067E3  9891    	CBI PORTD,PD1
0067E4  0000    	NOP
0067E5  0000    	NOP
0067E6  9890    	CBI PORTD,PD0
0067E7  9508    	RET
0067E8  9890    L1422:	CBI PORTD,PD0
0067E9  9891    	CBI PORTD,PD1
0067EA  0000    	NOP
0067EB  0000    	NOP
0067EC  9A90    	SBI PORTD,PD0
0067ED  0000    	NOP
0067EE  0000    	NOP
0067EF  9A91    	SBI PORTD,PD1
0067F0  9508    	RET
0067F1  940E    L538:	CALL L859
0067F2  6CB7
0067F3  E020    	LDI R18,$00
0067F4  81AF    	LDD XL,Y+7
0067F5  85B8    	LDD XH,Y+8
0067F6  30A0    	CPI XL,$00
0067F7  E8E0    	LDI ZL,$80
0067F8  07BE    	CPC XH,ZL
0067F9  F010    	BRCS L1410
0067FA  940C    	JMP L1411
0067FB  6844
0067FC  E000    L1410:	LDI R16,$00
0067FD  E010    	LDI R17,$00
0067FE  81ED    L1413:	LDD ZL,Y+5
0067FF  81FE    	LDD ZH,Y+6
006800  170E    	CP R16,ZL
006801  071F    	CPC R17,ZH
006802  F448    	BRCC L1412
006803  E0A0    	LDI XL,$00
006804  E0B5    	LDI XH,$05
006805  0FA0    	ADD XL,R16
006806  1FB1    	ADC XH,R17
006807  E0E0    	LDI ZL,$00
006808  93EC    	ST X,ZL
006809  5F0F    	SUBI R16,$FF
00680A  4F1F    	SBCI R17,$FF
00680B  CFF2    	RJMP L1413
00680C  8538    L1412:	LDD R19,Y+8
00680D  814F    	LDD R20,Y+7
00680E  9890    	CBI PORTD,PD0
00680F  940E    	CALL L1414
006810  67DD
006811  EAE0    	LDI ZL,$A0
006812  93EA    	ST -Y,ZL
006813  940E    	CALL L1415
006814  67C2
006815  940E    	CALL L1416
006816  679D
006817  933A    	ST -Y,R19
006818  940E    	CALL L1415
006819  67C2
00681A  940E    	CALL L1416
00681B  679D
00681C  934A    	ST -Y,R20
00681D  940E    	CALL L1415
00681E  67C2
00681F  940E    	CALL L1416
006820  679D
006821  940E    	CALL L1414
006822  67DD
006823  EAE1    	LDI ZL,$A1
006824  93EA    	ST -Y,ZL
006825  940E    	CALL L1415
006826  67C2
006827  940E    	CALL L1416
006828  679D
006829  E000    	LDI R16,$00
00682A  E010    	LDI R17,$00
00682B  81ED    L1421:	LDD ZL,Y+5
00682C  81FE    	LDD ZH,Y+6
00682D  9731    	SBIW ZH:ZL,1
00682E  83ED    	STD Y+5,ZL
00682F  83FE    	STD Y+6,ZH
006830  9631    	ADIW ZH:ZL,1
006831  F081    	BREQ L1417
006832  940E    	CALL L1418
006833  67A6
006834  2F2E    	MOV R18,ZL
006835  81ED    	LDD ZL,Y+5
006836  81FE    	LDD ZH,Y+6
006837  9730    	SBIW ZH:ZL,0
006838  F011    	BREQ L1419
006839  940E    	CALL L1420
00683A  6796
00683B  01D8    L1419:	MOVW R27:R26,R17:R16
00683C  50A0    	SUBI XL,$00
00683D  4FBB    	SBCI XH,$FB
00683E  932C    	ST X,R18
00683F  5F0F    	SUBI R16,$FF
006840  4F1F    	SBCI R17,$FF
006841  CFE9    	RJMP L1421
006842  940E    L1417:	CALL L1422
006843  67E8
006844  940E    L1411:	CALL L866
006845  6CBE
006846  9629    	ADIW YH:YL,9
006847  9508    	RET
006848  940E    L536:	CALL L910
006849  6CB8
00684A  98DD    	CBI PORTA,PA5
00684B  81AE    	LDD XL,Y+6
00684C  81BF    	LDD XH,Y+7
00684D  30A0    	CPI XL,$00
00684E  E8E0    	LDI ZL,$80
00684F  07BE    	CPC XH,ZL
006850  F560    	BRCC L1423
006851  812F    	LDD R18,Y+7
006852  813E    	LDD R19,Y+6
006853  9890    	CBI PORTD,PD0
006854  940E    	CALL L1414
006855  67DD
006856  EAE0    	LDI ZL,$A0
006857  93EA    	ST -Y,ZL
006858  940E    	CALL L1415
006859  67C2
00685A  940E    	CALL L1416
00685B  679D
00685C  932A    	ST -Y,R18
00685D  940E    	CALL L1415
00685E  67C2
00685F  940E    	CALL L1416
006860  679D
006861  933A    	ST -Y,R19
006862  940E    	CALL L1415
006863  67C2
006864  940E    	CALL L1416
006865  679D
006866  E000    	LDI R16,$00
006867  E010    	LDI R17,$00
006868  81EC    L1425:	LDD ZL,Y+4
006869  81FD    	LDD ZH,Y+5
00686A  170E    	CP R16,ZL
00686B  071F    	CPC R17,ZH
00686C  F470    	BRCC L1424
00686D  01F8    	MOVW R31:R30,R17:R16
00686E  85A8    	LDD XL,Y+8
00686F  85B9    	LDD XH,Y+9
006870  0FAE    	ADD XL,ZL
006871  1FBF    	ADC XH,ZH
006872  91EC    	LD ZL,X
006873  93EA    	ST -Y,ZL
006874  940E    	CALL L1415
006875  67C2
006876  940E    	CALL L1416
006877  679D
006878  5F0F    	SUBI R16,$FF
006879  4F1F    	SBCI R17,$FF
00687A  CFED    	RJMP L1425
00687B  940E    L1424:	CALL L1422
00687C  67E8
00687D  9ADD    L1423:	SBI PORTA,PA5
00687E  940E    	CALL L1014
00687F  6CBF
006880  962A    	ADIW YH:YL,10
006881  9508    	RET
006882  9728    L1102:	SBIW YH:YL,8
006883  E084    	LDI R24,$04
006884  E0A4    	LDI XL,$04
006885  E0B0    	LDI XH,$00
006886  EBE8    	LDI ZL,$B8
006887  E5FC    	LDI ZH,$5C
006888  E060    	LDI R22,$00
006889  940E    	CALL L1015
00688A  6CC4
00688B  B7E9    	IN ZL,EIMSK
00688C  7BEF    	ANDI ZL,$BF
00688D  BFE9    	OUT EIMSK,ZL
00688E  9AC5    	SBI PORTB,PB5
00688F  E3E2    	LDI ZL,$32
006890  E0F0    	LDI ZH,$00
006891  93FA    	ST -Y,ZH
006892  93EA    	ST -Y,ZL
006893  940E    	CALL L537
006894  6A4C
006895  2444    	CLR R4
006896  9468    	BSET 6
006897  F827    	BLD R2,7
006898  EDEC    	LDI ZL,$DC
006899  93EA    	ST -Y,ZL
00689A  940E    	CALL L1339
00689B  3C54
00689C  FC27    L1426:	SBRC R2,7
00689D  CFFE    	RJMP L1426
00689E  2DE9    	MOV ZL,R9
00689F  81AC    	LDD XL,Y+4
0068A0  81BD    	LDD XH,Y+5
0068A1  818E    	LDD R24,Y+6
0068A2  819F    	LDD R25,Y+7
0068A3  27FF    	CLR ZH
0068A4  2766    	CLR R22
0068A5  2777    	CLR R23
0068A6  940E    	CALL L934
0068A7  6B8F
0068A8  940E    	CALL L1427
0068A9  6BCD
0068AA  83EC    	STD Y+4,ZL
0068AB  83FD    	STD Y+5,ZH
0068AC  836E    	STD Y+6,R22
0068AD  837F    	STD Y+7,R23
0068AE  98C5    	CBI PORTB,PB5
0068AF  B7E9    	IN ZL,EIMSK
0068B0  64E0    	ORI ZL,$40
0068B1  BFE9    	OUT EIMSK,ZL
0068B2  81AC    	LDD XL,Y+4
0068B3  81BD    	LDD XH,Y+5
0068B4  818E    	LDD R24,Y+6
0068B5  819F    	LDD R25,Y+7
0068B6  EEE1    	LDI ZL,$E1
0068B7  E7FA    	LDI ZH,$7A
0068B8  ED6C    	LDI R22,$DC
0068B9  E470    	LDI R23,$40
0068BA  940E    	CALL L1005
0068BB  6B05
0068BC  940E    	CALL L1006
0068BD  6BC6
0068BE  E6A6    	LDI XL,$66
0068BF  EAB6    	LDI XH,$A6
0068C0  E88B    	LDI R24,$8B
0068C1  E494    	LDI R25,$44
0068C2  940E    	CALL L936
0068C3  6C4D
0068C4  83E8    	ST Y,ZL
0068C5  83F9    	STD Y+1,ZH
0068C6  836A    	STD Y+2,R22
0068C7  837B    	STD Y+3,R23
0068C8  81A8    	LD XL,Y
0068C9  81B9    	LDD XH,Y+1
0068CA  818A    	LDD R24,Y+2
0068CB  819B    	LDD R25,Y+3
0068CC  940E    	CALL L1428
0068CD  6CB2
0068CE  F40C    	BRGE L1429
0068CF  C01A    	RJMP L1430
0068D0  81A8    L1429:	LD XL,Y
0068D1  81B9    	LDD XH,Y+1
0068D2  818A    	LDD R24,Y+2
0068D3  819B    	LDD R25,Y+3
0068D4  E0E0    	LDI ZL,$00
0068D5  E0F0    	LDI ZH,$00
0068D6  E260    	LDI R22,$20
0068D7  E471    	LDI R23,$41
0068D8  940E    	CALL L948
0068D9  6C8E
0068DA  F408    	BRCC L1431
0068DB  C012    	RJMP L1432
0068DC  81A8    L1431:	LD XL,Y
0068DD  81B9    	LDD XH,Y+1
0068DE  818A    	LDD R24,Y+2
0068DF  819B    	LDD R25,Y+3
0068E0  E0E0    	LDI ZL,$00
0068E1  E0F0    	LDI ZH,$00
0068E2  E468    	LDI R22,$48
0068E3  E472    	LDI R23,$42
0068E4  940E    	CALL L948
0068E5  6C8E
0068E6  F009    	BREQ L1433
0068E7  F410    	BRCC L1430
0068E8  940C    L1433:	JMP L1434
0068E9  68F2
0068EA  E0E0    L1430:	LDI ZL,$00
0068EB  E0F0    	LDI ZH,$00
0068EC  E468    	LDI R22,$48
0068ED  E472    	LDI R23,$42
0068EE  83E8    L1432:	ST Y,ZL
0068EF  83F9    	STD Y+1,ZH
0068F0  836A    	STD Y+2,R22
0068F1  837B    	STD Y+3,R23
0068F2  81E8    L1434:	LD ZL,Y
0068F3  81F9    	LDD ZH,Y+1
0068F4  816A    	LDD R22,Y+2
0068F5  817B    	LDD R23,Y+3
0068F6  940E    	CALL L937
0068F7  6B5C
0068F8  2E7E    	MOV R7,ZL
0068F9  9628    	ADIW YH:YL,8
0068FA  9508    	RET
0068FB  9724    L1113:	SBIW YH:YL,4
0068FC  E084    	LDI R24,$04
0068FD  E0A0    	LDI XL,$00
0068FE  E0B0    	LDI XH,$00
0068FF  EBEC    	LDI ZL,$BC
006900  E5FC    	LDI ZH,$5C
006901  E060    	LDI R22,$00
006902  940E    	CALL L1015
006903  6CC4
006904  931A    	ST -Y,R17
006905  930A    	ST -Y,R16
006906  E0EF    	LDI ZL,$0F
006907  2E4E    	MOV R4,ZL
006908  E000    	LDI R16,$00
006909  E010    	LDI R17,$00
00690A  3302    L1437:	CPI R16,$32
00690B  E0E0    	LDI ZL,$00
00690C  071E    	CPC R17,ZL
00690D  F4D8    	BRCC L1435
00690E  9468    	BSET 6
00690F  F827    	BLD R2,7
006910  EDEC    	LDI ZL,$DC
006911  93EA    	ST -Y,ZL
006912  940E    	CALL L1339
006913  3C54
006914  FC27    L1436:	SBRC R2,7
006915  CFFE    	RJMP L1436
006916  2DEA    	MOV ZL,R10
006917  81AA    	LDD XL,Y+2
006918  81BB    	LDD XH,Y+3
006919  818C    	LDD R24,Y+4
00691A  819D    	LDD R25,Y+5
00691B  27FF    	CLR ZH
00691C  2766    	CLR R22
00691D  2777    	CLR R23
00691E  940E    	CALL L934
00691F  6B8F
006920  940E    	CALL L1427
006921  6BCD
006922  83EA    	STD Y+2,ZL
006923  83FB    	STD Y+3,ZH
006924  836C    	STD Y+4,R22
006925  837D    	STD Y+5,R23
006926  5F0F    	SUBI R16,$FF
006927  4F1F    	SBCI R17,$FF
006928  CFE1    	RJMP L1437
006929  81AA    L1435:	LDD XL,Y+2
00692A  81BB    	LDD XH,Y+3
00692B  818C    	LDD R24,Y+4
00692C  819D    	LDD R25,Y+5
00692D  E0E0    	LDI ZL,$00
00692E  E0F0    	LDI ZH,$00
00692F  E468    	LDI R22,$48
006930  E472    	LDI R23,$42
006931  940E    	CALL L936
006932  6C4D
006933  83EA    	STD Y+2,ZL
006934  83FB    	STD Y+3,ZH
006935  836C    	STD Y+4,R22
006936  837D    	STD Y+5,R23
006937  940E    	CALL L937
006938  6B5C
006939  2E8E    	MOV R8,ZL
00693A  8119    	LDD R17,Y+1
00693B  8108    	LD R16,Y
00693C  9626    	ADIW YH:YL,6
00693D  9508    	RET
00693E  FC24    L784:	SBRC R2,4
00693F  9508    	RET
006940  E0E1    	LDI ZL,$01
006941  2E4E    	MOV R4,ZL
006942  9468    	BSET 6
006943  F827    	BLD R2,7
006944  EDEC    	LDI ZL,$DC
006945  93EA    	ST -Y,ZL
006946  940E    	CALL L1339
006947  3C54
006948  FC27    L1438:	SBRC R2,7
006949  CFFE    	RJMP L1438
00694A  9508    	RET

/*******************************************************************

Tilt Accelerometer ??

*******************************************************************/

00694B  9A15    L1445:	SBI DDRE,DDE5
00694C  9A14    	SBI DDRE,DDE4
00694D  9A1D    	SBI PORTE,PE5
00694E  9A1C    	SBI PORTE,PE4
00694F  0000    	NOP
006950  0000    	NOP
006951  981D    	CBI PORTE,PE5
006952  0000    	NOP
006953  0000    	NOP
006954  981C    	CBI PORTE,PE4
006955  0000    	NOP
006956  0000    	NOP
006957  9508    	RET

/*******************************************************************

Tilt Accelerometer ??

*******************************************************************/
006958  9A15    L1448:	SBI DDRE,DDE5
006959  9A14    	SBI DDRE,DDE4
00695A  981D    	CBI PORTE,PE5
00695B  9A1C    	SBI PORTE,PE4
00695C  0000    	NOP
00695D  0000    	NOP
00695E  9A1D    	SBI PORTE,PE5
00695F  0000    	NOP
006960  0000    	NOP
006961  9815    	CBI DDRE,DDE5
006962  9814    	CBI DDRE,DDE4
006963  9508    	RET

/*******************************************************************

Tilt Accelerometer ??

*******************************************************************/

006964  931A    L1446:	ST -Y,R17
006965  930A    	ST -Y,R16
006966  9A15    	SBI DDRE,DDE5
006967  E000    	LDI R16,$00
006968  3008    L1442:	CPI R16,$08            loop: 16 times
006969  F4C0    	BRCC L1439
00696A  81EA    	LDD ZL,Y+2
00696B  78E0    	ANDI ZL,$80
00696C  2F1E    	MOV R17,ZL
00696D  3010    	CPI R17,$00
00696E  F011    	BREQ L1440
00696F  9A1D    	SBI PORTE,PE5
006970  C001    	RJMP L1441
006971  981D    L1440:	CBI PORTE,PE5
006972  0000    L1441:	NOP
006973  0000    	NOP
006974  9A1C    	SBI PORTE,PE4
006975  0000    	NOP
006976  0000    	NOP
006977  0000    	NOP
006978  0000    	NOP
006979  981C    	CBI PORTE,PE4
00697A  0000    	NOP
00697B  0000    	NOP
00697C  81EA    	LDD ZL,Y+2
00697D  0FEE    	LSL ZL
00697E  83EA    	STD Y+2,ZL
00697F  5F0F    	SUBI R16,$FF
006980  940C    	JMP L1442                    loop
006981  6968
006982  8119    L1439:	LDD R17,Y+1
006983  8108    	LD R16,Y
006984  9623    	ADIW YH:YL,3
006985  9508    	RET
006986  931A    L1449:	ST -Y,R17
006987  930A    	ST -Y,R16
006988  E010    	LDI R17,$00
006989  9815    	CBI DDRE,DDE5
00698A  E000    	LDI R16,$00
00698B  3008    L1444:	CPI R16,$08
00698C  F480    	BRCC L1443
00698D  0F11    	LSL R17
00698E  0000    	NOP
00698F  0000    	NOP
006990  0000    	NOP
006991  0000    	NOP
006992  9A1C    	SBI PORTE,PE4
006993  0000    	NOP
006994  0000    	NOP
006995  990D    	SBIC PINE,PINE5
006996  6011    	ORI R17,$01
006997  0000    	NOP
006998  0000    	NOP
006999  981C    	CBI PORTE,PE4
00699A  5F0F    	SUBI R16,$FF
00699B  940C    	JMP L1444
00699C  698B
00699D  9A15    L1443:	SBI DDRE,DDE5
00699E  2FE1    	MOV ZL,R17
00699F  9109    	LD R16,Y+
0069A0  9119    	LD R17,Y+
0069A1  9508    	RET

/*******************************************************************

Tilt Accelerometer ??

*******************************************************************/

0069A2  9815    L1447:	CBI DDRE,DDE5
0069A3  0000    	NOP
0069A4  0000    	NOP
0069A5  9A1D    	SBI PORTE,PE5
0069A6  0000    	NOP
0069A7  0000    	NOP
0069A8  9A1C    	SBI PORTE,PE4
0069A9  0000    	NOP
0069AA  0000    	NOP
0069AB  981C    	CBI PORTE,PE4
0069AC  0000    	NOP
0069AD  0000    	NOP
0069AE  9A15    	SBI DDRE,DDE5
0069AF  0000    	NOP
0069B0  0000    	NOP
0069B1  9508    	RET

/*******************************************************************

Tilt Accelerometer ??

*******************************************************************/

0069B2  9A15    L1450:	SBI DDRE,DDE5
0069B3  0000    	NOP
0069B4  0000    	NOP
0069B5  981D    	CBI PORTE,PE5
0069B6  0000    	NOP
0069B7  0000    	NOP
0069B8  9A1C    	SBI PORTE,PE4
0069B9  0000    	NOP
0069BA  0000    	NOP
0069BB  981C    	CBI PORTE,PE4
0069BC  0000    	NOP
0069BD  0000    	NOP
0069BE  9A1D    	SBI PORTE,PE5
0069BF  0000    	NOP
0069C0  0000    	NOP
0069C1  9508    	RET

/*******************************************************************

Tilt Accelerometer ??

*******************************************************************/

0069C2  9A15    L1451:	SBI DDRE,DDE5
0069C3  0000    	NOP
0069C4  0000    	NOP
0069C5  9A1D    	SBI PORTE,PE5
0069C6  0000    	NOP
0069C7  0000    	NOP
0069C8  9A1C    	SBI PORTE,PE4
0069C9  0000    	NOP
0069CA  0000    	NOP
0069CB  981C    	CBI PORTE,PE4
0069CC  0000    	NOP
0069CD  0000    	NOP
0069CE  9508    	RET

/*******************************************************************

 ??  Tilt setup 

*******************************************************************/

0069CF  940E    L842:	CALL L1445
0069D0  694B
0069D1  E7E0    	LDI ZL,$70
0069D2  93EA    	ST -Y,ZL
0069D3  940E    	CALL L1446
0069D4  6964
0069D5  940E    	CALL L1447
0069D6  69A2
0069D7  E1E4    	LDI ZL,$14
0069D8  93EA    	ST -Y,ZL
0069D9  940E    	CALL L1446
0069DA  6964
0069DB  940E    	CALL L1447
0069DC  69A2
0069DD  E0E3    	LDI ZL,$03
0069DE  93EA    	ST -Y,ZL
0069DF  940E    	CALL L1446
0069E0  6964
0069E1  940E    	CALL L1447
0069E2  69A2
0069E3  940E    	CALL L1448
0069E4  6958
0069E5  9508    	RET

/*******************************************************************

 ??

*******************************************************************/

0069E6  930A    L1140:	ST -Y,R16
0069E7  E000    	LDI R16,$00
0069E8  940E    	CALL L1445
0069E9  694B
0069EA  E7E0    	LDI ZL,$70
0069EB  93EA    	ST -Y,ZL
0069EC  940E    	CALL L1446
0069ED  6964
0069EE  940E    	CALL L1447
0069EF  69A2
0069F0  E0E2    	LDI ZL,$02
0069F1  93EA    	ST -Y,ZL
0069F2  940E    	CALL L1446
0069F3  6964
0069F4  940E    	CALL L1447
0069F5  69A2
0069F6  940E    	CALL L1448
0069F7  6958
0069F8  0000    	NOP
0069F9  0000    	NOP
0069FA  0000    	NOP
0069FB  0000    	NOP
0069FC  940E    	CALL L1445
0069FD  694B
0069FE  E7E1    	LDI ZL,$71
0069FF  93EA    	ST -Y,ZL
006A00  940E    	CALL L1446
006A01  6964
006A02  940E    	CALL L1447
006A03  69A2
006A04  940E    	CALL L1449
006A05  6986
006A06  2F0E    	MOV R16,ZL
006A07  940E    	CALL L1450
006A08  69B2
006A09  940E    	CALL L1449
006A0A  6986
006A0B  2F0E    	MOV R16,ZL
006A0C  940E    	CALL L1450
006A0D  69B2
006A0E  9300    	STS $06E6,R16
006A0F  06E6
006A10  940E    	CALL L1449
006A11  6986
006A12  2F0E    	MOV R16,ZL
006A13  940E    	CALL L1450
006A14  69B2
006A15  940E    	CALL L1449
006A16  6986
006A17  2F0E    	MOV R16,ZL
006A18  940E    	CALL L1450
006A19  69B2
006A1A  9300    	STS $06E7,R16
006A1B  06E7
006A1C  940E    	CALL L1449
006A1D  6986
006A1E  2F0E    	MOV R16,ZL
006A1F  940E    	CALL L1450
006A20  69B2
006A21  940E    	CALL L1449
006A22  6986
006A23  2F0E    	MOV R16,ZL
006A24  940E    	CALL L1451
006A25  69C2
006A26  9300    	STS $06E8,R16
006A27  06E8
006A28  940E    	CALL L1448
006A29  6958
006A2A  9109    	LD R16,Y+
006A2B  9508    	RET

/*******************************************************************

 ??

*******************************************************************/

006A2C  91E9    L1007:	LD ZL,Y+
006A2D  91F9    	LD ZH,Y+
006A2E  9730    	SBIW ZH:ZL,0
006A2F  F41A    	BRPL L1452
006A30  95E0    	COM ZL
006A31  95F0    	COM ZH
006A32  9631    	ADIW ZH:ZL,1
006A33  9508    L1452:	RET
006A34  91A9    	LD XL,Y+
006A35  91B9    	LD XH,Y+
006A36  27EE    	CLR ZL
006A37  27FF    	CLR ZH
006A38  916D    L1454:	LD R22,X+
006A39  2366    	TST R22
006A3A  F011    	BREQ L1453
006A3B  9631    	ADIW ZH:ZL,1
006A3C  CFFB    	RJMP L1454
006A3D  9508    L1453:	RET
006A3E  27AA    	CLR XL
006A3F  27BB    	CLR XH
006A40  91E9    	LD ZL,Y+
006A41  91F9    	LD ZH,Y+
006A42  9169    	LD R22,Y+
006A43  9179    	LD R23,Y+
006A44  BF6B    	OUT RAMPZ,R22
006A45  9007    L1456:	ELPM R0,Z+
006A46  2000    	TST R0
006A47  F011    	BREQ L1455
006A48  9611    	ADIW XH:XL,1
006A49  CFFB    	RJMP L1456
006A4A  01FD    L1455:	MOVW R31:R30,R27:R26
006A4B  9508    	RET
006A4C  91E9    L537:	LD ZL,Y+
006A4D  91F9    	LD ZH,Y+
006A4E  9630    	ADIW ZH:ZL,0
006A4F  F039    	BREQ L1457
006A50  E686    L1459:	LDI R24,$66
006A51  E09E    	LDI R25,$0E
006A52  9701    L1458:	SBIW R25:R24,1
006A53  F7F1    	BRNE L1458
006A54  95A8    	WDR
006A55  9731    	SBIW ZH:ZL,1
006A56  F7C9    	BRNE L1459
006A57  9508    L1457:	RET
006A58  817B    L1464:	LDD R23,Y+3
006A59  816A    	LDD R22,Y+2
006A5A  81F9    	LDD ZH,Y+1
006A5B  81E8    	LD ZL,Y
006A5C  FB77    	BST R23,7
006A5D  0F77    	LSL R23
006A5E  FD67    	SBRC R22,7
006A5F  6071    	ORI R23,$01
006A60  2F97    	MOV R25,R23
006A61  579E    	SUBI R25,$7E
006A62  F081    	BREQ L1460
006A63  F078    	BRCS L1460
006A64  3198    	CPI R25,$18
006A65  F490    	BRCC L1461
006A66  27AA    	CLR XL
006A67  27BB    	CLR XH
006A68  2788    	CLR R24
006A69  9408    L1462:	BSET 0
006A6A  9587    	ROR R24
006A6B  95B7    	ROR XH
006A6C  95A7    	ROR XL
006A6D  959A    	DEC R25
006A6E  F7D1    	BRNE L1462
006A6F  23EA    	AND ZL,XL
006A70  23FB    	AND ZH,XH
006A71  2368    	AND R22,R24
006A72  C005    	RJMP L1461
006A73  94E8    L1460:	BCLR 6
006A74  2777    	CLR R23
006A75  27EE    	CLR ZL
006A76  27FF    	CLR ZH
006A77  2766    	CLR R22
006A78  776F    L1461:	ANDI R22,$7F
006A79  9576    	LSR R23
006A7A  F408    	BRCC L1463
006A7B  6860    	ORI R22,$80
006A7C  F977    L1463:	BLD R23,7
006A7D  91A9    	LD XL,Y+
006A7E  91B9    	LD XH,Y+
006A7F  9189    	LD R24,Y+
006A80  9199    	LD R25,Y+
006A81  17EA    	CP ZL,XL
006A82  07FB    	CPC ZH,XH
006A83  0768    	CPC R22,R24
006A84  0779    	CPC R23,R25
006A85  FB97    	BST R25,7
006A86  9508    	RET
006A87  DFD0    	RCALL L1464
006A88  F409    	BRNE L1465
006A89  9508    L1466:	RET
006A8A  F7F6    L1465:	BRTC L1466
006A8B  EB9F    	LDI R25,$BF
006A8C  27AA    	CLR XL
006A8D  27BB    	CLR XH
006A8E  E880    	LDI R24,$80
006A8F  C13D    	RJMP L1427
006A90  0FEA    L871:	ADD ZL,XL
006A91  1FFB    	ADC ZH,XH
006A92  1F68    	ADC R22,R24
006A93  1F79    	ADC R23,R25
006A94  9508    	RET
006A95  2BEA    L658:	OR ZL,XL
006A96  2BFB    	OR ZH,XH
006A97  2B68    	OR R22,R24
006A98  2B79    	OR R23,R25
006A99  9508    	RET
006A9A  95E0    L1493:	COM ZL
006A9B  95F0    	COM ZH
006A9C  9560    	COM R22
006A9D  9570    	COM R23
006A9E  5FEF    	SUBI ZL,$FF
006A9F  4FFF    	SBCI ZH,$FF
006AA0  4F6F    	SBCI R22,$FF
006AA1  4F7F    	SBCI R23,$FF
006AA2  9508    	RET
006AA3  23EE    L770:	TST ZL
006AA4  2E0E    	MOV R0,ZL
006AA5  2FEA    	MOV ZL,XL
006AA6  F019    	BREQ L1467
006AA7  0FEE    L1468:	LSL ZL
006AA8  940A    	DEC R0
006AA9  F7E9    	BRNE L1468
006AAA  9508    L1467:	RET
006AAB  23EE    L869:	TST ZL
006AAC  2E0E    	MOV R0,ZL
006AAD  01FD    	MOVW R31:R30,R27:R26
006AAE  01BC    	MOVW R23:R22,R25:R24
006AAF  F031    	BREQ L1469
006AB0  0FEE    L1470:	LSL ZL
006AB1  1FFF    	ROL ZH
006AB2  1F66    	ROL R22
006AB3  1F77    	ROL R23
006AB4  940A    	DEC R0
006AB5  F7D1    	BRNE L1470
006AB6  9508    L1469:	RET
006AB7  0FEE    L946:	LSL ZL
006AB8  1FFF    	ROL ZH
006AB9  0FEE    	LSL ZL
006ABA  1FFF    	ROL ZH
006ABB  9508    	RET
006ABC  0FEE    L923:	LSL ZL
006ABD  1FFF    	ROL ZH
006ABE  1F66    	ROL R22
006ABF  1F77    	ROL R23
006AC0  9508    	RET
006AC1  2FFE    	MOV ZH,ZL
006AC2  0FFF    	LSL ZH
006AC3  0BFF    	SBC ZH,ZH
006AC4  2F6F    	MOV R22,ZH
006AC5  2F7F    	MOV R23,ZH
006AC6  9508    	RET
006AC7  2F6F    L947:	MOV R22,ZH
006AC8  0F66    	LSL R22
006AC9  0B66    	SBC R22,R22
006ACA  2F76    	MOV R23,R22
006ACB  9508    	RET
006ACC  2F8B    	MOV R24,XH
006ACD  0F88    	LSL R24
006ACE  0B88    	SBC R24,R24
006ACF  2F98    	MOV R25,R24
006AD0  9508    	RET
006AD1  9FFA    L878:	MUL ZH,XL
006AD2  2DF0    	MOV ZH,R0
006AD3  9FEB    	MUL ZL,XH
006AD4  0DF0    	ADD ZH,R0
006AD5  9FEA    	MUL ZL,XL
006AD6  2DE0    	MOV ZL,R0
006AD7  0DF1    	ADD ZH,R1
006AD8  9508    	RET
006AD9  2400    L931:	CLR R0
006ADA  2411    	CLR R1
006ADB  E190    	LDI R25,$10
006ADC  0FAA    L1473:	LSL XL
006ADD  1FBB    	ROL XH
006ADE  1C00    	ROL R0
006ADF  1C11    	ROL R1
006AE0  1A0E    	SUB R0,ZL
006AE1  0A1F    	SBC R1,ZH
006AE2  F418    	BRCC L1471
006AE3  0E0E    	ADD R0,ZL
006AE4  1E1F    	ADC R1,ZH
006AE5  C001    	RJMP L1472
006AE6  60A1    L1471:	ORI XL,$01
006AE7  959A    L1472:	DEC R25
006AE8  F799    	BRNE L1473
006AE9  01FD    	MOVW R31:R30,R27:R26
006AEA  01D0    	MOVW R27:R26,R1:R0
006AEB  9508    	RET
006AEC  91ED    L964:	LD ZL,X+
006AED  91FC    	LD ZH,X
006AEE  9711    	SBIW XH:XL,1
006AEF  9508    	RET
006AF0  91ED    L870:	LD ZL,X+
006AF1  91FD    	LD ZH,X+
006AF2  916D    	LD R22,X+
006AF3  917C    	LD R23,X
006AF4  9713    	SBIW XH:XL,3
006AF5  9508    	RET
006AF6  93ED    L872:	ST X+,ZL
006AF7  93FD    	ST X+,ZH
006AF8  936D    	ST X+,R22
006AF9  937C    	ST X,R23
006AFA  9508    	RET
006AFB  BF6B    L924:	OUT RAMPZ,R22
006AFC  9007    	ELPM R0,Z+
006AFD  91F6    	ELPM ZH,Z
006AFE  2DE0    	MOV ZL,R0
006AFF  9508    	RET
006B00  9468    	BSET 6
006B01  C001    	RJMP L1474
006B02  94E8    L1023:	BCLR 6
006B03  D001    L1474:	RCALL L1005
006B04  D08B    	RCALL L1475
006B05  2E18    L1005:	MOV R1,R24
006B06  2F86    	MOV R24,R22
006B07  2D61    	MOV R22,R1
006B08  2E19    	MOV R1,R25
006B09  2F97    	MOV R25,R23
006B0A  2D71    	MOV R23,R1
006B0B  2E1B    L980:	MOV R1,XH
006B0C  2FBF    	MOV XH,ZH
006B0D  2DF1    	MOV ZH,R1
006B0E  2E1A    	MOV R1,XL
006B0F  2FAE    	MOV XL,ZL
006B10  2DE1    	MOV ZL,R1
006B11  9508    	RET
006B12  9611    L601:	ADIW XH:XL,1
006B13  D002    	RCALL L544
006B14  2FFE    	MOV ZH,ZL
006B15  9711    	SBIW XH:XL,1
006B16  99E1    L544:	SBIC EECR,EEWE
006B17  CFFE    	RJMP L544
006B18  93FF    	PUSH ZH
006B19  B7FF    	IN ZH,SREG
006B1A  94F8    	BCLR 7
006B1B  BBAE    	OUT EEARL,XL
006B1C  BBBF    	OUT EEARH,XH
006B1D  9AE0    	SBI EECR,EERE
006B1E  B3ED    	IN ZL,EEDR
006B1F  BFFF    	OUT SREG,ZH
006B20  91FF    	POP ZH
006B21  9508    	RET
006B22  D007    L659:	RCALL L545
006B23  9611    	ADIW XH:XL,1
006B24  93EF    	PUSH ZL
006B25  2FEF    	MOV ZL,ZH
006B26  D003    	RCALL L545
006B27  91EF    	POP ZL
006B28  9711    	SBIW XH:XL,1
006B29  9508    	RET
006B2A  99E1    L545:	SBIC EECR,EEWE
006B2B  CFFE    	RJMP L545
006B2C  B79F    	IN R25,SREG
006B2D  94F8    	BCLR 7
006B2E  BBAE    	OUT EEARL,XL
006B2F  BBBF    	OUT EEARH,XH
006B30  9AE0    	SBI EECR,EERE
006B31  B38D    	IN R24,EEDR
006B32  17E8    	CP ZL,R24
006B33  F019    	BREQ L1476
006B34  BBED    	OUT EEDR,ZL
006B35  9AE2    	SBI EECR,EEMWE
006B36  9AE1    	SBI EECR,EEWE
006B37  BF9F    L1476:	OUT SREG,R25
006B38  9508    	RET
006B39  E850    L1498:	LDI R21,$80
006B3A  2757    	EOR R21,R23
006B3B  F411    	BRNE L1477
006B3C  935F    	PUSH R21
006B3D  C0D1    	RJMP L1478
006B3E  3F5F    L1477:	CPI R21,$FF
006B3F  F031    	BREQ L1479
006B40  0F66    	LSL R22
006B41  0C00    	LSL R0
006B42  9557    	ROR R21
006B43  9567    	ROR R22
006B44  2F75    	MOV R23,R21
006B45  9508    	RET
006B46  935F    L1479:	PUSH R21
006B47  2000    	TST R0
006B48  F00A    	BRMI L1480
006B49  C0CB    	RJMP L1481
006B4A  C0BE    L1480:	RJMP L1482
006B4B  E850    L1499:	LDI R21,$80
006B4C  2E19    	MOV R1,R25
006B4D  2215    	AND R1,R21
006B4E  0F88    	LSL R24
006B4F  1F99    	ROL R25
006B50  2795    	EOR R25,R21
006B51  0F55    	LSL R21
006B52  9587    	ROR R24
006B53  E850    L1483:	LDI R21,$80
006B54  2E07    	MOV R0,R23
006B55  2205    	AND R0,R21
006B56  0F66    	LSL R22
006B57  1F77    	ROL R23
006B58  2775    	EOR R23,R21
006B59  0F55    	LSL R21
006B5A  9567    	ROR R22
006B5B  9508    	RET
006B5C  935F    L937:	PUSH R21
006B5D  DFF5    	RCALL L1483
006B5E  3870    	CPI R23,$80
006B5F  F018    	BRCS L1484
006B60  3F7F    	CPI R23,$FF
006B61  F408    	BRCC L1484
006B62  C0AC    	RJMP L1478
006B63  E156    L1484:	LDI R21,$16
006B64  1B57    	SUB R21,R23
006B65  F492    	BRPL L1485
006B66  9551    	NEG R21
006B67  3058    	CPI R21,$08
006B68  F028    	BRCS L1486
006B69  EFEF    	LDI ZL,$FF
006B6A  EFFF    	LDI ZH,$FF
006B6B  EF6F    	LDI R22,$FF
006B6C  E77F    	LDI R23,$7F
006B6D  C01A    	RJMP L1487
006B6E  2777    L1486:	CLR R23
006B6F  2355    	TST R21
006B70  F0B9    	BREQ L1487
006B71  0FEE    L1488:	LSL ZL
006B72  1FFF    	ROL ZH
006B73  1F66    	ROL R22
006B74  1F77    	ROL R23
006B75  955A    	DEC R21
006B76  F7D1    	BRNE L1488
006B77  C010    	RJMP L1487
006B78  2777    L1485:	CLR R23
006B79  3058    L1490:	CPI R21,$08
006B7A  F028    	BRCS L1489
006B7B  2FEF    	MOV ZL,ZH
006B7C  2FF6    	MOV ZH,R22
006B7D  2F67    	MOV R22,R23
006B7E  5058    	SUBI R21,$08
006B7F  CFF9    	RJMP L1490
006B80  2355    L1489:	TST R21
006B81  F031    	BREQ L1487
006B82  9576    L1491:	LSR R23
006B83  9567    	ROR R22
006B84  95F7    	ROR ZH
006B85  95E7    	ROR ZL
006B86  955A    	DEC R21
006B87  F7D1    	BRNE L1491
006B88  2000    L1487:	TST R0
006B89  F40A    	BRPL L1492
006B8A  DF0F    	RCALL L1493
006B8B  915F    L1492:	POP R21
006B8C  9508    	RET
006B8D  9468    	BSET 6
006B8E  C001    	RJMP L1475
006B8F  94E8    L934:	BCLR 6
006B90  9730    L1475:	SBIW ZH:ZL,0
006B91  4060    	SBCI R22,$00
006B92  4070    	SBCI R23,$00
006B93  F0B1    	BREQ L1494
006B94  2400    	CLR R0
006B95  F026    	BRTS L1495
006B96  2377    	TST R23
006B97  F412    	BRPL L1495
006B98  9400    	COM R0
006B99  DF00    	RCALL L1493
006B9A  2E17    L1495:	MOV R1,R23
006B9B  E17E    	LDI R23,$1E
006B9C  2011    	TST R1
006B9D  F032    L1497:	BRMI L1496
006B9E  957A    	DEC R23
006B9F  0FEE    	LSL ZL
006BA0  1FFF    	ROL ZH
006BA1  1F66    	ROL R22
006BA2  1C11    	ROL R1
006BA3  CFF9    	RJMP L1497
006BA4  2FEF    L1496:	MOV ZL,ZH
006BA5  2FF6    	MOV ZH,R22
006BA6  2D61    	MOV R22,R1
006BA7  935F    	PUSH R21
006BA8  DF90    	RCALL L1498
006BA9  915F    	POP R21
006BAA  9508    L1494:	RET
006BAB  2F5E    L1504:	MOV R21,ZL
006BAC  2FEA    	MOV ZL,XL
006BAD  2FA5    	MOV XL,R21
006BAE  2F5F    	MOV R21,ZH
006BAF  2FFB    	MOV ZH,XH
006BB0  2FB5    	MOV XH,R21
006BB1  2F56    	MOV R21,R22
006BB2  2F68    	MOV R22,R24
006BB3  2F85    	MOV R24,R21
006BB4  2F57    	MOV R21,R23
006BB5  2F79    	MOV R23,R25
006BB6  2F95    	MOV R25,R21
006BB7  2D50    	MOV R21,R0
006BB8  2C01    	MOV R0,R1
006BB9  2E15    	MOV R1,R21
006BBA  9508    	RET
006BBB  0FEA    L1511:	ADD ZL,XL
006BBC  1FFB    	ADC ZH,XH
006BBD  1F68    	ADC R22,R24
006BBE  9508    	RET
006BBF  95E0    L1513:	COM ZL
006BC0  95F0    	COM ZH
006BC1  9560    	COM R22
006BC2  5FEF    	SUBI ZL,$FF
006BC3  4FFF    	SBCI ZH,$FF
006BC4  4F6F    	SBCI R22,$FF
006BC5  9508    	RET
006BC6  935F    L1006:	PUSH R21
006BC7  DF83    	RCALL L1499
006BC8  3890    	CPI R25,$80
006BC9  F171    	BREQ L1500
006BCA  E850    	LDI R21,$80
006BCB  2615    	EOR R1,R21
006BCC  C004    	RJMP L1501
006BCD  935F    L1427:	PUSH R21
006BCE  DF7C    	RCALL L1499
006BCF  3890    	CPI R25,$80
006BD0  F139    	BREQ L1500
006BD1  3870    L1501:	CPI R23,$80
006BD2  F121    	BREQ L1502
006BD3  2F57    L1505:	MOV R21,R23
006BD4  1B59    	SUB R21,R25
006BD5  F113    	BRVS L1500
006BD6  F412    	BRPL L1503
006BD7  DFD3    	RCALL L1504
006BD8  CFFA    	RJMP L1505
006BD9  3158    L1503:	CPI R21,$18
006BDA  F018    	BRCS L1506
006BDB  27AA    	CLR XL
006BDC  27BB    	CLR XH
006BDD  2788    	CLR R24
006BDE  3058    L1506:	CPI R21,$08
006BDF  F028    	BRCS L1507
006BE0  2FAB    	MOV XL,XH
006BE1  2FB8    	MOV XH,R24
006BE2  2788    	CLR R24
006BE3  5058    	SUBI R21,$08
006BE4  CFF9    	RJMP L1506
006BE5  2355    L1507:	TST R21
006BE6  F029    	BREQ L1508
006BE7  9586    L1509:	LSR R24
006BE8  95B7    	ROR XH
006BE9  95A7    	ROR XL
006BEA  955A    	DEC R21
006BEB  F7D9    	BRNE L1509
006BEC  2D50    L1508:	MOV R21,R0
006BED  2551    	EOR R21,R1
006BEE  F062    	BRMI L1510
006BEF  DFCB    	RCALL L1511
006BF0  F438    	BRCC L1500
006BF1  9567    	ROR R22
006BF2  95F7    	ROR ZH
006BF3  95E7    	ROR ZL
006BF4  9573    	INC R23
006BF5  F413    	BRVC L1500
006BF6  C01E    	RJMP L1481
006BF7  DFB3    L1502:	RCALL L1504
006BF8  DF40    L1500:	RCALL L1498
006BF9  915F    	POP R21
006BFA  9508    	RET
006BFB  1BEA    L1510:	SUB ZL,XL
006BFC  0BFB    	SBC ZH,XH
006BFD  0B68    	SBC R22,R24
006BFE  F081    	BREQ L1478
006BFF  F410    	BRCC L1512
006C00  9400    	COM R0
006C01  DFBD    	RCALL L1513
006C02  2366    L1512:	TST R22
006C03  F3A2    	BRMI L1500
006C04  0FEE    	LSL ZL
006C05  1FFF    	ROL ZH
006C06  1F66    	ROL R22
006C07  957A    	DEC R23
006C08  F7CB    	BRVC L1512
006C09  EFEF    L1482:	LDI ZL,$FF
006C0A  EFFF    	LDI ZH,$FF
006C0B  E76F    	LDI R22,$7F
006C0C  EF7F    	LDI R23,$FF
006C0D  915F    	POP R21
006C0E  9508    	RET
006C0F  27EE    L1478:	CLR ZL
006C10  27FF    	CLR ZH
006C11  2766    	CLR R22
006C12  2777    	CLR R23
006C13  915F    	POP R21
006C14  9508    	RET
006C15  EFEF    L1481:	LDI ZL,$FF
006C16  EFFF    	LDI ZH,$FF
006C17  E76F    	LDI R22,$7F
006C18  E77F    	LDI R23,$7F
006C19  915F    	POP R21
006C1A  9508    	RET
006C1B  935F    L935:	PUSH R21
006C1C  DF2E    	RCALL L1499
006C1D  3870    	CPI R23,$80
006C1E  F381    	BREQ L1478
006C1F  3890    	CPI R25,$80
006C20  F371    	BREQ L1478
006C21  2401    	EOR R0,R1
006C22  9408    	BSET 0
006C23  1F79    	ADC R23,R25
006C24  F423    	BRVC L1514
006C25  F34C    	BRLT L1478
006C26  2000    L1519:	TST R0
006C27  F30A    	BRMI L1482
006C28  CFEC    	RJMP L1481
006C29  933F    L1514:	PUSH R19
006C2A  934F    	PUSH R20
006C2B  2411    	CLR R1
006C2C  2733    	CLR R19
006C2D  2744    	CLR R20
006C2E  2755    	CLR R21
006C2F  E198    	LDI R25,$18
006C30  0F33    L1516:	LSL R19
006C31  1F44    	ROL R20
006C32  1F55    	ROL R21
006C33  1FEE    	ROL ZL
006C34  1FFF    	ROL ZH
006C35  1F66    	ROL R22
006C36  F430    	BRCC L1515
006C37  0F3A    	ADD R19,XL
006C38  1F4B    	ADC R20,XH
006C39  1F58    	ADC R21,R24
006C3A  1DE1    	ADC ZL,R1
006C3B  1DF1    	ADC ZH,R1
006C3C  1D61    	ADC R22,R1
006C3D  959A    L1515:	DEC R25
006C3E  F789    	BRNE L1516
006C3F  914F    	POP R20
006C40  913F    	POP R19
006C41  2366    	TST R22
006C42  F02A    	BRMI L1517
006C43  0F55    	LSL R21
006C44  1FEE    	ROL ZL
006C45  1FFF    	ROL ZH
006C46  1F66    	ROL R22
006C47  C002    	RJMP L1518
006C48  9573    L1517:	INC R23
006C49  F2E3    	BRVS L1519
006C4A  DEEE    L1518:	RCALL L1498
006C4B  915F    	POP R21
006C4C  9508    	RET
006C4D  935F    L936:	PUSH R21
006C4E  DEFC    	RCALL L1499
006C4F  3870    	CPI R23,$80
006C50  F419    	BRNE L1520
006C51  2011    	TST R1
006C52  F612    L1524:	BRPL L1481
006C53  CFB5    	RJMP L1482
006C54  3890    L1520:	CPI R25,$80
006C55  F409    	BRNE L1521
006C56  CFB8    L1523:	RJMP L1478
006C57  2401    L1521:	EOR R0,R1
006C58  9408    	BSET 0
006C59  0B97    	SBC R25,R23
006C5A  F41B    	BRVC L1522
006C5B  F3D4    	BRLT L1523
006C5C  2000    	TST R0
006C5D  CFF4    	RJMP L1524
006C5E  2F79    L1522:	MOV R23,R25
006C5F  9566    	LSR R22
006C60  95F7    	ROR ZH
006C61  95E7    	ROR ZL
006C62  9586    	LSR R24
006C63  95B7    	ROR XH
006C64  95A7    	ROR XL
006C65  934F    	PUSH R20
006C66  2411    	CLR R1
006C67  2744    	CLR R20
006C68  2755    	CLR R21
006C69  E198    	LDI R25,$18
006C6A  17AE    L1527:	CP XL,ZL
006C6B  07BF    	CPC XH,ZH
006C6C  0786    	CPC R24,R22
006C6D  F028    	BRCS L1525
006C6E  1BAE    	SUB XL,ZL
006C6F  0BBF    	SBC XH,ZH
006C70  0B86    	SBC R24,R22
006C71  9408    	BSET 0
006C72  C001    	RJMP L1526
006C73  9488    L1525:	BCLR 0
006C74  1C11    L1526:	ROL R1
006C75  1F44    	ROL R20
006C76  1F55    	ROL R21
006C77  1FAA    	ROL XL
006C78  1FBB    	ROL XH
006C79  1F88    	ROL R24
006C7A  959A    	DEC R25
006C7B  F771    	BRNE L1527
006C7C  2DE1    	MOV ZL,R1
006C7D  2FF4    	MOV ZH,R20
006C7E  2F65    	MOV R22,R21
006C7F  95A6    	LSR XL
006C80  1FE9    	ADC ZL,R25
006C81  1FF9    	ADC ZH,R25
006C82  1F69    	ADC R22,R25
006C83  914F    	POP R20
006C84  2366    	TST R22
006C85  F02A    	BRMI L1528
006C86  0FEE    	LSL ZL
006C87  1FFF    	ROL ZH
006C88  1F66    	ROL R22
006C89  957A    	DEC R23
006C8A  F25B    	BRVS L1523
006C8B  DEAD    L1528:	RCALL L1498
006C8C  915F    	POP R21
006C8D  9508    	RET
006C8E  2399    L948:	TST R25
006C8F  F09A    	BRMI L1529
006C90  2377    	TST R23
006C91  F042    	BRMI L1530
006C92  1797    	CP R25,R23
006C93  F048    	BRCS L1531
006C94  F429    	BRNE L1530
006C95  17AE    	CP XL,ZL
006C96  07BF    	CPC XH,ZH
006C97  0786    	CPC R24,R22
006C98  F020    	BRCS L1531
006C99  F031    	BREQ L1532
006C9A  9498    L1530:	BCLR 1
006C9B  9488    	BCLR 0
006C9C  9508    	RET
006C9D  9498    L1531:	BCLR 1
006C9E  9408    	BSET 0
006C9F  9508    	RET
006CA0  9418    L1532:	BSET 1
006CA1  9488    	BCLR 0
006CA2  9508    	RET
006CA3  2377    L1529:	TST R23
006CA4  F7C2    	BRPL L1531
006CA5  1797    	CP R25,R23
006CA6  F398    	BRCS L1530
006CA7  F7A9    	BRNE L1531
006CA8  17EA    	CP ZL,XL
006CA9  07FB    	CPC ZH,XH
006CAA  0768    	CPC R22,R24
006CAB  F388    	BRCS L1531
006CAC  F399    	BREQ L1532
006CAD  CFEC    	RJMP L1530
006CAE  2400    L750:	CLR R0
006CAF  160A    	CP R0,XL
006CB0  060B    	CPC R0,XH
006CB1  9508    	RET
006CB2  9710    L1428:	SBIW XH:XL,0
006CB3  4080    	SBCI R24,$00
006CB4  4090    	SBCI R25,$00
006CB5  9508    	RET
006CB6  935A    L1090:	ST -Y,R21
006CB7  934A    L859:	ST -Y,R20
006CB8  933A    L910:	ST -Y,R19
006CB9  932A    L593:	ST -Y,R18
006CBA  931A    	ST -Y,R17
006CBB  930A    	ST -Y,R16
006CBC  9508    	RET
006CBD  815D    L1172:	LDD R21,Y+5
006CBE  814C    L866:	LDD R20,Y+4
006CBF  813B    L1014:	LDD R19,Y+3
006CC0  812A    L604:	LDD R18,Y+2
006CC1  8119    	LDD R17,Y+1
006CC2  8108    	LD R16,Y
006CC3  9508    	RET
006CC4  0FAC    L1015:	ADD XL,YL
006CC5  1FBD    	ADC XH,YH
006CC6  BF6B    	OUT RAMPZ,R22
006CC7  9007    L1533:	ELPM R0,Z+
006CC8  920D    	ST X+,R0
006CC9  958A    	DEC R24
006CCA  F7E1    	BRNE L1533
006CCB  9508    	RET
