+-----------------------------------
AVR DISASSEMBLER LISTING
Address Opcode  Instruction
-----------------------------------
000000  940C    L2:	JMP L1     'RESET
000001  2E8A
000002  940C    	JMP L2           'INT 0
000003  0000 
000004  940C    	JMP L2           'INT 1 
000005  0000
000006  940C    	JMP L2           'INT 2
000006  940C    	JMP L2           'INT 2
000007  0000
000008  940C    	JMP L2           'INT 3
000009  0000
00000A  940C    	JMP L3           'INT 4
00000B  3BD5
00000C  940C    	JMP L2           'INT 5 
00000D  0000
00000E  940C    	JMP L4           'INT 6  (IR)
00000F  3C45
000010  940C    	JMP L2           'INT 7
000011  0000
000012  940C    	JMP L2
000013  0000
000014  940C    	JMP L2
000015  0000
000016  940C    	JMP L2
000017  0000
000018  940C    	JMP L2
000019  0000
00001A  940C    	JMP L2
00001B  0000
00001C  940C    	JMP L5           'TIMER0 OVF
00001D  3B7E
00001E  940C    	JMP L2
00001F  0000
000020  940C    	JMP L6           'TIMR1 OVF
000021  3B1C
000022  940C    	JMP L2
000023  0000
000024  940C    	JMP L7           'ANALOG COMP
000025  33A3
000026  940C    	JMP L2
000027  0000
000028  940C    	JMP L8           'USART0 TX          
000029  3378
00002A  940C    	JMP L9           'ADC
00002B  3CB5
00002C  940C    	JMP L2
00002D  0000
00002E  940C    	JMP L2
00002F  0000
000030  940C    	JMP L2
000031  0000
000032  940C    	JMP L2
000033  0000
000034  940C    	JMP L2
000035  0000
000036  940C    	JMP L2
000037  0000
000038  940C    	JMP L2
000039  0000
00003A  940C    	JMP L2
00003B  0000
00003C  940C    	JMP L10           'USART1 RX
00003D  33EA
00003E  940C    	JMP L2
00003F  0000
000040  940C    	JMP L2
000041  0000
000042  940C    	JMP L2
000043  0000
000044  940C    	JMP L2
000045  0000
000046  CA7D    	RJMP -1411             'DATA  Motion Zero positions ?
000047  42A2    	SBCI XL,$22
000048  7C6C    	ANDI R22,$CC
000049  5830    	SUBI R19,$80
00004A  8EB8    	STD Y+24,R11
00004B  285A    	OR R5,R10
00004C  A17D    	LDD R23,Y+37
00004D  7FD2    	ANDI YH,$F2
00004E  E4AE    	LDI XL,$4E
00004F  82FE    	STD Y+6,R15
000050  FEB9    	UNRECOGNIZED
000051  7EB4    	ANDI XH,$E4
000052  D0D0    	RCALL L11
000053  E0FE    	LDI ZH,$0E
000054  FEC6    	SBRS R12,6
000055  FEE4    	SBRS R14,4
000056  4601    	SBCI R16,$61
000057  287C    	OR R7,R12
000058  4929    	SBCI R18,$99
000059  0116    	MOVW R3:R2,R13:R12
00005A  3978    	CPI R23,$98
00005B  1701    	CP R16,R17
00005C  0101    	MOVW R1:R0,R3:R2
00005D  2819    	OR R1,R9
00005E  E4AE    	LDI XL,$4E
00005F  82FE    	STD Y+6,R15
000060  FEB9    	UNRECOGNIZED
000061  7EB9    	ANDI XH,$E9
000062  E6D0    	LDI YH,$60
000063  FEFE    	UNRECOGNIZED
000064  FECD    	UNRECOGNIZED
000065  FEFE    	UNRECOGNIZED
000066  4B01    	SBCI R16,$B1
000067  287C    	OR R7,R12
000068  4929    	SBCI R18,$99
000069  0116    	MOVW R3:R2,R13:R12
00006A  2D78    	MOV R23,R8
00006B  0101    	MOVW R1:R0,R3:R2
00006C  0119    	MOVW R3:R2,R19:R18
00006D  2D2D    	MOV R18,R13
00006E  E1FE    	LDI ZH,$1E
00006F  D2E1    	RCALL L12
000070  FEFE    	UNRECOGNIZED
000071  B9E1    	OUT PINE,ZL
000072  CDCB    	RJMP -565
000073  E6FE    	LDI ZH,$6E
000074  FECD    	UNRECOGNIZED
000075  FEE6    	SBRS R14,6
000076  1901    	SUB R16,R1
000077  1919    	SUB R17,R9
000078  012D    	MOVW R5:R4,R27:R26
000079  5219    	SUBI R17,$29
00007A  0105    	MOVW R1:R0,R11:R10
00007B  1401    	CP R0,R1
00007C  0101    	MOVW R1:R0,R3:R2
00007D  2811    	OR R1,R1
00007E  0100    	MOVW R1:R0,R1:R0          wCK IDs  (0,1,2,3,4,5,6 .....)
00007F  0302    	MULSU R16,R18
000080  0504    	CPC R16,R4
000081  0706    	CPC R16,R22
000082  0908    	SBC R16,R8
000083  0B0A    	SBC R16,XL
000084  0D0C    	ADD R16,R12
000085  0F0E    	ADD R16,ZL               Motison Zeros 
000086  C97D    	RJMP -1667
000087  43A3    L32:	SBCI XL,$33
000088  7D6C    	ANDI R22,$DC
000089  5930    	SUBI R19,$90
00008A  8EB8    	STD Y+24,R11
00008B  2759    	EOR R21,R25
00008C  A27C    	STD Y+36,R7
00008D  7FD3    	ANDI YH,$F3
00008E  2828    	OR R2,R8
00008F  2828    L34:	OR R2,R8
000090  2828    	OR R2,R8
000091  2828    	OR R2,R8
000092  2828    	OR R2,R8
000093  1414    	CP R1,R4                   Gain value setc
000094  1414    	CP R1,R4
000095  1414    	CP R1,R4
000096  3C3C    	CPI R19,$CC
000097  3C3C    	CPI R19,$CC
000098  3C3C    	CPI R19,$CC
000099  3C3C    	CPI R19,$CC
00009A  3C3C    	CPI R19,$CC
00009B  1E1E    	ADC R1,ZL
00009C  1E1E    	ADC R1,ZL
00009D  1E1E    	ADC R1,ZL
00009E  0000    	NOP
00009F  0000    	NOP
0000A0  0000    	NOP
0000A1  0000    	NOP
0000A2  0000    	NOP
0000A3  0000    	NOP
0000A4  0000    	NOP
0000A5  0000    	NOP
0000A6  0001    	UNRECOGNIZED
0000A7  0008    	UNRECOGNIZED
0000A8  0001    	UNRECOGNIZED
0000A9  0005    	UNRECOGNIZED
0000AA  000F    	UNRECOGNIZED
0000AB  0046    	UNRECOGNIZED
0000AC  0136    	MOVW R7:R6,R13:R12
0000AD  01A4    	MOVW R21:R20,R9:R8
0000AE  00C8    	UNRECOGNIZED
0000AF  012C    	MOVW R5:R4,R25:R24
0000B0  B37D    	IN R23,EEDR
0000B1  58C7    	SUBI YL,$87
0000B2  7E6C    	ANDI R22,$EC
0000B3  3148    	CPI R20,$18
0000B4  8DA3    	LDD XL,Z+27
0000B5  2F33    	MOV R19,R19
0000B6  C731    L89:	RJMP L13
0000B7  CDCD    L40:	RJMP -563
0000B8  B37D    	IN R23,EEDR
0000B9  58C7    	SUBI YL,$87
0000BA  7E6C    	ANDI R22,$EC
0000BB  3148    	CPI R20,$18
0000BC  8DA3    	LDD XL,Z+27
0000BD  2F33    	MOV R19,R19
0000BE  C731    	RJMP L14
0000BF  CDCD    	RJMP -563
0000C0  A46B    	LDD R6,Y+43
0000C1  6AE9    	ORI ZL,$A9
0000C2  6C5F    	ORI R21,$CF
0000C3  1D50    	ADC R21,R0
0000C4  819B    	LDD R25,Y+3
0000C5  3E38    	CPI R19,$E8
0000C6  A628    	STD Y+40,R2
0000C7  D0CE    	RCALL L15
0000C8  A46B    	LDD R6,Y+43
0000C9  6AE9    	ORI ZL,$A9
0000CA  915F    	POP R21
0000CB  284A    	OR R4,R10
0000CC  9AA3    	SBI DDRC,DDC3
0000CD  7C75    	ANDI R23,$C5
0000CE  A672    	STD Z+42,R7
0000CF  D0CE    	RCALL L16
0000D0  A47E    	LDD R7,Y+46
0000D1  64DE    	ORI YH,$4E
0000D2  7D6B    	ANDI R22,$DB
0000D3  1D50    	ADC R21,R0
0000D4  8E9B    	STD Y+27,R9
0000D5  2C4F    	MOV R4,R15
0000D6  A628    	STD Y+40,R2
0000D7  D0CE    	RCALL L17
0000D8  B37D    	IN R23,EEDR
0000D9  58C7    	SUBI YL,$87
0000DA  7E6C    	ANDI R22,$EC
0000DB  3148    	CPI R20,$18
0000DC  8DA3    	LDD XL,Z+27
0000DD  2F33    	MOV R19,R19
0000DE  C731    	RJMP L18
0000DF  CDCD    	RJMP -563
0000E0  0404    	CPC R0,R4
0000E1  0404    	CPC R0,R4
0000E2  0404    	CPC R0,R4
0000E3  0404    	CPC R0,R4
0000E4  0404    	CPC R0,R4
0000E5  0404    	CPC R0,R4
0000E6  0404    	CPC R0,R4
0000E7  0404    	CPC R0,R4
0000E8  0202    	MULS R16,R18
0000E9  0202    	MULS R16,R18
0000EA  0202    	MULS R16,R18
0000EB  0202    	MULS R16,R18
0000EC  0202    	MULS R16,R18
0000ED  0000    	NOP
0000EE  0000    	NOP
0000EF  0000    	NOP
0000F0  0101    	MOVW R1:R0,R3:R2
0000F1  0101    	MOVW R1:R0,R3:R2
0000F2  0101    	MOVW R1:R0,R3:R2
0000F3  0101    	MOVW R1:R0,R3:R2
0000F4  0101    	MOVW R1:R0,R3:R2
0000F5  0101    	MOVW R1:R0,R3:R2
0000F6  0101    	MOVW R1:R0,R3:R2
0000F7  0101    	MOVW R1:R0,R3:R2
0000F8  0202    	MULS R16,R18
0000F9  0202    	MULS R16,R18
0000FA  0202    	MULS R16,R18
0000FB  0202    	MULS R16,R18
0000FC  0202    	MULS R16,R18
0000FD  0202    	MULS R16,R18
0000FE  0202    	MULS R16,R18
0000FF  0202    	MULS R16,R18
000100  0404    	CPC R0,R4
000101  0404    	CPC R0,R4
000102  0404    	CPC R0,R4
000103  0404    	CPC R0,R4
000104  0404    	CPC R0,R4
000105  0404    	CPC R0,R4
000106  0404    	CPC R0,R4
000107  0404    	CPC R0,R4
000108  0101    	MOVW R1:R0,R3:R2
000109  0101    	MOVW R1:R0,R3:R2
00010A  0001    	UNRECOGNIZED
00010B  0000    	NOP
00010C  0000    	NOP
00010D  0101    	MOVW R1:R0,R3:R2
00010E  0001    	UNRECOGNIZED
00010F  0000    	NOP
000110  0101    	MOVW R1:R0,R3:R2
000111  0101    	MOVW R1:R0,R3:R2
000112  0001    	UNRECOGNIZED
000113  0000    	NOP
000114  0000    	NOP
000115  0101    	MOVW R1:R0,R3:R2
000116  0001    	UNRECOGNIZED
000117  0000    	NOP
000118  0303    	MULSU R16,R19
000119  0303    	MULSU R16,R19
00011A  0003    	UNRECOGNIZED
00011B  0000    	NOP
00011C  0000    	NOP
00011D  0303    	MULSU R16,R19
00011E  0003    	UNRECOGNIZED
00011F  0000    	NOP
000120  0303    	MULSU R16,R19
000121  0303    	MULSU R16,R19
000122  0003    	UNRECOGNIZED
000123  0000    L11:	NOP
000124  0000    	NOP
000125  0303    	MULSU R16,R19
000126  0003    	UNRECOGNIZED
000127  0000    	NOP
000128  0000    	NOP
000129  0000    	NOP
00012A  0000    	NOP
00012B  0000    	NOP
00012C  0000    	NOP
00012D  0000    	NOP
00012E  0000    	NOP
00012F  0000    	NOP
000130  2828    	OR R2,R8
000131  2828    	OR R2,R8
000132  2828    	OR R2,R8
000133  2828    	OR R2,R8
000134  2828    	OR R2,R8
000135  1414    	CP R1,R4
000136  1414    	CP R1,R4
000137  1414    	CP R1,R4
000138  3C3C    	CPI R19,$CC
000139  3C3C    	CPI R19,$CC
00013A  3C3C    	CPI R19,$CC
00013B  3C3C    	CPI R19,$CC
00013C  3C3C    	CPI R19,$CC
00013D  1E1E    	ADC R1,ZL
00013E  1E1E    	ADC R1,ZL
00013F  1E1E    	ADC R1,ZL
000140  0000    	NOP
000141  0000    	NOP
000142  0000    	NOP
000143  0000    L42:	NOP
000144  0000    	NOP
000145  0000    	NOP
000146  0000    	NOP
000147  0000    	NOP
000148  0001    	UNRECOGNIZED
000149  0008    L101:	UNRECOGNIZED
00014A  0001    	UNRECOGNIZED
00014B  0005    L44:	UNRECOGNIZED
00014C  000F    	UNRECOGNIZED
00014D  0046    	UNRECOGNIZED
00014E  0136    	MOVW R7:R6,R13:R12
00014F  01A4    	MOVW R21:R20,R9:R8
000150  00C8    	UNRECOGNIZED
000151  012C    	MOVW R5:R4,R25:R24
000152  B37D    	IN R23,EEDR
000153  58C7    L46:	SUBI YL,$87
000154  7E6C    	ANDI R22,$EC
000155  3148    	CPI R20,$18
000156  8DA3    	LDD XL,Z+27
000157  2F33    	MOV R19,R19
000158  C731    	RJMP L19
000159  CDCD    	RJMP -563
00015A  B37D    	IN R23,EEDR
00015B  58C7    L48:	SUBI YL,$87
00015C  7E6C    	ANDI R22,$EC
00015D  3148    	CPI R20,$18
00015E  8DA3    	LDD XL,Z+27
00015F  2F33    	MOV R19,R19
000160  C731    	RJMP L20
000161  CDCD    	RJMP -563
000162  A38B    	STD Y+35,R24
000163  64E6    L50:	ORI ZL,$46
000164  8E78    	STD Y+24,R7
000165  0E57    	ADD R5,R23
000166  9F96    	MUL R25,R22
000167  2C4F    	MOV R4,R15
000168  B728    	IN R18,EIFR
000169  D0BC    	RCALL L21
00016A  A46C    	LDD R6,Y+44
00016B  61E0    L52:	ORI ZL,$10
00016C  976A    	SBIW YH:YL,26
00016D  1C50    	ADC R5,R0
00016E  A799    	STD Y+41,R25
00016F  2C4F    	MOV R4,R15
000170  9128    	UNRECOGNIZED
000171  8370    	ST Z,R23
000172  A47E    	LDD R7,Y+46
000173  64DE    L54:	ORI YH,$4E
000174  7D6B    	ANDI R22,$DB
000175  1D50    	ADC R21,R0
000176  8E9B    	STD Y+27,R9
000177  2C4F    	MOV R4,R15
000178  A628    	STD Y+40,R2
000179  D0CE    	RCALL L22
00017A  B37D    	IN R23,EEDR
00017B  58C7    L75:	SUBI YL,$87
00017C  7E6C    	ANDI R22,$EC
00017D  3148    	CPI R20,$18
00017E  8DA3    	LDD XL,Z+27
00017F  2F33    	MOV R19,R19
000180  C731    	RJMP L23
000181  CDCD    	RJMP -563
000182  0404    L78:	CPC R0,R4
000183  0404    	CPC R0,R4
000184  0404    	CPC R0,R4
000185  0404    	CPC R0,R4
000186  0404    	CPC R0,R4
000187  0404    	CPC R0,R4
000188  0404    	CPC R0,R4
000189  0404    	CPC R0,R4
00018A  0202    	MULS R16,R18
00018B  0202    	MULS R16,R18
00018C  0202    	MULS R16,R18
00018D  0202    	MULS R16,R18
00018E  0202    	MULS R16,R18
00018F  0000    	NOP
000190  0000    	NOP
000191  0000    	NOP
000192  0101    	MOVW R1:R0,R3:R2
000193  0101    	MOVW R1:R0,R3:R2
000194  0101    	MOVW R1:R0,R3:R2
000195  0101    	MOVW R1:R0,R3:R2
000196  0101    L15:	MOVW R1:R0,R3:R2
000197  0101    	MOVW R1:R0,R3:R2
000198  0101    	MOVW R1:R0,R3:R2
000199  0101    	MOVW R1:R0,R3:R2
00019A  0202    	MULS R16,R18
00019B  0202    	MULS R16,R18
00019C  0202    	MULS R16,R18
00019D  0202    	MULS R16,R18
00019E  0202    L16:	MULS R16,R18
00019F  0202    	MULS R16,R18
0001A0  0202    	MULS R16,R18
0001A1  0202    	MULS R16,R18
0001A2  0404    	CPC R0,R4
0001A3  0404    	CPC R0,R4
0001A4  0404    	CPC R0,R4
0001A5  0404    	CPC R0,R4
0001A6  0404    L17:	CPC R0,R4
0001A7  0404    	CPC R0,R4
0001A8  0404    	CPC R0,R4
0001A9  0404    	CPC R0,R4
0001AA  0000    	NOP
0001AB  0000    	NOP
0001AC  0100    	MOVW R1:R0,R1:R0
0001AD  0101    	MOVW R1:R0,R3:R2
0001AE  0101    	MOVW R1:R0,R3:R2
0001AF  0000    	NOP
0001B0  0100    	MOVW R1:R0,R1:R0
0001B1  0101    L114:	MOVW R1:R0,R3:R2
0001B2  0000    	NOP
0001B3  0000    	NOP
0001B4  0200    	MULS R16,R16
0001B5  0202    	MULS R16,R18
0001B6  0202    	MULS R16,R18
0001B7  0000    	NOP
0001B8  0200    	MULS R16,R16
0001B9  0202    	MULS R16,R18
0001BA  0000    	NOP
0001BB  0000    	NOP
0001BC  0300    	MULSU R16,R16
0001BD  0303    	MULSU R16,R19
0001BE  0203    	MULS R16,R19
0001BF  0000    	NOP
0001C0  0300    	MULSU R16,R16
0001C1  0303    	MULSU R16,R19
0001C2  0000    	NOP
0001C3  0000    	NOP
0001C4  0300    	MULSU R16,R16
0001C5  0303    	MULSU R16,R19
0001C6  0303    	MULSU R16,R19
0001C7  0000    	NOP
0001C8  0300    	MULSU R16,R16
0001C9  0303    	MULSU R16,R19
0001CA  0000    	NOP
0001CB  0000    	NOP
0001CC  0000    	NOP
0001CD  0000    	NOP
0001CE  0000    	NOP
0001CF  0000    	NOP
0001D0  0000    	NOP
0001D1  0000    L118:	NOP
0001D2  2828    	OR R2,R8
0001D3  2828    	OR R2,R8
0001D4  2828    	OR R2,R8
0001D5  2828    	OR R2,R8
0001D6  2828    	OR R2,R8
0001D7  1414    	CP R1,R4
0001D8  1414    	CP R1,R4
0001D9  1414    	CP R1,R4
0001DA  3C3C    	CPI R19,$CC
0001DB  3C3C    	CPI R19,$CC
0001DC  3C3C    	CPI R19,$CC
0001DD  3C3C    	CPI R19,$CC
0001DE  3C3C    	CPI R19,$CC
0001DF  1E1E    	ADC R1,ZL
0001E0  1E1E    	ADC R1,ZL
0001E1  1E1E    	ADC R1,ZL
0001E2  0000    	NOP
0001E3  0000    	NOP
0001E4  0000    	NOP
0001E5  0000    	NOP
0001E6  0000    	NOP
0001E7  0000    	NOP
0001E8  0000    	NOP
0001E9  0000    	NOP
0001EA  0001    	UNRECOGNIZED
0001EB  0005    	UNRECOGNIZED
0001EC  0008    	UNRECOGNIZED
0001ED  0003    	UNRECOGNIZED
0001EE  0001    	UNRECOGNIZED
0001EF  000F    	UNRECOGNIZED
0001F0  0046    	UNRECOGNIZED
0001F1  0096    	UNRECOGNIZED
0001F2  0136    	MOVW R7:R6,R13:R12
0001F3  00FA    	UNRECOGNIZED
0001F4  0078    	UNRECOGNIZED
0001F5  012C    	MOVW R5:R4,R25:R24
0001F6  B37D    	IN R23,EEDR
0001F7  58C7    	SUBI YL,$87
0001F8  7E6C    	ANDI R22,$EC
0001F9  3148    	CPI R20,$18
0001FA  8DA3    	LDD XL,Z+27
0001FB  2F33    	MOV R19,R19
0001FC  C731    	RJMP L24
0001FD  CDCD    	RJMP -563
0001FE  B37D    	IN R23,EEDR
0001FF  58C7    L56:	SUBI YL,$87
000200  7E6C    	ANDI R22,$EC
000201  3148    	CPI R20,$18
000202  8DA3    	LDD XL,Z+27
000203  2F33    	MOV R19,R19
000204  C731    	RJMP L25
000205  CDCD    	RJMP -563
000206  A77E    	STD Y+46,R23
000207  62DE    L58:	ORI YH,$2E
000208  7D6E    	ANDI R22,$DE
000209  1D54    	ADC R21,R4
00020A  8E9B    	STD Y+27,R9
00020B  2C4F    	MOV R4,R15
00020C  A628    	STD Y+40,R2
00020D  D0CE    	RCALL L26
00020E  A46B    	LDD R6,Y+43
00020F  66E9    L61:	ORI ZL,$69
000210  6C5F    	ORI R21,$CF
000211  1D50    	ADC R21,R0
000212  819B    	LDD R25,Y+3
000213  3E38    	CPI R19,$E8
000214  A628    	STD Y+40,R2
000215  D0CE    	RCALL L27
000216  A46B    	LDD R6,Y+43
000217  69E9    L64:	ORI ZL,$99
000218  915F    	POP R21
000219  284A    	OR R4,R10
00021A  9A9D    	SBI PINC,PINC5
00021B  3E38    	CPI R19,$E8
00021C  A628    	STD Y+40,R2
00021D  D0CE    	RCALL L28
00021E  A47E    	LDD R7,Y+46
00021F  5FDE    L66:	SUBI YH,$FE
000220  7D6B    	ANDI R22,$DB
000221  1D54    	ADC R21,R4
000222  8E9B    	STD Y+27,R9
000223  2C4F    	MOV R4,R15
000224  A628    	STD Y+40,R2
000225  D0CE    	RCALL L29
000226  B37D    L21:	IN R23,EEDR
000227  58C7    L68:	SUBI YL,$87
000228  7E6C    	ANDI R22,$EC
000229  3148    	CPI R20,$18
00022A  8DA3    	LDD XL,Z+27
00022B  2F33    	MOV R19,R19
00022C  C731    	RJMP L30
00022D  CDCD    	RJMP -563
00022E  0404    	CPC R0,R4
00022F  0404    L70:	CPC R0,R4
000230  0404    	CPC R0,R4
000231  0404    	CPC R0,R4
000232  0404    	CPC R0,R4
000233  0404    	CPC R0,R4
000234  0404    	CPC R0,R4
000235  0404    	CPC R0,R4
000236  0404    	CPC R0,R4
000237  0404    	CPC R0,R4
000238  0404    	CPC R0,R4
000239  0404    L131:	CPC R0,R4
00023A  0404    	CPC R0,R4
00023B  0404    	CPC R0,R4
00023C  0404    	CPC R0,R4
00023D  0404    	CPC R0,R4
00023E  0202    	MULS R16,R18
00023F  0202    	MULS R16,R18
000240  0202    	MULS R16,R18
000241  0202    	MULS R16,R18
000242  0202    	MULS R16,R18
000243  0000    	NOP
000244  0000    	NOP
000245  0000    	NOP
000246  0202    	MULS R16,R18
000247  0202    	MULS R16,R18
000248  0002    L22:	UNRECOGNIZED
000249  0000    	NOP
00024A  0000    	NOP
00024B  0303    	MULSU R16,R19
00024C  0303    	MULSU R16,R19
00024D  0303    	MULSU R16,R19
00024E  0000    	NOP
00024F  0000    	NOP
000250  0000    	NOP
000251  0000    	NOP
000252  0000    	NOP
000253  0404    	CPC R0,R4
000254  0404    	CPC R0,R4
000255  0304    	MULSU R16,R20
000256  0404    	CPC R0,R4
000257  0404    	CPC R0,R4
000258  0404    	CPC R0,R4
000259  0404    L135:	CPC R0,R4
00025A  0404    	CPC R0,R4
00025B  0404    	CPC R0,R4
00025C  0404    	CPC R0,R4
00025D  0404    	CPC R0,R4
00025E  0000    	NOP
00025F  0000    	NOP
000260  0000    	NOP
000261  0000    	NOP
000262  0000    	NOP
000263  0000    	NOP
000264  0000    	NOP
000265  0000    	NOP
000266  0101    	MOVW R1:R0,R3:R2
000267  0101    	MOVW R1:R0,R3:R2
000268  0001    	UNRECOGNIZED
000269  0000    	NOP
00026A  0000    	NOP
00026B  0101    	MOVW R1:R0,R3:R2
00026C  0001    	UNRECOGNIZED
00026D  0000    	NOP
00026E  0000    	NOP
00026F  0000    	NOP
000270  0000    	NOP
000271  0000    	NOP
000272  0000    	NOP
000273  0000    	NOP
000274  0000    	NOP
000275  0000    	NOP
000276  0101    	MOVW R1:R0,R3:R2
000277  0101    	MOVW R1:R0,R3:R2
000278  0001    	UNRECOGNIZED
000279  0000    	NOP
00027A  0000    	NOP
00027B  0101    	MOVW R1:R0,R3:R2
00027C  0001    	UNRECOGNIZED
00027D  0000    	NOP
00027E  0000    	NOP
00027F  0000    	NOP
000280  0000    	NOP
000281  0000    	NOP
000282  0000    	NOP
000283  0000    	NOP
000284  0000    	NOP
000285  0000    	NOP
000286  0000    	NOP
000287  0000    	NOP
000288  0000    	NOP
000289  0000    	NOP
00028A  0000    	NOP
00028B  0000    	NOP
00028C  0000    	NOP
00028D  0000    	NOP
00028E  2828    	OR R2,R8
00028F  2828    	OR R2,R8
000290  2828    	OR R2,R8
000291  2828    	OR R2,R8
000292  2828    	OR R2,R8
000293  1414    	CP R1,R4
000294  1414    	CP R1,R4
000295  1414    	CP R1,R4
000296  3C3C    	CPI R19,$CC
000297  3C3C    	CPI R19,$CC
000298  3C3C    	CPI R19,$CC
000299  3C3C    	CPI R19,$CC
00029A  3C3C    	CPI R19,$CC
00029B  1E1E    	ADC R1,ZL
00029C  1E1E    	ADC R1,ZL
00029D  1E1E    	ADC R1,ZL
00029E  0000    	NOP
00029F  0000    	NOP
0002A0  0000    	NOP
0002A1  0000    	NOP
0002A2  0000    	NOP
0002A3  0000    	NOP
0002A4  0000    	NOP
0002A5  0000    	NOP
0002A6  0001    	UNRECOGNIZED
0002A7  0005    	UNRECOGNIZED
0002A8  0008    	UNRECOGNIZED
0002A9  0003    	UNRECOGNIZED
0002AA  0001    	UNRECOGNIZED
0002AB  000F    	UNRECOGNIZED
0002AC  0046    	UNRECOGNIZED
0002AD  0096    	UNRECOGNIZED
0002AE  0136    	MOVW R7:R6,R13:R12
0002AF  00C8    	UNRECOGNIZED
0002B0  0078    	UNRECOGNIZED
0002B1  012C    	MOVW R5:R4,R25:R24
0002B2  B37D    	IN R23,EEDR
0002B3  58C7    	SUBI YL,$87
0002B4  7E6C    	ANDI R22,$EC
0002B5  3148    	CPI R20,$18
0002B6  8DA3    	LDD XL,Z+27
0002B7  2F33    	MOV R19,R19
0002B8  C731    	RJMP L31
0002B9  CDCD    	RJMP L32
0002BA  B37D    	IN R23,EEDR
0002BB  58C7    	SUBI YL,$87
0002BC  7E6C    	ANDI R22,$EC
0002BD  3148    	CPI R20,$18
0002BE  8DA3    L90:	LDD XL,Z+27
0002BF  2F33    	MOV R19,R19
0002C0  C731    	RJMP L33
0002C1  CDCD    	RJMP L34
0002C2  A77E    	STD Y+46,R23
0002C3  62DE    L72:	ORI YH,$2E
0002C4  7D6E    	ANDI R22,$DE
0002C5  1D54    	ADC R21,R4
0002C6  8E9B    L92:	STD Y+27,R9
0002C7  2C4F    	MOV R4,R15
0002C8  A628    	STD Y+40,R2
0002C9  D0CE    	RCALL L35
0002CA  A38B    	STD Y+35,R24
0002CB  64E6    L74:	ORI ZL,$46
0002CC  8E78    	STD Y+24,R7
0002CD  0E57    	ADD R5,R23
0002CE  9F96    	MUL R25,R22
0002CF  2C4F    	MOV R4,R15
0002D0  B728    	IN R18,EIFR
0002D1  D0BC    	RCALL L36
0002D2  A46C    	LDD R6,Y+44
0002D3  61E0    L77:	ORI ZL,$10
0002D4  976A    	SBIW YH:YL,26
0002D5  1C50    	ADC R5,R0
0002D6  A799    	STD Y+41,R25
0002D7  2C4F    	MOV R4,R15
0002D8  B728    	IN R18,EIFR
0002D9  D0BC    	RCALL L37
0002DA  A67E    	STD Y+46,R7
0002DB  62DE    	ORI YH,$2E
0002DC  7D71    L26:	ANDI R23,$D1
0002DD  1D54    	ADC R21,R4
0002DE  8E9B    	STD Y+27,R9
0002DF  2C4F    	MOV R4,R15
0002E0  A628    	STD Y+40,R2
0002E1  D0CE    	RCALL L38
0002E2  B37D    	IN R23,EEDR
0002E3  58C7    	SUBI YL,$87
0002E4  7E6C    L27:	ANDI R22,$EC
0002E5  3148    	CPI R20,$18
0002E6  8DA3    	LDD XL,Z+27
0002E7  2F33    	MOV R19,R19
0002E8  C731    	RJMP L39
0002E9  CDCD    	RJMP L40
0002EA  0404    	CPC R0,R4
0002EB  0404    	CPC R0,R4
0002EC  0404    L28:	CPC R0,R4
0002ED  0404    	CPC R0,R4
0002EE  0404    	CPC R0,R4
0002EF  0404    	CPC R0,R4
0002F0  0404    	CPC R0,R4
0002F1  0404    	CPC R0,R4
0002F2  0404    	CPC R0,R4
0002F3  0404    	CPC R0,R4
0002F4  0404    L29:	CPC R0,R4
0002F5  0404    	CPC R0,R4
0002F6  0404    	CPC R0,R4
0002F7  0404    	CPC R0,R4
0002F8  0404    	CPC R0,R4
0002F9  0404    	CPC R0,R4
0002FA  0202    	MULS R16,R18
0002FB  0202    	MULS R16,R18
0002FC  0202    	MULS R16,R18
0002FD  0202    	MULS R16,R18
0002FE  0202    	MULS R16,R18
0002FF  0404    	CPC R0,R4
000300  0404    	CPC R0,R4
000301  0404    	CPC R0,R4
000302  0000    	NOP
000303  0000    	NOP
000304  0200    	MULS R16,R16
000305  0202    L88:	MULS R16,R18
000306  0202    	MULS R16,R18
000307  0404    	CPC R0,R4
000308  0404    	CPC R0,R4
000309  0404    	CPC R0,R4
00030A  0000    	NOP
00030B  0000    	NOP
00030C  0200    	MULS R16,R16
00030D  0202    	MULS R16,R18
00030E  0202    	MULS R16,R18
00030F  0404    	CPC R0,R4
000310  0404    	CPC R0,R4
000311  0404    	CPC R0,R4
000312  0404    	CPC R0,R4
000313  0404    L80:	CPC R0,R4
000314  0404    	CPC R0,R4
000315  0404    	CPC R0,R4
000316  0404    	CPC R0,R4
000317  0404    	CPC R0,R4
000318  0404    	CPC R0,R4
000319  0404    	CPC R0,R4
00031A  0000    	NOP
00031B  0000    	NOP
00031C  0000    	NOP
00031D  0000    	NOP
00031E  0000    	NOP
00031F  0000    	NOP
000320  0000    	NOP
000321  0000    	NOP
000322  0000    	NOP
000323  0000    	NOP
000324  0100    	MOVW R1:R0,R1:R0
000325  0101    	MOVW R1:R0,R3:R2
000326  0101    	MOVW R1:R0,R3:R2
000327  0000    	NOP
000328  0100    	MOVW R1:R0,R1:R0
000329  0101    	MOVW R1:R0,R3:R2
00032A  0000    	NOP
00032B  0000    	NOP
00032C  0000    	NOP
00032D  0000    	NOP
00032E  0000    	NOP
00032F  0000    	NOP
000330  0000    	NOP
000331  0000    	NOP
000332  0000    	NOP
000333  0000    	NOP
000334  0100    	MOVW R1:R0,R1:R0
000335  0101    	MOVW R1:R0,R3:R2
000336  0101    	MOVW R1:R0,R3:R2
000337  0000    	NOP
000338  0100    	MOVW R1:R0,R1:R0
000339  0101    	MOVW R1:R0,R3:R2
00033A  0000    	NOP
00033B  0000    	NOP
00033C  0000    	NOP
00033D  0000    	NOP
00033E  0000    	NOP
00033F  0000    	NOP
000340  0000    	NOP
000341  0000    	NOP
000342  0000    	NOP
000343  0000    	NOP
000344  0000    	NOP
000345  0000    	NOP
000346  0000    	NOP
000347  0000    	NOP
000348  0000    	NOP
000349  0000    	NOP
00034A  1414    	CP R1,R4
00034B  1414    	CP R1,R4
00034C  1414    	CP R1,R4
00034D  1414    	CP R1,R4
00034E  1414    	CP R1,R4
00034F  1414    	CP R1,R4
000350  1414    	CP R1,R4
000351  1414    L12:	CP R1,R4
000352  1E1E    	ADC R1,ZL
000353  1E1E    	ADC R1,ZL
000354  1E1E    	ADC R1,ZL
000355  1E1E    	ADC R1,ZL
000356  1E1E    	ADC R1,ZL
000357  1E1E    	ADC R1,ZL
000358  1E1E    	ADC R1,ZL
000359  1E1E    	ADC R1,ZL
00035A  0000    	NOP
00035B  0000    	NOP
00035C  0000    	NOP
00035D  0000    	NOP
00035E  0000    	NOP
00035F  0000    	NOP
000360  0000    	NOP
000361  0000    	NOP
000362  000A    	UNRECOGNIZED
000363  0005    	UNRECOGNIZED
000364  000A    	UNRECOGNIZED
000365  0001    	UNRECOGNIZED
000366  0005    	UNRECOGNIZED
000367  000A    	UNRECOGNIZED
000368  00C8    	UNRECOGNIZED
000369  00C8    	UNRECOGNIZED
00036A  0190    	MOVW R19:R18,R1:R0
00036B  0078    	UNRECOGNIZED
00036C  00C8    	UNRECOGNIZED
00036D  0190    	MOVW R19:R18,R1:R0
00036E  B37D    	IN R23,EEDR
00036F  58C7    	SUBI YL,$87
000370  7E6C    	ANDI R22,$EC
000371  3148    	CPI R20,$18
000372  8DA3    	LDD XL,Z+27
000373  2F33    	MOV R19,R19
000374  C731    	RJMP L41
000375  CDCD    	RJMP L42
000376  B37D    	IN R23,EEDR
000377  58C7    	SUBI YL,$87
000378  7E6C    	ANDI R22,$EC
000379  3148    	CPI R20,$18
00037A  8DA3    	LDD XL,Z+27
00037B  2F33    	MOV R19,R19
00037C  C731    	RJMP L43
00037D  CDCD    	RJMP L44
00037E  A27D    	STD Y+37,R7
00037F  48C7    	SBCI YL,$87
000380  7E6C    	ANDI R22,$EC
000381  313B    	CPI R19,$1B
000382  8D97    	LDD R25,Z+31
000383  2F33    	MOV R19,R19
000384  C731    	RJMP L45
000385  CDCD    	RJMP L46
000386  A988    	LDD R24,Y+48
000387  5DD2    	SUBI YH,$D2
000388  8B79    	STD Y+17,R23
000389  3D24    	CPI R18,$D4
00038A  9D90    	MUL R25,R0
00038B  2F33    	MOV R19,R19
00038C  C731    	RJMP L47
00038D  CDCD    	RJMP L48
00038E  AD7D    L36:	LDD R23,Y+61
00038F  5DD2    	SUBI YH,$D2
000390  8B7B    	STD Y+19,R23
000391  0E50    	ADD R5,R16
000392  9D89    	MUL R24,R9
000393  2F33    	MOV R19,R19
000394  C731    	RJMP L49
000395  CDCD    	RJMP L50
000396  AD86    L37:	LDD R24,Z+62
000397  5DD2    	SUBI YH,$D2
000398  8B7B    L35:	STD Y+19,R23
000399  1F50    	ADC R21,R16
00039A  9D9D    	MUL R25,R13
00039B  2F33    	MOV R19,R19
00039C  C731    	RJMP L51
00039D  CDCD    	RJMP L52
00039E  B37D    	IN R23,EEDR
00039F  58C7    	SUBI YL,$87
0003A0  7E6C    	ANDI R22,$EC
0003A1  3148    	CPI R20,$18
0003A2  8DA3    	LDD XL,Z+27
0003A3  2F33    	MOV R19,R19
0003A4  C731    	RJMP L53
0003A5  CDCD    	RJMP L54
0003A6  0404    	CPC R0,R4
0003A7  0404    	CPC R0,R4
0003A8  0404    	CPC R0,R4
0003A9  0404    	CPC R0,R4
0003AA  0404    	CPC R0,R4
0003AB  0404    	CPC R0,R4
0003AC  0404    	CPC R0,R4
0003AD  0404    	CPC R0,R4
0003AE  0101    	MOVW R1:R0,R3:R2
0003AF  0101    	MOVW R1:R0,R3:R2
0003B0  0101    L38:	MOVW R1:R0,R3:R2
0003B1  0101    	MOVW R1:R0,R3:R2
0003B2  0101    	MOVW R1:R0,R3:R2
0003B3  0404    	CPC R0,R4
0003B4  0404    	CPC R0,R4
0003B5  0404    	CPC R0,R4
0003B6  0101    	MOVW R1:R0,R3:R2
0003B7  0101    	MOVW R1:R0,R3:R2
0003B8  0101    	MOVW R1:R0,R3:R2
0003B9  0101    	MOVW R1:R0,R3:R2
0003BA  0101    	MOVW R1:R0,R3:R2
0003BB  0404    	CPC R0,R4
0003BC  0404    	CPC R0,R4
0003BD  0404    	CPC R0,R4
0003BE  0202    	MULS R16,R18
0003BF  0202    	MULS R16,R18
0003C0  0202    	MULS R16,R18
0003C1  0202    	MULS R16,R18
0003C2  0202    	MULS R16,R18
0003C3  0404    	CPC R0,R4
0003C4  0404    	CPC R0,R4
0003C5  0404    	CPC R0,R4
0003C6  0101    	MOVW R1:R0,R3:R2
0003C7  0101    	MOVW R1:R0,R3:R2
0003C8  0101    	MOVW R1:R0,R3:R2
0003C9  0101    	MOVW R1:R0,R3:R2
0003CA  0101    	MOVW R1:R0,R3:R2
0003CB  0404    	CPC R0,R4
0003CC  0404    	CPC R0,R4
0003CD  0404    	CPC R0,R4
0003CE  0303    	MULSU R16,R19
0003CF  0303    	MULSU R16,R19
0003D0  0303    	MULSU R16,R19
0003D1  0303    	MULSU R16,R19
0003D2  0303    	MULSU R16,R19
0003D3  0404    	CPC R0,R4
0003D4  0404    	CPC R0,R4
0003D5  0404    	CPC R0,R4
0003D6  0101    	MOVW R1:R0,R3:R2
0003D7  0101    	MOVW R1:R0,R3:R2
0003D8  0001    	UNRECOGNIZED
0003D9  0000    	NOP
0003DA  0000    	NOP
0003DB  0101    	MOVW R1:R0,R3:R2
0003DC  0001    	UNRECOGNIZED
0003DD  0000    	NOP
0003DE  0101    	MOVW R1:R0,R3:R2
0003DF  0101    	MOVW R1:R0,R3:R2
0003E0  0001    	UNRECOGNIZED
0003E1  0000    	NOP
0003E2  0000    	NOP
0003E3  0101    	MOVW R1:R0,R3:R2
0003E4  0001    	UNRECOGNIZED
0003E5  0000    L82:	NOP
0003E6  0000    	NOP
0003E7  0000    	NOP
0003E8  0000    	NOP
0003E9  0000    	NOP
0003EA  0000    	NOP
0003EB  0000    	NOP
0003EC  0000    	NOP
0003ED  0000    L84:	NOP
0003EE  0000    	NOP
0003EF  0000    	NOP
0003F0  0000    	NOP
0003F1  0000    	NOP
0003F2  0000    	NOP
0003F3  0000    	NOP
0003F4  0000    	NOP
0003F5  0000    L85:	NOP
0003F6  0000    	NOP
0003F7  0000    	NOP
0003F8  0000    	NOP
0003F9  0000    	NOP
0003FA  0000    	NOP
0003FB  0000    	NOP
0003FC  0000    	NOP
0003FD  0000    L86:	NOP
0003FE  0000    	NOP
0003FF  0000    	NOP
000400  0000    	NOP
000401  0000    	NOP
000402  0000    	NOP
000403  0000    	NOP
000404  0000    	NOP
000405  0000    	NOP
000406  1414    	CP R1,R4
000407  1414    	CP R1,R4
000408  1414    	CP R1,R4
000409  1414    	CP R1,R4
00040A  1414    	CP R1,R4
00040B  1414    	CP R1,R4
00040C  1414    	CP R1,R4
00040D  1414    	CP R1,R4
00040E  1E1E    	ADC R1,ZL
00040F  1E1E    	ADC R1,ZL
000410  1E1E    	ADC R1,ZL
000411  1E1E    	ADC R1,ZL
000412  1E1E    	ADC R1,ZL
000413  1E1E    	ADC R1,ZL
000414  1E1E    	ADC R1,ZL
000415  1E1E    	ADC R1,ZL
000416  0000    	NOP
000417  0000    	NOP
000418  0000    	NOP
000419  0000    	NOP
00041A  0000    	NOP
00041B  0000    	NOP
00041C  0000    	NOP
00041D  0000    	NOP
00041E  000A    	UNRECOGNIZED
00041F  0005    	UNRECOGNIZED
000420  000A    	UNRECOGNIZED
000421  0001    	UNRECOGNIZED
000422  0005    	UNRECOGNIZED
000423  000A    	UNRECOGNIZED
000424  00C8    	UNRECOGNIZED
000425  00C8    	UNRECOGNIZED
000426  0190    	MOVW R19:R18,R1:R0
000427  0078    	UNRECOGNIZED
000428  00C8    	UNRECOGNIZED
000429  0190    	MOVW R19:R18,R1:R0
00042A  B37D    	IN R23,EEDR
00042B  58C7    	SUBI YL,$87
00042C  7E6C    	ANDI R22,$EC
00042D  3148    L94:	CPI R20,$18
00042E  8DA3    	LDD XL,Z+27
00042F  2F33    	MOV R19,R19
000430  C731    	RJMP L55
000431  CDCD    	RJMP L56
000432  B37D    	IN R23,EEDR
000433  58C7    	SUBI YL,$87
000434  7E6C    	ANDI R22,$EC
000435  3148    	CPI R20,$18
000436  8DA3    	LDD XL,Z+27
000437  2F33    	MOV R19,R19
000438  C731    	RJMP L57
000439  CDCD    	RJMP L58
00043A  C17D    	RJMP L59
00043B  6BCD    	ORI YL,$BD
00043C  7E6C    	ANDI R22,$EC
00043D  3159    	CPI R21,$19
00043E  8DB4    	LDD XH,Z+28
00043F  2F33    	MOV R19,R19
000440  C731    	RJMP L60
000441  CDCD    	RJMP L61
000442  D177    	RCALL L62
000443  6AC3    	ORI YL,$A3
000444  7760    	ANDI R22,$70
000445  1F51    	ADC R21,R17
000446  849D    	LDD R9,Y+13
000447  2F33    	MOV R19,R19
000448  C731    	RJMP L63
000449  CDCD    	RJMP L64
00044A  A275    	STD Z+37,R7
00044B  62E3    	ORI ZL,$23
00044C  7D67    	ANDI R22,$D7
00044D  314E    	CPI R20,$1E
00044E  7FA3    	ANDI XL,$F3
00044F  2F33    	MOV R19,R19
000450  C731    	RJMP L65
000451  CDCD    	RJMP L66
000452  A86E    	LDD R6,Y+54
000453  55CC    	SUBI YL,$5C
000454  755C    	ANDI R21,$5C
000455  3151    	CPI R21,$11
000456  80A3    	LDD R10,Z+3
000457  2F33    	MOV R19,R19
000458  C731    	RJMP L67
000459  CDCD    	RJMP L68
00045A  B37D    	IN R23,EEDR
00045B  58C7    	SUBI YL,$87
00045C  7E6C    	ANDI R22,$EC
00045D  3148    	CPI R20,$18
00045E  8DA3    	LDD XL,Z+27
00045F  2F33    	MOV R19,R19
000460  C731    	RJMP L69
000461  CDCD    	RJMP L70
000462  0404    	CPC R0,R4
000463  0404    	CPC R0,R4
000464  0404    	CPC R0,R4
000465  0404    	CPC R0,R4
000466  0404    	CPC R0,R4
000467  0404    	CPC R0,R4
000468  0404    	CPC R0,R4
000469  0404    	CPC R0,R4
00046A  0101    	MOVW R1:R0,R3:R2
00046B  0101    	MOVW R1:R0,R3:R2
00046C  0101    	MOVW R1:R0,R3:R2
00046D  0101    	MOVW R1:R0,R3:R2
00046E  0101    	MOVW R1:R0,R3:R2
00046F  0404    	CPC R0,R4
000470  0404    	CPC R0,R4
000471  0404    	CPC R0,R4
000472  0101    	MOVW R1:R0,R3:R2
000473  0101    	MOVW R1:R0,R3:R2
000474  0101    	MOVW R1:R0,R3:R2
000475  0101    	MOVW R1:R0,R3:R2
000476  0101    	MOVW R1:R0,R3:R2
000477  0404    	CPC R0,R4
000478  0404    	CPC R0,R4
000479  0404    	CPC R0,R4
00047A  0202    	MULS R16,R18
00047B  0202    	MULS R16,R18
00047C  0202    	MULS R16,R18
00047D  0202    	MULS R16,R18
00047E  0202    	MULS R16,R18
00047F  0404    	CPC R0,R4
000480  0404    	CPC R0,R4
000481  0404    	CPC R0,R4
000482  0202    	MULS R16,R18
000483  0202    	MULS R16,R18
000484  0202    	MULS R16,R18
000485  0202    	MULS R16,R18
000486  0202    	MULS R16,R18
000487  0404    	CPC R0,R4
000488  0404    	CPC R0,R4
000489  0404    	CPC R0,R4
00048A  0303    	MULSU R16,R19
00048B  0303    	MULSU R16,R19
00048C  0303    	MULSU R16,R19
00048D  0303    	MULSU R16,R19
00048E  0303    	MULSU R16,R19
00048F  0303    	MULSU R16,R19
000490  0303    	MULSU R16,R19
000491  0303    	MULSU R16,R19
000492  0000    	NOP
000493  0000    	NOP
000494  0100    	MOVW R1:R0,R1:R0
000495  0101    	MOVW R1:R0,R3:R2
000496  0101    	MOVW R1:R0,R3:R2
000497  0000    	NOP
000498  0100    	MOVW R1:R0,R1:R0
000499  0101    	MOVW R1:R0,R3:R2
00049A  0000    	NOP
00049B  0000    	NOP
00049C  0100    	MOVW R1:R0,R1:R0
00049D  0101    	MOVW R1:R0,R3:R2
00049E  0101    	MOVW R1:R0,R3:R2
00049F  0000    	NOP
0004A0  0100    	MOVW R1:R0,R1:R0
0004A1  0001    	UNRECOGNIZED
0004A2  0000    	NOP
0004A3  0000    	NOP
0004A4  0000    	NOP
0004A5  0000    	NOP
0004A6  0000    	NOP
0004A7  0000    	NOP
0004A8  0000    	NOP
0004A9  0000    	NOP
0004AA  0000    	NOP
0004AB  0000    	NOP
0004AC  0000    	NOP
0004AD  0000    	NOP
0004AE  0000    	NOP
0004AF  0000    	NOP
0004B0  0000    	NOP
0004B1  0000    	NOP
0004B2  0000    	NOP
0004B3  0000    	NOP
0004B4  0000    	NOP
0004B5  0000    	NOP
0004B6  0000    	NOP
0004B7  0000    	NOP
0004B8  0000    	NOP
0004B9  0000    	NOP
0004BA  0000    	NOP
0004BB  0000    	NOP
0004BC  0000    	NOP
0004BD  0000    	NOP
0004BE  0000    	NOP
0004BF  0000    	NOP
0004C0  0000    	NOP
0004C1  0000    	NOP
0004C2  2828    	OR R2,R8
0004C3  2828    	OR R2,R8
0004C4  2828    	OR R2,R8
0004C5  2828    	OR R2,R8
0004C6  2828    	OR R2,R8
0004C7  1E1E    	ADC R1,ZL
0004C8  1E1E    	ADC R1,ZL
0004C9  1E1E    	ADC R1,ZL
0004CA  3C3C    	CPI R19,$CC
0004CB  3C3C    	CPI R19,$CC
0004CC  3C3C    	CPI R19,$CC
0004CD  3C3C    	CPI R19,$CC
0004CE  3C3C    	CPI R19,$CC
0004CF  3232    	CPI R19,$22
0004D0  3232    	CPI R19,$22
0004D1  3232    	CPI R19,$22
0004D2  0000    	NOP
0004D3  0000    	NOP
0004D4  0000    	NOP
0004D5  0000    	NOP
0004D6  0000    	NOP
0004D7  0000    	NOP
0004D8  0000    	NOP
0004D9  0000    L91:	NOP
0004DA  000F    	UNRECOGNIZED
0004DB  001E    	UNRECOGNIZED
0004DC  002D    	UNRECOGNIZED
0004DD  002D    	UNRECOGNIZED
0004DE  002D    	UNRECOGNIZED
0004DF  001E    	UNRECOGNIZED
0004E0  001E    	UNRECOGNIZED
0004E1  001E    	UNRECOGNIZED
0004E2  001E    	UNRECOGNIZED
0004E3  001E    	UNRECOGNIZED
0004E4  012C    	MOVW R5:R4,R25:R24
0004E5  0258    	MULS R21,R24
0004E6  0384    	FMULS R16,R20
0004E7  0384    	FMULS R16,R20
0004E8  0384    	FMULS R16,R20
0004E9  0258    	MULS R21,R24
0004EA  0258    	MULS R21,R24
0004EB  0258    	MULS R21,R24
0004EC  0258    	MULS R21,R24
0004ED  0258    	MULS R21,R24
0004EE  B37D    	IN R23,EEDR
0004EF  58C7    	SUBI YL,$87
0004F0  7E6C    	ANDI R22,$EC
0004F1  3148    	CPI R20,$18
0004F2  8DA3    	LDD XL,Z+27
0004F3  2F33    	MOV R19,R19
0004F4  C731    	RJMP L71
0004F5  CDCD    	RJMP L72
0004F6  B37D    	IN R23,EEDR
0004F7  58C7    	SUBI YL,$87
0004F8  7E6C    	ANDI R22,$EC
0004F9  3148    	CPI R20,$18
0004FA  8DA3    	LDD XL,Z+27
0004FB  2F33    	MOV R19,R19
0004FC  C731    	RJMP L73
0004FD  CDCD    	RJMP L74
0004FE  DC7C    	RCALL L75
0004FF  7DF7    	ANDI ZH,$D7
000500  7E6C    	ANDI R22,$EC
000501  041D    	CPC R1,R13
000502  8C7F    	LDD R7,Y+31
000503  2F33    	MOV R19,R19
000504  C731    	RJMP L76
000505  CDCD    	RJMP L77
000506  DC7B    	RCALL L78
000507  56F6    	SUBI ZH,$66
000508  7E70    	ANDI R23,$E0
000509  071D    	CPC R17,YH
00050A  8BA9    	STD Y+17,XL
00050B  3B01    	CPI R16,$B1
00050C  FD4A    	UNRECOGNIZED
00050D  B5BF    	IN XH,TCCR1A
00050E  5382    	SUBI R24,$32
00050F  3F90    	CPI R25,$F0
000510  7D6C    	ANDI R22,$DC
000511  67AA    	ORI XL,$7A
000512  8BBF    	STD Y+23,XH
000513  3B01    	CPI R16,$B1
000514  FDA3    	SBRC XL,3
000515  58BF    	SUBI XH,$8F
000516  5382    	SUBI R24,$32
000517  3F90    	CPI R25,$F0
000518  7D6C    	ANDI R22,$DC
000519  67AA    	ORI XL,$7A
00051A  8BBF    	STD Y+23,XH
00051B  7DEA    	ANDI ZL,$DA
00051C  055A    	CPC R21,R10
00051D  A681    	STD Z+41,R8
00051E  5E81    	SUBI R24,$E1
00051F  64B7    	ORI XH,$47
000520  806E    	LDD R6,Y+6
000521  6EA2    	ORI XL,$E2
000522  88BA    	LDD R11,Y+18
000523  2DA0    	MOV XL,R0
000524  5A51    	SUBI R21,$A1
000525  A7CD    	STD Y+45,YL
000526  5781    	SUBI R24,$71
000527  3CBF    	CPI XH,$CF
000528  806E    	LDD R6,Y+6
000529  3BA2    	CPI XL,$B2
00052A  88C1    	LDD R12,Z+17
00052B  2E8A    	MOV R8,XL
00052C  7459    	ANDI R21,$49
00052D  A7CB    L96:	STD Y+43,YL
00052E  8181    	LDD R24,Z+1
00052F  41BE    	SBCI XH,$1E
000530  806E    	LDD R6,Y+6
000531  3B78    	CPI R23,$B8
000532  8CBB    	LDD R11,Y+27
000533  2D85    	MOV R24,R5
000534  7451    	ANDI R21,$41
000535  A7CB    L98:	STD Y+43,YL
000536  A181    	LDD R24,Z+33
000537  47C5    	SBCI YL,$75
000538  806E    	LDD R6,Y+6
000539  3559    	CPI R21,$59
00053A  8FB5    	STD Z+29,XH
00053B  248F    	EOR R8,R15
00053C  7459    	ANDI R21,$49
00053D  A7CB    L100:	STD Y+43,YL
00053E  B37D    	IN R23,EEDR
00053F  58C7    	SUBI YL,$87
000540  7E6C    	ANDI R22,$EC
000541  3148    	CPI R20,$18
000542  8DA3    	LDD XL,Z+27
000543  2F33    	MOV R19,R19
000544  C731    	RJMP L79
000545  CDCD    	RJMP L80
000546  0404    	CPC R0,R4
000547  0404    	CPC R0,R4
000548  0404    	CPC R0,R4
000549  0404    	CPC R0,R4
00054A  0404    	CPC R0,R4
00054B  0404    	CPC R0,R4
00054C  0404    	CPC R0,R4
00054D  0404    	CPC R0,R4
00054E  0404    	CPC R0,R4
00054F  0404    	CPC R0,R4
000550  0404    	CPC R0,R4
000551  0404    	CPC R0,R4
000552  0404    	CPC R0,R4
000553  0404    	CPC R0,R4
000554  0404    	CPC R0,R4
000555  0404    	CPC R0,R4
000556  0303    	MULSU R16,R19
000557  0303    	MULSU R16,R19
000558  0303    	MULSU R16,R19
000559  0303    	MULSU R16,R19
00055A  0303    	MULSU R16,R19
00055B  0303    	MULSU R16,R19
00055C  0303    	MULSU R16,R19
00055D  0303    	MULSU R16,R19
00055E  0000    	NOP
00055F  0000    	NOP
000560  0000    	NOP
000561  0000    	NOP
000562  0000    	NOP
000563  0404    	CPC R0,R4
000564  0404    	CPC R0,R4
000565  0404    	CPC R0,R4
000566  0303    	MULSU R16,R19
000567  0303    	MULSU R16,R19
000568  0303    	MULSU R16,R19
000569  0303    	MULSU R16,R19
00056A  0303    	MULSU R16,R19
00056B  0303    	MULSU R16,R19
00056C  0303    	MULSU R16,R19
00056D  0303    	MULSU R16,R19
00056E  0202    	MULS R16,R18
00056F  0202    	MULS R16,R18
000570  0202    	MULS R16,R18
000571  0202    	MULS R16,R18
000572  0202    	MULS R16,R18
000573  0404    	CPC R0,R4
000574  0404    	CPC R0,R4
000575  0404    	CPC R0,R4
000576  0202    	MULS R16,R18
000577  0202    	MULS R16,R18
000578  0202    	MULS R16,R18
000579  0202    	MULS R16,R18
00057A  0202    	MULS R16,R18
00057B  0404    	CPC R0,R4
00057C  0404    	CPC R0,R4
00057D  0404    	CPC R0,R4
00057E  0202    	MULS R16,R18
00057F  0202    	MULS R16,R18
000580  0202    	MULS R16,R18
000581  0202    	MULS R16,R18
000582  0202    	MULS R16,R18
000583  0404    	CPC R0,R4
000584  0404    	CPC R0,R4
000585  0404    	CPC R0,R4
000586  0202    	MULS R16,R18
000587  0202    	MULS R16,R18
000588  0202    	MULS R16,R18
000589  0202    	MULS R16,R18
00058A  0202    	MULS R16,R18
00058B  0404    	CPC R0,R4
00058C  0404    	CPC R0,R4
00058D  0404    	CPC R0,R4
00058E  0303    	MULSU R16,R19
00058F  0303    	MULSU R16,R19
000590  0303    	MULSU R16,R19
000591  0303    	MULSU R16,R19
000592  0303    	MULSU R16,R19
000593  0303    	MULSU R16,R19
000594  0303    	MULSU R16,R19
000595  0303    	MULSU R16,R19
000596  0000    	NOP
000597  0000    	NOP
000598  0000    	NOP
000599  0000    	NOP
00059A  0000    	NOP
00059B  0000    	NOP
00059C  0000    	NOP
00059D  0000    	NOP
00059E  0303    	MULSU R16,R19
00059F  0303    	MULSU R16,R19
0005A0  0303    	MULSU R16,R19
0005A1  0303    	MULSU R16,R19
0005A2  0303    	MULSU R16,R19
0005A3  0303    	MULSU R16,R19
0005A4  0303    	MULSU R16,R19
0005A5  0303    	MULSU R16,R19
0005A6  0000    	NOP
0005A7  0000    	NOP
0005A8  0000    	NOP
0005A9  0000    	NOP
0005AA  0000    	NOP
0005AB  0000    	NOP
0005AC  0000    	NOP
0005AD  0000    	NOP
0005AE  0202    	MULS R16,R18
0005AF  0202    	MULS R16,R18
0005B0  0202    	MULS R16,R18
0005B1  0202    	MULS R16,R18
0005B2  0202    	MULS R16,R18
0005B3  0202    	MULS R16,R18
0005B4  0202    	MULS R16,R18
0005B5  0202    	MULS R16,R18
0005B6  0000    	NOP
0005B7  0000    	NOP
0005B8  0000    L59:	NOP
0005B9  0000    	NOP
0005BA  0000    L62:	NOP
0005BB  0000    	NOP
0005BC  0000    	NOP
0005BD  0000    	NOP
0005BE  0101    	MOVW R1:R0,R3:R2
0005BF  0101    	MOVW R1:R0,R3:R2
0005C0  0101    	MOVW R1:R0,R3:R2
0005C1  0101    	MOVW R1:R0,R3:R2
0005C2  0101    	MOVW R1:R0,R3:R2
0005C3  0101    	MOVW R1:R0,R3:R2
0005C4  0101    	MOVW R1:R0,R3:R2
0005C5  0101    	MOVW R1:R0,R3:R2
0005C6  0000    	NOP
0005C7  0000    	NOP
0005C8  0000    	NOP
0005C9  0000    	NOP
0005CA  0000    	NOP
0005CB  0000    	NOP
0005CC  0000    	NOP
0005CD  0000    	NOP
0005CE  0303    	MULSU R16,R19
0005CF  0303    	MULSU R16,R19
0005D0  0303    	MULSU R16,R19
0005D1  0303    	MULSU R16,R19
0005D2  0303    	MULSU R16,R19
0005D3  0303    	MULSU R16,R19
0005D4  0303    	MULSU R16,R19
0005D5  0303    	MULSU R16,R19
0005D6  0000    	NOP
0005D7  0000    	NOP
0005D8  0000    	NOP
0005D9  0000    	NOP
0005DA  0000    	NOP
0005DB  0000    	NOP
0005DC  0000    	NOP
0005DD  0000    	NOP
0005DE  0000    	NOP
0005DF  0000    	NOP
0005E0  0000    	NOP
0005E1  0000    	NOP
0005E2  0000    	NOP
0005E3  0000    	NOP
0005E4  0000    	NOP
0005E5  0000    	NOP
0005E6  2828    	OR R2,R8
0005E7  2828    	OR R2,R8
0005E8  2828    	OR R2,R8
0005E9  2828    	OR R2,R8
0005EA  2828    	OR R2,R8
0005EB  1414    	CP R1,R4
0005EC  1414    	CP R1,R4
0005ED  1414    	CP R1,R4
0005EE  3C3C    	CPI R19,$CC
0005EF  3C3C    	CPI R19,$CC
0005F0  3C3C    	CPI R19,$CC
0005F1  3C3C    	CPI R19,$CC
0005F2  3C3C    	CPI R19,$CC
0005F3  1E1E    	ADC R1,ZL
0005F4  1E1E    	ADC R1,ZL
0005F5  1E1E    	ADC R1,ZL
0005F6  0000    	NOP
0005F7  0000    	NOP
0005F8  0000    	NOP
0005F9  0000    	NOP
0005FA  0000    	NOP
0005FB  0000    	NOP
0005FC  0000    	NOP
0005FD  0000    	NOP
0005FE  000A    	UNRECOGNIZED
0005FF  000A    	UNRECOGNIZED
000600  000A    	UNRECOGNIZED
000601  000A    	UNRECOGNIZED
000602  0001    	UNRECOGNIZED
000603  0023    	UNRECOGNIZED
000604  001E    	UNRECOGNIZED
000605  0028    	UNRECOGNIZED
000606  001E    	UNRECOGNIZED
000607  012C    	MOVW R5:R4,R25:R24
000608  01F4    	MOVW R31:R30,R9:R8
000609  01F4    	MOVW R31:R30,R9:R8
00060A  02BC    	MULS XH,YL
00060B  0334    	MULSU R19,R20
00060C  02BC    	MULS XH,YL
00060D  0258    	MULS R21,R24
00060E  0320    	MULSU R18,R16
00060F  0258    	MULS R21,R24
000610  B37D    	IN R23,EEDR
000611  58C7    	SUBI YL,$87
000612  7E6C    	ANDI R22,$EC
000613  3148    	CPI R20,$18
000614  8DA3    	LDD XL,Z+27
000615  2F33    	MOV R19,R19
000616  C731    	RJMP L81
000617  CDCD    	RJMP L82
000618  B37D    	IN R23,EEDR
000619  58C7    	SUBI YL,$87
00061A  7E6C    	ANDI R22,$EC
00061B  3148    	CPI R20,$18
00061C  8DA3    	LDD XL,Z+27
00061D  2F33    	MOV R19,R19
00061E  C731    	RJMP L83
00061F  CDCD    	RJMP L84
000620  527D    	SUBI R23,$2D
000621  59D6    	SUBI YH,$96
000622  7E6C    	ANDI R22,$EC
000623  3148    	CPI R20,$18
000624  8DA3    	LDD XL,Z+27
000625  2F8F    	MOV R24,ZH
000626  7231    	ANDI R19,$21
000627  CDCD    	RJMP L85
000628  527D    	SUBI R23,$2D
000629  65DA    	ORI YH,$5A
00062A  7D72    	ANDI R23,$D2
00062B  22A6    	AND R10,R22
00062C  8F97    	STD Z+31,R25
00062D  2F8D    	MOV R24,YH
00062E  7231    	ANDI R19,$21
00062F  CDCD    	RJMP L86
000630  D27D    	RCALL L87
000631  50E4    	SUBI ZL,$04
000632  7C71    	ANDI R23,$C1
000633  1923    	SUB R18,R3
000634  8EAC    	STD Y+28,R10
000635  2FA7    	MOV XL,R23
000636  522F    	SUBI R18,$2F
000637  CCCD    	RJMP L88
000638  DA7D    	RCALL L89
000639  56F7    	SUBI ZH,$67
00063A  7B71    	ANDI R23,$B1
00063B  051F    	CPC R17,R15
00063C  8DA8    	LDD XL,Y+24
00063D  5709    	SUBI R16,$79
00063E  FE92    	SBRS R9,2
00063F  6CA2    	ORI XL,$C2
000640  DC7D    	RCALL L90
000641  7AF4    	ANDI ZH,$A4
000642  7B6D    	ANDI R22,$BD
000643  051D    	CPC R17,R13
000644  8D80    	LDD R24,Z+24
000645  2A21    	OR R2,R17
000646  DE92    	RCALL L91
000647  6CD2    	ORI YH,$C2
000648  DC7D    	RCALL L92
000649  7ADE    	ANDI YH,$AE
00064A  7B71    	ANDI R23,$B1
00064B  1C1D    	ADC R1,R13
00064C  8D87    	LDD R24,Z+31
00064D  3262    	CPI R22,$22
00064E  924E    	ST -X,R4
00064F  A9C5    	LDD YL,Z+53
000650  A07D    	LDD R7,Y+37
000651  72F2    L102:	ANDI ZH,$22
000652  7B71    	ANDI R23,$B1
000653  0857    	SBC R5,R7
000654  8D87    	LDD R24,Z+31
000655  2F52    	MOV R21,R18
000656  AD45    	LDD R20,Z+61
000657  BFCD    	OUT SPL,YL
000658  B37D    	IN R23,EEDR
000659  58C7    	SUBI YL,$87
00065A  7E6C    	ANDI R22,$EC
00065B  3148    	CPI R20,$18
00065C  8DA3    	LDD XL,Z+27
00065D  2F33    	MOV R19,R19
00065E  C731    	RJMP L93
00065F  CDCD    	RJMP L94
000660  0404    	CPC R0,R4
000661  0404    	CPC R0,R4
000662  0404    	CPC R0,R4
000663  0404    	CPC R0,R4
000664  0404    	CPC R0,R4
000665  0404    L138:	CPC R0,R4
000666  0404    	CPC R0,R4
000667  0404    	CPC R0,R4
000668  0101    	MOVW R1:R0,R3:R2
000669  0101    	MOVW R1:R0,R3:R2
00066A  0101    	MOVW R1:R0,R3:R2
00066B  0101    	MOVW R1:R0,R3:R2
00066C  0101    	MOVW R1:R0,R3:R2
00066D  0404    L140:	CPC R0,R4
00066E  0404    	CPC R0,R4
00066F  0404    	CPC R0,R4
000670  0404    	CPC R0,R4
000671  0404    	CPC R0,R4
000672  0404    	CPC R0,R4
000673  0404    	CPC R0,R4
000674  0404    	CPC R0,R4
000675  0404    	CPC R0,R4
000676  0404    	CPC R0,R4
000677  0404    	CPC R0,R4
000678  0101    	MOVW R1:R0,R3:R2
000679  0101    	MOVW R1:R0,R3:R2
00067A  0101    	MOVW R1:R0,R3:R2
00067B  0101    	MOVW R1:R0,R3:R2
00067C  0101    	MOVW R1:R0,R3:R2
00067D  0101    	MOVW R1:R0,R3:R2
00067E  0101    	MOVW R1:R0,R3:R2
00067F  0101    	MOVW R1:R0,R3:R2
000680  0101    	MOVW R1:R0,R3:R2
000681  0101    	MOVW R1:R0,R3:R2
000682  0101    	MOVW R1:R0,R3:R2
000683  0101    	MOVW R1:R0,R3:R2
000684  0101    	MOVW R1:R0,R3:R2
000685  0101    	MOVW R1:R0,R3:R2
000686  0101    	MOVW R1:R0,R3:R2
000687  0101    	MOVW R1:R0,R3:R2
000688  0202    	MULS R16,R18
000689  0202    	MULS R16,R18
00068A  0202    	MULS R16,R18
00068B  0202    	MULS R16,R18
00068C  0202    	MULS R16,R18
00068D  0202    	MULS R16,R18
00068E  0202    	MULS R16,R18
00068F  0202    	MULS R16,R18
000690  0202    	MULS R16,R18
000691  0202    	MULS R16,R18
000692  0202    	MULS R16,R18
000693  0202    	MULS R16,R18
000694  0202    	MULS R16,R18
000695  0202    	MULS R16,R18
000696  0202    	MULS R16,R18
000697  0202    	MULS R16,R18
000698  0202    	MULS R16,R18
000699  0202    	MULS R16,R18
00069A  0202    	MULS R16,R18
00069B  0202    	MULS R16,R18
00069C  0202    	MULS R16,R18
00069D  0202    	MULS R16,R18
00069E  0202    	MULS R16,R18
00069F  0202    	MULS R16,R18
0006A0  0404    	CPC R0,R4
0006A1  0404    	CPC R0,R4
0006A2  0404    	CPC R0,R4
0006A3  0404    	CPC R0,R4
0006A4  0404    	CPC R0,R4
0006A5  0404    	CPC R0,R4
0006A6  0404    	CPC R0,R4
0006A7  0404    	CPC R0,R4
0006A8  0000    	NOP
0006A9  0000    L113:	NOP
0006AA  0000    	NOP
0006AB  0000    	NOP
0006AC  0000    	NOP
0006AD  0000    	NOP
0006AE  0000    	NOP
0006AF  0000    	NOP
0006B0  0303    	MULSU R16,R19
0006B1  0303    	MULSU R16,R19
0006B2  0303    	MULSU R16,R19
0006B3  0303    	MULSU R16,R19
0006B4  0303    	MULSU R16,R19
0006B5  0303    L157:	MULSU R16,R19
0006B6  0303    	MULSU R16,R19
0006B7  0303    	MULSU R16,R19
0006B8  0000    	NOP
0006B9  0000    	NOP
0006BA  0000    	NOP
0006BB  0000    	NOP
0006BC  0000    	NOP
0006BD  0000    L159:	NOP
0006BE  0000    	NOP
0006BF  0000    	NOP
0006C0  0202    	MULS R16,R18
0006C1  0202    	MULS R16,R18
0006C2  0202    	MULS R16,R18
0006C3  0202    	MULS R16,R18
0006C4  0202    	MULS R16,R18
0006C5  0202    	MULS R16,R18
0006C6  0202    	MULS R16,R18
0006C7  0202    	MULS R16,R18
0006C8  0000    	NOP
0006C9  0000    	NOP
0006CA  0000    	NOP
0006CB  0000    	NOP
0006CC  0000    	NOP
0006CD  0000    	NOP
0006CE  0000    	NOP
0006CF  0000    	NOP
0006D0  0101    	MOVW R1:R0,R3:R2
0006D1  0101    	MOVW R1:R0,R3:R2
0006D2  0101    	MOVW R1:R0,R3:R2
0006D3  0101    	MOVW R1:R0,R3:R2
0006D4  0101    	MOVW R1:R0,R3:R2
0006D5  0101    	MOVW R1:R0,R3:R2
0006D6  0101    	MOVW R1:R0,R3:R2
0006D7  0101    	MOVW R1:R0,R3:R2
0006D8  0000    	NOP
0006D9  0000    L119:	NOP
0006DA  0000    	NOP
0006DB  0000    	NOP
0006DC  0000    	NOP
0006DD  0000    	NOP
0006DE  0000    	NOP
0006DF  0000    	NOP
0006E0  0303    	MULSU R16,R19
0006E1  0303    	MULSU R16,R19
0006E2  0303    	MULSU R16,R19
0006E3  0303    	MULSU R16,R19
0006E4  0303    	MULSU R16,R19
0006E5  0303    	MULSU R16,R19
0006E6  0303    	MULSU R16,R19
0006E7  0303    	MULSU R16,R19
0006E8  0000    	NOP
0006E9  0000    	NOP
0006EA  0000    	NOP
0006EB  0000    	NOP
0006EC  0000    	NOP
0006ED  0000    	NOP
0006EE  0000    	NOP
0006EF  0000    	NOP
0006F0  2929    	OR R18,R9
0006F1  2929    	OR R18,R9
0006F2  2929    	OR R18,R9
0006F3  2929    	OR R18,R9
0006F4  2929    	OR R18,R9
0006F5  1414    	CP R1,R4
0006F6  1414    	CP R1,R4
0006F7  1414    	CP R1,R4
0006F8  3D3D    	CPI R19,$DD
0006F9  3D3D    	CPI R19,$DD
0006FA  3D3D    	CPI R19,$DD
0006FB  3D3D    	CPI R19,$DD
0006FC  3D3D    	CPI R19,$DD
0006FD  1E1E    	ADC R1,ZL
0006FE  1E1E    	ADC R1,ZL
0006FF  1E1E    	ADC R1,ZL
000700  0000    	NOP
000701  0000    	NOP
000702  0000    	NOP
000703  0000    	NOP
000704  0000    	NOP
000705  0000    	NOP
000706  0000    	NOP
000707  0000    	NOP
000708  0005    	UNRECOGNIZED
000709  0001    	UNRECOGNIZED
00070A  0001    	UNRECOGNIZED
00070B  0001    	UNRECOGNIZED
00070C  0001    	UNRECOGNIZED
00070D  0001    	UNRECOGNIZED
00070E  0001    	UNRECOGNIZED
00070F  0001    	UNRECOGNIZED
000710  0001    	UNRECOGNIZED
000711  0001    	UNRECOGNIZED
000712  0001    	UNRECOGNIZED
000713  0001    	UNRECOGNIZED
000714  0001    	UNRECOGNIZED
000715  0001    	UNRECOGNIZED
000716  0001    	UNRECOGNIZED
000717  0001    	UNRECOGNIZED
000718  0001    	UNRECOGNIZED
000719  0001    	UNRECOGNIZED
00071A  0001    	UNRECOGNIZED
00071B  0001    	UNRECOGNIZED
00071C  0001    	UNRECOGNIZED
00071D  0001    	UNRECOGNIZED
00071E  0001    	UNRECOGNIZED
00071F  0001    	UNRECOGNIZED
000720  0001    	UNRECOGNIZED
000721  0001    	UNRECOGNIZED
000722  0001    	UNRECOGNIZED
000723  0001    	UNRECOGNIZED
000724  0001    	UNRECOGNIZED
000725  0001    	UNRECOGNIZED
000726  0001    	UNRECOGNIZED
000727  0001    	UNRECOGNIZED
000728  0001    	UNRECOGNIZED
000729  0001    	UNRECOGNIZED
00072A  0001    	UNRECOGNIZED
00072B  0001    	UNRECOGNIZED
00072C  0001    	UNRECOGNIZED
00072D  0001    	UNRECOGNIZED
00072E  000A    	UNRECOGNIZED
00072F  000F    	UNRECOGNIZED
000730  00C8    	UNRECOGNIZED
000731  0019    L130:	UNRECOGNIZED
000732  0019    	UNRECOGNIZED
000733  0019    	UNRECOGNIZED
000734  0019    	UNRECOGNIZED
000735  0019    	UNRECOGNIZED
000736  0019    	UNRECOGNIZED
000737  0019    	UNRECOGNIZED
000738  0019    	UNRECOGNIZED
000739  0019    	UNRECOGNIZED
00073A  0019    	UNRECOGNIZED
00073B  0019    	UNRECOGNIZED
00073C  0019    	UNRECOGNIZED
00073D  0019    L181:	UNRECOGNIZED
00073E  0019    	UNRECOGNIZED
00073F  0019    	UNRECOGNIZED
000740  0019    	UNRECOGNIZED
000741  0019    	UNRECOGNIZED
000742  0019    	UNRECOGNIZED
000743  0019    	UNRECOGNIZED
000744  0019    	UNRECOGNIZED
000745  0019    L183:	UNRECOGNIZED
000746  0019    	UNRECOGNIZED
000747  0019    	UNRECOGNIZED
000748  0019    	UNRECOGNIZED
000749  0019    	UNRECOGNIZED
00074A  0019    	UNRECOGNIZED
00074B  0019    	UNRECOGNIZED
00074C  0019    	UNRECOGNIZED
00074D  0019    	UNRECOGNIZED
00074E  0019    	UNRECOGNIZED
00074F  0019    	UNRECOGNIZED
000750  0019    	UNRECOGNIZED
000751  0019    	UNRECOGNIZED
000752  0019    	UNRECOGNIZED
000753  0019    	UNRECOGNIZED
000754  0019    	UNRECOGNIZED
000755  0019    	UNRECOGNIZED
000756  00C8    	UNRECOGNIZED
000757  012C    	MOVW R5:R4,R25:R24
000758  B37D    	IN R23,EEDR
000759  58C7    	SUBI YL,$87
00075A  7E6C    	ANDI R22,$EC
00075B  3148    	CPI R20,$18
00075C  8DA3    	LDD XL,Z+27
00075D  2F33    	MOV R19,R19
00075E  C731    	RJMP L95
00075F  CDCD    	RJMP L96
000760  B37D    	IN R23,EEDR
000761  58C7    L136:	SUBI YL,$87
000762  7E6C    	ANDI R22,$EC
000763  3148    	CPI R20,$18
000764  8DA3    	LDD XL,Z+27
000765  2F33    	MOV R19,R19
000766  C731    	RJMP L97
000767  CDCD    	RJMP L98
000768  B37D    	IN R23,EEDR
000769  58C7    	SUBI YL,$87
00076A  7E6C    	ANDI R22,$EC
00076B  3148    	CPI R20,$18
00076C  8DA3    	LDD XL,Z+27
00076D  2F33    	MOV R19,R19
00076E  C731    	RJMP L99
00076F  CDCD    	RJMP L100
000770  A582    	LDD R24,Z+42
000771  51C9    	SUBI YL,$19
000772  8673    	STD Z+11,R7
000773  1F51    	ADC R21,R17
000774  9593    	INC R25
000775  2C48    	MOV R4,R8
000776  9128    	UNRECOGNIZED
000777  C9D1    	RJMP L101
000778  AB84    	STD Z+52,R24
000779  53C5    	SUBI YL,$35
00077A  8975    	LDD R23,Z+21
00077B  1C56    	ADC R5,R6
00077C  9894    	CBI PORTD,PD4
00077D  2B4E    	OR R20,ZL
00077E  9A29    	SBI ADCH,ADCH1
00077F  CED1    	RJMP L102
000780  AF84    	STD Z+60,R24
000781  57C3    	SUBI YL,$73
000782  8B75    	STD Z+21,R23
000783  1B5B    	SUB R21,XH
000784  9A98    	SBI PINC,PINC0
000785  2B57    	OR R21,R23
000786  A42B    	LDD R2,Y+43
000787  D3D1    	RCALL L103
000788  B284    	IN R8,DDRC
000789  5BC5    	SUBI YL,$B5
00078A  8975    	LDD R23,Z+21
00078B  1C5F    	ADC R5,R15
00078C  989D    	CBI PINC,PINC5
00078D  2B61    	OR R22,R17
00078E  AC30    	LDD R3,Z+56
00078F  D5D1    	RCALL L104
000790  B382    	IN R24,PORTD
000791  5FC9    	SUBI YL,$F9
000792  8673    	STD Z+11,R7
000793  1F60    	ADC R22,R16
000794  95A1    	NEG XL
000795  2B69    	OR R22,R25
000796  B335    	IN R19,PORTC
000797  D6D2    	RCALL L105
000798  B27F    	IN R7,EEARH
000799  62CE    	ORI YL,$2E
00079A  8270    	ST Z,R7
00079B  235F    	AND R21,ZH
00079C  91A6    	ELPM XL,Z
00079D  2A6F    	OR R6,ZH
00079E  B639    	IN R3,EIMSK
00079F  D6D2    	RCALL L106
0007A0  AF7C    	STD Y+60,R23
0007A1  64D4    	ORI YH,$44
0007A2  7F6D    	ANDI R22,$FD
0007A3  285C    	OR R5,R12
0007A4  8EAA    	STD Y+26,R10
0007A5  2A71    	OR R7,R17
0007A6  B73B    	IN R19,RAMPZ
0007A7  D6D2    	RCALL L107
0007A8  AF7C    	STD Y+60,R23
0007A9  64D4    	ORI YH,$44
0007AA  7F6D    	ANDI R22,$FD
0007AB  285C    	OR R5,R12
0007AC  8EAA    	STD Y+26,R10
0007AD  2A71    L155:	OR R7,R17
0007AE  B73B    	IN R19,RAMPZ
0007AF  D6D2    	RCALL L108
0007B0  AC78    	LDD R7,Y+56
0007B1  66D9    	ORI YH,$69
0007B2  7B69    	ANDI R22,$B9
0007B3  2E58    	MOV R5,R24
0007B4  8AAA    	STD Y+18,R10
0007B5  2A6F    	OR R6,ZH
0007B6  B639    	IN R3,EIMSK
0007B7  D6D2    	RCALL L109
0007B8  A774    	STD Z+44,R23
0007B9  67DD    	ORI YH,$7D
0007BA  7865    	ANDI R22,$85
0007BB  3353    	CPI R21,$33
0007BC  87A9    	STD Y+9,XL
0007BD  2B6A    	OR R22,XL
0007BE  B335    	IN R19,PORTC
0007BF  D6D2    	RCALL L110
0007C0  A271    	STD Z+33,R7
0007C1  66E0    	ORI ZL,$60
0007C2  7662    	ANDI R22,$62
0007C3  374D    	CPI R20,$7D
0007C4  85A7    	LDD XL,Z+15
0007C5  2B61    L161:	OR R22,R17
0007C6  AD30    	LDD R19,Z+56
0007C7  D5D1    	RCALL L111
0007C8  9D6F    	MUL R22,R15
0007C9  62E1    	ORI ZL,$21
0007CA  7660    	ANDI R22,$60
0007CB  3949    	CPI R20,$99
0007CC  85A3    	LDD XL,Z+11
0007CD  2B57    	OR R21,R23
0007CE  A42B    	LDD R2,Y+43
0007CF  D3D1    	RCALL L112
0007D0  9971    	SBIC SPSR,1
0007D1  5DE0    	SUBI ZL,$D0
0007D2  7662    	ANDI R22,$62
0007D3  3746    	CPI R20,$76
0007D4  859F    	LDD R25,Y+15
0007D5  2B4F    	OR R20,ZH
0007D6  9A29    	SBI ADCH,ADCH1
0007D7  CED1    	RJMP L113
0007D8  9874    	CBI SPSR,4
0007D9  59DD    	SUBI YH,$9D
0007DA  7865    	ANDI R22,$85
0007DB  3345    	CPI R20,$35
0007DC  879B    	STD Y+11,R25
0007DD  2C48    	MOV R4,R8
0007DE  9228    	UNRECOGNIZED
0007DF  C9D1    	RJMP L114
0007E0  9978    	SBIC SPDR,SPDR0
0007E1  54D9    	SUBI YH,$49
0007E2  7B69    	ANDI R22,$B9
0007E3  2E46    	MOV R4,R22
0007E4  8A98    	STD Y+16,R9
0007E5  2C45    	MOV R4,R5
0007E6  8C28    	LDD R2,Y+24
0007E7  C5D0    	RJMP L115
0007E8  9C7B    L13:	MUL R7,R11
0007E9  50D4    	SUBI YH,$04
0007EA  7E6C    	ANDI R22,$EC
0007EB  2849    	OR R4,R9
0007EC  8D96    	LDD R25,Z+30
0007ED  2C44    	MOV R4,R4
0007EE  8A28    	STD Y+16,R2
0007EF  C3D0    	RJMP L116
0007F0  9C7B    L14:	MUL R7,R11
0007F1  50D4    	SUBI YH,$04
0007F2  7E6C    	ANDI R22,$EC
0007F3  2849    	OR R4,R9
0007F4  8D96    	LDD R25,Z+30
0007F5  2C44    	MOV R4,R4
0007F6  8A28    	STD Y+16,R2
0007F7  C3D0    	RJMP L117
0007F8  A582    	LDD R24,Z+42
0007F9  51C9    	SUBI YL,$19
0007FA  8673    	STD Z+11,R7
0007FB  1F51    	ADC R21,R17
0007FC  9593    	INC R25
0007FD  2C48    	MOV R4,R8
0007FE  9128    	UNRECOGNIZED
0007FF  C9D1    	RJMP L118
000800  AB84    	STD Z+52,R24
000801  53C5    	SUBI YL,$35
000802  8975    	LDD R23,Z+21
000803  1C56    	ADC R5,R6
000804  9894    	CBI PORTD,PD4
000805  2B4E    	OR R20,ZL
000806  9A29    	SBI ADCH,ADCH1
000807  CED1    	RJMP L119
000808  AF84    	STD Z+60,R24
000809  57C3    	SUBI YL,$73
00080A  8B75    	STD Z+21,R23
00080B  1B5B    	SUB R21,XH
00080C  9A98    	SBI PINC,PINC0
00080D  2B57    	OR R21,R23
00080E  A42B    	LDD R2,Y+43
00080F  D3D1    	RCALL L120
000810  B284    L18:	IN R8,DDRC
000811  5BC5    	SUBI YL,$B5
000812  8975    	LDD R23,Z+21
000813  1C5F    	ADC R5,R15
000814  989D    	CBI PINC,PINC5
000815  2B61    	OR R22,R17
000816  AC30    	LDD R3,Z+56
000817  D5D1    	RCALL L121
000818  B382    	IN R24,PORTD
000819  5FC9    	SUBI YL,$F9
00081A  8673    	STD Z+11,R7
00081B  1F60    	ADC R22,R16
00081C  95A1    	NEG XL
00081D  2B69    	OR R22,R25
00081E  B335    	IN R19,PORTC
00081F  D6D2    	RCALL L122
000820  B27F    	IN R7,EEARH
000821  62CE    	ORI YL,$2E
000822  8270    	ST Z,R7
000823  235F    	AND R21,ZH
000824  91A6    	ELPM XL,Z
000825  2A6F    	OR R6,ZH
000826  B639    	IN R3,EIMSK
000827  D6D2    	RCALL L123
000828  AF7C    	STD Y+60,R23
000829  64D4    	ORI YH,$44
00082A  7F6D    	ANDI R22,$FD
00082B  285C    	OR R5,R12
00082C  8EAA    	STD Y+26,R10
00082D  2A71    	OR R7,R17
00082E  B73B    	IN R19,RAMPZ
00082F  D6D2    	RCALL L124
000830  AF7C    	STD Y+60,R23
000831  64D4    	ORI YH,$44
000832  7F6D    	ANDI R22,$FD
000833  285C    	OR R5,R12
000834  8EAA    	STD Y+26,R10
000835  2A71    L179:	OR R7,R17
000836  B73B    	IN R19,RAMPZ
000837  D6D2    	RCALL L125
000838  AC78    	LDD R7,Y+56
000839  66D9    	ORI YH,$69
00083A  7B69    	ANDI R22,$B9
00083B  2E58    	MOV R5,R24
00083C  8AAA    	STD Y+18,R10
00083D  2A6F    	OR R6,ZH
00083E  B639    	IN R3,EIMSK
00083F  D6D2    	RCALL L126
000840  A774    	STD Z+44,R23
000841  67DD    	ORI YH,$7D
000842  7865    	ANDI R22,$85
000843  3353    	CPI R21,$33
000844  87A9    	STD Y+9,XL
000845  2B6A    	OR R22,XL
000846  B335    	IN R19,PORTC
000847  D6D2    	RCALL L127
000848  A271    	STD Z+33,R7
000849  66E0    	ORI ZL,$60
00084A  7662    	ANDI R22,$62
00084B  374D    	CPI R20,$7D
00084C  85A7    	LDD XL,Z+15
00084D  2B61    L185:	OR R22,R17
00084E  AD30    	LDD R19,Z+56
00084F  D5D1    	RCALL L128
000850  9D6F    	MUL R22,R15
000851  62E1    	ORI ZL,$21
000852  7660    	ANDI R22,$60
000853  3949    	CPI R20,$99
000854  85A3    	LDD XL,Z+11
000855  2B57    	OR R21,R23
000856  A42B    	LDD R2,Y+43
000857  D3D1    	RCALL L129
000858  9971    	SBIC SPSR,1
000859  5DE0    	SUBI ZL,$D0
00085A  7662    	ANDI R22,$62
00085B  3746    	CPI R20,$76
00085C  859F    	LDD R25,Y+15
00085D  2B4F    	OR R20,ZH
00085E  9A29    	SBI ADCH,ADCH1
00085F  CED1    	RJMP L130
000860  9874    	CBI SPSR,4
000861  59DD    	SUBI YH,$9D
000862  7865    	ANDI R22,$85
000863  3345    	CPI R20,$35
000864  879B    	STD Y+11,R25
000865  2C48    	MOV R4,R8
000866  9228    	UNRECOGNIZED
000867  C9D1    	RJMP L131
000868  9978    	SBIC SPDR,SPDR0
000869  54D9    	SUBI YH,$49
00086A  7B69    	ANDI R22,$B9
00086B  2E46    	MOV R4,R22
00086C  8A98    	STD Y+16,R9
00086D  2C45    	MOV R4,R5
00086E  8C28    	LDD R2,Y+24
00086F  C5D0    	RJMP L132
000870  9C7B    	MUL R7,R11
000871  50D4    	SUBI YH,$04
000872  7E6C    	ANDI R22,$EC
000873  2849    	OR R4,R9
000874  8D96    	LDD R25,Z+30
000875  2C44    	MOV R4,R4
000876  8A28    	STD Y+16,R2
000877  C3D0    	RJMP L133
000878  9C7B    	MUL R7,R11
000879  50D4    	SUBI YH,$04
00087A  7E6C    	ANDI R22,$EC
00087B  2849    	OR R4,R9
00087C  8D96    	LDD R25,Z+30
00087D  2C44    	MOV R4,R4
00087E  8A28    	STD Y+16,R2
00087F  C3D0    	RJMP L134
000880  A582    	LDD R24,Z+42
000881  51C9    	SUBI YL,$19
000882  8673    	STD Z+11,R7
000883  1F51    	ADC R21,R17
000884  9593    	INC R25
000885  2C48    	MOV R4,R8
000886  9128    	UNRECOGNIZED
000887  C9D1    	RJMP L135
000888  AB84    	STD Z+52,R24
000889  53C5    	SUBI YL,$35
00088A  8975    L19:	LDD R23,Z+21
00088B  1C56    	ADC R5,R6
00088C  9894    	CBI PORTD,PD4
00088D  2B4E    	OR R20,ZL
00088E  9A29    	SBI ADCH,ADCH1
00088F  CED1    	RJMP L136
000890  A67D    	STD Y+45,R7
000891  6AE5    	ORI ZL,$A5
000892  7E6C    L20:	ANDI R22,$EC
000893  1756    	CP R21,R22
000894  8D96    	LDD R25,Z+30
000895  2F33    	MOV R19,R19
000896  C731    	RJMP L137
000897  CDCD    	RJMP L138
000898  B37D    	IN R23,EEDR
000899  58C7    	SUBI YL,$87
00089A  7E6C    	ANDI R22,$EC
00089B  3148    	CPI R20,$18
00089C  8DA3    	LDD XL,Z+27
00089D  2F33    	MOV R19,R19
00089E  C731    	RJMP L139
00089F  CDCD    	RJMP L140
0008A0  0303    	MULSU R16,R19
0008A1  0303    	MULSU R16,R19
0008A2  0303    	MULSU R16,R19
0008A3  0303    	MULSU R16,R19
0008A4  0303    	MULSU R16,R19
0008A5  0303    	MULSU R16,R19
0008A6  0303    	MULSU R16,R19
0008A7  0303    	MULSU R16,R19
0008A8  0303    	MULSU R16,R19
0008A9  0303    	MULSU R16,R19
0008AA  0303    	MULSU R16,R19
0008AB  0303    	MULSU R16,R19
0008AC  0303    	MULSU R16,R19
0008AD  0303    	MULSU R16,R19
0008AE  0303    L87:	MULSU R16,R19
0008AF  0303    	MULSU R16,R19
0008B0  0303    	MULSU R16,R19
0008B1  0303    	MULSU R16,R19
0008B2  0303    L23:	MULSU R16,R19
0008B3  0303    	MULSU R16,R19
0008B4  0303    	MULSU R16,R19
0008B5  0303    	MULSU R16,R19
0008B6  0303    	MULSU R16,R19
0008B7  0303    	MULSU R16,R19
0008B8  0202    	MULS R16,R18
0008B9  0202    	MULS R16,R18
0008BA  0202    	MULS R16,R18
0008BB  0202    	MULS R16,R18
0008BC  0202    	MULS R16,R18
0008BD  0202    	MULS R16,R18
0008BE  0202    	MULS R16,R18
0008BF  0202    	MULS R16,R18
0008C0  0101    	MOVW R1:R0,R3:R2
0008C1  0101    	MOVW R1:R0,R3:R2
0008C2  0101    	MOVW R1:R0,R3:R2
0008C3  0101    	MOVW R1:R0,R3:R2
0008C4  0101    	MOVW R1:R0,R3:R2
0008C5  0101    	MOVW R1:R0,R3:R2
0008C6  0101    	MOVW R1:R0,R3:R2
0008C7  0101    	MOVW R1:R0,R3:R2
0008C8  0000    	NOP
0008C9  0000    	NOP
0008CA  0000    	NOP
0008CB  0000    	NOP
0008CC  0000    	NOP
0008CD  0000    	NOP
0008CE  0000    	NOP
0008CF  0000    	NOP
0008D0  0000    	NOP
0008D1  0000    	NOP
0008D2  0000    	NOP
0008D3  0000    	NOP
0008D4  0000    	NOP
0008D5  0000    	NOP
0008D6  0000    	NOP
0008D7  0000    	NOP
0008D8  0101    	MOVW R1:R0,R3:R2
0008D9  0101    	MOVW R1:R0,R3:R2
0008DA  0101    	MOVW R1:R0,R3:R2
0008DB  0101    	MOVW R1:R0,R3:R2
0008DC  0101    	MOVW R1:R0,R3:R2
0008DD  0101    	MOVW R1:R0,R3:R2
0008DE  0101    	MOVW R1:R0,R3:R2
0008DF  0101    	MOVW R1:R0,R3:R2
0008E0  0202    	MULS R16,R18
0008E1  0202    	MULS R16,R18
0008E2  0202    	MULS R16,R18
0008E3  0202    	MULS R16,R18
0008E4  0202    	MULS R16,R18
0008E5  0202    	MULS R16,R18
0008E6  0202    	MULS R16,R18
0008E7  0202    	MULS R16,R18
0008E8  0303    	MULSU R16,R19
0008E9  0303    	MULSU R16,R19
0008EA  0303    	MULSU R16,R19
0008EB  0303    	MULSU R16,R19
0008EC  0303    	MULSU R16,R19
0008ED  0303    	MULSU R16,R19
0008EE  0303    	MULSU R16,R19
0008EF  0303    	MULSU R16,R19
0008F0  0303    	MULSU R16,R19
0008F1  0303    	MULSU R16,R19
0008F2  0303    	MULSU R16,R19
0008F3  0303    	MULSU R16,R19
0008F4  0303    	MULSU R16,R19
0008F5  0303    	MULSU R16,R19
0008F6  0303    	MULSU R16,R19
0008F7  0303    	MULSU R16,R19
0008F8  0303    	MULSU R16,R19
0008F9  0303    	MULSU R16,R19
0008FA  0303    	MULSU R16,R19
0008FB  0303    	MULSU R16,R19
0008FC  0303    	MULSU R16,R19
0008FD  0303    	MULSU R16,R19
0008FE  0303    	MULSU R16,R19
0008FF  0303    	MULSU R16,R19
000900  0202    	MULS R16,R18
000901  0202    	MULS R16,R18
000902  0202    	MULS R16,R18
000903  0202    	MULS R16,R18
000904  0202    	MULS R16,R18
000905  0202    	MULS R16,R18
000906  0202    	MULS R16,R18
000907  0202    	MULS R16,R18
000908  0101    	MOVW R1:R0,R3:R2
000909  0101    	MOVW R1:R0,R3:R2
00090A  0101    	MOVW R1:R0,R3:R2
00090B  0101    	MOVW R1:R0,R3:R2
00090C  0101    	MOVW R1:R0,R3:R2
00090D  0101    	MOVW R1:R0,R3:R2
00090E  0101    	MOVW R1:R0,R3:R2
00090F  0101    	MOVW R1:R0,R3:R2
000910  0000    	NOP
000911  0000    	NOP
000912  0000    	NOP
000913  0000    	NOP
000914  0000    	NOP
000915  0000    	NOP
000916  0000    	NOP
000917  0000    	NOP
000918  0000    	NOP
000919  0000    	NOP
00091A  0000    	NOP
00091B  0000    	NOP
00091C  0000    	NOP
00091D  0000    	NOP
00091E  0000    	NOP
00091F  0000    	NOP
000920  0101    	MOVW R1:R0,R3:R2
000921  0101    	MOVW R1:R0,R3:R2
000922  0101    	MOVW R1:R0,R3:R2
000923  0101    	MOVW R1:R0,R3:R2
000924  0101    	MOVW R1:R0,R3:R2
000925  0101    	MOVW R1:R0,R3:R2
000926  0101    	MOVW R1:R0,R3:R2
000927  0101    	MOVW R1:R0,R3:R2
000928  0202    	MULS R16,R18
000929  0202    	MULS R16,R18
00092A  0202    	MULS R16,R18
00092B  0202    	MULS R16,R18
00092C  0202    	MULS R16,R18
00092D  0202    	MULS R16,R18
00092E  0202    L24:	MULS R16,R18
00092F  0202    	MULS R16,R18
000930  0303    	MULSU R16,R19
000931  0303    	MULSU R16,R19
000932  0303    	MULSU R16,R19
000933  0303    	MULSU R16,R19
000934  0303    	MULSU R16,R19
000935  0303    	MULSU R16,R19
000936  0303    L25:	MULSU R16,R19
000937  0303    	MULSU R16,R19
000938  0303    	MULSU R16,R19
000939  0303    	MULSU R16,R19
00093A  0303    	MULSU R16,R19
00093B  0303    	MULSU R16,R19
00093C  0303    	MULSU R16,R19
00093D  0303    	MULSU R16,R19
00093E  0303    	MULSU R16,R19
00093F  0303    	MULSU R16,R19
000940  0202    	MULS R16,R18
000941  0202    	MULS R16,R18
000942  0202    	MULS R16,R18
000943  0202    	MULS R16,R18
000944  0202    	MULS R16,R18
000945  0202    	MULS R16,R18
000946  0202    	MULS R16,R18
000947  0202    	MULS R16,R18
000948  0101    	MOVW R1:R0,R3:R2
000949  0101    	MOVW R1:R0,R3:R2
00094A  0101    	MOVW R1:R0,R3:R2
00094B  0101    	MOVW R1:R0,R3:R2
00094C  0101    	MOVW R1:R0,R3:R2
00094D  0101    	MOVW R1:R0,R3:R2
00094E  0101    	MOVW R1:R0,R3:R2
00094F  0101    	MOVW R1:R0,R3:R2
000950  0000    	NOP
000951  0000    	NOP
000952  0000    	NOP
000953  0000    	NOP
000954  0000    	NOP
000955  0000    	NOP
000956  0000    	NOP
000957  0000    	NOP
000958  0000    	NOP
000959  0000    	NOP
00095A  0000    	NOP
00095B  0000    	NOP
00095C  0000    	NOP
00095D  0000    	NOP
00095E  0000    L30:	NOP
00095F  0000    	NOP
000960  0101    	MOVW R1:R0,R3:R2
000961  0101    L142:	MOVW R1:R0,R3:R2
000962  0101    	MOVW R1:R0,R3:R2
000963  0101    	MOVW R1:R0,R3:R2
000964  0101    	MOVW R1:R0,R3:R2
000965  0101    	MOVW R1:R0,R3:R2
000966  0101    	MOVW R1:R0,R3:R2
000967  0101    	MOVW R1:R0,R3:R2
000968  0202    	MULS R16,R18
000969  0202    L144:	MULS R16,R18
00096A  0202    	MULS R16,R18
00096B  0202    	MULS R16,R18
00096C  0202    	MULS R16,R18
00096D  0202    	MULS R16,R18
00096E  0202    	MULS R16,R18
00096F  0202    	MULS R16,R18
000970  0303    	MULSU R16,R19
000971  0303    L146:	MULSU R16,R19
000972  0303    	MULSU R16,R19
000973  0303    	MULSU R16,R19
000974  0303    	MULSU R16,R19
000975  0303    	MULSU R16,R19
000976  0303    	MULSU R16,R19
000977  0303    	MULSU R16,R19
000978  0303    	MULSU R16,R19
000979  0303    	MULSU R16,R19
00097A  0303    	MULSU R16,R19
00097B  0303    	MULSU R16,R19
00097C  0303    	MULSU R16,R19
00097D  0303    	MULSU R16,R19
00097E  0303    	MULSU R16,R19
00097F  0303    	MULSU R16,R19
000980  0303    	MULSU R16,R19
000981  0303    	MULSU R16,R19
000982  0303    	MULSU R16,R19
000983  0303    	MULSU R16,R19
000984  0303    	MULSU R16,R19
000985  0303    	MULSU R16,R19
000986  0303    	MULSU R16,R19
000987  0303    	MULSU R16,R19
000988  0202    	MULS R16,R18
000989  0202    	MULS R16,R18
00098A  0202    	MULS R16,R18
00098B  0202    	MULS R16,R18
00098C  0202    	MULS R16,R18
00098D  0202    	MULS R16,R18
00098E  0202    	MULS R16,R18
00098F  0202    	MULS R16,R18
000990  0101    	MOVW R1:R0,R3:R2
000991  0101    	MOVW R1:R0,R3:R2
000992  0101    	MOVW R1:R0,R3:R2
000993  0101    	MOVW R1:R0,R3:R2
000994  0101    	MOVW R1:R0,R3:R2
000995  0101    	MOVW R1:R0,R3:R2
000996  0101    	MOVW R1:R0,R3:R2
000997  0101    	MOVW R1:R0,R3:R2
000998  0000    	NOP
000999  0000    	NOP
00099A  0000    	NOP
00099B  0000    	NOP
00099C  0000    	NOP
00099D  0000    	NOP
00099E  0000    	NOP
00099F  0000    	NOP
0009A0  0000    	NOP
0009A1  0000    	NOP
0009A2  0000    	NOP
0009A3  0000    	NOP
0009A4  0000    	NOP
0009A5  0000    	NOP
0009A6  0000    	NOP
0009A7  0000    	NOP
0009A8  0101    	MOVW R1:R0,R3:R2
0009A9  0101    	MOVW R1:R0,R3:R2
0009AA  0101    	MOVW R1:R0,R3:R2
0009AB  0101    	MOVW R1:R0,R3:R2
0009AC  0101    	MOVW R1:R0,R3:R2
0009AD  0101    	MOVW R1:R0,R3:R2
0009AE  0101    	MOVW R1:R0,R3:R2
0009AF  0101    	MOVW R1:R0,R3:R2
0009B0  0202    	MULS R16,R18
0009B1  0202    	MULS R16,R18
0009B2  0202    	MULS R16,R18
0009B3  0202    	MULS R16,R18
0009B4  0202    	MULS R16,R18
0009B5  0202    	MULS R16,R18
0009B6  0202    	MULS R16,R18
0009B7  0202    	MULS R16,R18
0009B8  0303    	MULSU R16,R19
0009B9  0303    	MULSU R16,R19
0009BA  0303    	MULSU R16,R19
0009BB  0303    	MULSU R16,R19
0009BC  0303    	MULSU R16,R19
0009BD  0303    	MULSU R16,R19
0009BE  0303    	MULSU R16,R19
0009BF  0303    	MULSU R16,R19
0009C0  0303    	MULSU R16,R19
0009C1  0303    	MULSU R16,R19
0009C2  0303    	MULSU R16,R19
0009C3  0303    	MULSU R16,R19
0009C4  0303    	MULSU R16,R19
0009C5  0303    	MULSU R16,R19
0009C6  0303    	MULSU R16,R19
0009C7  0303    	MULSU R16,R19
0009C8  0202    	MULS R16,R18
0009C9  0202    	MULS R16,R18
0009CA  0202    	MULS R16,R18
0009CB  0202    	MULS R16,R18
0009CC  0202    	MULS R16,R18
0009CD  0202    	MULS R16,R18
0009CE  0202    	MULS R16,R18
0009CF  0202    	MULS R16,R18
0009D0  0101    	MOVW R1:R0,R3:R2
0009D1  0101    	MOVW R1:R0,R3:R2
0009D2  0101    	MOVW R1:R0,R3:R2
0009D3  0101    	MOVW R1:R0,R3:R2
0009D4  0101    	MOVW R1:R0,R3:R2
0009D5  0101    	MOVW R1:R0,R3:R2
0009D6  0101    	MOVW R1:R0,R3:R2
0009D7  0101    	MOVW R1:R0,R3:R2
0009D8  0404    	CPC R0,R4
0009D9  0404    	CPC R0,R4
0009DA  0404    	CPC R0,R4
0009DB  0404    	CPC R0,R4
0009DC  0404    	CPC R0,R4
0009DD  0404    	CPC R0,R4
0009DE  0404    	CPC R0,R4
0009DF  0404    	CPC R0,R4
0009E0  0000    	NOP
0009E1  0000    	NOP
0009E2  0000    	NOP
0009E3  0000    	NOP
0009E4  0000    	NOP
0009E5  0000    	NOP
0009E6  0000    	NOP
0009E7  0000    	NOP
0009E8  0303    	MULSU R16,R19
0009E9  0303    	MULSU R16,R19
0009EA  0303    L31:	MULSU R16,R19
0009EB  0303    	MULSU R16,R19
0009EC  0303    	MULSU R16,R19
0009ED  0303    	MULSU R16,R19
0009EE  0303    	MULSU R16,R19
0009EF  0303    	MULSU R16,R19
0009F0  0303    	MULSU R16,R19
0009F1  0303    	MULSU R16,R19
0009F2  0303    L33:	MULSU R16,R19
0009F3  0303    	MULSU R16,R19
0009F4  0303    	MULSU R16,R19
0009F5  0303    	MULSU R16,R19
0009F6  0303    	MULSU R16,R19
0009F7  0303    	MULSU R16,R19
0009F8  0202    	MULS R16,R18
0009F9  0202    	MULS R16,R18
0009FA  0202    	MULS R16,R18
0009FB  0202    	MULS R16,R18
0009FC  0202    	MULS R16,R18
0009FD  0202    	MULS R16,R18
0009FE  0202    	MULS R16,R18
0009FF  0202    	MULS R16,R18
000A00  0101    	MOVW R1:R0,R3:R2
000A01  0101    	MOVW R1:R0,R3:R2
000A02  0101    	MOVW R1:R0,R3:R2
000A03  0101    	MOVW R1:R0,R3:R2
000A04  0101    	MOVW R1:R0,R3:R2
000A05  0101    	MOVW R1:R0,R3:R2
000A06  0101    	MOVW R1:R0,R3:R2
000A07  0101    	MOVW R1:R0,R3:R2
000A08  0000    	NOP
000A09  0000    	NOP
000A0A  0000    	NOP
000A0B  0000    	NOP
000A0C  0000    	NOP
000A0D  0000    	NOP
000A0E  0000    	NOP
000A0F  0000    	NOP
000A10  0000    	NOP
000A11  0000    	NOP
000A12  0000    	NOP
000A13  0000    	NOP
000A14  0000    	NOP
000A15  0000    	NOP
000A16  0000    	NOP
000A17  0000    	NOP
000A18  0101    	MOVW R1:R0,R3:R2
000A19  0101    	MOVW R1:R0,R3:R2
000A1A  0101    L39:	MOVW R1:R0,R3:R2
000A1B  0101    	MOVW R1:R0,R3:R2
000A1C  0101    	MOVW R1:R0,R3:R2
000A1D  0101    	MOVW R1:R0,R3:R2
000A1E  0101    	MOVW R1:R0,R3:R2
000A1F  0101    	MOVW R1:R0,R3:R2
000A20  0202    	MULS R16,R18
000A21  0202    	MULS R16,R18
000A22  0202    	MULS R16,R18
000A23  0202    	MULS R16,R18
000A24  0202    	MULS R16,R18
000A25  0202    	MULS R16,R18
000A26  0202    	MULS R16,R18
000A27  0202    	MULS R16,R18
000A28  0303    	MULSU R16,R19
000A29  0303    	MULSU R16,R19
000A2A  0303    	MULSU R16,R19
000A2B  0303    	MULSU R16,R19
000A2C  0303    	MULSU R16,R19
000A2D  0303    	MULSU R16,R19
000A2E  0303    	MULSU R16,R19
000A2F  0303    	MULSU R16,R19
000A30  0303    	MULSU R16,R19
000A31  0303    	MULSU R16,R19
000A32  0303    	MULSU R16,R19
000A33  0303    	MULSU R16,R19
000A34  0303    	MULSU R16,R19
000A35  0303    	MULSU R16,R19
000A36  0303    	MULSU R16,R19
000A37  0303    	MULSU R16,R19
000A38  0303    	MULSU R16,R19
000A39  0303    	MULSU R16,R19
000A3A  0303    	MULSU R16,R19
000A3B  0303    	MULSU R16,R19
000A3C  0303    	MULSU R16,R19
000A3D  0303    	MULSU R16,R19
000A3E  0303    	MULSU R16,R19
000A3F  0303    	MULSU R16,R19
000A40  0202    	MULS R16,R18
000A41  0202    	MULS R16,R18
000A42  0202    	MULS R16,R18
000A43  0202    	MULS R16,R18
000A44  0202    	MULS R16,R18
000A45  0202    	MULS R16,R18
000A46  0202    	MULS R16,R18
000A47  0202    	MULS R16,R18
000A48  0101    	MOVW R1:R0,R3:R2
000A49  0101    	MOVW R1:R0,R3:R2
000A4A  0101    	MOVW R1:R0,R3:R2
000A4B  0101    	MOVW R1:R0,R3:R2
000A4C  0101    	MOVW R1:R0,R3:R2
000A4D  0101    	MOVW R1:R0,R3:R2
000A4E  0101    	MOVW R1:R0,R3:R2
000A4F  0101    	MOVW R1:R0,R3:R2
000A50  0000    	NOP
000A51  0000    	NOP
000A52  0000    	NOP
000A53  0000    	NOP
000A54  0000    	NOP
000A55  0000    	NOP
000A56  0000    	NOP
000A57  0000    	NOP
000A58  0000    	NOP
000A59  0000    	NOP
000A5A  0000    	NOP
000A5B  0000    	NOP
000A5C  0000    	NOP
000A5D  0000    	NOP
000A5E  0000    	NOP
000A5F  0000    	NOP
000A60  0101    	MOVW R1:R0,R3:R2
000A61  0101    	MOVW R1:R0,R3:R2
000A62  0101    	MOVW R1:R0,R3:R2
000A63  0101    	MOVW R1:R0,R3:R2
000A64  0101    	MOVW R1:R0,R3:R2
000A65  0101    	MOVW R1:R0,R3:R2
000A66  0101    	MOVW R1:R0,R3:R2
000A67  0101    	MOVW R1:R0,R3:R2
000A68  0202    	MULS R16,R18
000A69  0202    	MULS R16,R18
000A6A  0202    	MULS R16,R18
000A6B  0202    	MULS R16,R18
000A6C  0202    	MULS R16,R18
000A6D  0202    	MULS R16,R18
000A6E  0202    	MULS R16,R18
000A6F  0202    	MULS R16,R18
000A70  0303    	MULSU R16,R19
000A71  0303    	MULSU R16,R19
000A72  0303    	MULSU R16,R19
000A73  0303    	MULSU R16,R19
000A74  0303    	MULSU R16,R19
000A75  0303    	MULSU R16,R19
000A76  0303    	MULSU R16,R19
000A77  0303    	MULSU R16,R19
000A78  0303    	MULSU R16,R19
000A79  0303    	MULSU R16,R19
000A7A  0303    	MULSU R16,R19
000A7B  0303    	MULSU R16,R19
000A7C  0303    	MULSU R16,R19
000A7D  0303    	MULSU R16,R19
000A7E  0303    	MULSU R16,R19
000A7F  0303    	MULSU R16,R19
000A80  0202    	MULS R16,R18
000A81  0202    	MULS R16,R18
000A82  0202    	MULS R16,R18
000A83  0202    	MULS R16,R18
000A84  0202    	MULS R16,R18
000A85  0202    	MULS R16,R18
000A86  0202    	MULS R16,R18
000A87  0202    	MULS R16,R18
000A88  0101    	MOVW R1:R0,R3:R2
000A89  0101    	MOVW R1:R0,R3:R2
000A8A  0101    	MOVW R1:R0,R3:R2
000A8B  0101    	MOVW R1:R0,R3:R2
000A8C  0101    	MOVW R1:R0,R3:R2
000A8D  0101    	MOVW R1:R0,R3:R2
000A8E  0101    	MOVW R1:R0,R3:R2
000A8F  0101    	MOVW R1:R0,R3:R2
000A90  0000    	NOP
000A91  0000    	NOP
000A92  0000    	NOP
000A93  0000    	NOP
000A94  0000    	NOP
000A95  0000    	NOP
000A96  0000    	NOP
000A97  0000    	NOP
000A98  0000    	NOP
000A99  0000    	NOP
000A9A  0000    	NOP
000A9B  0000    	NOP
000A9C  0000    	NOP
000A9D  0000    	NOP
000A9E  0000    	NOP
000A9F  0000    	NOP
000AA0  0101    	MOVW R1:R0,R3:R2
000AA1  0101    	MOVW R1:R0,R3:R2
000AA2  0101    	MOVW R1:R0,R3:R2
000AA3  0101    	MOVW R1:R0,R3:R2
000AA4  0101    	MOVW R1:R0,R3:R2
000AA5  0101    L153:	MOVW R1:R0,R3:R2
000AA6  0101    L41:	MOVW R1:R0,R3:R2
000AA7  0101    	MOVW R1:R0,R3:R2
000AA8  0202    	MULS R16,R18
000AA9  0202    	MULS R16,R18
000AAA  0202    	MULS R16,R18
000AAB  0202    	MULS R16,R18
000AAC  0202    	MULS R16,R18
000AAD  0202    	MULS R16,R18
000AAE  0202    L43:	MULS R16,R18
000AAF  0202    	MULS R16,R18
000AB0  0303    	MULSU R16,R19
000AB1  0303    L201:	MULSU R16,R19
000AB2  0303    	MULSU R16,R19
000AB3  0303    	MULSU R16,R19
000AB4  0303    	MULSU R16,R19
000AB5  0303    	MULSU R16,R19
000AB6  0303    L45:	MULSU R16,R19
000AB7  0303    	MULSU R16,R19
000AB8  0303    	MULSU R16,R19
000AB9  0303    	MULSU R16,R19
000ABA  0303    	MULSU R16,R19
000ABB  0303    	MULSU R16,R19
000ABC  0303    	MULSU R16,R19
000ABD  0303    	MULSU R16,R19
000ABE  0303    L47:	MULSU R16,R19
000ABF  0303    	MULSU R16,R19
000AC0  0303    	MULSU R16,R19
000AC1  0303    	MULSU R16,R19
000AC2  0303    	MULSU R16,R19
000AC3  0303    	MULSU R16,R19
000AC4  0303    	MULSU R16,R19
000AC5  0303    	MULSU R16,R19
000AC6  0303    L49:	MULSU R16,R19
000AC7  0303    	MULSU R16,R19
000AC8  0202    	MULS R16,R18
000AC9  0202    	MULS R16,R18
000ACA  0202    	MULS R16,R18
000ACB  0202    	MULS R16,R18
000ACC  0202    	MULS R16,R18
000ACD  0202    L163:	MULS R16,R18
000ACE  0202    L51:	MULS R16,R18
000ACF  0202    	MULS R16,R18
000AD0  0101    	MOVW R1:R0,R3:R2
000AD1  0101    	MOVW R1:R0,R3:R2
000AD2  0101    	MOVW R1:R0,R3:R2
000AD3  0101    	MOVW R1:R0,R3:R2
000AD4  0101    	MOVW R1:R0,R3:R2
000AD5  0101    	MOVW R1:R0,R3:R2
000AD6  0101    L53:	MOVW R1:R0,R3:R2
000AD7  0101    	MOVW R1:R0,R3:R2
000AD8  0000    	NOP
000AD9  0000    	NOP
000ADA  0000    	NOP
000ADB  0000    	NOP
000ADC  0000    	NOP
000ADD  0000    	NOP
000ADE  0000    	NOP
000ADF  0000    	NOP
000AE0  0000    	NOP
000AE1  0000    	NOP
000AE2  0000    	NOP
000AE3  0000    	NOP
000AE4  0000    	NOP
000AE5  0000    	NOP
000AE6  0000    	NOP
000AE7  0000    	NOP
000AE8  0101    	MOVW R1:R0,R3:R2
000AE9  0101    	MOVW R1:R0,R3:R2
000AEA  0101    	MOVW R1:R0,R3:R2
000AEB  0101    	MOVW R1:R0,R3:R2
000AEC  0101    	MOVW R1:R0,R3:R2
000AED  0101    	MOVW R1:R0,R3:R2
000AEE  0101    	MOVW R1:R0,R3:R2
000AEF  0101    	MOVW R1:R0,R3:R2
000AF0  0202    	MULS R16,R18
000AF1  0202    	MULS R16,R18
000AF2  0202    	MULS R16,R18
000AF3  0202    	MULS R16,R18
000AF4  0202    	MULS R16,R18
000AF5  0202    	MULS R16,R18
000AF6  0202    	MULS R16,R18
000AF7  0202    	MULS R16,R18
000AF8  0303    	MULSU R16,R19
000AF9  0303    	MULSU R16,R19
000AFA  0303    	MULSU R16,R19
000AFB  0303    	MULSU R16,R19
000AFC  0303    	MULSU R16,R19
000AFD  0303    	MULSU R16,R19
000AFE  0303    	MULSU R16,R19
000AFF  0303    	MULSU R16,R19
000B00  0303    	MULSU R16,R19
000B01  0303    	MULSU R16,R19
000B02  0303    	MULSU R16,R19
000B03  0303    	MULSU R16,R19
000B04  0303    	MULSU R16,R19
000B05  0303    	MULSU R16,R19
000B06  0303    	MULSU R16,R19
000B07  0303    	MULSU R16,R19
000B08  0202    	MULS R16,R18
000B09  0202    	MULS R16,R18
000B0A  0202    	MULS R16,R18
000B0B  0202    	MULS R16,R18
000B0C  0202    	MULS R16,R18
000B0D  0202    	MULS R16,R18
000B0E  0202    	MULS R16,R18
000B0F  0202    	MULS R16,R18
000B10  0101    	MOVW R1:R0,R3:R2
000B11  0101    	MOVW R1:R0,R3:R2
000B12  0101    	MOVW R1:R0,R3:R2
000B13  0101    	MOVW R1:R0,R3:R2
000B14  0101    	MOVW R1:R0,R3:R2
000B15  0101    	MOVW R1:R0,R3:R2
000B16  0101    	MOVW R1:R0,R3:R2
000B17  0101    	MOVW R1:R0,R3:R2
000B18  0000    	NOP
000B19  0000    	NOP
000B1A  0000    	NOP
000B1B  0000    	NOP
000B1C  0000    	NOP
000B1D  0000    	NOP
000B1E  0000    	NOP
000B1F  0000    	NOP
000B20  2929    	OR R18,R9
000B21  2929    	OR R18,R9
000B22  2929    	OR R18,R9
000B23  2929    	OR R18,R9
000B24  2929    	OR R18,R9
000B25  1414    	CP R1,R4
000B26  1414    	CP R1,R4
000B27  1414    	CP R1,R4
000B28  3D3D    	CPI R19,$DD
000B29  3D3D    	CPI R19,$DD
000B2A  3D3D    	CPI R19,$DD
000B2B  3D3D    	CPI R19,$DD
000B2C  3D3D    	CPI R19,$DD
000B2D  1E1E    L177:	ADC R1,ZL
000B2E  1E1E    	ADC R1,ZL
000B2F  1E1E    	ADC R1,ZL
000B30  0000    	NOP
000B31  0000    	NOP
000B32  0000    	NOP
000B33  0000    	NOP
000B34  0000    	NOP
000B35  0000    	NOP
000B36  0000    	NOP
000B37  0000    	NOP
000B38  0005    	UNRECOGNIZED
000B39  0014    	UNRECOGNIZED
000B3A  0001    	UNRECOGNIZED
000B3B  0001    	UNRECOGNIZED
000B3C  0001    	UNRECOGNIZED
000B3D  0001    	UNRECOGNIZED
000B3E  0001    	UNRECOGNIZED
000B3F  0001    	UNRECOGNIZED
000B40  0001    	UNRECOGNIZED
000B41  0001    	UNRECOGNIZED
000B42  0001    	UNRECOGNIZED
000B43  0001    	UNRECOGNIZED
000B44  0001    	UNRECOGNIZED
000B45  0001    	UNRECOGNIZED
000B46  0001    	UNRECOGNIZED
000B47  0001    	UNRECOGNIZED
000B48  0001    	UNRECOGNIZED
000B49  0001    	UNRECOGNIZED
000B4A  0001    	UNRECOGNIZED
000B4B  0001    	UNRECOGNIZED
000B4C  0001    	UNRECOGNIZED
000B4D  0001    	UNRECOGNIZED
000B4E  0001    	UNRECOGNIZED
000B4F  0001    	UNRECOGNIZED
000B50  0001    	UNRECOGNIZED
000B51  0001    	UNRECOGNIZED
000B52  0001    	UNRECOGNIZED
000B53  0001    	UNRECOGNIZED
000B54  0001    	UNRECOGNIZED
000B55  0001    L187:	UNRECOGNIZED
000B56  0001    	UNRECOGNIZED
000B57  0001    	UNRECOGNIZED
000B58  0001    	UNRECOGNIZED
000B59  0001    L103:	UNRECOGNIZED
000B5A  0001    	UNRECOGNIZED
000B5B  0001    	UNRECOGNIZED
000B5C  0001    	UNRECOGNIZED
000B5D  0001    	UNRECOGNIZED
000B5E  0001    	UNRECOGNIZED
000B5F  0001    	UNRECOGNIZED
000B60  000A    	UNRECOGNIZED
000B61  0014    	UNRECOGNIZED
000B62  012C    L55:	MOVW R5:R4,R25:R24
000B63  0190    	MOVW R19:R18,R1:R0
000B64  0019    	UNRECOGNIZED
000B65  0019    	UNRECOGNIZED
000B66  0019    	UNRECOGNIZED
000B67  0019    	UNRECOGNIZED
000B68  0019    	UNRECOGNIZED
000B69  0019    	UNRECOGNIZED
000B6A  0019    L57:	UNRECOGNIZED
000B6B  0019    	UNRECOGNIZED
000B6C  0019    	UNRECOGNIZED
000B6D  0019    	UNRECOGNIZED
000B6E  0019    	UNRECOGNIZED
000B6F  0019    	UNRECOGNIZED
000B70  0019    	UNRECOGNIZED
000B71  0019    	UNRECOGNIZED
000B72  0019    L60:	UNRECOGNIZED
000B73  0019    	UNRECOGNIZED
000B74  0019    	UNRECOGNIZED
000B75  0019    	UNRECOGNIZED
000B76  0019    	UNRECOGNIZED
000B77  0019    	UNRECOGNIZED
000B78  0019    	UNRECOGNIZED
000B79  0019    	UNRECOGNIZED
000B7A  0019    L63:	UNRECOGNIZED
000B7B  0019    	UNRECOGNIZED
000B7C  0019    	UNRECOGNIZED
000B7D  0019    	UNRECOGNIZED
000B7E  0019    	UNRECOGNIZED
000B7F  0019    	UNRECOGNIZED
000B80  0019    	UNRECOGNIZED
000B81  0019    	UNRECOGNIZED
000B82  0019    L65:	UNRECOGNIZED
000B83  0019    	UNRECOGNIZED
000B84  0019    	UNRECOGNIZED
000B85  0019    	UNRECOGNIZED
000B86  0019    	UNRECOGNIZED
000B87  0019    	UNRECOGNIZED
000B88  0019    	UNRECOGNIZED
000B89  0019    	UNRECOGNIZED
000B8A  0190    L67:	MOVW R19:R18,R1:R0
000B8B  0190    	MOVW R19:R18,R1:R0
000B8C  B37D    	IN R23,EEDR
000B8D  58C7    	SUBI YL,$87
000B8E  7E6C    	ANDI R22,$EC
000B8F  3148    	CPI R20,$18
000B90  8DA3    	LDD XL,Z+27
000B91  2F33    	MOV R19,R19
000B92  C731    L69:	RJMP L141
000B93  CDCD    	RJMP L142
000B94  B37D    	IN R23,EEDR
000B95  58C7    	SUBI YL,$87
000B96  7E6C    	ANDI R22,$EC
000B97  3148    	CPI R20,$18
000B98  8DA3    	LDD XL,Z+27
000B99  2F33    	MOV R19,R19
000B9A  C731    	RJMP L143
000B9B  CDCD    	RJMP L144
000B9C  A07D    	LDD R7,Y+37
000B9D  6BDC    	ORI YH,$BC
000B9E  7E6C    	ANDI R22,$EC
000B9F  1F58    	ADC R21,R24
000BA0  8D92    	LDD R25,Z+26
000BA1  2F33    L112:	MOV R19,R19
000BA2  C731    	RJMP L145
000BA3  CDCD    	RJMP L146
000BA4  9978    	SBIC SPDR,SPDR0
000BA5  58DA    	SUBI YH,$8A
000BA6  7B69    	ANDI R22,$B9
000BA7  2E48    	MOV R4,R24
000BA8  8A97    	STD Z+23,R9
000BA9  2B39    	OR R19,R25
000BAA  AE33    	STD Z+59,R3
000BAB  D6D2    	RCALL L147
000BAC  9774    	SBIW ZH:ZL,20
000BAD  5BDF    	SUBI YH,$BF
000BAE  7865    	ANDI R22,$85
000BAF  3446    	CPI R20,$46
000BB0  879B    	STD Y+11,R25
000BB1  2B3A    	OR R19,XL
000BB2  B130    	IN R19,PINF
000BB3  D6D2    	RCALL L148
000BB4  9870    	CBI SPSR,SPI2X
000BB5  5EE2    	SUBI ZL,$E2
000BB6  7761    	ANDI R22,$71
000BB7  3946    	CPI R20,$96
000BB8  86A0    	STD Z+8,R10
000BB9  2B3B    	OR R19,XH
000BBA  B62D    	IN R2,SPL
000BBB  D6D2    	RCALL L149
000BBC  9B6F    	SBIS SPCR,SPIE
000BBD  63E3    	ORI ZL,$33
000BBE  7660    	ANDI R22,$60
000BBF  3C48    	CPI R20,$C8
000BC0  85A5    L116:	LDD XL,Z+13
000BC1  2B3F    	OR R19,ZH
000BC2  BC29    	OUT OCR1BH,R2
000BC3  D5D1    	RCALL L150
000BC4  A070    	LDD R7,Z+32
000BC5  66E2    	ORI ZL,$62
000BC6  7661    	ANDI R22,$61
000BC7  3A4C    	CPI R20,$AC
000BC8  85A7    L117:	LDD XL,Z+15
000BC9  2C44    	MOV R4,R4
000BCA  BF28    	OUT EIFR,R18
000BCB  D1D1    	RCALL L151
000BCC  A573    	LDD R23,Z+43
000BCD  68DF    	ORI YH,$8F
000BCE  7864    	ANDI R22,$84
000BCF  3452    	CPI R21,$42
000BD0  87A8    	STD Y+8,XL
000BD1  2C49    	MOV R4,R9
000BD2  C128    	RJMP L152
000BD3  CED1    	RJMP L153
000BD4  A978    	LDD R23,Y+48
000BD5  68DA    	ORI YH,$8A
000BD6  7B69    	ANDI R22,$B9
000BD7  2E58    	MOV R5,R24
000BD8  8AA7    	STD Z+23,R10
000BD9  2C4D    	MOV R4,R13
000BDA  C228    	RJMP L154
000BDB  CBD1    	RJMP L155
000BDC  AD7B    	LDD R23,Y+59
000BDD  67D4    	ORI YH,$74
000BDE  7E6C    	ANDI R22,$EC
000BDF  285C    	OR R5,R12
000BE0  8DA5    	LDD XL,Z+29
000BE1  2B4E    L120:	OR R20,ZL
000BE2  C228    	RJMP L156
000BE3  CAD1    	RJMP L157
000BE4  AD7B    	LDD R23,Y+59
000BE5  67D4    	ORI YH,$74
000BE6  7E6C    	ANDI R22,$EC
000BE7  285C    	OR R5,R12
000BE8  8DA5    	LDD XL,Z+29
000BE9  2B4E    	OR R20,ZL
000BEA  C228    	RJMP L158
000BEB  CAD1    	RJMP L159
000BEC  B07F    	IN R7,SPDR
000BED  63CE    	ORI YL,$3E
000BEE  8270    	ST Z,R7
000BEF  225F    	AND R5,ZH
000BF0  91A2    	LD XL,-Z
000BF1  2C4D    	MOV R4,R13
000BF2  C228    	RJMP L160
000BF3  CBD1    	RJMP L161
000BF4  B282    	IN R8,PORTD
000BF5  5FC8    	SUBI YL,$F8
000BF6  8673    	STD Z+11,R7
000BF7  1D61    	ADC R22,R1
000BF8  959F    	CALL $332C4A
000BF9  2C4A
000BFA  C128    	RJMP L162
000BFB  CED1    	RJMP L163
000BFC  B283    	IN R8,PINC
000BFD  5AC3    	SUBI YL,$A3
000BFE  8A74    	STD Z+20,R7
000BFF  1A60    	SUB R6,R16
000C00  999C    	SBIC PINC,PINC4
000C01  2C45    	MOV R4,R5
000C02  C028    	RJMP L164
000C03  D1D1    	RCALL L165
000C04  B084    	IN R8,ADCL
000C05  55C0    	SUBI YL,$50
000C06  8B75    	STD Z+21,R23
000C07  195D    	SUB R21,R13
000C08  9A97    	SBI PORTD,PD7
000C09  2B3F    	OR R19,ZH
000C0A  BC29    	OUT OCR1BH,R2
000C0B  D5D1    	RCALL L166
000C0C  AC84    	LDD R8,Z+60
000C0D  53C2    	SUBI YL,$32
000C0E  8A75    	STD Z+21,R7
000C0F  1A58    	SUB R5,R24
000C10  9994    	SBIC PORTD,PD4
000C11  2B3C    	OR R19,YL
000C12  B72D    	IN R18,SPL
000C13  D6D2    	RCALL L167
000C14  A682    	STD Z+42,R8
000C15  52C8    	SUBI YL,$28
000C16  8773    	STD Z+11,R23
000C17  1D53    	ADC R21,R3
000C18  9692    	ADIW XH:XL,34
000C19  2B3A    	OR R19,XL
000C1A  B230    	IN R3,PIND
000C1B  D6D2    	RCALL L168
000C1C  A07F    	LDD R7,Y+39
000C1D  53CE    	SUBI YL,$3E
000C1E  8270    	ST Z,R7
000C1F  224F    	AND R4,ZH
000C20  9192    	LD R25,-Z
000C21  2B39    	OR R19,R25
000C22  AE33    	STD Z+59,R3
000C23  D6D2    	RCALL L169
000C24  9C7C    	MUL R7,R12
000C25  55D4    	SUBI YH,$54
000C26  7F6D    L71:	ANDI R22,$FD
000C27  284B    	OR R4,R11
000C28  8E93    	STD Z+27,R9
000C29  2B39    L129:	OR R19,R25
000C2A  AD34    	LDD R19,Z+60
000C2B  D6D1    L164:	RCALL L170
000C2C  9C7C    	MUL R7,R12
000C2D  55D4    	SUBI YH,$54
000C2E  7F6D    L73:	ANDI R22,$FD
000C2F  284B    	OR R4,R11
000C30  8E93    	STD Z+27,R9
000C31  2B39    	OR R19,R25
000C32  AD34    	LDD R19,Z+60
000C33  D6D1    	RCALL L171
000C34  9774    	SBIW ZH:ZL,20
000C35  5BDF    	SUBI YH,$BF
000C36  7865    L76:	ANDI R22,$85
000C37  3446    	CPI R20,$46
000C38  879B    	STD Y+11,R25
000C39  2B3A    	OR R19,XL
000C3A  B130    	IN R19,PINF
000C3B  D6D2    	RCALL L172
000C3C  9870    	CBI SPSR,SPI2X
000C3D  5EE2    	SUBI ZL,$E2
000C3E  7761    	ANDI R22,$71
000C3F  3946    	CPI R20,$96
000C40  86A0    	STD Z+8,R10
000C41  2B3B    	OR R19,XH
000C42  B62D    	IN R2,SPL
000C43  D6D2    	RCALL L173
000C44  9B6F    	SBIS SPCR,SPIE
000C45  63E3    	ORI ZL,$33
000C46  7660    	ANDI R22,$60
000C47  3C48    	CPI R20,$C8
000C48  85A5    L133:	LDD XL,Z+13
000C49  2B3F    	OR R19,ZH
000C4A  BC29    	OUT OCR1BH,R2
000C4B  D5D1    	RCALL L174
000C4C  A070    	LDD R7,Z+32
000C4D  66E2    	ORI ZL,$62
000C4E  7661    	ANDI R22,$61
000C4F  3A4C    	CPI R20,$AC
000C50  85A7    L134:	LDD XL,Z+15
000C51  2C44    	MOV R4,R4
000C52  BF28    	OUT EIFR,R18
000C53  D1D1    	RCALL L175
000C54  A573    	LDD R23,Z+43
000C55  68DF    	ORI YH,$8F
000C56  7864    	ANDI R22,$84
000C57  3452    	CPI R21,$42
000C58  87A8    	STD Y+8,XL
000C59  2C49    	MOV R4,R9
000C5A  C128    	RJMP L176
000C5B  CED1    	RJMP L177
000C5C  A978    	LDD R23,Y+48
000C5D  68DA    	ORI YH,$8A
000C5E  7B69    	ANDI R22,$B9
000C5F  2E58    	MOV R5,R24
000C60  8AA7    	STD Z+23,R10
000C61  2C4D    	MOV R4,R13
000C62  C228    	RJMP L178
000C63  CBD1    	RJMP L179
000C64  AD7B    	LDD R23,Y+59
000C65  67D4    	ORI YH,$74
000C66  7E6C    	ANDI R22,$EC
000C67  285C    	OR R5,R12
000C68  8DA5    	LDD XL,Z+29
000C69  2B4E    	OR R20,ZL
000C6A  C228    	RJMP L180
000C6B  CAD1    	RJMP L181
000C6C  AD7B    	LDD R23,Y+59
000C6D  67D4    	ORI YH,$74
000C6E  7E6C    	ANDI R22,$EC
000C6F  285C    	OR R5,R12
000C70  8DA5    	LDD XL,Z+29
000C71  2B4E    	OR R20,ZL
000C72  C228    	RJMP L182
000C73  CAD1    	RJMP L183
000C74  B07F    	IN R7,SPDR
000C75  63CE    	ORI YL,$3E
000C76  8270    L79:	ST Z,R7
000C77  225F    	AND R5,ZH
000C78  91A2    	LD XL,-Z
000C79  2C4D    	MOV R4,R13
000C7A  C228    	RJMP L184
000C7B  CBD1    	RJMP L185
000C7C  B282    	IN R8,PORTD
000C7D  5FC8    	SUBI YL,$F8
000C7E  8673    	STD Z+11,R7
000C7F  1D61    	ADC R22,R1
000C80  959F    	CALL $332C4A
000C81  2C4A
000C82  C128    	RJMP L186
000C83  CED1    	RJMP L187
000C84  B283    	IN R8,PINC
000C85  5AC3    	SUBI YL,$A3
000C86  8A74    	STD Z+20,R7
000C87  1A60    	SUB R6,R16
000C88  999C    	SBIC PINC,PINC4
000C89  2C45    	MOV R4,R5
000C8A  C028    	RJMP L188
000C8B  D1D1    	RCALL L189
000C8C  B084    	IN R8,ADCL
000C8D  55C0    	SUBI YL,$50
000C8E  8B75    	STD Z+21,R23
000C8F  195D    	SUB R21,R13
000C90  9A97    	SBI PORTD,PD7
000C91  2B3F    	OR R19,ZH
000C92  BC29    	OUT OCR1BH,R2
000C93  D5D1    	RCALL L190
000C94  AC84    	LDD R8,Z+60
000C95  53C2    	SUBI YL,$32
000C96  8A75    	STD Z+21,R7
000C97  1A58    	SUB R5,R24
000C98  9994    	SBIC PORTD,PD4
000C99  2B3C    	OR R19,YL
000C9A  B72D    	IN R18,SPL
000C9B  D6D2    	RCALL L191
000C9C  A682    	STD Z+42,R8
000C9D  52C8    	SUBI YL,$28
000C9E  8773    	STD Z+11,R23
000C9F  1D53    	ADC R21,R3
000CA0  9692    	ADIW XH:XL,34
000CA1  2B3A    	OR R19,XL
000CA2  B230    	IN R3,PIND
000CA3  D6D2    	RCALL L192
000CA4  A07F    	LDD R7,Y+39
000CA5  53CE    	SUBI YL,$3E
000CA6  8270    	ST Z,R7
000CA7  224F    	AND R4,ZH
000CA8  9192    	LD R25,-Z
000CA9  2B39    	OR R19,R25
000CAA  AE33    	STD Z+59,R3
000CAB  D6D2    	RCALL L193
000CAC  9C7C    	MUL R7,R12
000CAD  55D4    	SUBI YH,$54
000CAE  7F6D    	ANDI R22,$FD
000CAF  284B    	OR R4,R11
000CB0  8E93    	STD Z+27,R9
000CB1  2B39    	OR R19,R25
000CB2  AD34    	LDD R19,Z+60
000CB3  D6D1    L188:	RCALL L194
000CB4  9C7C    	MUL R7,R12
000CB5  55D4    	SUBI YH,$54
000CB6  7F6D    	ANDI R22,$FD
000CB7  284B    	OR R4,R11
000CB8  8E93    	STD Z+27,R9
000CB9  2B39    	OR R19,R25
000CBA  AD34    	LDD R19,Z+60
000CBB  D6D1    	RCALL L195
000CBC  9774    	SBIW ZH:ZL,20
000CBD  5BDF    	SUBI YH,$BF
000CBE  7865    	ANDI R22,$85
000CBF  3446    	CPI R20,$46
000CC0  879B    	STD Y+11,R25
000CC1  2B3A    	OR R19,XL
000CC2  B130    	IN R19,PINF
000CC3  D6D2    	RCALL L196
000CC4  9870    	CBI SPSR,SPI2X
000CC5  5EE2    	SUBI ZL,$E2
000CC6  7761    	ANDI R22,$71
000CC7  3946    	CPI R20,$96
000CC8  86A0    	STD Z+8,R10
000CC9  2B3B    	OR R19,XH
000CCA  B62D    	IN R2,SPL
000CCB  D6D2    	RCALL L197
000CCC  9B6F    	SBIS SPCR,SPIE
000CCD  63E3    	ORI ZL,$33
000CCE  7660    	ANDI R22,$60
000CCF  3C48    	CPI R20,$C8
000CD0  85A5    	LDD XL,Z+13
000CD1  2B3F    	OR R19,ZH
000CD2  BC29    	OUT OCR1BH,R2
000CD3  D5D1    	RCALL L198
000CD4  9B6F    	SBIS SPCR,SPIE
000CD5  62E3    	ORI ZL,$23
000CD6  7660    	ANDI R22,$60
000CD7  1959    	SUB R21,R9
000CD8  859B    	LDD R25,Y+11
000CD9  2B3F    	OR R19,ZH
000CDA  BC29    	OUT OCR1BH,R2
000CDB  D5D1    	RCALL L199
000CDC  B37D    	IN R23,EEDR
000CDD  58C7    	SUBI YL,$87
000CDE  7E6C    	ANDI R22,$EC
000CDF  3148    	CPI R20,$18
000CE0  8DA3    	LDD XL,Z+27
000CE1  2F33    	MOV R19,R19
000CE2  C731    	RJMP L200
000CE3  CDCD    	RJMP L201
000CE4  0404    	CPC R0,R4
000CE5  0404    	CPC R0,R4
000CE6  0404    	CPC R0,R4
000CE7  0404    	CPC R0,R4
000CE8  0404    	CPC R0,R4
000CE9  0404    	CPC R0,R4
000CEA  0404    	CPC R0,R4
000CEB  0404    	CPC R0,R4
000CEC  0303    	MULSU R16,R19
000CED  0303    	MULSU R16,R19
000CEE  0303    	MULSU R16,R19
000CEF  0303    	MULSU R16,R19
000CF0  0303    	MULSU R16,R19
000CF1  0303    	MULSU R16,R19
000CF2  0303    	MULSU R16,R19
000CF3  0303    	MULSU R16,R19
000CF4  0202    	MULS R16,R18
000CF5  0202    	MULS R16,R18
000CF6  0202    	MULS R16,R18
000CF7  0202    	MULS R16,R18
000CF8  0202    	MULS R16,R18
000CF9  0202    	MULS R16,R18
000CFA  0202    	MULS R16,R18
000CFB  0202    L152:	MULS R16,R18
000CFC  0303    	MULSU R16,R19
000CFD  0303    	MULSU R16,R19
000CFE  0303    	MULSU R16,R19
000CFF  0303    	MULSU R16,R19
000D00  0303    	MULSU R16,R19
000D01  0303    	MULSU R16,R19
000D02  0303    	MULSU R16,R19
000D03  0303    	MULSU R16,R19
000D04  0202    	MULS R16,R18
000D05  0202    	MULS R16,R18
000D06  0202    	MULS R16,R18
000D07  0202    	MULS R16,R18
000D08  0202    	MULS R16,R18
000D09  0202    	MULS R16,R18
000D0A  0202    	MULS R16,R18
000D0B  0202    	MULS R16,R18
000D0C  0101    	MOVW R1:R0,R3:R2
000D0D  0101    	MOVW R1:R0,R3:R2
000D0E  0101    	MOVW R1:R0,R3:R2
000D0F  0101    	MOVW R1:R0,R3:R2
000D10  0101    	MOVW R1:R0,R3:R2
000D11  0101    	MOVW R1:R0,R3:R2
000D12  0101    	MOVW R1:R0,R3:R2
000D13  0101    	MOVW R1:R0,R3:R2
000D14  0000    	NOP
000D15  0000    	NOP
000D16  0000    	NOP
000D17  0000    	NOP
000D18  0000    	NOP
000D19  0000    	NOP
000D1A  0000    	NOP
000D1B  0000    	NOP
000D1C  0000    	NOP
000D1D  0000    	NOP
000D1E  0000    	NOP
000D1F  0000    	NOP
000D20  0000    	NOP
000D21  0000    	NOP
000D22  0000    	NOP
000D23  0000    L162:	NOP
000D24  0101    	MOVW R1:R0,R3:R2
000D25  0101    	MOVW R1:R0,R3:R2
000D26  0101    	MOVW R1:R0,R3:R2
000D27  0101    	MOVW R1:R0,R3:R2
000D28  0101    	MOVW R1:R0,R3:R2
000D29  0101    	MOVW R1:R0,R3:R2
000D2A  0101    	MOVW R1:R0,R3:R2
000D2B  0101    	MOVW R1:R0,R3:R2
000D2C  0202    	MULS R16,R18
000D2D  0202    	MULS R16,R18
000D2E  0202    	MULS R16,R18
000D2F  0202    	MULS R16,R18
000D30  0202    	MULS R16,R18
000D31  0202    	MULS R16,R18
000D32  0202    	MULS R16,R18
000D33  0202    	MULS R16,R18
000D34  0303    	MULSU R16,R19
000D35  0303    	MULSU R16,R19
000D36  0303    	MULSU R16,R19
000D37  0303    	MULSU R16,R19
000D38  0303    	MULSU R16,R19
000D39  0303    	MULSU R16,R19
000D3A  0303    	MULSU R16,R19
000D3B  0303    	MULSU R16,R19
000D3C  0303    	MULSU R16,R19
000D3D  0303    	MULSU R16,R19
000D3E  0303    	MULSU R16,R19
000D3F  0303    	MULSU R16,R19
000D40  0303    	MULSU R16,R19
000D41  0303    	MULSU R16,R19
000D42  0303    	MULSU R16,R19
000D43  0303    	MULSU R16,R19
000D44  0303    	MULSU R16,R19
000D45  0303    	MULSU R16,R19
000D46  0303    	MULSU R16,R19
000D47  0303    	MULSU R16,R19
000D48  0303    L81:	MULSU R16,R19
000D49  0303    	MULSU R16,R19
000D4A  0303    	MULSU R16,R19
000D4B  0303    	MULSU R16,R19
000D4C  0202    	MULS R16,R18
000D4D  0202    	MULS R16,R18
000D4E  0202    	MULS R16,R18
000D4F  0202    	MULS R16,R18
000D50  0202    L83:	MULS R16,R18
000D51  0202    	MULS R16,R18
000D52  0202    	MULS R16,R18
000D53  0202    	MULS R16,R18
000D54  0101    	MOVW R1:R0,R3:R2
000D55  0101    	MOVW R1:R0,R3:R2
000D56  0101    	MOVW R1:R0,R3:R2
000D57  0101    	MOVW R1:R0,R3:R2
000D58  0101    	MOVW R1:R0,R3:R2
000D59  0101    	MOVW R1:R0,R3:R2
000D5A  0101    	MOVW R1:R0,R3:R2
000D5B  0101    	MOVW R1:R0,R3:R2
000D5C  0000    	NOP
000D5D  0000    	NOP
000D5E  0000    	NOP
000D5F  0000    	NOP
000D60  0000    	NOP
000D61  0000    L104:	NOP
000D62  0000    	NOP
000D63  0000    	NOP
000D64  0000    	NOP
000D65  0000    	NOP
000D66  0000    	NOP
000D67  0000    	NOP
000D68  0000    	NOP
000D69  0000    	NOP
000D6A  0000    	NOP
000D6B  0000    	NOP
000D6C  0101    	MOVW R1:R0,R3:R2
000D6D  0101    	MOVW R1:R0,R3:R2
000D6E  0101    	MOVW R1:R0,R3:R2
000D6F  0101    	MOVW R1:R0,R3:R2
000D70  0101    	MOVW R1:R0,R3:R2
000D71  0101    	MOVW R1:R0,R3:R2
000D72  0101    	MOVW R1:R0,R3:R2
000D73  0101    	MOVW R1:R0,R3:R2
000D74  0202    	MULS R16,R18
000D75  0202    	MULS R16,R18
000D76  0202    	MULS R16,R18
000D77  0202    	MULS R16,R18
000D78  0202    	MULS R16,R18
000D79  0202    	MULS R16,R18
000D7A  0202    	MULS R16,R18
000D7B  0202    	MULS R16,R18
000D7C  0303    	MULSU R16,R19
000D7D  0303    	MULSU R16,R19
000D7E  0303    	MULSU R16,R19
000D7F  0303    	MULSU R16,R19
000D80  0303    	MULSU R16,R19
000D81  0303    	MULSU R16,R19
000D82  0303    	MULSU R16,R19
000D83  0303    L176:	MULSU R16,R19
000D84  0303    	MULSU R16,R19
000D85  0303    	MULSU R16,R19
000D86  0303    	MULSU R16,R19
000D87  0303    	MULSU R16,R19
000D88  0303    	MULSU R16,R19
000D89  0303    	MULSU R16,R19
000D8A  0303    	MULSU R16,R19
000D8B  0303    	MULSU R16,R19
000D8C  0202    	MULS R16,R18
000D8D  0202    	MULS R16,R18
000D8E  0202    	MULS R16,R18
000D8F  0202    	MULS R16,R18
000D90  0202    L93:	MULS R16,R18
000D91  0202    	MULS R16,R18
000D92  0202    	MULS R16,R18
000D93  0202    	MULS R16,R18
000D94  0101    	MOVW R1:R0,R3:R2
000D95  0101    	MOVW R1:R0,R3:R2
000D96  0101    	MOVW R1:R0,R3:R2
000D97  0101    	MOVW R1:R0,R3:R2
000D98  0101    	MOVW R1:R0,R3:R2
000D99  0101    L111:	MOVW R1:R0,R3:R2
000D9A  0101    	MOVW R1:R0,R3:R2
000D9B  0101    	MOVW R1:R0,R3:R2
000D9C  0000    	NOP
000D9D  0000    L151:	NOP
000D9E  0000    	NOP
000D9F  0000    	NOP
000DA0  0000    	NOP
000DA1  0000    	NOP
000DA2  0000    	NOP
000DA3  0000    	NOP
000DA4  0000    	NOP
000DA5  0000    	NOP
000DA6  0000    	NOP
000DA7  0000    	NOP
000DA8  0000    	NOP
000DA9  0000    	NOP
000DAA  0000    	NOP
000DAB  0000    L186:	NOP
000DAC  0101    	MOVW R1:R0,R3:R2
000DAD  0101    	MOVW R1:R0,R3:R2
000DAE  0101    	MOVW R1:R0,R3:R2
000DAF  0101    	MOVW R1:R0,R3:R2
000DB0  0101    	MOVW R1:R0,R3:R2
000DB1  0101    	MOVW R1:R0,R3:R2
000DB2  0101    	MOVW R1:R0,R3:R2
000DB3  0101    	MOVW R1:R0,R3:R2
000DB4  0202    	MULS R16,R18
000DB5  0202    	MULS R16,R18
000DB6  0202    	MULS R16,R18
000DB7  0202    	MULS R16,R18
000DB8  0202    L115:	MULS R16,R18
000DB9  0202    	MULS R16,R18
000DBA  0202    	MULS R16,R18
000DBB  0202    	MULS R16,R18
000DBC  0303    	MULSU R16,R19
000DBD  0303    	MULSU R16,R19
000DBE  0303    	MULSU R16,R19
000DBF  0303    	MULSU R16,R19
000DC0  0303    	MULSU R16,R19
000DC1  0303    	MULSU R16,R19
000DC2  0303    	MULSU R16,R19
000DC3  0303    	MULSU R16,R19
000DC4  0303    	MULSU R16,R19
000DC5  0303    	MULSU R16,R19
000DC6  0303    	MULSU R16,R19
000DC7  0303    	MULSU R16,R19
000DC8  0303    	MULSU R16,R19
000DC9  0303    	MULSU R16,R19
000DCA  0303    	MULSU R16,R19
000DCB  0303    	MULSU R16,R19
000DCC  0303    	MULSU R16,R19
000DCD  0303    	MULSU R16,R19
000DCE  0303    	MULSU R16,R19
000DCF  0303    	MULSU R16,R19
000DD0  0303    	MULSU R16,R19
000DD1  0303    	MULSU R16,R19
000DD2  0303    	MULSU R16,R19
000DD3  0303    	MULSU R16,R19
000DD4  0202    	MULS R16,R18
000DD5  0202    L165:	MULS R16,R18
000DD6  0202    	MULS R16,R18
000DD7  0202    	MULS R16,R18
000DD8  0202    	MULS R16,R18
000DD9  0202    	MULS R16,R18
000DDA  0202    	MULS R16,R18
000DDB  0202    	MULS R16,R18
000DDC  0101    	MOVW R1:R0,R3:R2
000DDD  0101    	MOVW R1:R0,R3:R2
000DDE  0101    	MOVW R1:R0,R3:R2
000DDF  0101    	MOVW R1:R0,R3:R2
000DE0  0101    	MOVW R1:R0,R3:R2
000DE1  0101    	MOVW R1:R0,R3:R2
000DE2  0101    	MOVW R1:R0,R3:R2
000DE3  0101    	MOVW R1:R0,R3:R2
000DE4  0000    	NOP
000DE5  0000    	NOP
000DE6  0000    	NOP
000DE7  0000    	NOP
000DE8  0000    	NOP
000DE9  0000    L121:	NOP
000DEA  0000    	NOP
000DEB  0000    	NOP
000DEC  0000    	NOP
000DED  0000    	NOP
000DEE  0000    	NOP
000DEF  0000    	NOP
000DF0  0000    	NOP
000DF1  0000    	NOP
000DF2  0000    	NOP
000DF3  0000    	NOP
000DF4  0101    	MOVW R1:R0,R3:R2
000DF5  0101    	MOVW R1:R0,R3:R2
000DF6  0101    	MOVW R1:R0,R3:R2
000DF7  0101    	MOVW R1:R0,R3:R2
000DF8  0101    	MOVW R1:R0,R3:R2
000DF9  0101    	MOVW R1:R0,R3:R2
000DFA  0101    	MOVW R1:R0,R3:R2
000DFB  0101    	MOVW R1:R0,R3:R2
000DFC  0202    	MULS R16,R18
000DFD  0202    	MULS R16,R18
000DFE  0202    	MULS R16,R18
000DFF  0202    	MULS R16,R18
000E00  0202    	MULS R16,R18
000E01  0202    	MULS R16,R18
000E02  0202    	MULS R16,R18
000E03  0202    L154:	MULS R16,R18
000E04  0303    	MULSU R16,R19
000E05  0303    	MULSU R16,R19
000E06  0303    	MULSU R16,R19
000E07  0303    	MULSU R16,R19
000E08  0303    	MULSU R16,R19
000E09  0303    	MULSU R16,R19
000E0A  0303    	MULSU R16,R19
000E0B  0303    L156:	MULSU R16,R19
000E0C  0303    	MULSU R16,R19
000E0D  0303    	MULSU R16,R19
000E0E  0303    	MULSU R16,R19
000E0F  0303    	MULSU R16,R19
000E10  0303    	MULSU R16,R19
000E11  0303    	MULSU R16,R19
000E12  0303    	MULSU R16,R19
000E13  0303    L158:	MULSU R16,R19
000E14  0202    	MULS R16,R18
000E15  0202    	MULS R16,R18
000E16  0202    	MULS R16,R18
000E17  0202    	MULS R16,R18
000E18  0202    	MULS R16,R18
000E19  0202    	MULS R16,R18
000E1A  0202    	MULS R16,R18
000E1B  0202    L160:	MULS R16,R18
000E1C  0101    	MOVW R1:R0,R3:R2
000E1D  0101    	MOVW R1:R0,R3:R2
000E1E  0101    	MOVW R1:R0,R3:R2
000E1F  0101    	MOVW R1:R0,R3:R2
000E20  0101    	MOVW R1:R0,R3:R2
000E21  0101    L128:	MOVW R1:R0,R3:R2
000E22  0101    	MOVW R1:R0,R3:R2
000E23  0101    	MOVW R1:R0,R3:R2
000E24  0202    	MULS R16,R18
000E25  0202    L175:	MULS R16,R18
000E26  0202    	MULS R16,R18
000E27  0202    	MULS R16,R18
000E28  0202    	MULS R16,R18
000E29  0202    	MULS R16,R18
000E2A  0202    	MULS R16,R18
000E2B  0202    	MULS R16,R18
000E2C  0404    	CPC R0,R4
000E2D  0404    	CPC R0,R4
000E2E  0404    	CPC R0,R4
000E2F  0404    	CPC R0,R4
000E30  0404    	CPC R0,R4
000E31  0404    	CPC R0,R4
000E32  0404    	CPC R0,R4
000E33  0404    	CPC R0,R4
000E34  0000    	NOP
000E35  0000    	NOP
000E36  0000    	NOP
000E37  0000    	NOP
000E38  0000    	NOP
000E39  0000    	NOP
000E3A  0000    	NOP
000E3B  0000    	NOP
000E3C  0000    	NOP
000E3D  0000    	NOP
000E3E  0000    	NOP
000E3F  0000    	NOP
000E40  0000    L132:	NOP
000E41  0000    	NOP
000E42  0000    	NOP
000E43  0000    	NOP
000E44  0000    	NOP
000E45  0000    	NOP
000E46  0000    	NOP
000E47  0000    	NOP
000E48  0000    	NOP
000E49  0000    	NOP
000E4A  0000    	NOP
000E4B  0000    	NOP
000E4C  0303    	MULSU R16,R19
000E4D  0303    	MULSU R16,R19
000E4E  0303    	MULSU R16,R19
000E4F  0303    	MULSU R16,R19
000E50  0303    	MULSU R16,R19
000E51  0303    	MULSU R16,R19
000E52  0303    	MULSU R16,R19
000E53  0303    	MULSU R16,R19
000E54  0202    	MULS R16,R18
000E55  0202    	MULS R16,R18
000E56  0202    	MULS R16,R18
000E57  0202    	MULS R16,R18
000E58  0202    	MULS R16,R18
000E59  0202    	MULS R16,R18
000E5A  0202    	MULS R16,R18
000E5B  0202    	MULS R16,R18
000E5C  0101    	MOVW R1:R0,R3:R2
000E5D  0101    L189:	MOVW R1:R0,R3:R2
000E5E  0101    	MOVW R1:R0,R3:R2
000E5F  0101    	MOVW R1:R0,R3:R2
000E60  0101    	MOVW R1:R0,R3:R2
000E61  0101    	MOVW R1:R0,R3:R2
000E62  0101    	MOVW R1:R0,R3:R2
000E63  0101    	MOVW R1:R0,R3:R2
000E64  0000    	NOP
000E65  0000    	NOP
000E66  0000    	NOP
000E67  0000    	NOP
000E68  0000    	NOP
000E69  0000    	NOP
000E6A  0000    L105:	NOP
000E6B  0000    	NOP
000E6C  0000    	NOP
000E6D  0000    	NOP
000E6E  0000    	NOP
000E6F  0000    	NOP
000E70  0000    	NOP
000E71  0000    	NOP
000E72  0000    L106:	NOP
000E73  0000    	NOP
000E74  0101    	MOVW R1:R0,R3:R2
000E75  0101    	MOVW R1:R0,R3:R2
000E76  0101    	MOVW R1:R0,R3:R2
000E77  0101    	MOVW R1:R0,R3:R2
000E78  0101    	MOVW R1:R0,R3:R2
000E79  0101    	MOVW R1:R0,R3:R2
000E7A  0101    L107:	MOVW R1:R0,R3:R2
000E7B  0101    	MOVW R1:R0,R3:R2
000E7C  0202    	MULS R16,R18
000E7D  0202    	MULS R16,R18
000E7E  0202    	MULS R16,R18
000E7F  0202    	MULS R16,R18
000E80  0202    	MULS R16,R18
000E81  0202    	MULS R16,R18
000E82  0202    L108:	MULS R16,R18
000E83  0202    	MULS R16,R18
000E84  0303    	MULSU R16,R19
000E85  0303    	MULSU R16,R19
000E86  0303    	MULSU R16,R19
000E87  0303    	MULSU R16,R19
000E88  0303    	MULSU R16,R19
000E89  0303    	MULSU R16,R19
000E8A  0303    L109:	MULSU R16,R19
000E8B  0303    L178:	MULSU R16,R19
000E8C  0303    	MULSU R16,R19
000E8D  0303    	MULSU R16,R19
000E8E  0303    	MULSU R16,R19
000E8F  0303    	MULSU R16,R19
000E90  0303    L95:	MULSU R16,R19
000E91  0303    	MULSU R16,R19
000E92  0303    L110:	MULSU R16,R19
000E93  0303    L180:	MULSU R16,R19
000E94  0303    	MULSU R16,R19
000E95  0303    	MULSU R16,R19
000E96  0303    	MULSU R16,R19
000E97  0303    	MULSU R16,R19
000E98  0303    L97:	MULSU R16,R19
000E99  0303    	MULSU R16,R19
000E9A  0303    	MULSU R16,R19
000E9B  0303    L182:	MULSU R16,R19
000E9C  0202    	MULS R16,R18
000E9D  0202    	MULS R16,R18
000E9E  0202    	MULS R16,R18
000E9F  0202    	MULS R16,R18
000EA0  0202    L99:	MULS R16,R18
000EA1  0202    	MULS R16,R18
000EA2  0202    	MULS R16,R18
000EA3  0202    L184:	MULS R16,R18
000EA4  0101    	MOVW R1:R0,R3:R2
000EA5  0101    	MOVW R1:R0,R3:R2
000EA6  0101    	MOVW R1:R0,R3:R2
000EA7  0101    	MOVW R1:R0,R3:R2
000EA8  0101    	MOVW R1:R0,R3:R2
000EA9  0101    	MOVW R1:R0,R3:R2
000EAA  0101    	MOVW R1:R0,R3:R2
000EAB  0101    	MOVW R1:R0,R3:R2
000EAC  0000    	NOP
000EAD  0000    	NOP
000EAE  0000    	NOP
000EAF  0000    	NOP
000EB0  0000    	NOP
000EB1  0000    	NOP
000EB2  0000    	NOP
000EB3  0000    	NOP
000EB4  0000    	NOP
000EB5  0000    	NOP
000EB6  0000    	NOP
000EB7  0000    	NOP
000EB8  0000    	NOP
000EB9  0000    	NOP
000EBA  0000    	NOP
000EBB  0000    	NOP
000EBC  0101    	MOVW R1:R0,R3:R2
000EBD  0101    	MOVW R1:R0,R3:R2
000EBE  0101    	MOVW R1:R0,R3:R2
000EBF  0101    	MOVW R1:R0,R3:R2
000EC0  0101    	MOVW R1:R0,R3:R2
000EC1  0101    	MOVW R1:R0,R3:R2
000EC2  0101    	MOVW R1:R0,R3:R2
000EC3  0101    	MOVW R1:R0,R3:R2
000EC4  0202    	MULS R16,R18
000EC5  0202    	MULS R16,R18
000EC6  0202    	MULS R16,R18
000EC7  0202    	MULS R16,R18
000EC8  0202    	MULS R16,R18
000EC9  0202    	MULS R16,R18
000ECA  0202    	MULS R16,R18
000ECB  0202    	MULS R16,R18
000ECC  0303    	MULSU R16,R19
000ECD  0303    	MULSU R16,R19
000ECE  0303    	MULSU R16,R19
000ECF  0303    	MULSU R16,R19
000ED0  0303    	MULSU R16,R19
000ED1  0303    	MULSU R16,R19
000ED2  0303    	MULSU R16,R19
000ED3  0303    	MULSU R16,R19
000ED4  0303    	MULSU R16,R19
000ED5  0303    	MULSU R16,R19
000ED6  0303    	MULSU R16,R19
000ED7  0303    	MULSU R16,R19
000ED8  0303    	MULSU R16,R19
000ED9  0303    	MULSU R16,R19
000EDA  0303    	MULSU R16,R19
000EDB  0303    	MULSU R16,R19
000EDC  0202    	MULS R16,R18
000EDD  0202    	MULS R16,R18
000EDE  0202    	MULS R16,R18
000EDF  0202    	MULS R16,R18
000EE0  0202    	MULS R16,R18
000EE1  0202    	MULS R16,R18
000EE2  0202    	MULS R16,R18
000EE3  0202    	MULS R16,R18
000EE4  0101    	MOVW R1:R0,R3:R2
000EE5  0101    	MOVW R1:R0,R3:R2
000EE6  0101    	MOVW R1:R0,R3:R2
000EE7  0101    	MOVW R1:R0,R3:R2
000EE8  0101    	MOVW R1:R0,R3:R2
000EE9  0101    	MOVW R1:R0,R3:R2
000EEA  0101    	MOVW R1:R0,R3:R2
000EEB  0101    	MOVW R1:R0,R3:R2
000EEC  0000    	NOP
000EED  0000    	NOP
000EEE  0000    	NOP
000EEF  0000    	NOP
000EF0  0000    	NOP
000EF1  0000    	NOP
000EF2  0000    L122:	NOP
000EF3  0000    	NOP
000EF4  0000    	NOP
000EF5  0000    	NOP
000EF6  0000    	NOP
000EF7  0000    	NOP
000EF8  0000    	NOP
000EF9  0000    	NOP
000EFA  0000    L123:	NOP
000EFB  0000    	NOP
000EFC  0101    	MOVW R1:R0,R3:R2
000EFD  0101    	MOVW R1:R0,R3:R2
000EFE  0101    	MOVW R1:R0,R3:R2
000EFF  0101    	MOVW R1:R0,R3:R2
000F00  0101    	MOVW R1:R0,R3:R2
000F01  0101    	MOVW R1:R0,R3:R2
000F02  0101    L124:	MOVW R1:R0,R3:R2
000F03  0101    	MOVW R1:R0,R3:R2
000F04  0202    	MULS R16,R18
000F05  0202    	MULS R16,R18
000F06  0202    	MULS R16,R18
000F07  0202    	MULS R16,R18
000F08  0202    	MULS R16,R18
000F09  0202    	MULS R16,R18
000F0A  0202    L125:	MULS R16,R18
000F0B  0202    	MULS R16,R18
000F0C  0303    	MULSU R16,R19
000F0D  0303    	MULSU R16,R19
000F0E  0303    	MULSU R16,R19
000F0F  0303    	MULSU R16,R19
000F10  0303    	MULSU R16,R19
000F11  0303    	MULSU R16,R19
000F12  0303    L126:	MULSU R16,R19
000F13  0303    	MULSU R16,R19
000F14  0303    	MULSU R16,R19
000F15  0303    	MULSU R16,R19
000F16  0303    	MULSU R16,R19
000F17  0303    	MULSU R16,R19
000F18  0303    	MULSU R16,R19
000F19  0303    	MULSU R16,R19
000F1A  0303    L127:	MULSU R16,R19
000F1B  0303    	MULSU R16,R19
000F1C  0303    	MULSU R16,R19
000F1D  0303    	MULSU R16,R19
000F1E  0303    	MULSU R16,R19
000F1F  0303    	MULSU R16,R19
000F20  0303    	MULSU R16,R19
000F21  0303    	MULSU R16,R19
000F22  0303    	MULSU R16,R19
000F23  0303    	MULSU R16,R19
000F24  0202    	MULS R16,R18
000F25  0202    	MULS R16,R18
000F26  0202    	MULS R16,R18
000F27  0202    	MULS R16,R18
000F28  0202    	MULS R16,R18
000F29  0202    	MULS R16,R18
000F2A  0202    	MULS R16,R18
000F2B  0202    	MULS R16,R18
000F2C  0101    	MOVW R1:R0,R3:R2
000F2D  0101    	MOVW R1:R0,R3:R2
000F2E  0101    	MOVW R1:R0,R3:R2
000F2F  0101    	MOVW R1:R0,R3:R2
000F30  0101    	MOVW R1:R0,R3:R2
000F31  0101    	MOVW R1:R0,R3:R2
000F32  0101    	MOVW R1:R0,R3:R2
000F33  0101    	MOVW R1:R0,R3:R2
000F34  0000    	NOP
000F35  0000    	NOP
000F36  0000    	NOP
000F37  0000    	NOP
000F38  0000    	NOP
000F39  0000    	NOP
000F3A  0000    	NOP
000F3B  0000    	NOP
000F3C  0000    	NOP
000F3D  0000    	NOP
000F3E  0000    	NOP
000F3F  0000    	NOP
000F40  0000    	NOP
000F41  0000    	NOP
000F42  0000    	NOP
000F43  0000    	NOP
000F44  0101    	MOVW R1:R0,R3:R2
000F45  0101    	MOVW R1:R0,R3:R2
000F46  0101    	MOVW R1:R0,R3:R2
000F47  0101    	MOVW R1:R0,R3:R2
000F48  0101    	MOVW R1:R0,R3:R2
000F49  0101    	MOVW R1:R0,R3:R2
000F4A  0101    	MOVW R1:R0,R3:R2
000F4B  0101    	MOVW R1:R0,R3:R2
000F4C  0202    	MULS R16,R18
000F4D  0202    	MULS R16,R18
000F4E  0202    	MULS R16,R18
000F4F  0202    	MULS R16,R18
000F50  0202    	MULS R16,R18
000F51  0202    	MULS R16,R18
000F52  0202    	MULS R16,R18
000F53  0202    	MULS R16,R18
000F54  0303    	MULSU R16,R19
000F55  0303    	MULSU R16,R19
000F56  0303    	MULSU R16,R19
000F57  0303    	MULSU R16,R19
000F58  0303    	MULSU R16,R19
000F59  0303    	MULSU R16,R19
000F5A  0303    	MULSU R16,R19
000F5B  0303    	MULSU R16,R19
000F5C  0303    	MULSU R16,R19
000F5D  0303    	MULSU R16,R19
000F5E  0303    	MULSU R16,R19
000F5F  0303    	MULSU R16,R19
000F60  0303    	MULSU R16,R19
000F61  0303    	MULSU R16,R19
000F62  0303    	MULSU R16,R19
000F63  0303    	MULSU R16,R19
000F64  0202    	MULS R16,R18
000F65  0202    	MULS R16,R18
000F66  0202    	MULS R16,R18
000F67  0202    	MULS R16,R18
000F68  0202    	MULS R16,R18
000F69  0202    	MULS R16,R18
000F6A  0202    	MULS R16,R18
000F6B  0202    	MULS R16,R18
000F6C  0101    	MOVW R1:R0,R3:R2
000F6D  0101    	MOVW R1:R0,R3:R2
000F6E  0101    	MOVW R1:R0,R3:R2
000F6F  0101    	MOVW R1:R0,R3:R2
000F70  0101    	MOVW R1:R0,R3:R2
000F71  0101    	MOVW R1:R0,R3:R2
000F72  0101    	MOVW R1:R0,R3:R2
000F73  0101    	MOVW R1:R0,R3:R2
000F74  0000    	NOP
000F75  0000    	NOP
000F76  0000    	NOP
000F77  0000    	NOP
000F78  0000    	NOP
000F79  0000    	NOP
000F7A  0000    	NOP
000F7B  0000    	NOP
000F7C  0000    	NOP
000F7D  0000    	NOP
000F7E  0000    	NOP
000F7F  0000    	NOP
000F80  0000    	NOP
000F81  0000    	NOP
000F82  0000    	NOP
000F83  0000    	NOP
000F84  2828    	OR R2,R8
000F85  2828    	OR R2,R8
000F86  2828    	OR R2,R8
000F87  2828    	OR R2,R8
000F88  2828    	OR R2,R8
000F89  2828    	OR R2,R8
000F8A  2828    	OR R2,R8
000F8B  2828    	OR R2,R8
000F8C  3C3C    	CPI R19,$CC
000F8D  3C3C    	CPI R19,$CC
000F8E  3C3C    	CPI R19,$CC
000F8F  3C3C    	CPI R19,$CC
000F90  3C3C    	CPI R19,$CC
000F91  3C3C    	CPI R19,$CC
000F92  3C3C    	CPI R19,$CC
000F93  3C3C    	CPI R19,$CC
000F94  0000    	NOP
000F95  0000    	NOP
000F96  0000    	NOP
000F97  0000    	NOP
000F98  0000    	NOP
000F99  0000    	NOP
000F9A  0000    	NOP
000F9B  0000    	NOP
000F9C  001E    	UNRECOGNIZED
000F9D  0001    	UNRECOGNIZED
000F9E  0001    	UNRECOGNIZED
000F9F  0001    	UNRECOGNIZED
000FA0  0001    	UNRECOGNIZED
000FA1  0001    	UNRECOGNIZED
000FA2  0001    	UNRECOGNIZED
000FA3  0001    	UNRECOGNIZED
000FA4  0001    	UNRECOGNIZED
000FA5  0001    	UNRECOGNIZED
000FA6  0001    	UNRECOGNIZED
000FA7  0001    	UNRECOGNIZED
000FA8  0001    	UNRECOGNIZED
000FA9  0001    	UNRECOGNIZED
000FAA  0001    	UNRECOGNIZED
000FAB  0001    	UNRECOGNIZED
000FAC  0001    	UNRECOGNIZED
000FAD  0001    	UNRECOGNIZED
000FAE  0001    	UNRECOGNIZED
000FAF  0001    	UNRECOGNIZED
000FB0  0001    	UNRECOGNIZED
000FB1  0001    	UNRECOGNIZED
000FB2  0001    	UNRECOGNIZED
000FB3  0001    	UNRECOGNIZED
000FB4  0001    	UNRECOGNIZED
000FB5  0001    	UNRECOGNIZED
000FB6  0001    	UNRECOGNIZED
000FB7  0001    	UNRECOGNIZED
000FB8  0001    	UNRECOGNIZED
000FB9  0001    	UNRECOGNIZED
000FBA  0001    	UNRECOGNIZED
000FBB  0001    	UNRECOGNIZED
000FBC  0001    	UNRECOGNIZED
000FBD  0001    	UNRECOGNIZED
000FBE  0001    	UNRECOGNIZED
000FBF  0001    	UNRECOGNIZED
000FC0  0001    	UNRECOGNIZED
000FC1  0001    	UNRECOGNIZED
000FC2  0001    	UNRECOGNIZED
000FC3  0001    	UNRECOGNIZED
000FC4  0001    	UNRECOGNIZED
000FC5  0019    	UNRECOGNIZED
000FC6  03E8    	FMULSU R22,R16
000FC7  0019    	UNRECOGNIZED
000FC8  0019    L137:	UNRECOGNIZED
000FC9  0019    	UNRECOGNIZED
000FCA  0019    	UNRECOGNIZED
000FCB  0019    	UNRECOGNIZED
000FCC  0019    	UNRECOGNIZED
000FCD  0019    	UNRECOGNIZED
000FCE  0019    	UNRECOGNIZED
000FCF  0019    	UNRECOGNIZED
000FD0  0019    L139:	UNRECOGNIZED
000FD1  0019    	UNRECOGNIZED
000FD2  0019    	UNRECOGNIZED
000FD3  0019    	UNRECOGNIZED
000FD4  0019    	UNRECOGNIZED
000FD5  0019    	UNRECOGNIZED
000FD6  0019    	UNRECOGNIZED
000FD7  0019    	UNRECOGNIZED
000FD8  0019    	UNRECOGNIZED
000FD9  0019    	UNRECOGNIZED
000FDA  0019    	UNRECOGNIZED
000FDB  0019    	UNRECOGNIZED
000FDC  0019    	UNRECOGNIZED
000FDD  0019    	UNRECOGNIZED
000FDE  0019    	UNRECOGNIZED
000FDF  0019    	UNRECOGNIZED
000FE0  0019    	UNRECOGNIZED
000FE1  0019    	UNRECOGNIZED
000FE2  0019    	UNRECOGNIZED
000FE3  0019    	UNRECOGNIZED
000FE4  0019    	UNRECOGNIZED
000FE5  0019    	UNRECOGNIZED
000FE6  0019    	UNRECOGNIZED
000FE7  0019    	UNRECOGNIZED
000FE8  0019    	UNRECOGNIZED
000FE9  0019    	UNRECOGNIZED
000FEA  0019    	UNRECOGNIZED
000FEB  0019    	UNRECOGNIZED
000FEC  0019    	UNRECOGNIZED
000FED  0019    	UNRECOGNIZED
000FEE  0019    	UNRECOGNIZED
000FEF  01F4    	MOVW R31:R30,R9:R8
000FF0  B37D    	IN R23,EEDR
000FF1  58C7    	SUBI YL,$87
000FF2  7E6C    	ANDI R22,$EC
000FF3  3148    	CPI R20,$18
000FF4  8DA3    	LDD XL,Z+27
000FF5  7F59    	ANDI R21,$F9
000FF6  9F2F    	MUL R18,ZH
000FF7  AB70    	STD Z+48,R23
000FF8  B37D    	IN R23,EEDR
000FF9  58C7    	SUBI YL,$87
000FFA  7E6C    	ANDI R22,$EC
000FFB  3148    	CPI R20,$18
000FFC  8DA3    	LDD XL,Z+27
000FFD  7F59    	ANDI R21,$F9
000FFE  9F2F    	MUL R18,ZH
000FFF  AB70    	STD Z+48,R23
001000  8D7C    	LDD R23,Y+28
001001  56DF    	SUBI YH,$6F
001002  7D6B    	ANDI R22,$DB
001003  1B5A    	SUB R21,XL
001004  8B91    	STD Z+17,R25
001005  7F59    	ANDI R21,$F9
001006  9F2F    	MUL R18,ZH
001007  AB70    	STD Z+48,R23
001008  9281    	ST Z+,R8
001009  56D8    	SUBI YH,$68
00100A  8370    	ST Z,R23
00100B  145F    	CP R5,R15
00100C  918F    	POP R24
00100D  7F59    	ANDI R21,$F9
00100E  9F2F    	MUL R18,ZH
00100F  AB70    	STD Z+48,R23
001010  9683    	ADIW R25:R24,35
001011  57D5    	SUBI YH,$75
001012  8672    	STD Z+10,R7
001013  1263    	CPSE R6,R19
001014  9490    	COM R9
001015  7F59    	ANDI R21,$F9
001016  9F2F    	MUL R18,ZH
001017  AB70    	STD Z+48,R23
001018  9A84    	SBI PIND,PIND4
001019  59D4    	SUBI YH,$94
00101A  8873    	LDD R7,Z+19
00101B  1067    	CPSE R6,R7
00101C  9692    	ADIW XH:XL,34
00101D  7F59    	ANDI R21,$F9
00101E  9F2F    	MUL R18,ZH
00101F  AB70    	STD Z+48,R23
001020  9D84    	MUL R24,R4
001021  5CD3    	SUBI YH,$C3
001022  8873    	LDD R7,Z+19
001023  0F6B    	ADD R22,XH
001024  9695    	ADIW XH:XL,37
001025  7F59    	ANDI R21,$F9
001026  9F2F    	MUL R18,ZH
001027  AB70    	STD Z+48,R23
001028  A084    	LDD R8,Z+36
001029  5FD4    	SUBI YH,$F4
00102A  8873    	LDD R7,Z+19
00102B  106E    	CPSE R6,R14
00102C  9698    	ADIW XH:XL,40
00102D  7F59    	ANDI R21,$F9
00102E  9F2F    	MUL R18,ZH
00102F  AB70    	STD Z+48,R23
001030  A183    	LDD R24,Z+35
001031  62D5    	ORI YH,$25
001032  8672    	STD Z+10,R7
001033  126F    	CPSE R6,ZH
001034  949C    	JMP $127F59
001035  7F59
001036  9F2F    	MUL R18,ZH
001037  AB70    	STD Z+48,R23
001038  A181    	LDD R24,Z+33
001039  65D8    	ORI YH,$58
00103A  8370    	ST Z,R23
00103B  146F    	CP R6,R15
00103C  919F    	POP R25
00103D  7F59    	ANDI R21,$F9
00103E  9F2F    	MUL R18,ZH
00103F  AB70    	STD Z+48,R23
001040  A17F    	LDD R23,Y+39
001041  67DB    	ORI YH,$7B
001042  806E    	LDD R6,Y+6
001043  186E    	SUB R6,R14
001044  8EA2    	STD Z+26,R10
001045  7F59    	ANDI R21,$F9
001046  9F2F    	MUL R18,ZH
001047  AB70    	STD Z+48,R23
001048  9F7D    	MUL R23,YH
001049  69DF    	ORI YH,$9F
00104A  7E6C    	ANDI R22,$EC
00104B  1B6C    	SUB R22,YL
00104C  8CA4    	LDD R10,Z+28
00104D  7F59    	ANDI R21,$F9
00104E  9F2F    	MUL R18,ZH
00104F  AB70    	STD Z+48,R23
001050  9D7A    	MUL R23,R10
001051  6AE2    	ORI ZL,$A2
001052  7B69    	ANDI R22,$B9
001053  1F6A    	ADC R22,XL
001054  89A4    	LDD XL,Z+20
001055  7F59    	ANDI R21,$F9
001056  9F2F    	MUL R18,ZH
001057  AB70    	STD Z+48,R23
001058  9A77    	SBI SPSR,SPIF
001059  6BE6    	ORI ZL,$B6
00105A  7966    	ANDI R22,$96
00105B  2267    	AND R6,R23
00105C  87A4    	STD Z+12,XL
00105D  7F59    	ANDI R21,$F9
00105E  9F2F    	MUL R18,ZH
00105F  AB70    	STD Z+48,R23
001060  9674    	ADIW ZH:ZL,20
001061  6AE8    	ORI ZL,$A8
001062  7763    	ANDI R22,$73
001063  2563    	EOR R22,R3
001064  85A3    	LDD XL,Z+11
001065  7F59    	ANDI R21,$F9
001066  9F2F    	MUL R18,ZH
001067  AB70    	STD Z+48,R23
001068  9272    	ST -Z,R7
001069  68EA    	ORI ZL,$8A
00106A  7661    	ANDI R22,$61
00106B  265F    	EOR R5,ZH
00106C  84A1    	LDD R10,Z+9
00106D  7F59    	ANDI R21,$F9
00106E  9F2F    	MUL R18,ZH
00106F  AB70    	STD Z+48,R23
001070  8E72    	STD Z+26,R7
001071  65EB    	ORI ZL,$5B
001072  7661    	ANDI R22,$61
001073  275C    	EOR R21,YL
001074  849E    	LDD R9,Y+14
001075  7F59    	ANDI R21,$F9
001076  9F2F    	MUL R18,ZH
001077  AB70    	STD Z+48,R23
001078  8B72    	STD Z+18,R23
001079  62EA    	ORI ZL,$2A
00107A  7661    	ANDI R22,$61
00107B  2659    	EOR R5,R25
00107C  849B    	LDD R9,Y+11
00107D  7F59    	ANDI R21,$F9
00107E  9F2F    	MUL R18,ZH
00107F  AB70    	STD Z+48,R23
001080  8A74    	STD Z+20,R7
001081  5EE8    	SUBI ZL,$E8
001082  7763    	ANDI R22,$73
001083  2558    	EOR R21,R8
001084  8598    	LDD R25,Y+8
001085  7F59    	ANDI R21,$F9
001086  9F2F    	MUL R18,ZH
001087  AB70    	STD Z+48,R23
001088  8A77    	STD Z+23,R7
001089  5BE6    	SUBI ZL,$B6
00108A  7966    	ANDI R22,$96
00108B  2258    	AND R5,R24
00108C  8795    	STD Z+13,R25
00108D  7F59    	ANDI R21,$F9
00108E  9F2F    	MUL R18,ZH
00108F  AB70    	STD Z+48,R23
001090  8B7A    	STD Y+18,R23
001091  58E2    	SUBI ZL,$82
001092  7B69    	ANDI R22,$B9
001093  1F58    	ADC R21,R24
001094  8993    	LDD R25,Z+19
001095  7F59    	ANDI R21,$F9
001096  9F2F    	MUL R18,ZH
001097  AB70    	STD Z+48,R23
001098  8B7A    	STD Y+18,R23
001099  58E2    	SUBI ZL,$82
00109A  7B69    	ANDI R22,$B9
00109B  1F58    	ADC R21,R24
00109C  8993    	LDD R25,Z+19
00109D  7F59    	ANDI R21,$F9
00109E  9F2F    	MUL R18,ZH
00109F  AB70    	STD Z+48,R23
0010A0  8D7C    	LDD R23,Y+28
0010A1  56DF    	SUBI YH,$6F
0010A2  7D6B    	ANDI R22,$DB
0010A3  1B5A    	SUB R21,XL
0010A4  8B91    	STD Z+17,R25
0010A5  7F59    	ANDI R21,$F9
0010A6  9F2F    	MUL R18,ZH
0010A7  AB70    	STD Z+48,R23
0010A8  9281    	ST Z+,R8
0010A9  56D8    	SUBI YH,$68
0010AA  8370    	ST Z,R23
0010AB  145F    	CP R5,R15
0010AC  918F    	POP R24
0010AD  7F59    	ANDI R21,$F9
0010AE  9F2F    	MUL R18,ZH
0010AF  AB70    	STD Z+48,R23
0010B0  9683    	ADIW R25:R24,35
0010B1  57D5    	SUBI YH,$75
0010B2  8672    	STD Z+10,R7
0010B3  1263    	CPSE R6,R19
0010B4  9490    	COM R9
0010B5  7F59    	ANDI R21,$F9
0010B6  9F2F    	MUL R18,ZH
0010B7  AB70    	STD Z+48,R23
0010B8  9A84    	SBI PIND,PIND4
0010B9  59D4    	SUBI YH,$94
0010BA  8873    	LDD R7,Z+19
0010BB  1067    	CPSE R6,R7
0010BC  9692    	ADIW XH:XL,34
0010BD  7F59    	ANDI R21,$F9
0010BE  9F2F    	MUL R18,ZH
0010BF  AB70    	STD Z+48,R23
0010C0  9D84    	MUL R24,R4
0010C1  5CD3    	SUBI YH,$C3
0010C2  8873    	LDD R7,Z+19
0010C3  0F6B    	ADD R22,XH
0010C4  9695    	ADIW XH:XL,37
0010C5  7F59    	ANDI R21,$F9
0010C6  9F2F    	MUL R18,ZH
0010C7  AB70    	STD Z+48,R23
0010C8  A084    	LDD R8,Z+36
0010C9  5FD4    	SUBI YH,$F4
0010CA  8873    	LDD R7,Z+19
0010CB  106E    	CPSE R6,R14
0010CC  9698    	ADIW XH:XL,40
0010CD  7F59    	ANDI R21,$F9
0010CE  9F2F    	MUL R18,ZH
0010CF  AB70    	STD Z+48,R23
0010D0  A183    	LDD R24,Z+35
0010D1  62D5    	ORI YH,$25
0010D2  8672    	STD Z+10,R7
0010D3  126F    	CPSE R6,ZH
0010D4  949C    	JMP $127F59
0010D5  7F59
0010D6  9F2F    	MUL R18,ZH
0010D7  AB70    	STD Z+48,R23
0010D8  A181    	LDD R24,Z+33
0010D9  65D8    	ORI YH,$58
0010DA  8370    	ST Z,R23
0010DB  146F    	CP R6,R15
0010DC  919F    	POP R25
0010DD  7F59    	ANDI R21,$F9
0010DE  9F2F    	MUL R18,ZH
0010DF  AB70    	STD Z+48,R23
0010E0  A17F    	LDD R23,Y+39
0010E1  67DB    	ORI YH,$7B
0010E2  806E    	LDD R6,Y+6
0010E3  186E    	SUB R6,R14
0010E4  8EA2    	STD Z+26,R10
0010E5  7F59    	ANDI R21,$F9
0010E6  9F2F    	MUL R18,ZH
0010E7  AB70    	STD Z+48,R23
0010E8  9F7D    	MUL R23,YH
0010E9  69DF    	ORI YH,$9F
0010EA  7E6C    	ANDI R22,$EC
0010EB  1B6C    	SUB R22,YL
0010EC  8CA4    	LDD R10,Z+28
0010ED  7F59    	ANDI R21,$F9
0010EE  9F2F    	MUL R18,ZH
0010EF  AB70    	STD Z+48,R23
0010F0  9D7A    	MUL R23,R10
0010F1  6AE2    	ORI ZL,$A2
0010F2  7B69    	ANDI R22,$B9
0010F3  1F6A    	ADC R22,XL
0010F4  89A4    	LDD XL,Z+20
0010F5  7F59    	ANDI R21,$F9
0010F6  9F2F    	MUL R18,ZH
0010F7  AB70    	STD Z+48,R23
0010F8  9A77    	SBI SPSR,SPIF
0010F9  6BE6    	ORI ZL,$B6
0010FA  7966    	ANDI R22,$96
0010FB  2267    	AND R6,R23
0010FC  87A4    	STD Z+12,XL
0010FD  7F59    	ANDI R21,$F9
0010FE  9F2F    	MUL R18,ZH
0010FF  AB70    	STD Z+48,R23
001100  9674    	ADIW ZH:ZL,20
001101  6AE8    	ORI ZL,$A8
001102  7763    	ANDI R22,$73
001103  2563    	EOR R22,R3
001104  85A3    	LDD XL,Z+11
001105  7F59    	ANDI R21,$F9
001106  9F2F    	MUL R18,ZH
001107  AB70    	STD Z+48,R23
001108  9272    	ST -Z,R7
001109  68EA    	ORI ZL,$8A
00110A  7661    	ANDI R22,$61
00110B  265F    	EOR R5,ZH
00110C  84A1    	LDD R10,Z+9
00110D  7F59    	ANDI R21,$F9
00110E  9F2F    	MUL R18,ZH
00110F  AB70    	STD Z+48,R23
001110  8E72    	STD Z+26,R7
001111  65EB    	ORI ZL,$5B
001112  7661    	ANDI R22,$61
001113  275C    	EOR R21,YL
001114  849E    	LDD R9,Y+14
001115  7F59    	ANDI R21,$F9
001116  9F2F    	MUL R18,ZH
001117  AB70    	STD Z+48,R23
001118  8B72    	STD Z+18,R23
001119  62EA    	ORI ZL,$2A
00111A  7661    	ANDI R22,$61
00111B  2659    	EOR R5,R25
00111C  849B    	LDD R9,Y+11
00111D  7F59    	ANDI R21,$F9
00111E  9F2F    	MUL R18,ZH
00111F  AB70    	STD Z+48,R23
001120  8A74    	STD Z+20,R7
001121  5EE8    	SUBI ZL,$E8
001122  7763    	ANDI R22,$73
001123  2558    	EOR R21,R8
001124  8598    	LDD R25,Y+8
001125  7F59    	ANDI R21,$F9
001126  9F2F    	MUL R18,ZH
001127  AB70    	STD Z+48,R23
001128  8A77    	STD Z+23,R7
001129  5BE6    	SUBI ZL,$B6
00112A  7966    	ANDI R22,$96
00112B  2258    	AND R5,R24
00112C  8795    	STD Z+13,R25
00112D  7F59    	ANDI R21,$F9
00112E  9F2F    	MUL R18,ZH
00112F  AB70    	STD Z+48,R23
001130  8B7A    	STD Y+18,R23
001131  58E2    	SUBI ZL,$82
001132  7B69    	ANDI R22,$B9
001133  1F58    	ADC R21,R24
001134  8993    	LDD R25,Z+19
001135  7F59    	ANDI R21,$F9
001136  9F2F    	MUL R18,ZH
001137  AB70    	STD Z+48,R23
001138  8B7A    	STD Y+18,R23
001139  58E2    	SUBI ZL,$82
00113A  7B69    	ANDI R22,$B9
00113B  1F58    	ADC R21,R24
00113C  8993    	LDD R25,Z+19
00113D  7F59    	ANDI R21,$F9
00113E  9F2F    	MUL R18,ZH
00113F  AB70    	STD Z+48,R23
001140  B37D    	IN R23,EEDR
001141  58C7    	SUBI YL,$87
001142  7E6C    	ANDI R22,$EC
001143  3148    	CPI R20,$18
001144  8DA3    	LDD XL,Z+27
001145  7F59    	ANDI R21,$F9
001146  9F2F    	MUL R18,ZH
001147  AB70    	STD Z+48,R23
001148  0202    	MULS R16,R18
001149  0202    	MULS R16,R18
00114A  0202    	MULS R16,R18
00114B  0202    	MULS R16,R18
00114C  0202    	MULS R16,R18
00114D  0202    	MULS R16,R18
00114E  0202    	MULS R16,R18
00114F  0202    	MULS R16,R18
001150  0000    	NOP
001151  0000    	NOP
001152  0000    	NOP
001153  0000    	NOP
001154  0000    	NOP
001155  0000    	NOP
001156  0000    	NOP
001157  0000    	NOP
001158  0303    	MULSU R16,R19
001159  0303    	MULSU R16,R19
00115A  0303    	MULSU R16,R19
00115B  0303    	MULSU R16,R19
00115C  0303    	MULSU R16,R19
00115D  0303    	MULSU R16,R19
00115E  0303    	MULSU R16,R19
00115F  0303    	MULSU R16,R19
001160  0202    	MULS R16,R18
001161  0202    	MULS R16,R18
001162  0202    	MULS R16,R18
001163  0202    	MULS R16,R18
001164  0202    	MULS R16,R18
001165  0202    	MULS R16,R18
001166  0202    	MULS R16,R18
001167  0202    	MULS R16,R18
001168  0202    	MULS R16,R18
001169  0202    	MULS R16,R18
00116A  0202    	MULS R16,R18
00116B  0202    	MULS R16,R18
00116C  0202    	MULS R16,R18
00116D  0202    	MULS R16,R18
00116E  0202    	MULS R16,R18
00116F  0202    	MULS R16,R18
001170  0101    	MOVW R1:R0,R3:R2
001171  0101    	MOVW R1:R0,R3:R2
001172  0101    	MOVW R1:R0,R3:R2
001173  0101    	MOVW R1:R0,R3:R2
001174  0101    	MOVW R1:R0,R3:R2
001175  0101    	MOVW R1:R0,R3:R2
001176  0101    	MOVW R1:R0,R3:R2
001177  0101    	MOVW R1:R0,R3:R2
001178  0000    	NOP
001179  0000    	NOP
00117A  0000    	NOP
00117B  0000    	NOP
00117C  0000    	NOP
00117D  0000    	NOP
00117E  0000    	NOP
00117F  0000    	NOP
001180  0000    	NOP
001181  0000    	NOP
001182  0000    	NOP
001183  0000    	NOP
001184  0000    	NOP
001185  0000    	NOP
001186  0000    	NOP
001187  0000    	NOP
001188  0101    	MOVW R1:R0,R3:R2
001189  0101    	MOVW R1:R0,R3:R2
00118A  0101    	MOVW R1:R0,R3:R2
00118B  0101    	MOVW R1:R0,R3:R2
00118C  0101    	MOVW R1:R0,R3:R2
00118D  0101    	MOVW R1:R0,R3:R2
00118E  0101    	MOVW R1:R0,R3:R2
00118F  0101    	MOVW R1:R0,R3:R2
001190  0101    	MOVW R1:R0,R3:R2
001191  0101    	MOVW R1:R0,R3:R2
001192  0101    	MOVW R1:R0,R3:R2
001193  0101    	MOVW R1:R0,R3:R2
001194  0101    	MOVW R1:R0,R3:R2
001195  0101    L150:	MOVW R1:R0,R3:R2
001196  0101    	MOVW R1:R0,R3:R2
001197  0101    	MOVW R1:R0,R3:R2
001198  0202    	MULS R16,R18
001199  0202    	MULS R16,R18
00119A  0202    	MULS R16,R18
00119B  0202    	MULS R16,R18
00119C  0202    	MULS R16,R18
00119D  0202    	MULS R16,R18
00119E  0202    	MULS R16,R18
00119F  0202    	MULS R16,R18
0011A0  0303    	MULSU R16,R19
0011A1  0303    	MULSU R16,R19
0011A2  0303    	MULSU R16,R19
0011A3  0303    	MULSU R16,R19
0011A4  0303    	MULSU R16,R19
0011A5  0303    	MULSU R16,R19
0011A6  0303    	MULSU R16,R19
0011A7  0303    	MULSU R16,R19
0011A8  0303    	MULSU R16,R19
0011A9  0303    	MULSU R16,R19
0011AA  0303    	MULSU R16,R19
0011AB  0303    	MULSU R16,R19
0011AC  0303    	MULSU R16,R19
0011AD  0303    	MULSU R16,R19
0011AE  0303    	MULSU R16,R19
0011AF  0303    	MULSU R16,R19
0011B0  0202    	MULS R16,R18
0011B1  0202    	MULS R16,R18
0011B2  0202    	MULS R16,R18
0011B3  0202    	MULS R16,R18
0011B4  0202    	MULS R16,R18
0011B5  0202    	MULS R16,R18
0011B6  0202    	MULS R16,R18
0011B7  0202    	MULS R16,R18
0011B8  0202    	MULS R16,R18
0011B9  0202    	MULS R16,R18
0011BA  0202    	MULS R16,R18
0011BB  0202    	MULS R16,R18
0011BC  0202    	MULS R16,R18
0011BD  0202    	MULS R16,R18
0011BE  0202    	MULS R16,R18
0011BF  0202    	MULS R16,R18
0011C0  0101    	MOVW R1:R0,R3:R2
0011C1  0101    	MOVW R1:R0,R3:R2
0011C2  0101    	MOVW R1:R0,R3:R2
0011C3  0101    	MOVW R1:R0,R3:R2
0011C4  0101    	MOVW R1:R0,R3:R2
0011C5  0101    	MOVW R1:R0,R3:R2
0011C6  0101    	MOVW R1:R0,R3:R2
0011C7  0101    	MOVW R1:R0,R3:R2
0011C8  0000    	NOP
0011C9  0000    	NOP
0011CA  0000    	NOP
0011CB  0000    	NOP
0011CC  0000    	NOP
0011CD  0000    	NOP
0011CE  0000    	NOP
0011CF  0000    	NOP
0011D0  0000    	NOP
0011D1  0000    	NOP
0011D2  0000    	NOP
0011D3  0000    	NOP
0011D4  0000    	NOP
0011D5  0000    	NOP
0011D6  0000    	NOP
0011D7  0000    	NOP
0011D8  0101    	MOVW R1:R0,R3:R2
0011D9  0101    	MOVW R1:R0,R3:R2
0011DA  0101    	MOVW R1:R0,R3:R2
0011DB  0101    	MOVW R1:R0,R3:R2
0011DC  0101    	MOVW R1:R0,R3:R2
0011DD  0101    L166:	MOVW R1:R0,R3:R2
0011DE  0101    	MOVW R1:R0,R3:R2
0011DF  0101    	MOVW R1:R0,R3:R2
0011E0  0101    	MOVW R1:R0,R3:R2
0011E1  0101    	MOVW R1:R0,R3:R2
0011E2  0101    	MOVW R1:R0,R3:R2
0011E3  0101    	MOVW R1:R0,R3:R2
0011E4  0101    	MOVW R1:R0,R3:R2
0011E5  0101    	MOVW R1:R0,R3:R2
0011E6  0101    	MOVW R1:R0,R3:R2
0011E7  0101    	MOVW R1:R0,R3:R2
0011E8  0202    	MULS R16,R18
0011E9  0202    	MULS R16,R18
0011EA  0202    	MULS R16,R18
0011EB  0202    	MULS R16,R18
0011EC  0202    	MULS R16,R18
0011ED  0202    	MULS R16,R18
0011EE  0202    	MULS R16,R18
0011EF  0202    	MULS R16,R18
0011F0  0000    	NOP
0011F1  0000    	NOP
0011F2  0000    	NOP
0011F3  0000    	NOP
0011F4  0000    	NOP
0011F5  0000    	NOP
0011F6  0000    	NOP
0011F7  0000    	NOP
0011F8  0303    	MULSU R16,R19
0011F9  0303    	MULSU R16,R19
0011FA  0303    	MULSU R16,R19
0011FB  0303    	MULSU R16,R19
0011FC  0303    	MULSU R16,R19
0011FD  0303    	MULSU R16,R19
0011FE  0303    	MULSU R16,R19
0011FF  0303    	MULSU R16,R19
001200  0202    	MULS R16,R18
001201  0202    	MULS R16,R18
001202  0202    	MULS R16,R18
001203  0202    	MULS R16,R18
001204  0202    	MULS R16,R18
001205  0202    	MULS R16,R18
001206  0202    	MULS R16,R18
001207  0202    	MULS R16,R18
001208  0202    	MULS R16,R18
001209  0202    	MULS R16,R18
00120A  0202    	MULS R16,R18
00120B  0202    	MULS R16,R18
00120C  0202    	MULS R16,R18
00120D  0202    	MULS R16,R18
00120E  0202    	MULS R16,R18
00120F  0202    	MULS R16,R18
001210  0101    	MOVW R1:R0,R3:R2
001211  0101    	MOVW R1:R0,R3:R2
001212  0101    	MOVW R1:R0,R3:R2
001213  0101    	MOVW R1:R0,R3:R2
001214  0101    	MOVW R1:R0,R3:R2
001215  0101    	MOVW R1:R0,R3:R2
001216  0101    	MOVW R1:R0,R3:R2
001217  0101    	MOVW R1:R0,R3:R2
001218  0000    	NOP
001219  0000    	NOP
00121A  0000    	NOP
00121B  0000    	NOP
00121C  0000    	NOP
00121D  0000    L174:	NOP
00121E  0000    	NOP
00121F  0000    	NOP
001220  0000    	NOP
001221  0000    	NOP
001222  0000    	NOP
001223  0000    	NOP
001224  0000    	NOP
001225  0000    	NOP
001226  0000    	NOP
001227  0000    	NOP
001228  0101    	MOVW R1:R0,R3:R2
001229  0101    	MOVW R1:R0,R3:R2
00122A  0101    	MOVW R1:R0,R3:R2
00122B  0101    	MOVW R1:R0,R3:R2
00122C  0101    	MOVW R1:R0,R3:R2
00122D  0101    	MOVW R1:R0,R3:R2
00122E  0101    	MOVW R1:R0,R3:R2
00122F  0101    	MOVW R1:R0,R3:R2
001230  0101    	MOVW R1:R0,R3:R2
001231  0101    	MOVW R1:R0,R3:R2
001232  0101    	MOVW R1:R0,R3:R2
001233  0101    	MOVW R1:R0,R3:R2
001234  0101    	MOVW R1:R0,R3:R2
001235  0101    	MOVW R1:R0,R3:R2
001236  0101    	MOVW R1:R0,R3:R2
001237  0101    	MOVW R1:R0,R3:R2
001238  0202    	MULS R16,R18
001239  0202    	MULS R16,R18
00123A  0202    	MULS R16,R18
00123B  0202    	MULS R16,R18
00123C  0202    	MULS R16,R18
00123D  0202    	MULS R16,R18
00123E  0202    	MULS R16,R18
00123F  0202    	MULS R16,R18
001240  0303    	MULSU R16,R19
001241  0303    	MULSU R16,R19
001242  0303    	MULSU R16,R19
001243  0303    	MULSU R16,R19
001244  0303    	MULSU R16,R19
001245  0303    	MULSU R16,R19
001246  0303    	MULSU R16,R19
001247  0303    	MULSU R16,R19
001248  0303    	MULSU R16,R19
001249  0303    	MULSU R16,R19
00124A  0303    	MULSU R16,R19
00124B  0303    	MULSU R16,R19
00124C  0303    	MULSU R16,R19
00124D  0303    	MULSU R16,R19
00124E  0303    	MULSU R16,R19
00124F  0303    	MULSU R16,R19
001250  0202    	MULS R16,R18
001251  0202    	MULS R16,R18
001252  0202    	MULS R16,R18
001253  0202    	MULS R16,R18
001254  0202    	MULS R16,R18
001255  0202    	MULS R16,R18
001256  0202    	MULS R16,R18
001257  0202    	MULS R16,R18
001258  0202    	MULS R16,R18
001259  0202    	MULS R16,R18
00125A  0202    	MULS R16,R18
00125B  0202    	MULS R16,R18
00125C  0202    	MULS R16,R18
00125D  0202    	MULS R16,R18
00125E  0202    	MULS R16,R18
00125F  0202    	MULS R16,R18
001260  0101    	MOVW R1:R0,R3:R2
001261  0101    	MOVW R1:R0,R3:R2
001262  0101    	MOVW R1:R0,R3:R2
001263  0101    	MOVW R1:R0,R3:R2
001264  0101    	MOVW R1:R0,R3:R2
001265  0101    L190:	MOVW R1:R0,R3:R2
001266  0101    	MOVW R1:R0,R3:R2
001267  0101    	MOVW R1:R0,R3:R2
001268  0000    	NOP
001269  0000    	NOP
00126A  0000    	NOP
00126B  0000    	NOP
00126C  0000    	NOP
00126D  0000    	NOP
00126E  0000    	NOP
00126F  0000    	NOP
001270  0000    	NOP
001271  0000    	NOP
001272  0000    	NOP
001273  0000    	NOP
001274  0000    	NOP
001275  0000    	NOP
001276  0000    	NOP
001277  0000    	NOP
001278  0101    	MOVW R1:R0,R3:R2
001279  0101    	MOVW R1:R0,R3:R2
00127A  0101    	MOVW R1:R0,R3:R2
00127B  0101    	MOVW R1:R0,R3:R2
00127C  0101    	MOVW R1:R0,R3:R2
00127D  0101    	MOVW R1:R0,R3:R2
00127E  0101    L147:	MOVW R1:R0,R3:R2
00127F  0101    	MOVW R1:R0,R3:R2
001280  0101    	MOVW R1:R0,R3:R2
001281  0101    	MOVW R1:R0,R3:R2
001282  0101    	MOVW R1:R0,R3:R2
001283  0101    	MOVW R1:R0,R3:R2
001284  0101    	MOVW R1:R0,R3:R2
001285  0101    	MOVW R1:R0,R3:R2
001286  0101    L148:	MOVW R1:R0,R3:R2
001287  0101    	MOVW R1:R0,R3:R2
001288  0202    	MULS R16,R18
001289  0202    	MULS R16,R18
00128A  0202    	MULS R16,R18
00128B  0202    	MULS R16,R18
00128C  0202    	MULS R16,R18
00128D  0202    	MULS R16,R18
00128E  0202    L149:	MULS R16,R18
00128F  0202    	MULS R16,R18
001290  0303    	MULSU R16,R19
001291  0303    	MULSU R16,R19
001292  0303    	MULSU R16,R19
001293  0303    	MULSU R16,R19
001294  0303    	MULSU R16,R19
001295  0303    	MULSU R16,R19
001296  0303    	MULSU R16,R19
001297  0303    	MULSU R16,R19
001298  0000    	NOP
001299  0000    	NOP
00129A  0000    	NOP
00129B  0000    	NOP
00129C  0000    	NOP
00129D  0000    	NOP
00129E  0000    	NOP
00129F  0000    	NOP
0012A0  0000    	NOP
0012A1  0000    	NOP
0012A2  0000    	NOP
0012A3  0000    	NOP
0012A4  0000    	NOP
0012A5  0000    L198:	NOP
0012A6  0000    	NOP
0012A7  0000    	NOP
0012A8  0303    	MULSU R16,R19
0012A9  0303    	MULSU R16,R19
0012AA  0303    	MULSU R16,R19
0012AB  0303    	MULSU R16,R19
0012AC  0303    	MULSU R16,R19
0012AD  0303    L199:	MULSU R16,R19
0012AE  0303    	MULSU R16,R19
0012AF  0303    	MULSU R16,R19
0012B0  0202    	MULS R16,R18
0012B1  0202    	MULS R16,R18
0012B2  0202    	MULS R16,R18
0012B3  0202    	MULS R16,R18
0012B4  0202    	MULS R16,R18
0012B5  0202    	MULS R16,R18
0012B6  0202    	MULS R16,R18
0012B7  0202    	MULS R16,R18
0012B8  0202    	MULS R16,R18
0012B9  0202    	MULS R16,R18
0012BA  0202    	MULS R16,R18
0012BB  0202    	MULS R16,R18
0012BC  0202    	MULS R16,R18
0012BD  0202    	MULS R16,R18
0012BE  0202    	MULS R16,R18
0012BF  0202    	MULS R16,R18
0012C0  0101    	MOVW R1:R0,R3:R2
0012C1  0101    	MOVW R1:R0,R3:R2
0012C2  0101    	MOVW R1:R0,R3:R2
0012C3  0101    	MOVW R1:R0,R3:R2
0012C4  0101    L141:	MOVW R1:R0,R3:R2
0012C5  0101    	MOVW R1:R0,R3:R2
0012C6  0101    	MOVW R1:R0,R3:R2
0012C7  0101    	MOVW R1:R0,R3:R2
0012C8  0000    	NOP
0012C9  0000    	NOP
0012CA  0000    	NOP
0012CB  0000    	NOP
0012CC  0000    L143:	NOP
0012CD  0000    	NOP
0012CE  0000    	NOP
0012CF  0000    	NOP
0012D0  0000    	NOP
0012D1  0000    	NOP
0012D2  0000    	NOP
0012D3  0000    	NOP
0012D4  0000    L145:	NOP
0012D5  0000    	NOP
0012D6  0000    	NOP
0012D7  0000    	NOP
0012D8  0101    	MOVW R1:R0,R3:R2
0012D9  0101    	MOVW R1:R0,R3:R2
0012DA  0101    	MOVW R1:R0,R3:R2
0012DB  0101    	MOVW R1:R0,R3:R2
0012DC  0101    	MOVW R1:R0,R3:R2
0012DD  0101    	MOVW R1:R0,R3:R2
0012DE  0101    	MOVW R1:R0,R3:R2
0012DF  0101    	MOVW R1:R0,R3:R2
0012E0  0101    	MOVW R1:R0,R3:R2
0012E1  0101    	MOVW R1:R0,R3:R2
0012E2  0101    	MOVW R1:R0,R3:R2
0012E3  0101    	MOVW R1:R0,R3:R2
0012E4  0101    	MOVW R1:R0,R3:R2
0012E5  0101    	MOVW R1:R0,R3:R2
0012E6  0101    L167:	MOVW R1:R0,R3:R2
0012E7  0101    	MOVW R1:R0,R3:R2
0012E8  0202    	MULS R16,R18
0012E9  0202    	MULS R16,R18
0012EA  0202    	MULS R16,R18
0012EB  0202    	MULS R16,R18
0012EC  0202    	MULS R16,R18
0012ED  0202    	MULS R16,R18
0012EE  0202    L168:	MULS R16,R18
0012EF  0202    	MULS R16,R18
0012F0  0303    	MULSU R16,R19
0012F1  0303    	MULSU R16,R19
0012F2  0303    	MULSU R16,R19
0012F3  0303    	MULSU R16,R19
0012F4  0303    	MULSU R16,R19
0012F5  0303    	MULSU R16,R19
0012F6  0303    L169:	MULSU R16,R19
0012F7  0303    	MULSU R16,R19
0012F8  0303    	MULSU R16,R19
0012F9  0303    	MULSU R16,R19
0012FA  0303    	MULSU R16,R19
0012FB  0303    	MULSU R16,R19
0012FC  0303    	MULSU R16,R19
0012FD  0303    L170:	MULSU R16,R19
0012FE  0303    	MULSU R16,R19
0012FF  0303    	MULSU R16,R19
001300  0202    	MULS R16,R18
001301  0202    	MULS R16,R18
001302  0202    	MULS R16,R18
001303  0202    	MULS R16,R18
001304  0202    	MULS R16,R18
001305  0202    L171:	MULS R16,R18
001306  0202    	MULS R16,R18
001307  0202    	MULS R16,R18
001308  0202    	MULS R16,R18
001309  0202    	MULS R16,R18
00130A  0202    	MULS R16,R18
00130B  0202    	MULS R16,R18
00130C  0202    	MULS R16,R18
00130D  0202    	MULS R16,R18
00130E  0202    L172:	MULS R16,R18
00130F  0202    	MULS R16,R18
001310  0001    	UNRECOGNIZED
001311  0000    	NOP
001312  0000    	NOP
001313  0000    	NOP
001314  0000    	NOP
001315  0000    	NOP
001316  0000    L173:	NOP
001317  0000    	NOP
001318  0000    	NOP
001319  0000    	NOP
00131A  0000    	NOP
00131B  0000    	NOP
00131C  0000    	NOP
00131D  0000    	NOP
00131E  0000    	NOP
00131F  0000    	NOP
001320  0000    	NOP
001321  0000    	NOP
001322  0000    	NOP
001323  0000    	NOP
001324  0000    	NOP
001325  0000    	NOP
001326  0000    	NOP
001327  0000    	NOP
001328  0101    	MOVW R1:R0,R3:R2
001329  0101    	MOVW R1:R0,R3:R2
00132A  0101    	MOVW R1:R0,R3:R2
00132B  0101    	MOVW R1:R0,R3:R2
00132C  0101    	MOVW R1:R0,R3:R2
00132D  0101    	MOVW R1:R0,R3:R2
00132E  0101    	MOVW R1:R0,R3:R2
00132F  0101    	MOVW R1:R0,R3:R2
001330  0101    	MOVW R1:R0,R3:R2
001331  0101    	MOVW R1:R0,R3:R2
001332  0101    	MOVW R1:R0,R3:R2
001333  0101    	MOVW R1:R0,R3:R2
001334  0101    	MOVW R1:R0,R3:R2
001335  0101    	MOVW R1:R0,R3:R2
001336  0101    	MOVW R1:R0,R3:R2
001337  0101    	MOVW R1:R0,R3:R2
001338  0202    	MULS R16,R18
001339  0202    	MULS R16,R18
00133A  0202    	MULS R16,R18
00133B  0202    	MULS R16,R18
00133C  0202    	MULS R16,R18
00133D  0202    	MULS R16,R18
00133E  0202    	MULS R16,R18
00133F  0202    	MULS R16,R18
001340  0000    	NOP
001341  0000    	NOP
001342  0000    	NOP
001343  0000    	NOP
001344  0000    	NOP
001345  0000    	NOP
001346  0000    	NOP
001347  0000    	NOP
001348  0303    	MULSU R16,R19
001349  0303    	MULSU R16,R19
00134A  0303    	MULSU R16,R19
00134B  0303    	MULSU R16,R19
00134C  0303    	MULSU R16,R19
00134D  0303    	MULSU R16,R19
00134E  0303    	MULSU R16,R19
00134F  0303    	MULSU R16,R19
001350  0202    	MULS R16,R18
001351  0202    	MULS R16,R18
001352  0202    	MULS R16,R18
001353  0202    	MULS R16,R18
001354  0202    	MULS R16,R18
001355  0202    	MULS R16,R18
001356  0202    	MULS R16,R18
001357  0202    	MULS R16,R18
001358  0202    	MULS R16,R18
001359  0202    	MULS R16,R18
00135A  0202    	MULS R16,R18
00135B  0202    	MULS R16,R18
00135C  0202    	MULS R16,R18
00135D  0202    	MULS R16,R18
00135E  0202    	MULS R16,R18
00135F  0202    	MULS R16,R18
001360  0101    	MOVW R1:R0,R3:R2
001361  0101    	MOVW R1:R0,R3:R2
001362  0101    	MOVW R1:R0,R3:R2
001363  0101    	MOVW R1:R0,R3:R2
001364  0101    	MOVW R1:R0,R3:R2
001365  0101    	MOVW R1:R0,R3:R2
001366  0101    	MOVW R1:R0,R3:R2
001367  0101    	MOVW R1:R0,R3:R2
001368  0000    	NOP
001369  0000    	NOP
00136A  0000    	NOP
00136B  0000    	NOP
00136C  0000    	NOP
00136D  0000    	NOP
00136E  0000    L191:	NOP
00136F  0000    	NOP
001370  0000    	NOP
001371  0000    	NOP
001372  0000    	NOP
001373  0000    	NOP
001374  0000    	NOP
001375  0000    	NOP
001376  0000    L192:	NOP
001377  0000    	NOP
001378  0101    	MOVW R1:R0,R3:R2
001379  0101    	MOVW R1:R0,R3:R2
00137A  0101    	MOVW R1:R0,R3:R2
00137B  0101    	MOVW R1:R0,R3:R2
00137C  0101    	MOVW R1:R0,R3:R2
00137D  0101    	MOVW R1:R0,R3:R2
00137E  0101    L193:	MOVW R1:R0,R3:R2
00137F  0101    	MOVW R1:R0,R3:R2
001380  0101    	MOVW R1:R0,R3:R2
001381  0101    	MOVW R1:R0,R3:R2
001382  0101    	MOVW R1:R0,R3:R2
001383  0101    	MOVW R1:R0,R3:R2
001384  0101    	MOVW R1:R0,R3:R2
001385  0101    L194:	MOVW R1:R0,R3:R2
001386  0101    	MOVW R1:R0,R3:R2
001387  0101    	MOVW R1:R0,R3:R2
001388  0202    	MULS R16,R18
001389  0202    	MULS R16,R18
00138A  0202    	MULS R16,R18
00138B  0202    	MULS R16,R18
00138C  0202    	MULS R16,R18
00138D  0202    L195:	MULS R16,R18
00138E  0202    	MULS R16,R18
00138F  0202    	MULS R16,R18
001390  0303    	MULSU R16,R19
001391  0303    	MULSU R16,R19
001392  0303    	MULSU R16,R19
001393  0303    	MULSU R16,R19
001394  0303    	MULSU R16,R19
001395  0303    	MULSU R16,R19
001396  0303    L196:	MULSU R16,R19
001397  0303    	MULSU R16,R19
001398  0303    	MULSU R16,R19
001399  0303    	MULSU R16,R19
00139A  0303    	MULSU R16,R19
00139B  0303    	MULSU R16,R19
00139C  0303    	MULSU R16,R19
00139D  0303    	MULSU R16,R19
00139E  0303    L197:	MULSU R16,R19
00139F  0303    	MULSU R16,R19
0013A0  0202    	MULS R16,R18
0013A1  0202    	MULS R16,R18
0013A2  0202    	MULS R16,R18
0013A3  0202    	MULS R16,R18
0013A4  0202    	MULS R16,R18
0013A5  0202    	MULS R16,R18
0013A6  0202    	MULS R16,R18
0013A7  0202    	MULS R16,R18
0013A8  0202    	MULS R16,R18
0013A9  0202    	MULS R16,R18
0013AA  0202    	MULS R16,R18
0013AB  0202    	MULS R16,R18
0013AC  0202    	MULS R16,R18
0013AD  0202    	MULS R16,R18
0013AE  0202    	MULS R16,R18
0013AF  0202    	MULS R16,R18
0013B0  0001    	UNRECOGNIZED
0013B1  0000    	NOP
0013B2  0000    	NOP
0013B3  0000    	NOP
0013B4  0000    	NOP
0013B5  0000    	NOP
0013B6  0000    	NOP
0013B7  0000    	NOP
0013B8  0000    	NOP
0013B9  0000    	NOP
0013BA  0000    	NOP
0013BB  0000    	NOP
0013BC  0000    	NOP
0013BD  0000    	NOP
0013BE  0000    	NOP
0013BF  0000    	NOP
0013C0  0000    	NOP
0013C1  0000    	NOP
0013C2  0000    	NOP
0013C3  0000    	NOP
0013C4  0000    	NOP
0013C5  0000    	NOP
0013C6  0000    	NOP
0013C7  0000    	NOP
0013C8  0101    	MOVW R1:R0,R3:R2
0013C9  0101    	MOVW R1:R0,R3:R2
0013CA  0101    	MOVW R1:R0,R3:R2
0013CB  0101    	MOVW R1:R0,R3:R2
0013CC  0101    	MOVW R1:R0,R3:R2
0013CD  0101    	MOVW R1:R0,R3:R2
0013CE  0101    	MOVW R1:R0,R3:R2
0013CF  0101    	MOVW R1:R0,R3:R2
0013D0  0101    	MOVW R1:R0,R3:R2
0013D1  0101    	MOVW R1:R0,R3:R2
0013D2  0101    	MOVW R1:R0,R3:R2
0013D3  0101    	MOVW R1:R0,R3:R2
0013D4  0101    	MOVW R1:R0,R3:R2
0013D5  0101    	MOVW R1:R0,R3:R2
0013D6  0101    	MOVW R1:R0,R3:R2
0013D7  0101    	MOVW R1:R0,R3:R2
0013D8  0202    	MULS R16,R18
0013D9  0202    	MULS R16,R18
0013DA  0202    	MULS R16,R18
0013DB  0202    	MULS R16,R18
0013DC  0202    	MULS R16,R18
0013DD  0202    	MULS R16,R18
0013DE  0202    	MULS R16,R18
0013DF  0202    	MULS R16,R18
0013E0  0000    	NOP
0013E1  0000    	NOP
0013E2  0000    	NOP
0013E3  0000    	NOP
0013E4  0000    	NOP
0013E5  0000    	NOP
0013E6  0000    	NOP
0013E7  0000    	NOP
0013E8  2828    	OR R2,R8
0013E9  2828    	OR R2,R8
0013EA  2828    	OR R2,R8
0013EB  2828    	OR R2,R8
0013EC  2828    	OR R2,R8
0013ED  2828    	OR R2,R8
0013EE  2828    	OR R2,R8
0013EF  2828    	OR R2,R8
0013F0  3C3C    	CPI R19,$CC
0013F1  3C3C    	CPI R19,$CC
0013F2  3C3C    	CPI R19,$CC
0013F3  3C3C    	CPI R19,$CC
0013F4  3C3C    	CPI R19,$CC
0013F5  3C3C    	CPI R19,$CC
0013F6  3C3C    	CPI R19,$CC
0013F7  3C3C    	CPI R19,$CC
0013F8  0000    	NOP
0013F9  0000    	NOP
0013FA  0000    	NOP
0013FB  0000    	NOP
0013FC  0000    	NOP
0013FD  0000    	NOP
0013FE  0000    	NOP
0013FF  0000    	NOP
001400  001E    	UNRECOGNIZED
001401  0001    	UNRECOGNIZED
001402  0001    	UNRECOGNIZED
001403  0001    	UNRECOGNIZED
001404  0001    	UNRECOGNIZED
001405  0001    	UNRECOGNIZED
001406  0001    	UNRECOGNIZED
001407  0001    	UNRECOGNIZED
001408  0001    	UNRECOGNIZED
001409  0001    	UNRECOGNIZED
00140A  0001    	UNRECOGNIZED
00140B  0001    	UNRECOGNIZED
00140C  0001    	UNRECOGNIZED
00140D  0001    	UNRECOGNIZED
00140E  0001    	UNRECOGNIZED
00140F  0001    	UNRECOGNIZED
001410  0001    	UNRECOGNIZED
001411  0001    	UNRECOGNIZED
001412  0001    	UNRECOGNIZED
001413  0001    	UNRECOGNIZED
001414  0001    L200:	UNRECOGNIZED
001415  0001    	UNRECOGNIZED
001416  0001    	UNRECOGNIZED
001417  0001    	UNRECOGNIZED
001418  0001    	UNRECOGNIZED
001419  0001    	UNRECOGNIZED
00141A  0001    	UNRECOGNIZED
00141B  0001    	UNRECOGNIZED
00141C  0001    	UNRECOGNIZED
00141D  0001    	UNRECOGNIZED
00141E  0001    	UNRECOGNIZED
00141F  0001    	UNRECOGNIZED
001420  0001    	UNRECOGNIZED
001421  0001    	UNRECOGNIZED
001422  0001    	UNRECOGNIZED
001423  0001    	UNRECOGNIZED
001424  0001    	UNRECOGNIZED
001425  0001    	UNRECOGNIZED
001426  0001    	UNRECOGNIZED
001427  0001    	UNRECOGNIZED
001428  0001    	UNRECOGNIZED
001429  000A    	UNRECOGNIZED
00142A  03E8    	FMULSU R22,R16
00142B  0019    	UNRECOGNIZED
00142C  0019    	UNRECOGNIZED
00142D  0019    	UNRECOGNIZED
00142E  0019    	UNRECOGNIZED
00142F  0019    	UNRECOGNIZED
001430  0019    	UNRECOGNIZED
001431  0019    	UNRECOGNIZED
001432  0019    	UNRECOGNIZED
001433  0019    	UNRECOGNIZED
001434  0019    	UNRECOGNIZED
001435  0019    	UNRECOGNIZED
001436  0019    	UNRECOGNIZED
001437  0019    	UNRECOGNIZED
001438  0019    	UNRECOGNIZED
001439  0019    	UNRECOGNIZED
00143A  0019    	UNRECOGNIZED
00143B  0019    	UNRECOGNIZED
00143C  0019    	UNRECOGNIZED
00143D  0019    	UNRECOGNIZED
00143E  0019    	UNRECOGNIZED
00143F  0019    	UNRECOGNIZED
001440  0019    	UNRECOGNIZED
001441  0019    	UNRECOGNIZED
001442  0019    	UNRECOGNIZED
001443  0019    	UNRECOGNIZED
001444  0019    	UNRECOGNIZED
001445  0019    	UNRECOGNIZED
001446  0019    	UNRECOGNIZED
001447  0019    	UNRECOGNIZED
001448  0019    	UNRECOGNIZED
001449  0019    	UNRECOGNIZED
00144A  0019    	UNRECOGNIZED
00144B  0019    	UNRECOGNIZED
00144C  0019    	UNRECOGNIZED
00144D  0019    	UNRECOGNIZED
00144E  0019    	UNRECOGNIZED
00144F  0019    	UNRECOGNIZED
001450  0019    	UNRECOGNIZED
001451  0019    	UNRECOGNIZED
001452  0019    	UNRECOGNIZED
001453  01F4    	MOVW R31:R30,R9:R8
001454  B37D    	IN R23,EEDR
001455  58C7    	SUBI YL,$87
001456  7E6C    	ANDI R22,$EC
001457  3148    	CPI R20,$18
001458  8DA3    	LDD XL,Z+27
001459  7F59    	ANDI R21,$F9
00145A  9F2F    	MUL R18,ZH
00145B  AB70    	STD Z+48,R23
00145C  B37D    	IN R23,EEDR
00145D  58C7    	SUBI YL,$87
00145E  7E6C    	ANDI R22,$EC
00145F  3148    	CPI R20,$18
001460  8DA3    	LDD XL,Z+27
001461  7F59    	ANDI R21,$F9
001462  9F2F    	MUL R18,ZH
001463  AB70    	STD Z+48,R23
001464  8D7D    	LDD R23,Y+29
001465  5ADF    	SUBI YH,$AF
001466  7E6C    	ANDI R22,$EC
001467  1B5A    	SUB R21,XL
001468  8C8D    	LDD R8,Y+29
001469  7F59    	ANDI R21,$F9
00146A  9F2F    	MUL R18,ZH
00146B  AB70    	STD Z+48,R23
00146C  8A77    	STD Z+23,R7
00146D  5EE6    	SUBI ZL,$E6
00146E  7966    	ANDI R22,$96
00146F  2258    	AND R5,R24
001470  8792    	STD Z+10,R25
001471  7F59    	ANDI R21,$F9
001472  9F2F    	MUL R18,ZH
001473  AB70    	STD Z+48,R23
001474  8A74    	STD Z+20,R7
001475  61E8    	ORI ZL,$18
001476  7763    	ANDI R22,$73
001477  2558    	EOR R21,R8
001478  8595    	LDD R25,Z+13
001479  7F59    	ANDI R21,$F9
00147A  9F2F    	MUL R18,ZH
00147B  AB70    	STD Z+48,R23
00147C  8B72    	STD Z+18,R23
00147D  64EA    	ORI ZL,$4A
00147E  7661    	ANDI R22,$61
00147F  2659    	EOR R5,R25
001480  8498    	LDD R9,Y+8
001481  7F59    	ANDI R21,$F9
001482  9F2F    	MUL R18,ZH
001483  AB70    	STD Z+48,R23
001484  8E72    	STD Z+26,R7
001485  67EB    	ORI ZL,$7B
001486  7661    	ANDI R22,$61
001487  275C    	EOR R21,YL
001488  849C    	LDD R9,Y+12
001489  7F59    	ANDI R21,$F9
00148A  9F2F    	MUL R18,ZH
00148B  AB70    	STD Z+48,R23
00148C  9272    	ST -Z,R7
00148D  6BEA    	ORI ZL,$BA
00148E  7661    	ANDI R22,$61
00148F  265F    	EOR R5,ZH
001490  849E    	LDD R9,Y+14
001491  7F59    	ANDI R21,$F9
001492  9F2F    	MUL R18,ZH
001493  AB70    	STD Z+48,R23
001494  9674    	ADIW ZH:ZL,20
001495  6DE8    	ORI ZL,$D8
001496  7763    	ANDI R22,$73
001497  2563    	EOR R22,R3
001498  85A0    	LDD XL,Z+8
001499  7F59    	ANDI R21,$F9
00149A  9F2F    	MUL R18,ZH
00149B  AB70    	STD Z+48,R23
00149C  9A77    	SBI SPSR,SPIF
00149D  6EE6    	ORI ZL,$E6
00149E  7966    	ANDI R22,$96
00149F  2267    	AND R6,R23
0014A0  87A1    	STD Z+9,XL
0014A1  7F59    	ANDI R21,$F9
0014A2  9F2F    	MUL R18,ZH
0014A3  AB70    	STD Z+48,R23
0014A4  9D7A    	MUL R23,R10
0014A5  6EE2    	ORI ZL,$E2
0014A6  7B69    	ANDI R22,$B9
0014A7  1F6A    	ADC R22,XL
0014A8  89A1    	LDD XL,Z+17
0014A9  7F59    	ANDI R21,$F9
0014AA  9F2F    	MUL R18,ZH
0014AB  AB70    	STD Z+48,R23
0014AC  9F7C    	MUL R23,YL
0014AD  6DDF    L203:	ORI YH,$DF
0014AE  7D6B    	ANDI R22,$DB
0014AF  1B6C    	SUB R22,YL
0014B0  8BA0    	STD Z+16,XL
0014B1  7F59    	ANDI R21,$F9
0014B2  9F2F    	MUL R18,ZH
0014B3  AB70    	STD Z+48,R23
0014B4  A17F    	LDD R23,Y+39
0014B5  6BDB    	ORI YH,$BB
0014B6  806E    	LDD R6,Y+6
0014B7  186E    	SUB R6,R14
0014B8  8E9E    	STD Y+30,R9
0014B9  7F59    	ANDI R21,$F9
0014BA  9F2F    	MUL R18,ZH
0014BB  AB70    	STD Z+48,R23
0014BC  A181    	LDD R24,Z+33
0014BD  68D8    	ORI YH,$88
0014BE  8370    	ST Z,R23
0014BF  146F    	CP R6,R15
0014C0  919C    	LD R25,X
0014C1  7F59    	ANDI R21,$F9
0014C2  9F2F    	MUL R18,ZH
0014C3  AB70    	STD Z+48,R23
0014C4  A183    	LDD R24,Z+35
0014C5  65D5    	ORI YH,$55
0014C6  8672    	STD Z+10,R7
0014C7  126F    	CPSE R6,ZH
0014C8  9499    	UNRECOGNIZED
0014C9  7F59    	ANDI R21,$F9
0014CA  9F2F    	MUL R18,ZH
0014CB  AB70    	STD Z+48,R23
0014CC  A084    	LDD R8,Z+36
0014CD  62D4    	ORI YH,$24
0014CE  8873    	LDD R7,Z+19
0014CF  106E    	CPSE R6,R14
0014D0  9696    	ADIW XH:XL,38
0014D1  7F59    	ANDI R21,$F9
0014D2  9F2F    	MUL R18,ZH
0014D3  AB70    	STD Z+48,R23
0014D4  9D84    	MUL R24,R4
0014D5  5ED3    	SUBI YH,$E3
0014D6  8873    	LDD R7,Z+19
0014D7  0F6B    	ADD R22,XH
0014D8  9693    	ADIW XH:XL,35
0014D9  7F59    	ANDI R21,$F9
0014DA  9F2F    	MUL R18,ZH
0014DB  AB70    	STD Z+48,R23
0014DC  9A84    	SBI PIND,PIND4
0014DD  5CD4    	SUBI YH,$C4
0014DE  8873    	LDD R7,Z+19
0014DF  1067    	CPSE R6,R7
0014E0  968F    	ADIW R25:R24,47
0014E1  7F59    	ANDI R21,$F9
0014E2  9F2F    	MUL R18,ZH
0014E3  AB70    	STD Z+48,R23
0014E4  9683    	ADIW R25:R24,35
0014E5  5AD5    	SUBI YH,$A5
0014E6  8672    	STD Z+10,R7
0014E7  1263    	CPSE R6,R19
0014E8  948D    	JMP $117F59
0014E9  7F59
0014EA  9F2F    	MUL R18,ZH
0014EB  AB70    	STD Z+48,R23
0014EC  9281    	ST Z+,R8
0014ED  59D8    	SUBI YH,$98
0014EE  8370    	ST Z,R23
0014EF  145F    	CP R5,R15
0014F0  918C    	LD R24,X
0014F1  7F59    	ANDI R21,$F9
0014F2  9F2F    	MUL R18,ZH
0014F3  AB70    	STD Z+48,R23
0014F4  8F7F    	STD Y+31,R23
0014F5  59DB    	SUBI YH,$9B
0014F6  806E    	LDD R6,Y+6
0014F7  185C    	SUB R5,R12
0014F8  8E8C    	STD Y+28,R8
0014F9  7F59    	ANDI R21,$F9
0014FA  9F2F    	MUL R18,ZH
0014FB  AB70    	STD Z+48,R23
0014FC  8F7F    	STD Y+31,R23
0014FD  59DB    	SUBI YH,$9B
0014FE  806E    	LDD R6,Y+6
0014FF  185C    	SUB R5,R12
001500  8E8C    	STD Y+28,R8
001501  7F59    	ANDI R21,$F9
001502  9F2F    	MUL R18,ZH
001503  AB70    	STD Z+48,R23
001504  8D7D    	LDD R23,Y+29
001505  5ADF    	SUBI YH,$AF
001506  7E6C    	ANDI R22,$EC
001507  1B5A    	SUB R21,XL
001508  8C8D    	LDD R8,Y+29
001509  7F59    	ANDI R21,$F9
00150A  9F2F    	MUL R18,ZH
00150B  AB70    	STD Z+48,R23
00150C  8A77    	STD Z+23,R7
00150D  5EE6    	SUBI ZL,$E6
00150E  7966    	ANDI R22,$96
00150F  2258    	AND R5,R24
001510  8792    	STD Z+10,R25
001511  7F59    	ANDI R21,$F9
001512  9F2F    	MUL R18,ZH
001513  AB70    	STD Z+48,R23
001514  8A74    	STD Z+20,R7
001515  61E8    	ORI ZL,$18
001516  7763    	ANDI R22,$73
001517  2558    	EOR R21,R8
001518  8595    	LDD R25,Z+13
001519  7F59    	ANDI R21,$F9
00151A  9F2F    	MUL R18,ZH
00151B  AB70    	STD Z+48,R23
00151C  8B72    	STD Z+18,R23
00151D  64EA    	ORI ZL,$4A
00151E  7661    	ANDI R22,$61
00151F  2659    	EOR R5,R25
001520  8498    	LDD R9,Y+8
001521  7F59    	ANDI R21,$F9
001522  9F2F    	MUL R18,ZH
001523  AB70    	STD Z+48,R23
001524  8E72    	STD Z+26,R7
001525  67EB    	ORI ZL,$7B
001526  7661    	ANDI R22,$61
001527  275C    	EOR R21,YL
001528  849C    	LDD R9,Y+12
001529  7F59    	ANDI R21,$F9
00152A  9F2F    	MUL R18,ZH
00152B  AB70    	STD Z+48,R23
00152C  9272    	ST -Z,R7
00152D  6BEA    	ORI ZL,$BA
00152E  7661    	ANDI R22,$61
00152F  265F    	EOR R5,ZH
001530  849E    	LDD R9,Y+14
001531  7F59    	ANDI R21,$F9
001532  9F2F    	MUL R18,ZH
001533  AB70    	STD Z+48,R23
001534  9674    	ADIW ZH:ZL,20
001535  6DE8    	ORI ZL,$D8
001536  7763    	ANDI R22,$73
001537  2563    	EOR R22,R3
001538  85A0    	LDD XL,Z+8
001539  7F59    	ANDI R21,$F9
00153A  9F2F    	MUL R18,ZH
00153B  AB70    	STD Z+48,R23
00153C  9A77    	SBI SPSR,SPIF
00153D  6EE6    	ORI ZL,$E6
00153E  7966    	ANDI R22,$96
00153F  2267    	AND R6,R23
001540  87A1    	STD Z+9,XL
001541  7F59    	ANDI R21,$F9
001542  9F2F    	MUL R18,ZH
001543  AB70    	STD Z+48,R23
001544  9D7A    	MUL R23,R10
001545  6EE2    	ORI ZL,$E2
001546  7B69    	ANDI R22,$B9
001547  1F6A    	ADC R22,XL
001548  89A1    	LDD XL,Z+17
001549  7F59    	ANDI R21,$F9
00154A  9F2F    	MUL R18,ZH
00154B  AB70    	STD Z+48,R23
00154C  9F7C    	MUL R23,YL
00154D  6DDF    	ORI YH,$DF
00154E  7D6B    	ANDI R22,$DB
00154F  1B6C    	SUB R22,YL
001550  8BA0    	STD Z+16,XL
001551  7F59    	ANDI R21,$F9
001552  9F2F    	MUL R18,ZH
001553  AB70    	STD Z+48,R23
001554  A17F    	LDD R23,Y+39
001555  6BDB    	ORI YH,$BB
001556  806E    	LDD R6,Y+6
001557  186E    	SUB R6,R14
001558  8E9E    	STD Y+30,R9
001559  7F59    	ANDI R21,$F9
00155A  9F2F    	MUL R18,ZH
00155B  AB70    	STD Z+48,R23
00155C  A181    	LDD R24,Z+33
00155D  68D8    	ORI YH,$88
00155E  8370    	ST Z,R23
00155F  146F    	CP R6,R15
001560  919C    	LD R25,X
001561  7F59    	ANDI R21,$F9
001562  9F2F    	MUL R18,ZH
001563  AB70    	STD Z+48,R23
001564  A183    	LDD R24,Z+35
001565  65D5    	ORI YH,$55
001566  8672    	STD Z+10,R7
001567  126F    	CPSE R6,ZH
001568  9499    	UNRECOGNIZED
001569  7F59    	ANDI R21,$F9
00156A  9F2F    	MUL R18,ZH
00156B  AB70    	STD Z+48,R23
00156C  A084    	LDD R8,Z+36
00156D  62D4    	ORI YH,$24
00156E  8873    	LDD R7,Z+19
00156F  106E    	CPSE R6,R14
001570  9696    	ADIW XH:XL,38
001571  7F59    	ANDI R21,$F9
001572  9F2F    	MUL R18,ZH
001573  AB70    	STD Z+48,R23
001574  9D84    	MUL R24,R4
001575  5ED3    	SUBI YH,$E3
001576  8873    	LDD R7,Z+19
001577  0F6B    	ADD R22,XH
001578  9693    	ADIW XH:XL,35
001579  7F59    	ANDI R21,$F9
00157A  9F2F    	MUL R18,ZH
00157B  AB70    	STD Z+48,R23
00157C  9A84    	SBI PIND,PIND4
00157D  5CD4    	SUBI YH,$C4
00157E  8873    	LDD R7,Z+19
00157F  1067    	CPSE R6,R7
001580  968F    	ADIW R25:R24,47
001581  7F59    	ANDI R21,$F9
001582  9F2F    	MUL R18,ZH
001583  AB70    	STD Z+48,R23
001584  9683    	ADIW R25:R24,35
001585  5AD5    	SUBI YH,$A5
001586  8672    	STD Z+10,R7
001587  1263    	CPSE R6,R19
001588  948D    	JMP $117F59
001589  7F59
00158A  9F2F    	MUL R18,ZH
00158B  AB70    	STD Z+48,R23
00158C  9281    	ST Z+,R8
00158D  59D8    	SUBI YH,$98
00158E  8370    	ST Z,R23
00158F  145F    	CP R5,R15
001590  918C    	LD R24,X
001591  7F59    	ANDI R21,$F9
001592  9F2F    	MUL R18,ZH
001593  AB70    	STD Z+48,R23
001594  8F7F    	STD Y+31,R23
001595  59DB    	SUBI YH,$9B
001596  806E    	LDD R6,Y+6
001597  185C    	SUB R5,R12
001598  8E8C    	STD Y+28,R8
001599  7F59    	ANDI R21,$F9
00159A  9F2F    	MUL R18,ZH
00159B  AB70    	STD Z+48,R23
00159C  8F7F    	STD Y+31,R23
00159D  59DB    	SUBI YH,$9B
00159E  806E    	LDD R6,Y+6
00159F  185C    	SUB R5,R12
0015A0  8E8C    	STD Y+28,R8
0015A1  7F59    	ANDI R21,$F9
0015A2  9F2F    	MUL R18,ZH
0015A3  AB70    	STD Z+48,R23
0015A4  B37D    	IN R23,EEDR
0015A5  58C7    	SUBI YL,$87
0015A6  7E6C    	ANDI R22,$EC
0015A7  3148    	CPI R20,$18
0015A8  8DA3    	LDD XL,Z+27
0015A9  7F59    	ANDI R21,$F9
0015AA  9F2F    	MUL R18,ZH
0015AB  AB70    	STD Z+48,R23
0015AC  0202    	MULS R16,R18
0015AD  0202    	MULS R16,R18
0015AE  0202    	MULS R16,R18
0015AF  0202    	MULS R16,R18
0015B0  0202    	MULS R16,R18
0015B1  0202    	MULS R16,R18
0015B2  0202    	MULS R16,R18
0015B3  0202    	MULS R16,R18
0015B4  0303    	MULSU R16,R19
0015B5  0303    	MULSU R16,R19
0015B6  0303    	MULSU R16,R19
0015B7  0303    	MULSU R16,R19
0015B8  0303    	MULSU R16,R19
0015B9  0303    	MULSU R16,R19
0015BA  0303    	MULSU R16,R19
0015BB  0303    	MULSU R16,R19
0015BC  0303    	MULSU R16,R19
0015BD  0303    	MULSU R16,R19
0015BE  0303    	MULSU R16,R19
0015BF  0303    	MULSU R16,R19
0015C0  0303    	MULSU R16,R19
0015C1  0303    	MULSU R16,R19
0015C2  0303    	MULSU R16,R19
0015C3  0303    	MULSU R16,R19
0015C4  0202    	MULS R16,R18
0015C5  0202    	MULS R16,R18
0015C6  0202    	MULS R16,R18
0015C7  0202    	MULS R16,R18
0015C8  0202    	MULS R16,R18
0015C9  0202    	MULS R16,R18
0015CA  0202    	MULS R16,R18
0015CB  0202    	MULS R16,R18
0015CC  0202    	MULS R16,R18
0015CD  0202    	MULS R16,R18
0015CE  0202    	MULS R16,R18
0015CF  0202    	MULS R16,R18
0015D0  0202    	MULS R16,R18
0015D1  0202    	MULS R16,R18
0015D2  0202    	MULS R16,R18
0015D3  0202    	MULS R16,R18
0015D4  0101    	MOVW R1:R0,R3:R2
0015D5  0101    	MOVW R1:R0,R3:R2
0015D6  0101    	MOVW R1:R0,R3:R2
0015D7  0101    	MOVW R1:R0,R3:R2
0015D8  0101    	MOVW R1:R0,R3:R2
0015D9  0101    	MOVW R1:R0,R3:R2
0015DA  0101    	MOVW R1:R0,R3:R2
0015DB  0101    	MOVW R1:R0,R3:R2
0015DC  0000    	NOP
0015DD  0000    	NOP
0015DE  0000    	NOP
0015DF  0000    	NOP
0015E0  0000    	NOP
0015E1  0000    	NOP
0015E2  0000    	NOP
0015E3  0000    	NOP
0015E4  0000    	NOP
0015E5  0000    	NOP
0015E6  0000    	NOP
0015E7  0000    	NOP
0015E8  0000    	NOP
0015E9  0000    	NOP
0015EA  0000    	NOP
0015EB  0000    	NOP
0015EC  0101    	MOVW R1:R0,R3:R2
0015ED  0101    	MOVW R1:R0,R3:R2
0015EE  0101    	MOVW R1:R0,R3:R2
0015EF  0101    	MOVW R1:R0,R3:R2
0015F0  0101    	MOVW R1:R0,R3:R2
0015F1  0101    	MOVW R1:R0,R3:R2
0015F2  0101    	MOVW R1:R0,R3:R2
0015F3  0101    	MOVW R1:R0,R3:R2
0015F4  0101    	MOVW R1:R0,R3:R2
0015F5  0101    	MOVW R1:R0,R3:R2
0015F6  0101    	MOVW R1:R0,R3:R2
0015F7  0101    	MOVW R1:R0,R3:R2
0015F8  0101    	MOVW R1:R0,R3:R2
0015F9  0101    	MOVW R1:R0,R3:R2
0015FA  0101    	MOVW R1:R0,R3:R2
0015FB  0101    	MOVW R1:R0,R3:R2
0015FC  0202    	MULS R16,R18
0015FD  0202    	MULS R16,R18
0015FE  0202    	MULS R16,R18
0015FF  0202    	MULS R16,R18
001600  0202    	MULS R16,R18
001601  0202    	MULS R16,R18
001602  0202    	MULS R16,R18
001603  0202    	MULS R16,R18
001604  0303    	MULSU R16,R19
001605  0303    	MULSU R16,R19
001606  0303    	MULSU R16,R19
001607  0303    	MULSU R16,R19
001608  0303    	MULSU R16,R19
001609  0303    	MULSU R16,R19
00160A  0303    	MULSU R16,R19
00160B  0303    	MULSU R16,R19
00160C  0303    	MULSU R16,R19
00160D  0303    	MULSU R16,R19
00160E  0303    	MULSU R16,R19
00160F  0303    	MULSU R16,R19
001610  0303    	MULSU R16,R19
001611  0303    	MULSU R16,R19
001612  0303    	MULSU R16,R19
001613  0303    	MULSU R16,R19
001614  0202    	MULS R16,R18
001615  0202    	MULS R16,R18
001616  0202    	MULS R16,R18
001617  0202    	MULS R16,R18
001618  0202    	MULS R16,R18
001619  0202    	MULS R16,R18
00161A  0202    	MULS R16,R18
00161B  0202    	MULS R16,R18
00161C  0202    	MULS R16,R18
00161D  0202    	MULS R16,R18
00161E  0202    	MULS R16,R18
00161F  0202    	MULS R16,R18
001620  0202    	MULS R16,R18
001621  0202    	MULS R16,R18
001622  0202    	MULS R16,R18
001623  0202    	MULS R16,R18
001624  0101    	MOVW R1:R0,R3:R2
001625  0101    	MOVW R1:R0,R3:R2
001626  0101    	MOVW R1:R0,R3:R2
001627  0101    	MOVW R1:R0,R3:R2
001628  0101    	MOVW R1:R0,R3:R2
001629  0101    	MOVW R1:R0,R3:R2
00162A  0101    	MOVW R1:R0,R3:R2
00162B  0101    	MOVW R1:R0,R3:R2
00162C  0000    	NOP
00162D  0000    	NOP
00162E  0000    	NOP
00162F  0000    	NOP
001630  0000    	NOP
001631  0000    	NOP
001632  0000    	NOP
001633  0000    	NOP
001634  0000    	NOP
001635  0000    	NOP
001636  0000    	NOP
001637  0000    	NOP
001638  0000    	NOP
001639  0000    	NOP
00163A  0000    	NOP
00163B  0000    	NOP
00163C  0101    	MOVW R1:R0,R3:R2
00163D  0101    	MOVW R1:R0,R3:R2
00163E  0101    	MOVW R1:R0,R3:R2
00163F  0101    	MOVW R1:R0,R3:R2
001640  0101    	MOVW R1:R0,R3:R2
001641  0101    	MOVW R1:R0,R3:R2
001642  0101    	MOVW R1:R0,R3:R2
001643  0101    	MOVW R1:R0,R3:R2
001644  0101    	MOVW R1:R0,R3:R2
001645  0101    	MOVW R1:R0,R3:R2
001646  0101    	MOVW R1:R0,R3:R2
001647  0101    	MOVW R1:R0,R3:R2
001648  0101    	MOVW R1:R0,R3:R2
001649  0101    	MOVW R1:R0,R3:R2
00164A  0101    	MOVW R1:R0,R3:R2
00164B  0101    	MOVW R1:R0,R3:R2
00164C  0202    	MULS R16,R18
00164D  0202    	MULS R16,R18
00164E  0202    	MULS R16,R18
00164F  0202    	MULS R16,R18
001650  0202    	MULS R16,R18
001651  0202    	MULS R16,R18
001652  0202    	MULS R16,R18
001653  0202    	MULS R16,R18
001654  0303    	MULSU R16,R19
001655  0303    	MULSU R16,R19
001656  0303    	MULSU R16,R19
001657  0303    	MULSU R16,R19
001658  0303    	MULSU R16,R19
001659  0303    	MULSU R16,R19
00165A  0303    	MULSU R16,R19
00165B  0303    	MULSU R16,R19
00165C  0303    	MULSU R16,R19
00165D  0303    	MULSU R16,R19
00165E  0303    	MULSU R16,R19
00165F  0303    	MULSU R16,R19
001660  0303    	MULSU R16,R19
001661  0303    	MULSU R16,R19
001662  0303    	MULSU R16,R19
001663  0303    	MULSU R16,R19
001664  0202    	MULS R16,R18
001665  0202    	MULS R16,R18
001666  0202    	MULS R16,R18
001667  0202    	MULS R16,R18
001668  0202    	MULS R16,R18
001669  0202    	MULS R16,R18
00166A  0202    	MULS R16,R18
00166B  0202    	MULS R16,R18
00166C  0202    	MULS R16,R18
00166D  0202    	MULS R16,R18
00166E  0202    	MULS R16,R18
00166F  0202    	MULS R16,R18
001670  0202    	MULS R16,R18
001671  0202    	MULS R16,R18
001672  0202    	MULS R16,R18
001673  0202    	MULS R16,R18
001674  0101    	MOVW R1:R0,R3:R2
001675  0101    	MOVW R1:R0,R3:R2
001676  0101    	MOVW R1:R0,R3:R2
001677  0101    	MOVW R1:R0,R3:R2
001678  0101    	MOVW R1:R0,R3:R2
001679  0101    	MOVW R1:R0,R3:R2
00167A  0101    	MOVW R1:R0,R3:R2
00167B  0101    	MOVW R1:R0,R3:R2
00167C  0000    	NOP
00167D  0000    	NOP
00167E  0000    L202:	NOP
00167F  0000    	NOP
001680  0000    	NOP
001681  0000    	NOP
001682  0000    	NOP
001683  0000    	NOP
001684  0000    	NOP
001685  0000    	NOP
001686  0000    	NOP
001687  0000    	NOP
001688  0000    	NOP
001689  0000    	NOP
00168A  0000    	NOP
00168B  0000    	NOP
00168C  0101    	MOVW R1:R0,R3:R2
00168D  0101    	MOVW R1:R0,R3:R2
00168E  0101    	MOVW R1:R0,R3:R2
00168F  0101    	MOVW R1:R0,R3:R2
001690  0101    	MOVW R1:R0,R3:R2
001691  0101    	MOVW R1:R0,R3:R2
001692  0101    	MOVW R1:R0,R3:R2
001693  0101    	MOVW R1:R0,R3:R2
001694  0101    	MOVW R1:R0,R3:R2
001695  0101    	MOVW R1:R0,R3:R2
001696  0101    	MOVW R1:R0,R3:R2
001697  0101    	MOVW R1:R0,R3:R2
001698  0101    	MOVW R1:R0,R3:R2
001699  0101    	MOVW R1:R0,R3:R2
00169A  0101    	MOVW R1:R0,R3:R2
00169B  0101    	MOVW R1:R0,R3:R2
00169C  0202    	MULS R16,R18
00169D  0202    	MULS R16,R18
00169E  0202    	MULS R16,R18
00169F  0202    	MULS R16,R18
0016A0  0202    	MULS R16,R18
0016A1  0202    	MULS R16,R18
0016A2  0202    	MULS R16,R18
0016A3  0202    	MULS R16,R18
0016A4  0303    	MULSU R16,R19
0016A5  0303    	MULSU R16,R19
0016A6  0303    	MULSU R16,R19
0016A7  0303    	MULSU R16,R19
0016A8  0303    	MULSU R16,R19
0016A9  0303    	MULSU R16,R19
0016AA  0303    	MULSU R16,R19
0016AB  0303    	MULSU R16,R19
0016AC  0303    	MULSU R16,R19
0016AD  0303    	MULSU R16,R19
0016AE  0303    	MULSU R16,R19
0016AF  0303    	MULSU R16,R19
0016B0  0303    	MULSU R16,R19
0016B1  0303    	MULSU R16,R19
0016B2  0303    	MULSU R16,R19
0016B3  0303    	MULSU R16,R19
0016B4  0202    	MULS R16,R18
0016B5  0202    	MULS R16,R18
0016B6  0202    	MULS R16,R18
0016B7  0202    	MULS R16,R18
0016B8  0202    	MULS R16,R18
0016B9  0202    	MULS R16,R18
0016BA  0202    	MULS R16,R18
0016BB  0202    	MULS R16,R18
0016BC  0202    	MULS R16,R18
0016BD  0202    	MULS R16,R18
0016BE  0202    	MULS R16,R18
0016BF  0202    	MULS R16,R18
0016C0  0202    	MULS R16,R18
0016C1  0202    	MULS R16,R18
0016C2  0202    	MULS R16,R18
0016C3  0202    	MULS R16,R18
0016C4  0101    	MOVW R1:R0,R3:R2
0016C5  0101    	MOVW R1:R0,R3:R2
0016C6  0101    	MOVW R1:R0,R3:R2
0016C7  0101    	MOVW R1:R0,R3:R2
0016C8  0101    	MOVW R1:R0,R3:R2
0016C9  0101    	MOVW R1:R0,R3:R2
0016CA  0101    	MOVW R1:R0,R3:R2
0016CB  0101    	MOVW R1:R0,R3:R2
0016CC  0000    	NOP
0016CD  0000    	NOP
0016CE  0000    	NOP
0016CF  0000    	NOP
0016D0  0000    	NOP
0016D1  0000    	NOP
0016D2  0000    	NOP
0016D3  0000    	NOP
0016D4  0000    	NOP
0016D5  0000    	NOP
0016D6  0000    	NOP
0016D7  0000    	NOP
0016D8  0000    	NOP
0016D9  0000    	NOP
0016DA  0000    	NOP
0016DB  0000    	NOP
0016DC  0101    	MOVW R1:R0,R3:R2
0016DD  0101    	MOVW R1:R0,R3:R2
0016DE  0101    	MOVW R1:R0,R3:R2
0016DF  0101    	MOVW R1:R0,R3:R2
0016E0  0101    	MOVW R1:R0,R3:R2
0016E1  0101    	MOVW R1:R0,R3:R2
0016E2  0101    	MOVW R1:R0,R3:R2
0016E3  0101    	MOVW R1:R0,R3:R2
0016E4  0101    	MOVW R1:R0,R3:R2
0016E5  0101    	MOVW R1:R0,R3:R2
0016E6  0101    	MOVW R1:R0,R3:R2
0016E7  0101    	MOVW R1:R0,R3:R2
0016E8  0101    	MOVW R1:R0,R3:R2
0016E9  0101    	MOVW R1:R0,R3:R2
0016EA  0101    	MOVW R1:R0,R3:R2
0016EB  0101    	MOVW R1:R0,R3:R2
0016EC  0202    	MULS R16,R18
0016ED  0202    	MULS R16,R18
0016EE  0202    	MULS R16,R18
0016EF  0202    	MULS R16,R18
0016F0  0202    	MULS R16,R18
0016F1  0202    	MULS R16,R18
0016F2  0202    	MULS R16,R18
0016F3  0202    	MULS R16,R18
0016F4  0303    	MULSU R16,R19
0016F5  0303    	MULSU R16,R19
0016F6  0303    	MULSU R16,R19
0016F7  0303    	MULSU R16,R19
0016F8  0303    	MULSU R16,R19
0016F9  0303    	MULSU R16,R19
0016FA  0303    	MULSU R16,R19
0016FB  0303    	MULSU R16,R19
0016FC  0000    	NOP
0016FD  0000    	NOP
0016FE  0000    	NOP
0016FF  0000    	NOP
001700  0000    	NOP
001701  0000    	NOP
001702  0000    	NOP
001703  0000    	NOP
001704  0303    	MULSU R16,R19
001705  0303    	MULSU R16,R19
001706  0303    	MULSU R16,R19
001707  0303    	MULSU R16,R19
001708  0303    	MULSU R16,R19
001709  0303    	MULSU R16,R19
00170A  0303    	MULSU R16,R19
00170B  0303    	MULSU R16,R19
00170C  0303    	MULSU R16,R19
00170D  0303    	MULSU R16,R19
00170E  0303    	MULSU R16,R19
00170F  0303    	MULSU R16,R19
001710  0303    	MULSU R16,R19
001711  0303    	MULSU R16,R19
001712  0303    	MULSU R16,R19
001713  0303    	MULSU R16,R19
001714  0202    	MULS R16,R18
001715  0202    	MULS R16,R18
001716  0202    	MULS R16,R18
001717  0202    	MULS R16,R18
001718  0202    	MULS R16,R18
001719  0202    	MULS R16,R18
00171A  0202    	MULS R16,R18
00171B  0202    	MULS R16,R18
00171C  0202    	MULS R16,R18
00171D  0202    	MULS R16,R18
00171E  0202    	MULS R16,R18
00171F  0202    	MULS R16,R18
001720  0202    	MULS R16,R18
001721  0202    	MULS R16,R18
001722  0202    	MULS R16,R18
001723  0202    	MULS R16,R18
001724  0101    	MOVW R1:R0,R3:R2
001725  0101    	MOVW R1:R0,R3:R2
001726  0101    	MOVW R1:R0,R3:R2
001727  0101    	MOVW R1:R0,R3:R2
001728  0101    	MOVW R1:R0,R3:R2
001729  0101    	MOVW R1:R0,R3:R2
00172A  0101    	MOVW R1:R0,R3:R2
00172B  0101    	MOVW R1:R0,R3:R2
00172C  0000    	NOP
00172D  0000    	NOP
00172E  0000    	NOP
00172F  0000    	NOP
001730  0000    	NOP
001731  0000    	NOP
001732  0000    	NOP
001733  0000    	NOP
001734  0000    	NOP
001735  0000    	NOP
001736  0000    L212:	NOP
001737  0000    	NOP
001738  0000    	NOP
001739  0000    	NOP
00173A  0000    	NOP
00173B  0000    	NOP
00173C  0101    	MOVW R1:R0,R3:R2
00173D  0101    	MOVW R1:R0,R3:R2
00173E  0101    L214:	MOVW R1:R0,R3:R2
00173F  0101    	MOVW R1:R0,R3:R2
001740  0101    	MOVW R1:R0,R3:R2
001741  0101    	MOVW R1:R0,R3:R2
001742  0101    	MOVW R1:R0,R3:R2
001743  0101    	MOVW R1:R0,R3:R2
001744  0101    	MOVW R1:R0,R3:R2
001745  0101    	MOVW R1:R0,R3:R2
001746  0101    	MOVW R1:R0,R3:R2
001747  0101    	MOVW R1:R0,R3:R2
001748  0101    	MOVW R1:R0,R3:R2
001749  0101    	MOVW R1:R0,R3:R2
00174A  0101    	MOVW R1:R0,R3:R2
00174B  0101    	MOVW R1:R0,R3:R2
00174C  0202    	MULS R16,R18
00174D  0202    	MULS R16,R18
00174E  0202    	MULS R16,R18
00174F  0202    	MULS R16,R18
001750  0202    	MULS R16,R18
001751  0202    	MULS R16,R18
001752  0202    	MULS R16,R18
001753  0202    	MULS R16,R18
001754  0303    	MULSU R16,R19
001755  0303    	MULSU R16,R19
001756  0303    	MULSU R16,R19
001757  0303    	MULSU R16,R19
001758  0303    	MULSU R16,R19
001759  0303    	MULSU R16,R19
00175A  0303    	MULSU R16,R19
00175B  0303    	MULSU R16,R19
00175C  0303    	MULSU R16,R19
00175D  0303    	MULSU R16,R19
00175E  0303    	MULSU R16,R19
00175F  0303    	MULSU R16,R19
001760  0303    	MULSU R16,R19
001761  0303    	MULSU R16,R19
001762  0303    	MULSU R16,R19
001763  0303    	MULSU R16,R19
001764  0202    	MULS R16,R18
001765  0202    	MULS R16,R18
001766  0202    	MULS R16,R18
001767  0202    	MULS R16,R18
001768  0202    	MULS R16,R18
001769  0202    	MULS R16,R18
00176A  0202    	MULS R16,R18
00176B  0202    	MULS R16,R18
00176C  0202    	MULS R16,R18
00176D  0202    	MULS R16,R18
00176E  0202    	MULS R16,R18
00176F  0202    	MULS R16,R18
001770  0202    	MULS R16,R18
001771  0202    	MULS R16,R18
001772  0202    	MULS R16,R18
001773  0202    	MULS R16,R18
001774  0101    	MOVW R1:R0,R3:R2
001775  0101    	MOVW R1:R0,R3:R2
001776  0101    	MOVW R1:R0,R3:R2
001777  0101    	MOVW R1:R0,R3:R2
001778  0101    	MOVW R1:R0,R3:R2
001779  0101    	MOVW R1:R0,R3:R2
00177A  0101    L204:	MOVW R1:R0,R3:R2
00177B  0101    	MOVW R1:R0,R3:R2
00177C  0000    	NOP
00177D  0000    	NOP
00177E  0000    L230:	NOP
00177F  0000    	NOP
001780  0000    	NOP
001781  0000    	NOP
001782  0000    	NOP
001783  0000    	NOP
001784  0000    	NOP
001785  0000    	NOP
001786  0000    L232:	NOP
001787  0000    	NOP
001788  0000    	NOP
001789  0000    	NOP
00178A  0000    	NOP
00178B  0000    	NOP
00178C  0101    	MOVW R1:R0,R3:R2
00178D  0101    	MOVW R1:R0,R3:R2
00178E  0101    	MOVW R1:R0,R3:R2
00178F  0101    	MOVW R1:R0,R3:R2
001790  0101    	MOVW R1:R0,R3:R2
001791  0101    	MOVW R1:R0,R3:R2
001792  0101    	MOVW R1:R0,R3:R2
001793  0101    	MOVW R1:R0,R3:R2
001794  0101    	MOVW R1:R0,R3:R2
001795  0101    	MOVW R1:R0,R3:R2
001796  0101    	MOVW R1:R0,R3:R2
001797  0101    	MOVW R1:R0,R3:R2
001798  0101    	MOVW R1:R0,R3:R2
001799  0101    	MOVW R1:R0,R3:R2
00179A  0101    	MOVW R1:R0,R3:R2
00179B  0101    	MOVW R1:R0,R3:R2
00179C  0202    	MULS R16,R18
00179D  0202    L210:	MULS R16,R18
00179E  0202    	MULS R16,R18
00179F  0202    	MULS R16,R18
0017A0  0202    	MULS R16,R18
0017A1  0202    	MULS R16,R18
0017A2  0202    	MULS R16,R18
0017A3  0202    	MULS R16,R18
0017A4  0303    	MULSU R16,R19
0017A5  0303    	MULSU R16,R19
0017A6  0303    	MULSU R16,R19
0017A7  0303    	MULSU R16,R19
0017A8  0303    	MULSU R16,R19
0017A9  0303    	MULSU R16,R19
0017AA  0303    	MULSU R16,R19
0017AB  0303    	MULSU R16,R19
0017AC  0303    	MULSU R16,R19
0017AD  0303    	MULSU R16,R19
0017AE  0303    	MULSU R16,R19
0017AF  0303    	MULSU R16,R19
0017B0  0303    	MULSU R16,R19
0017B1  0303    	MULSU R16,R19
0017B2  0303    	MULSU R16,R19
0017B3  0303    	MULSU R16,R19
0017B4  0202    	MULS R16,R18
0017B5  0202    	MULS R16,R18
0017B6  0202    	MULS R16,R18
0017B7  0202    	MULS R16,R18
0017B8  0202    	MULS R16,R18
0017B9  0202    	MULS R16,R18
0017BA  0202    	MULS R16,R18
0017BB  0202    	MULS R16,R18
0017BC  0202    	MULS R16,R18
0017BD  0202    	MULS R16,R18
0017BE  0202    	MULS R16,R18
0017BF  0202    	MULS R16,R18
0017C0  0202    	MULS R16,R18
0017C1  0202    	MULS R16,R18
0017C2  0202    	MULS R16,R18
0017C3  0202    	MULS R16,R18
0017C4  0101    	MOVW R1:R0,R3:R2
0017C5  0101    	MOVW R1:R0,R3:R2
0017C6  0101    L248:	MOVW R1:R0,R3:R2
0017C7  0101    	MOVW R1:R0,R3:R2
0017C8  0101    	MOVW R1:R0,R3:R2
0017C9  0101    	MOVW R1:R0,R3:R2
0017CA  0101    	MOVW R1:R0,R3:R2
0017CB  0101    	MOVW R1:R0,R3:R2
0017CC  0000    	NOP
0017CD  0000    	NOP
0017CE  0000    	NOP
0017CF  0000    	NOP
0017D0  0000    	NOP
0017D1  0000    	NOP
0017D2  0000    	NOP
0017D3  0000    	NOP
0017D4  0000    	NOP
0017D5  0000    	NOP
0017D6  0000    	NOP
0017D7  0000    	NOP
0017D8  0000    	NOP
0017D9  0000    	NOP
0017DA  0000    	NOP
0017DB  0000    	NOP
0017DC  0101    	MOVW R1:R0,R3:R2
0017DD  0101    	MOVW R1:R0,R3:R2
0017DE  0101    L254:	MOVW R1:R0,R3:R2
0017DF  0101    	MOVW R1:R0,R3:R2
0017E0  0101    	MOVW R1:R0,R3:R2
0017E1  0101    	MOVW R1:R0,R3:R2
0017E2  0101    	MOVW R1:R0,R3:R2
0017E3  0101    	MOVW R1:R0,R3:R2
0017E4  0101    	MOVW R1:R0,R3:R2
0017E5  0101    	MOVW R1:R0,R3:R2
0017E6  0101    	MOVW R1:R0,R3:R2
0017E7  0101    	MOVW R1:R0,R3:R2
0017E8  0101    	MOVW R1:R0,R3:R2
0017E9  0101    	MOVW R1:R0,R3:R2
0017EA  0101    	MOVW R1:R0,R3:R2
0017EB  0101    	MOVW R1:R0,R3:R2
0017EC  0202    	MULS R16,R18
0017ED  0202    	MULS R16,R18
0017EE  0202    	MULS R16,R18
0017EF  0202    	MULS R16,R18
0017F0  0202    	MULS R16,R18
0017F1  0202    	MULS R16,R18
0017F2  0202    	MULS R16,R18
0017F3  0202    	MULS R16,R18
0017F4  0303    	MULSU R16,R19
0017F5  0303    	MULSU R16,R19
0017F6  0303    	MULSU R16,R19
0017F7  0303    	MULSU R16,R19
0017F8  0303    	MULSU R16,R19
0017F9  0303    	MULSU R16,R19
0017FA  0303    	MULSU R16,R19
0017FB  0303    	MULSU R16,R19
0017FC  0303    	MULSU R16,R19
0017FD  0303    	MULSU R16,R19
0017FE  0303    	MULSU R16,R19
0017FF  0303    	MULSU R16,R19
001800  0303    	MULSU R16,R19
001801  0303    	MULSU R16,R19
001802  0303    	MULSU R16,R19
001803  0303    	MULSU R16,R19
001804  0202    	MULS R16,R18
001805  0202    	MULS R16,R18
001806  0202    	MULS R16,R18
001807  0202    	MULS R16,R18
001808  0202    	MULS R16,R18
001809  0202    	MULS R16,R18
00180A  0202    	MULS R16,R18
00180B  0202    	MULS R16,R18
00180C  0202    	MULS R16,R18
00180D  0202    	MULS R16,R18
00180E  0202    	MULS R16,R18
00180F  0202    	MULS R16,R18
001810  0202    	MULS R16,R18
001811  0202    	MULS R16,R18
001812  0202    	MULS R16,R18
001813  0202    	MULS R16,R18
001814  0101    	MOVW R1:R0,R3:R2
001815  0101    	MOVW R1:R0,R3:R2
001816  0101    	MOVW R1:R0,R3:R2
001817  0101    	MOVW R1:R0,R3:R2
001818  0101    	MOVW R1:R0,R3:R2
001819  0101    L207:	MOVW R1:R0,R3:R2
00181A  0101    	MOVW R1:R0,R3:R2
00181B  0101    	MOVW R1:R0,R3:R2
00181C  0000    	NOP
00181D  0000    	NOP
00181E  0000    L270:	NOP
00181F  0000    	NOP
001820  0000    	NOP
001821  0000    	NOP
001822  0000    	NOP
001823  0000    	NOP
001824  0000    	NOP
001825  0000    	NOP
001826  0000    L272:	NOP
001827  0000    	NOP
001828  0000    	NOP
001829  0000    	NOP
00182A  0000    	NOP
00182B  0000    	NOP
00182C  0101    	MOVW R1:R0,R3:R2
00182D  0101    	MOVW R1:R0,R3:R2
00182E  0101    	MOVW R1:R0,R3:R2
00182F  0101    	MOVW R1:R0,R3:R2
001830  0101    	MOVW R1:R0,R3:R2
001831  0101    	MOVW R1:R0,R3:R2
001832  0101    	MOVW R1:R0,R3:R2
001833  0101    	MOVW R1:R0,R3:R2
001834  0101    	MOVW R1:R0,R3:R2
001835  0101    	MOVW R1:R0,R3:R2
001836  0101    	MOVW R1:R0,R3:R2
001837  0101    	MOVW R1:R0,R3:R2
001838  0101    	MOVW R1:R0,R3:R2
001839  0101    	MOVW R1:R0,R3:R2
00183A  0101    	MOVW R1:R0,R3:R2
00183B  0101    	MOVW R1:R0,R3:R2
00183C  0202    	MULS R16,R18
00183D  0202    	MULS R16,R18
00183E  0202    	MULS R16,R18
00183F  0202    	MULS R16,R18
001840  0202    	MULS R16,R18
001841  0202    	MULS R16,R18
001842  0202    	MULS R16,R18
001843  0202    	MULS R16,R18
001844  0000    	NOP
001845  0000    	NOP
001846  0000    	NOP
001847  0000    	NOP
001848  0000    	NOP
001849  0000    	NOP
00184A  0000    	NOP
00184B  0000    	NOP
00184C  2828    	OR R2,R8
00184D  2828    	OR R2,R8
00184E  2828    	OR R2,R8
00184F  2828    	OR R2,R8
001850  2828    	OR R2,R8
001851  1414    	CP R1,R4
001852  1414    	CP R1,R4
001853  1414    	CP R1,R4
001854  3C3C    	CPI R19,$CC
001855  3C3C    	CPI R19,$CC
001856  3C3C    	CPI R19,$CC
001857  3C3C    	CPI R19,$CC
001858  3C3C    	CPI R19,$CC
001859  1E1E    	ADC R1,ZL
00185A  1E1E    	ADC R1,ZL
00185B  1E1E    	ADC R1,ZL
00185C  0000    	NOP
00185D  0000    	NOP
00185E  0000    	NOP
00185F  0000    	NOP
001860  0000    	NOP
001861  0000    	NOP
001862  0000    	NOP
001863  0000    	NOP
001864  001E    	UNRECOGNIZED
001865  0005    	UNRECOGNIZED
001866  0008    L288:	UNRECOGNIZED
001867  0003    	UNRECOGNIZED
001868  0001    	UNRECOGNIZED
001869  000F    	UNRECOGNIZED
00186A  03E8    	FMULSU R22,R16
00186B  0096    	UNRECOGNIZED
00186C  0136    	MOVW R7:R6,R13:R12
00186D  00FA    	UNRECOGNIZED
00186E  0078    	UNRECOGNIZED
00186F  012C    	MOVW R5:R4,R25:R24
001870  B37D    	IN R23,EEDR
001871  58C7    	SUBI YL,$87
001872  7E6C    	ANDI R22,$EC
001873  3148    	CPI R20,$18
001874  8DA3    	LDD XL,Z+27
001875  7F59    	ANDI R21,$F9
001876  9F2F    	MUL R18,ZH
001877  AB70    	STD Z+48,R23
001878  B37D    	IN R23,EEDR
001879  58C7    	SUBI YL,$87
00187A  7E6C    	ANDI R22,$EC
00187B  3148    	CPI R20,$18
00187C  8DA3    	LDD XL,Z+27
00187D  7F59    	ANDI R21,$F9
00187E  9F2F    L294:	MUL R18,ZH
00187F  AB70    	STD Z+48,R23
001880  A77E    	STD Y+46,R23
001881  62DE    	ORI YH,$2E
001882  7D6E    	ANDI R22,$DE
001883  1D54    	ADC R21,R4
001884  8E9B    	STD Y+27,R9
001885  7F59    	ANDI R21,$F9
001886  9F2F    	MUL R18,ZH
001887  AB70    	STD Z+48,R23
001888  A46B    	LDD R6,Y+43
001889  66E9    	ORI ZL,$69
00188A  6C5F    	ORI R21,$CF
00188B  1D50    	ADC R21,R0
00188C  819B    	LDD R25,Y+3
00188D  7F59    	ANDI R21,$F9
00188E  9F2F    	MUL R18,ZH
00188F  AB70    	STD Z+48,R23
001890  A46B    	LDD R6,Y+43
001891  69E9    	ORI ZL,$99
001892  915F    	POP R21
001893  284A    	OR R4,R10
001894  9A9D    	SBI PINC,PINC5
001895  7F59    	ANDI R21,$F9
001896  9F2F    	MUL R18,ZH
001897  AB70    	STD Z+48,R23
001898  A47E    	LDD R7,Y+46
001899  5FDE    	SUBI YH,$FE
00189A  7D6B    	ANDI R22,$DB
00189B  1D54    	ADC R21,R4
00189C  8E9B    	STD Y+27,R9
00189D  7F59    	ANDI R21,$F9
00189E  9F2F    	MUL R18,ZH
00189F  AB70    	STD Z+48,R23
0018A0  B37D    	IN R23,EEDR
0018A1  58C7    	SUBI YL,$87
0018A2  7E6C    	ANDI R22,$EC
0018A3  3148    	CPI R20,$18
0018A4  8DA3    	LDD XL,Z+27
0018A5  7F59    	ANDI R21,$F9
0018A6  9F2F    	MUL R18,ZH
0018A7  AB70    	STD Z+48,R23
0018A8  0202    	MULS R16,R18
0018A9  0202    	MULS R16,R18
0018AA  0202    	MULS R16,R18
0018AB  0202    	MULS R16,R18
0018AC  0202    	MULS R16,R18
0018AD  0202    	MULS R16,R18
0018AE  0202    	MULS R16,R18
0018AF  0202    	MULS R16,R18
0018B0  0404    	CPC R0,R4
0018B1  0404    	CPC R0,R4
0018B2  0404    	CPC R0,R4
0018B3  0404    	CPC R0,R4
0018B4  0404    	CPC R0,R4
0018B5  0404    	CPC R0,R4
0018B6  0404    	CPC R0,R4
0018B7  0404    	CPC R0,R4
0018B8  0202    	MULS R16,R18
0018B9  0202    	MULS R16,R18
0018BA  0202    	MULS R16,R18
0018BB  0202    	MULS R16,R18
0018BC  0202    	MULS R16,R18
0018BD  0000    	NOP
0018BE  0000    L310:	NOP
0018BF  0000    	NOP
0018C0  0202    	MULS R16,R18
0018C1  0202    	MULS R16,R18
0018C2  0002    	UNRECOGNIZED
0018C3  0000    	NOP
0018C4  0000    	NOP
0018C5  0303    	MULSU R16,R19
0018C6  0303    L312:	MULSU R16,R19
0018C7  0303    	MULSU R16,R19
0018C8  0101    	MOVW R1:R0,R3:R2
0018C9  0101    	MOVW R1:R0,R3:R2
0018CA  0101    	MOVW R1:R0,R3:R2
0018CB  0101    	MOVW R1:R0,R3:R2
0018CC  0101    	MOVW R1:R0,R3:R2
0018CD  0303    	MULSU R16,R19
0018CE  0303    L314:	MULSU R16,R19
0018CF  0303    	MULSU R16,R19
0018D0  0404    	CPC R0,R4
0018D1  0404    	CPC R0,R4
0018D2  0404    	CPC R0,R4
0018D3  0404    	CPC R0,R4
0018D4  0404    	CPC R0,R4
0018D5  0404    	CPC R0,R4
0018D6  0404    	CPC R0,R4
0018D7  0404    	CPC R0,R4
0018D8  0101    	MOVW R1:R0,R3:R2
0018D9  0101    	MOVW R1:R0,R3:R2
0018DA  0001    	UNRECOGNIZED
0018DB  0000    	NOP
0018DC  0000    	NOP
0018DD  0101    	MOVW R1:R0,R3:R2
0018DE  0001    	UNRECOGNIZED
0018DF  0000    	NOP
0018E0  0101    	MOVW R1:R0,R3:R2
0018E1  0101    	MOVW R1:R0,R3:R2
0018E2  0001    	UNRECOGNIZED
0018E3  0000    	NOP
0018E4  0000    	NOP
0018E5  0101    	MOVW R1:R0,R3:R2
0018E6  0001    	UNRECOGNIZED
0018E7  0000    	NOP
0018E8  0000    	NOP
0018E9  0000    	NOP
0018EA  0000    	NOP
0018EB  0000    	NOP
0018EC  0000    	NOP
0018ED  0000    	NOP
0018EE  0000    	NOP
0018EF  0000    	NOP
0018F0  0101    	MOVW R1:R0,R3:R2
0018F1  0101    	MOVW R1:R0,R3:R2
0018F2  0001    	UNRECOGNIZED
0018F3  0000    	NOP
0018F4  0000    	NOP
0018F5  0101    	MOVW R1:R0,R3:R2
0018F6  0001    	UNRECOGNIZED
0018F7  0000    	NOP
0018F8  0000    	NOP
0018F9  0000    	NOP
0018FA  0000    	NOP
0018FB  0000    	NOP
0018FC  0000    	NOP
0018FD  0000    	NOP
0018FE  0000    	NOP
0018FF  0000    	NOP
001900  0000    	NOP
001901  0000    	NOP
001902  0000    	NOP
001903  0000    	NOP
001904  0000    	NOP
001905  0000    	NOP
001906  0000    	NOP
001907  0000    	NOP
001908  2828    	OR R2,R8
001909  2828    	OR R2,R8
00190A  2828    	OR R2,R8
00190B  2828    	OR R2,R8
00190C  2828    	OR R2,R8
00190D  1414    	CP R1,R4
00190E  1414    	CP R1,R4
00190F  1414    	CP R1,R4
001910  3C3C    	CPI R19,$CC
001911  3C3C    	CPI R19,$CC
001912  3C3C    	CPI R19,$CC
001913  3C3C    	CPI R19,$CC
001914  3C3C    	CPI R19,$CC
001915  1E1E    	ADC R1,ZL
001916  1E1E    	ADC R1,ZL
001917  1E1E    	ADC R1,ZL
001918  0000    	NOP
001919  0000    	NOP
00191A  0000    	NOP
00191B  0000    	NOP
00191C  0000    	NOP
00191D  0000    	NOP
00191E  0000    	NOP
00191F  0000    	NOP
001920  001E    	UNRECOGNIZED
001921  0005    	UNRECOGNIZED
001922  0008    	UNRECOGNIZED
001923  0003    	UNRECOGNIZED
001924  0001    	UNRECOGNIZED
001925  000F    	UNRECOGNIZED
001926  03E8    	FMULSU R22,R16
001927  0096    	UNRECOGNIZED
001928  0136    	MOVW R7:R6,R13:R12
001929  00C8    	UNRECOGNIZED
00192A  0078    	UNRECOGNIZED
00192B  012C    	MOVW R5:R4,R25:R24
00192C  B37D    	IN R23,EEDR
00192D  58C7    	SUBI YL,$87
00192E  7E6C    	ANDI R22,$EC
00192F  3148    	CPI R20,$18
001930  8DA3    	LDD XL,Z+27
001931  7F59    	ANDI R21,$F9
001932  9F2F    	MUL R18,ZH
001933  AB70    	STD Z+48,R23
001934  B37D    	IN R23,EEDR
001935  58C7    	SUBI YL,$87
001936  7E6C    	ANDI R22,$EC
001937  3148    	CPI R20,$18
001938  8DA3    L208:	LDD XL,Z+27
001939  7F59    	ANDI R21,$F9
00193A  9F2F    	MUL R18,ZH
00193B  AB70    	STD Z+48,R23
00193C  A77E    	STD Y+46,R23
00193D  62DE    	ORI YH,$2E
00193E  7D6E    	ANDI R22,$DE
00193F  1D54    	ADC R21,R4
001940  8E9B    	STD Y+27,R9
001941  7F59    	ANDI R21,$F9
001942  9F2F    	MUL R18,ZH
001943  AB70    	STD Z+48,R23
001944  A38B    	STD Y+35,R24
001945  64E6    	ORI ZL,$46
001946  8E78    	STD Y+24,R7
001947  0E57    	ADD R5,R23
001948  9F96    	MUL R25,R22
001949  7F59    	ANDI R21,$F9
00194A  9F2F    	MUL R18,ZH
00194B  AB70    	STD Z+48,R23
00194C  A46C    	LDD R6,Y+44
00194D  61E0    	ORI ZL,$10
00194E  976A    	SBIW YH:YL,26
00194F  1C50    	ADC R5,R0
001950  A799    	STD Y+41,R25
001951  7F59    	ANDI R21,$F9
001952  9F2F    	MUL R18,ZH
001953  AB70    	STD Z+48,R23
001954  A67E    	STD Y+46,R7
001955  62DE    	ORI YH,$2E
001956  7D71    	ANDI R23,$D1
001957  1D54    	ADC R21,R4
001958  8E9B    	STD Y+27,R9
001959  7F59    	ANDI R21,$F9
00195A  9F2F    	MUL R18,ZH
00195B  AB70    	STD Z+48,R23
00195C  B37D    	IN R23,EEDR
00195D  58C7    	SUBI YL,$87
00195E  7E6C    	ANDI R22,$EC
00195F  3148    	CPI R20,$18
001960  8DA3    	LDD XL,Z+27
001961  7F59    	ANDI R21,$F9
001962  9F2F    	MUL R18,ZH
001963  AB70    	STD Z+48,R23
001964  0202    	MULS R16,R18
001965  0202    	MULS R16,R18
001966  0202    	MULS R16,R18
001967  0202    	MULS R16,R18
001968  0202    	MULS R16,R18
001969  0202    	MULS R16,R18
00196A  0202    	MULS R16,R18
00196B  0202    	MULS R16,R18
00196C  0404    	CPC R0,R4
00196D  0404    	CPC R0,R4
00196E  0404    	CPC R0,R4
00196F  0404    	CPC R0,R4
001970  0404    	CPC R0,R4
001971  0404    	CPC R0,R4
001972  0404    	CPC R0,R4
001973  0404    	CPC R0,R4
001974  0202    	MULS R16,R18
001975  0202    	MULS R16,R18
001976  0202    	MULS R16,R18
001977  0202    	MULS R16,R18
001978  0202    	MULS R16,R18
001979  0404    	CPC R0,R4
00197A  0404    	CPC R0,R4
00197B  0404    	CPC R0,R4
00197C  0000    	NOP
00197D  0000    	NOP
00197E  0200    	MULS R16,R16
00197F  0202    	MULS R16,R18
001980  0202    	MULS R16,R18
001981  0404    	CPC R0,R4
001982  0404    	CPC R0,R4
001983  0404    	CPC R0,R4
001984  0000    	NOP
001985  0000    	NOP
001986  0200    	MULS R16,R16
001987  0202    	MULS R16,R18
001988  0202    	MULS R16,R18
001989  0404    	CPC R0,R4
00198A  0404    	CPC R0,R4
00198B  0404    	CPC R0,R4
00198C  0404    	CPC R0,R4
00198D  0404    	CPC R0,R4
00198E  0404    	CPC R0,R4
00198F  0404    	CPC R0,R4
001990  0404    	CPC R0,R4
001991  0404    	CPC R0,R4
001992  0404    	CPC R0,R4
001993  0404    	CPC R0,R4
001994  0000    	NOP
001995  0000    	NOP
001996  0100    	MOVW R1:R0,R1:R0
001997  0101    	MOVW R1:R0,R3:R2
001998  0101    	MOVW R1:R0,R3:R2
001999  0000    	NOP
00199A  0100    	MOVW R1:R0,R1:R0
00199B  0101    	MOVW R1:R0,R3:R2
00199C  0000    	NOP
00199D  0000    	NOP
00199E  0100    	MOVW R1:R0,R1:R0
00199F  0101    	MOVW R1:R0,R3:R2
0019A0  0101    	MOVW R1:R0,R3:R2
0019A1  0000    	NOP
0019A2  0100    	MOVW R1:R0,R1:R0
0019A3  0101    	MOVW R1:R0,R3:R2
0019A4  0000    	NOP
0019A5  0000    	NOP
0019A6  0000    	NOP
0019A7  0000    	NOP
0019A8  0000    	NOP
0019A9  0000    	NOP
0019AA  0000    	NOP
0019AB  0000    	NOP
0019AC  0000    	NOP
0019AD  0000    	NOP
0019AE  0100    	MOVW R1:R0,R1:R0
0019AF  0101    	MOVW R1:R0,R3:R2
0019B0  0101    	MOVW R1:R0,R3:R2
0019B1  0000    	NOP
0019B2  0100    	MOVW R1:R0,R1:R0
0019B3  0101    	MOVW R1:R0,R3:R2
0019B4  0000    	NOP
0019B5  0000    	NOP
0019B6  0000    L244:	NOP
0019B7  0000    	NOP
0019B8  0000    	NOP
0019B9  0000    	NOP
0019BA  0000    	NOP
0019BB  0000    	NOP
0019BC  0000    	NOP
0019BD  0000    	NOP
0019BE  0000    	NOP
0019BF  0000    	NOP
0019C0  0000    	NOP
0019C1  0000    	NOP
0019C2  0000    	NOP
0019C3  0000    	NOP
0019C4  1414    	CP R1,R4
0019C5  1414    	CP R1,R4
0019C6  1414    	CP R1,R4
0019C7  1414    	CP R1,R4
0019C8  1414    	CP R1,R4
0019C9  1414    	CP R1,R4
0019CA  1414    	CP R1,R4
0019CB  1414    	CP R1,R4
0019CC  1E1E    	ADC R1,ZL
0019CD  1E1E    	ADC R1,ZL
0019CE  1E1E    	ADC R1,ZL
0019CF  1E1E    	ADC R1,ZL
0019D0  1E1E    	ADC R1,ZL
0019D1  1E1E    	ADC R1,ZL
0019D2  1E1E    	ADC R1,ZL
0019D3  1E1E    	ADC R1,ZL
0019D4  0000    	NOP
0019D5  0000    	NOP
0019D6  0000    	NOP
0019D7  0000    	NOP
0019D8  0000    	NOP
0019D9  0000    	NOP
0019DA  0000    	NOP
0019DB  0000    	NOP
0019DC  001E    	UNRECOGNIZED
0019DD  0001    	UNRECOGNIZED
0019DE  0001    	UNRECOGNIZED
0019DF  000A    	UNRECOGNIZED
0019E0  000A    	UNRECOGNIZED
0019E1  000A    	UNRECOGNIZED
0019E2  03E8    	FMULSU R22,R16
0019E3  00C8    	UNRECOGNIZED
0019E4  00C8    	UNRECOGNIZED
0019E5  01F4    	MOVW R31:R30,R9:R8
0019E6  01F4    	MOVW R31:R30,R9:R8
0019E7  01F4    	MOVW R31:R30,R9:R8
0019E8  B37D    	IN R23,EEDR
0019E9  58C7    	SUBI YL,$87
0019EA  7E6C    	ANDI R22,$EC
0019EB  3148    	CPI R20,$18
0019EC  8DA3    	LDD XL,Z+27
0019ED  7F59    	ANDI R21,$F9
0019EE  9F2F    L258:	MUL R18,ZH
0019EF  AB70    	STD Z+48,R23
0019F0  B37D    	IN R23,EEDR
0019F1  58C7    	SUBI YL,$87
0019F2  7E6C    	ANDI R22,$EC
0019F3  3148    	CPI R20,$18
0019F4  8DA3    	LDD XL,Z+27
0019F5  7F59    	ANDI R21,$F9
0019F6  9F2F    	MUL R18,ZH
0019F7  AB70    	STD Z+48,R23
0019F8  B77D    	IN R23,SPL
0019F9  69D8    	ORI YH,$98
0019FA  7E6C    	ANDI R22,$EC
0019FB  3148    	CPI R20,$18
0019FC  84A3    	LDD R10,Z+11
0019FD  7F59    	ANDI R21,$F9
0019FE  9F2F    	MUL R18,ZH
0019FF  AB70    	STD Z+48,R23
001A00  CC7D    	RJMP L202
001A01  5DB8    	SUBI XH,$D8
001A02  7E6C    	ANDI R22,$EC
001A03  3148    	CPI R20,$18
001A04  8DA3    	LDD XL,Z+27
001A05  7F59    	ANDI R21,$F9
001A06  9F2F    	MUL R18,ZH
001A07  AB70    	STD Z+48,R23
001A08  B37D    	IN R23,EEDR
001A09  58C7    	SUBI YL,$87
001A0A  7E6C    	ANDI R22,$EC
001A0B  3148    	CPI R20,$18
001A0C  8DA3    	LDD XL,Z+27
001A0D  9B59    	SBIS UCSR0A,U2X0
001A0E  9F1E    	MUL R17,ZL
001A0F  7D8C    	ANDI R24,$DC
001A10  B37D    	IN R23,EEDR
001A11  58C7    	SUBI YL,$87
001A12  7E6C    	ANDI R22,$EC
001A13  3148    	CPI R20,$18
001A14  8DA3    	LDD XL,Z+27
001A15  8559    	LDD R21,Y+9
001A16  9F1E    	MUL R17,ZL
001A17  CA95    	RJMP L203
001A18  B37D    	IN R23,EEDR
001A19  58C7    	SUBI YL,$87
001A1A  7E6C    	ANDI R22,$EC
001A1B  3148    	CPI R20,$18
001A1C  8DA3    	LDD XL,Z+27
001A1D  7F59    	ANDI R21,$F9
001A1E  9F2F    	MUL R18,ZH
001A1F  AB70    	STD Z+48,R23
001A20  0202    	MULS R16,R18
001A21  0202    	MULS R16,R18
001A22  0202    	MULS R16,R18
001A23  0202    	MULS R16,R18
001A24  0202    	MULS R16,R18
001A25  0202    	MULS R16,R18
001A26  0202    	MULS R16,R18
001A27  0202    	MULS R16,R18
001A28  0202    	MULS R16,R18
001A29  0202    	MULS R16,R18
001A2A  0202    	MULS R16,R18
001A2B  0202    	MULS R16,R18
001A2C  0202    	MULS R16,R18
001A2D  0202    	MULS R16,R18
001A2E  0202    	MULS R16,R18
001A2F  0202    	MULS R16,R18
001A30  0202    	MULS R16,R18
001A31  0202    	MULS R16,R18
001A32  0202    	MULS R16,R18
001A33  0202    	MULS R16,R18
001A34  0202    	MULS R16,R18
001A35  0202    	MULS R16,R18
001A36  0202    	MULS R16,R18
001A37  0202    	MULS R16,R18
001A38  0202    	MULS R16,R18
001A39  0202    	MULS R16,R18
001A3A  0202    	MULS R16,R18
001A3B  0202    	MULS R16,R18
001A3C  0202    	MULS R16,R18
001A3D  0202    	MULS R16,R18
001A3E  0202    	MULS R16,R18
001A3F  0202    	MULS R16,R18
001A40  0202    	MULS R16,R18
001A41  0202    	MULS R16,R18
001A42  0202    	MULS R16,R18
001A43  0202    	MULS R16,R18
001A44  0202    	MULS R16,R18
001A45  0202    	MULS R16,R18
001A46  0202    	MULS R16,R18
001A47  0202    	MULS R16,R18
001A48  0303    	MULSU R16,R19
001A49  0303    	MULSU R16,R19
001A4A  0303    	MULSU R16,R19
001A4B  0303    	MULSU R16,R19
001A4C  0303    	MULSU R16,R19
001A4D  0303    	MULSU R16,R19
001A4E  0303    	MULSU R16,R19
001A4F  0303    	MULSU R16,R19
001A50  0101    	MOVW R1:R0,R3:R2
001A51  0101    	MOVW R1:R0,R3:R2
001A52  0001    	UNRECOGNIZED
001A53  0000    	NOP
001A54  0000    	NOP
001A55  0101    	MOVW R1:R0,R3:R2
001A56  0001    L284:	UNRECOGNIZED
001A57  0000    	NOP
001A58  0000    	NOP
001A59  0000    	NOP
001A5A  0000    	NOP
001A5B  0000    	NOP
001A5C  0000    	NOP
001A5D  0000    	NOP
001A5E  0000    	NOP
001A5F  0000    	NOP
001A60  0000    	NOP
001A61  0000    	NOP
001A62  0000    	NOP
001A63  0000    	NOP
001A64  0000    	NOP
001A65  0000    	NOP
001A66  0000    	NOP
001A67  0000    	NOP
001A68  0000    	NOP
001A69  0000    	NOP
001A6A  0000    	NOP
001A6B  0000    	NOP
001A6C  0000    	NOP
001A6D  0000    	NOP
001A6E  0000    	NOP
001A6F  0000    	NOP
001A70  0000    	NOP
001A71  0000    	NOP
001A72  0000    	NOP
001A73  0000    	NOP
001A74  0000    	NOP
001A75  0000    	NOP
001A76  0000    	NOP
001A77  0000    	NOP
001A78  0000    	NOP
001A79  0000    	NOP
001A7A  0000    	NOP
001A7B  0000    	NOP
001A7C  0000    	NOP
001A7D  0000    	NOP
001A7E  0000    	NOP
001A7F  0000    	NOP
001A80  1414    	CP R1,R4
001A81  1414    	CP R1,R4
001A82  1414    	CP R1,R4
001A83  1414    	CP R1,R4
001A84  1414    	CP R1,R4
001A85  1414    	CP R1,R4
001A86  1414    	CP R1,R4
001A87  1414    	CP R1,R4
001A88  1E1E    	ADC R1,ZL
001A89  1E1E    	ADC R1,ZL
001A8A  1E1E    	ADC R1,ZL
001A8B  1E1E    	ADC R1,ZL
001A8C  1E1E    	ADC R1,ZL
001A8D  1E1E    	ADC R1,ZL
001A8E  1E1E    L298:	ADC R1,ZL
001A8F  1E1E    	ADC R1,ZL
001A90  0000    	NOP
001A91  0000    	NOP
001A92  0000    	NOP
001A93  0000    	NOP
001A94  0000    	NOP
001A95  0000    	NOP
001A96  0000    	NOP
001A97  0000    	NOP
001A98  000A    	UNRECOGNIZED
001A99  000A    	UNRECOGNIZED
001A9A  0001    	UNRECOGNIZED
001A9B  0005    	UNRECOGNIZED
001A9C  000A    	UNRECOGNIZED
001A9D  000A    	UNRECOGNIZED
001A9E  000A    	UNRECOGNIZED
001A9F  01F4    	MOVW R31:R30,R9:R8
001AA0  00C8    	UNRECOGNIZED
001AA1  00C8    	UNRECOGNIZED
001AA2  00C8    	UNRECOGNIZED
001AA3  01F4    	MOVW R31:R30,R9:R8
001AA4  01F4    	MOVW R31:R30,R9:R8
001AA5  01F4    	MOVW R31:R30,R9:R8
001AA6  B37D    	IN R23,EEDR
001AA7  58C7    	SUBI YL,$87
001AA8  7E6C    	ANDI R22,$EC
001AA9  3148    	CPI R20,$18
001AAA  8DA3    	LDD XL,Z+27
001AAB  7F59    	ANDI R21,$F9
001AAC  9F2F    	MUL R18,ZH
001AAD  AB70    	STD Z+48,R23
001AAE  B37D    	IN R23,EEDR
001AAF  58C7    	SUBI YL,$87
001AB0  7E6C    	ANDI R22,$EC
001AB1  3148    	CPI R20,$18
001AB2  8DA3    	LDD XL,Z+27
001AB3  7F59    	ANDI R21,$F9
001AB4  9F2F    	MUL R18,ZH
001AB5  AB70    	STD Z+48,R23
001AB6  B383    	IN R24,PINC
001AB7  58C7    	SUBI YL,$87
001AB8  7E72    	ANDI R23,$E2
001AB9  3148    	CPI R20,$18
001ABA  8DA3    	LDD XL,Z+27
001ABB  7A59    	ANDI R21,$A9
001ABC  9F2F    	MUL R18,ZH
001ABD  AB70    	STD Z+48,R23
001ABE  B37C    	IN R23,EECR
001ABF  58C7    	SUBI YL,$87
001AC0  8678    	STD Y+8,R7
001AC1  0F4A    	ADD R20,XL
001AC2  917E    	LD R23,-X
001AC3  7A59    	ANDI R21,$A9
001AC4  9F2F    	MUL R18,ZH
001AC5  AB70    	STD Z+48,R23
001AC6  B37C    	IN R23,EECR
001AC7  58C7    	SUBI YL,$87
001AC8  7C6C    	ANDI R22,$CC
001AC9  3937    	CPI R19,$97
001ACA  8E98    	STD Y+24,R9
001ACB  7A59    	ANDI R21,$A9
001ACC  9F2F    	MUL R18,ZH
001ACD  AB71    	STD Z+49,R23
001ACE  B37D    	IN R23,EEDR
001ACF  58C7    	SUBI YL,$87
001AD0  7E6C    	ANDI R22,$EC
001AD1  3148    	CPI R20,$18
001AD2  8DA3    	LDD XL,Z+27
001AD3  6359    	ORI R21,$39
001AD4  9F22    	MUL R18,R18
001AD5  8289    	STD Y+1,R8
001AD6  B37D    	IN R23,EEDR
001AD7  58C7    	SUBI YL,$87
001AD8  7E6C    	ANDI R22,$EC
001AD9  3148    	CPI R20,$18
001ADA  8DA3    	LDD XL,Z+27
001ADB  7D59    	ANDI R21,$D9
001ADC  9F1E    	MUL R17,ZL
001ADD  CC9C    	RJMP L204
001ADE  B37D    	IN R23,EEDR
001ADF  58C7    	SUBI YL,$87
001AE0  7E6C    	ANDI R22,$EC
001AE1  3148    	CPI R20,$18
001AE2  8DA3    	LDD XL,Z+27
001AE3  7F59    	ANDI R21,$F9
001AE4  9F2F    	MUL R18,ZH
001AE5  AB70    	STD Z+48,R23
001AE6  0202    	MULS R16,R18
001AE7  0202    	MULS R16,R18
001AE8  0202    	MULS R16,R18
001AE9  0202    	MULS R16,R18
001AEA  0202    	MULS R16,R18
001AEB  0202    	MULS R16,R18
001AEC  0202    	MULS R16,R18
001AED  0202    	MULS R16,R18
001AEE  0202    	MULS R16,R18
001AEF  0202    	MULS R16,R18
001AF0  0202    	MULS R16,R18
001AF1  0202    	MULS R16,R18
001AF2  0202    	MULS R16,R18
001AF3  0202    	MULS R16,R18
001AF4  0202    	MULS R16,R18
001AF5  0202    	MULS R16,R18
001AF6  0202    	MULS R16,R18
001AF7  0202    	MULS R16,R18
001AF8  0202    	MULS R16,R18
001AF9  0202    	MULS R16,R18
001AFA  0202    	MULS R16,R18
001AFB  0202    	MULS R16,R18
001AFC  0202    	MULS R16,R18
001AFD  0202    	MULS R16,R18
001AFE  0202    	MULS R16,R18
001AFF  0202    	MULS R16,R18
001B00  0202    	MULS R16,R18
001B01  0202    	MULS R16,R18
001B02  0202    	MULS R16,R18
001B03  0202    	MULS R16,R18
001B04  0202    	MULS R16,R18
001B05  0202    	MULS R16,R18
001B06  0202    	MULS R16,R18
001B07  0202    	MULS R16,R18
001B08  0202    	MULS R16,R18
001B09  0202    	MULS R16,R18
001B0A  0202    	MULS R16,R18
001B0B  0202    	MULS R16,R18
001B0C  0202    	MULS R16,R18
001B0D  0202    	MULS R16,R18
001B0E  0202    	MULS R16,R18
001B0F  0202    	MULS R16,R18
001B10  0202    	MULS R16,R18
001B11  0202    	MULS R16,R18
001B12  0202    	MULS R16,R18
001B13  0202    	MULS R16,R18
001B14  0202    	MULS R16,R18
001B15  0202    	MULS R16,R18
001B16  0202    	MULS R16,R18
001B17  0202    	MULS R16,R18
001B18  0202    	MULS R16,R18
001B19  0202    	MULS R16,R18
001B1A  0202    	MULS R16,R18
001B1B  0202    	MULS R16,R18
001B1C  0202    	MULS R16,R18
001B1D  0202    	MULS R16,R18
001B1E  0000    	NOP
001B1F  0000    	NOP
001B20  0000    	NOP
001B21  0000    	NOP
001B22  0000    	NOP
001B23  0000    	NOP
001B24  0000    	NOP
001B25  0000    	NOP
001B26  0000    	NOP
001B27  0000    	NOP
001B28  0000    	NOP
001B29  0000    	NOP
001B2A  0000    	NOP
001B2B  0000    	NOP
001B2C  0000    	NOP
001B2D  0000    	NOP
001B2E  0000    	NOP
001B2F  0000    	NOP
001B30  0000    	NOP
001B31  0000    	NOP
001B32  0000    	NOP
001B33  0000    	NOP
001B34  0000    	NOP
001B35  0000    	NOP
001B36  0000    	NOP
001B37  0000    	NOP
001B38  0000    	NOP
001B39  0000    	NOP
001B3A  0000    	NOP
001B3B  0000    	NOP
001B3C  0000    	NOP
001B3D  0000    	NOP
001B3E  0000    	NOP
001B3F  0000    	NOP
001B40  0000    	NOP
001B41  0000    	NOP
001B42  0000    	NOP
001B43  0000    	NOP
001B44  0000    	NOP
001B45  0000    	NOP
001B46  0000    	NOP
001B47  0000    	NOP
001B48  0000    	NOP
001B49  0000    	NOP
001B4A  0000    	NOP
001B4B  0000    	NOP
001B4C  0000    	NOP
001B4D  0000    	NOP
001B4E  0000    	NOP
001B4F  0000    	NOP
001B50  0000    	NOP
001B51  0000    	NOP
001B52  0000    	NOP
001B53  0000    	NOP
001B54  0000    	NOP
001B55  0000    	NOP
001B56  1414    	CP R1,R4
001B57  1414    	CP R1,R4
001B58  1414    	CP R1,R4
001B59  1414    	CP R1,R4
001B5A  1414    	CP R1,R4
001B5B  1414    	CP R1,R4
001B5C  1414    	CP R1,R4
001B5D  1414    	CP R1,R4
001B5E  1E1E    	ADC R1,ZL
001B5F  1E1E    	ADC R1,ZL
001B60  1E1E    	ADC R1,ZL
001B61  1E1E    	ADC R1,ZL
001B62  1E1E    	ADC R1,ZL
001B63  1E1E    	ADC R1,ZL
001B64  1E1E    	ADC R1,ZL
001B65  1E1E    	ADC R1,ZL
001B66  0000    	NOP
001B67  0000    	NOP
001B68  0000    	NOP
001B69  0000    	NOP
001B6A  0000    	NOP
001B6B  0000    	NOP
001B6C  0000    	NOP
001B6D  0000    	NOP
001B6E  001E    	UNRECOGNIZED
001B6F  000A    	UNRECOGNIZED
001B70  0001    	UNRECOGNIZED
001B71  0032    	UNRECOGNIZED
001B72  03E8    	FMULSU R22,R16
001B73  01F4    	MOVW R31:R30,R9:R8
001B74  01F4    	MOVW R31:R30,R9:R8
001B75  03E8    	FMULSU R22,R16
001B76  B37D    	IN R23,EEDR
001B77  58C7    	SUBI YL,$87
001B78  7E6C    	ANDI R22,$EC
001B79  3148    	CPI R20,$18
001B7A  8DA3    	LDD XL,Z+27
001B7B  7F59    	ANDI R21,$F9
001B7C  9F2F    	MUL R18,ZH
001B7D  AB70    	STD Z+48,R23
001B7E  B37D    	IN R23,EEDR
001B7F  58C7    	SUBI YL,$87
001B80  7E6C    	ANDI R22,$EC
001B81  3148    	CPI R20,$18
001B82  8DA3    	LDD XL,Z+27
001B83  7F59    	ANDI R21,$F9
001B84  9F2F    	MUL R18,ZH
001B85  AB70    	STD Z+48,R23
001B86  9C7C    	MUL R7,R12
001B87  58C7    	SUBI YL,$87
001B88  7D6C    	ANDI R22,$DC
001B89  3163    	CPI R22,$13
001B8A  8DA3    	LDD XL,Z+27
001B8B  7F59    	ANDI R21,$F9
001B8C  9F2F    	MUL R18,ZH
001B8D  AB70    	STD Z+48,R23
001B8E  9C7C    	MUL R7,R12
001B8F  58C7    	SUBI YL,$87
001B90  7D6C    	ANDI R22,$DC
001B91  3163    	CPI R22,$13
001B92  8DA3    	LDD XL,Z+27
001B93  D559    	RCALL L205
001B94  9F20    	MUL R18,R16
001B95  8E6F    	STD Y+31,R6
001B96  B37D    	IN R23,EEDR
001B97  58C7    	SUBI YL,$87
001B98  7E6C    	ANDI R22,$EC
001B99  3148    	CPI R20,$18
001B9A  8DA3    	LDD XL,Z+27
001B9B  7F59    	ANDI R21,$F9
001B9C  9F2F    	MUL R18,ZH
001B9D  AB70    	STD Z+48,R23
001B9E  0202    	MULS R16,R18
001B9F  0202    	MULS R16,R18
001BA0  0202    	MULS R16,R18
001BA1  0202    	MULS R16,R18
001BA2  0202    	MULS R16,R18
001BA3  0202    	MULS R16,R18
001BA4  0202    	MULS R16,R18
001BA5  0202    	MULS R16,R18
001BA6  0202    	MULS R16,R18
001BA7  0202    	MULS R16,R18
001BA8  0202    	MULS R16,R18
001BA9  0202    	MULS R16,R18
001BAA  0202    	MULS R16,R18
001BAB  0202    	MULS R16,R18
001BAC  0202    	MULS R16,R18
001BAD  0202    	MULS R16,R18
001BAE  0202    	MULS R16,R18
001BAF  0202    	MULS R16,R18
001BB0  0202    	MULS R16,R18
001BB1  0202    	MULS R16,R18
001BB2  0202    	MULS R16,R18
001BB3  0202    	MULS R16,R18
001BB4  0202    	MULS R16,R18
001BB5  0202    	MULS R16,R18
001BB6  0303    	MULSU R16,R19
001BB7  0303    	MULSU R16,R19
001BB8  0303    	MULSU R16,R19
001BB9  0303    	MULSU R16,R19
001BBA  0303    	MULSU R16,R19
001BBB  0303    	MULSU R16,R19
001BBC  0303    	MULSU R16,R19
001BBD  0303    	MULSU R16,R19
001BBE  0000    	NOP
001BBF  0000    	NOP
001BC0  0000    	NOP
001BC1  0000    	NOP
001BC2  0000    	NOP
001BC3  0000    	NOP
001BC4  0000    	NOP
001BC5  0000    	NOP
001BC6  0303    	MULSU R16,R19
001BC7  0303    	MULSU R16,R19
001BC8  0303    	MULSU R16,R19
001BC9  0303    	MULSU R16,R19
001BCA  0303    	MULSU R16,R19
001BCB  0303    	MULSU R16,R19
001BCC  0303    	MULSU R16,R19
001BCD  0303    	MULSU R16,R19
001BCE  0303    	MULSU R16,R19
001BCF  0303    	MULSU R16,R19
001BD0  0303    	MULSU R16,R19
001BD1  0303    	MULSU R16,R19
001BD2  0303    	MULSU R16,R19
001BD3  0303    	MULSU R16,R19
001BD4  0303    	MULSU R16,R19
001BD5  0303    	MULSU R16,R19
001BD6  0000    	NOP
001BD7  0000    	NOP
001BD8  0000    	NOP
001BD9  0000    	NOP
001BDA  0000    	NOP
001BDB  0000    	NOP
001BDC  0000    	NOP
001BDD  0000    	NOP
001BDE  1414    	CP R1,R4
001BDF  1414    	CP R1,R4
001BE0  1414    	CP R1,R4
001BE1  1414    	CP R1,R4
001BE2  1414    	CP R1,R4
001BE3  1414    	CP R1,R4
001BE4  1414    	CP R1,R4
001BE5  1414    	CP R1,R4
001BE6  1E1E    	ADC R1,ZL
001BE7  1E1E    	ADC R1,ZL
001BE8  1E1E    	ADC R1,ZL
001BE9  1E1E    	ADC R1,ZL
001BEA  1E1E    	ADC R1,ZL
001BEB  1E1E    	ADC R1,ZL
001BEC  1E1E    	ADC R1,ZL
001BED  1E1E    	ADC R1,ZL
001BEE  0000    	NOP
001BEF  0000    	NOP
001BF0  0000    	NOP
001BF1  0000    	NOP
001BF2  0000    	NOP
001BF3  0000    	NOP
001BF4  0000    	NOP
001BF5  0000    	NOP
001BF6  0014    	UNRECOGNIZED
001BF7  000A    	UNRECOGNIZED
001BF8  0001    	UNRECOGNIZED
001BF9  0032    	UNRECOGNIZED
001BFA  01F4    	MOVW R31:R30,R9:R8
001BFB  01F4    	MOVW R31:R30,R9:R8
001BFC  01F4    	MOVW R31:R30,R9:R8
001BFD  03E8    	FMULSU R22,R16
001BFE  B37D    	IN R23,EEDR
001BFF  58C7    	SUBI YL,$87
001C00  7E6C    	ANDI R22,$EC
001C01  3148    	CPI R20,$18
001C02  8DA3    	LDD XL,Z+27
001C03  7F59    	ANDI R21,$F9
001C04  9F2F    	MUL R18,ZH
001C05  AB70    	STD Z+48,R23
001C06  B37D    	IN R23,EEDR
001C07  58C7    	SUBI YL,$87
001C08  7E6C    	ANDI R22,$EC
001C09  3148    	CPI R20,$18
001C0A  8DA3    	LDD XL,Z+27
001C0B  7F59    	ANDI R21,$F9
001C0C  9F2F    	MUL R18,ZH
001C0D  AB70    	STD Z+48,R23
001C0E  9C7D    	MUL R7,R13
001C0F  58C7    	SUBI YL,$87
001C10  7E6C    	ANDI R22,$EC
001C11  3163    	CPI R22,$13
001C12  8DA3    	LDD XL,Z+27
001C13  7F59    	ANDI R21,$F9
001C14  9F2F    	MUL R18,ZH
001C15  AB70    	STD Z+48,R23
001C16  9C7D    	MUL R7,R13
001C17  58C7    	SUBI YL,$87
001C18  7E6C    	ANDI R22,$EC
001C19  3163    	CPI R22,$13
001C1A  8DA3    	LDD XL,Z+27
001C1B  2B59    	OR R21,R25
001C1C  9F2F    	MUL R18,ZH
001C1D  A070    	LDD R7,Z+32
001C1E  B37D    	IN R23,EEDR
001C1F  58C7    	SUBI YL,$87
001C20  7E6C    	ANDI R22,$EC
001C21  3148    	CPI R20,$18
001C22  8DA3    	LDD XL,Z+27
001C23  7F59    	ANDI R21,$F9
001C24  9F2F    	MUL R18,ZH
001C25  AB70    	STD Z+48,R23
001C26  0202    	MULS R16,R18
001C27  0202    	MULS R16,R18
001C28  0202    	MULS R16,R18
001C29  0202    	MULS R16,R18
001C2A  0202    	MULS R16,R18
001C2B  0202    	MULS R16,R18
001C2C  0202    	MULS R16,R18
001C2D  0202    	MULS R16,R18
001C2E  0202    	MULS R16,R18
001C2F  0202    	MULS R16,R18
001C30  0202    	MULS R16,R18
001C31  0202    	MULS R16,R18
001C32  0202    	MULS R16,R18
001C33  0202    	MULS R16,R18
001C34  0202    	MULS R16,R18
001C35  0202    	MULS R16,R18
001C36  0202    	MULS R16,R18
001C37  0202    	MULS R16,R18
001C38  0202    	MULS R16,R18
001C39  0202    	MULS R16,R18
001C3A  0202    	MULS R16,R18
001C3B  0202    	MULS R16,R18
001C3C  0202    	MULS R16,R18
001C3D  0202    	MULS R16,R18
001C3E  0202    	MULS R16,R18
001C3F  0202    	MULS R16,R18
001C40  0202    	MULS R16,R18
001C41  0202    	MULS R16,R18
001C42  0202    	MULS R16,R18
001C43  0202    	MULS R16,R18
001C44  0202    	MULS R16,R18
001C45  0202    	MULS R16,R18
001C46  0000    L316:	NOP
001C47  0000    	NOP
001C48  0000    	NOP
001C49  0000    	NOP
001C4A  0000    	NOP
001C4B  0000    	NOP
001C4C  0000    L331:	NOP
001C4D  0000    	NOP
001C4E  0303    L318:	MULSU R16,R19
001C4F  0303    	MULSU R16,R19
001C50  0303    	MULSU R16,R19
001C51  0303    	MULSU R16,R19
001C52  0303    	MULSU R16,R19
001C53  0303    	MULSU R16,R19
001C54  0303    L333:	MULSU R16,R19
001C55  0303    	MULSU R16,R19
001C56  0303    	MULSU R16,R19
001C57  0303    	MULSU R16,R19
001C58  0303    L320:	MULSU R16,R19
001C59  0303    	MULSU R16,R19
001C5A  0303    	MULSU R16,R19
001C5B  0303    	MULSU R16,R19
001C5C  0303    	MULSU R16,R19
001C5D  0303    	MULSU R16,R19
001C5E  0000    	NOP
001C5F  0000    	NOP
001C60  0000    	NOP
001C61  0000    L322:	NOP
001C62  0000    	NOP
001C63  0000    	NOP
001C64  0000    	NOP
001C65  0000    	NOP
001C66  1414    	CP R1,R4
001C67  1414    	CP R1,R4
001C68  1414    	CP R1,R4
001C69  1414    	CP R1,R4
001C6A  1414    L324:	CP R1,R4
001C6B  1414    	CP R1,R4
001C6C  1414    	CP R1,R4
001C6D  1414    	CP R1,R4
001C6E  1E1E    	ADC R1,ZL
001C6F  1E1E    	ADC R1,ZL
001C70  1E1E    	ADC R1,ZL
001C71  1E1E    	ADC R1,ZL
001C72  1E1E    	ADC R1,ZL
001C73  1E1E    L326:	ADC R1,ZL
001C74  1E1E    	ADC R1,ZL
001C75  1E1E    	ADC R1,ZL
001C76  0000    	NOP
001C77  0000    	NOP
001C78  0000    	NOP
001C79  0000    	NOP
001C7A  0000    	NOP
001C7B  0000    	NOP
001C7C  0000    L328:	NOP
001C7D  0000    	NOP
001C7E  0014    	UNRECOGNIZED
001C7F  001E    	UNRECOGNIZED
001C80  0032    	UNRECOGNIZED
001C81  001E    	UNRECOGNIZED
001C82  0032    	UNRECOGNIZED
001C83  0032    	UNRECOGNIZED
001C84  01F4    	MOVW R31:R30,R9:R8
001C85  07D0    L330:	CPC YH,R16
001C86  03E8    	FMULSU R22,R16
001C87  03E8    	FMULSU R22,R16
001C88  03E8    	FMULSU R22,R16
001C89  03E8    	FMULSU R22,R16
001C8A  B37D    	IN R23,EEDR
001C8B  58C7    	SUBI YL,$87
001C8C  7E6C    	ANDI R22,$EC
001C8D  3148    	CPI R20,$18
001C8E  8DA3    L332:	LDD XL,Z+27
001C8F  7F59    	ANDI R21,$F9
001C90  9F2F    	MUL R18,ZH
001C91  AB70    	STD Z+48,R23
001C92  B37D    	IN R23,EEDR
001C93  58C7    	SUBI YL,$87
001C94  7E6C    	ANDI R22,$EC
001C95  3148    	CPI R20,$18
001C96  8DA3    L334:	LDD XL,Z+27
001C97  7F59    	ANDI R21,$F9
001C98  9F2F    L336:	MUL R18,ZH
001C99  AB70    	STD Z+48,R23
001C9A  B37D    	IN R23,EEDR
001C9B  58C7    	SUBI YL,$87
001C9C  6D6C    	ORI R22,$DC
001C9D  59A0    	SUBI XL,$90
001C9E  8CC6    	LDD R12,Z+30
001C9F  8659    	STD Y+9,R5
001CA0  9F73    	MUL R23,R19
001CA1  AAB1    	STD Z+49,R11
001CA2  B37D    	IN R23,EEDR
001CA3  58C7    	SUBI YL,$87
001CA4  C36C    	RJMP L206
001CA5  489A    	SBCI R25,$8A
001CA6  91CB    	UNRECOGNIZED
001CA7  3B59    	CPI R21,$B9
001CA8  9F6E    	MUL R22,ZL
001CA9  B59B    	IN R25,OCR1AH
001CAA  B37D    	IN R23,EEDR
001CAB  58C7    	SUBI YL,$87
001CAC  CB6C    	RJMP L207
001CAD  0DA9    	ADD XL,R9
001CAE  ACCB    	LDD R12,Y+59
001CAF  3159    	CPI R21,$19
001CB0  9F20    	MUL R18,R16
001CB1  CC86    	RJMP L208
001CB2  B88D    	OUT SPCR,R8
001CB3  57CD    	SUBI YL,$7D
001CB4  A55D    	LDD R21,Y+45
001CB5  0463    	CPC R6,R3
001CB6  9998    	SBIC PINC,PINC0
001CB7  6359    	ORI R21,$39
001CB8  9F3F    	MUL R19,ZH
001CB9  BA86    	OUT PINB,R8
001CBA  B37D    	IN R23,EEDR
001CBB  58C7    	SUBI YL,$87
001CBC  7E6C    	ANDI R22,$EC
001CBD  3148    	CPI R20,$18
001CBE  8DA3    	LDD XL,Z+27
001CBF  7F59    	ANDI R21,$F9
001CC0  9F2F    	MUL R18,ZH
001CC1  AB70    	STD Z+48,R23
001CC2  0202    	MULS R16,R18
001CC3  0202    	MULS R16,R18
001CC4  0202    	MULS R16,R18
001CC5  0202    	MULS R16,R18
001CC6  0202    	MULS R16,R18
001CC7  0202    	MULS R16,R18
001CC8  0202    	MULS R16,R18
001CC9  0202    	MULS R16,R18
001CCA  0202    	MULS R16,R18
001CCB  0202    	MULS R16,R18
001CCC  0202    	MULS R16,R18
001CCD  0202    	MULS R16,R18
001CCE  0202    L250:	MULS R16,R18
001CCF  0202    	MULS R16,R18
001CD0  0202    	MULS R16,R18
001CD1  0202    	MULS R16,R18
001CD2  0202    	MULS R16,R18
001CD3  0202    	MULS R16,R18
001CD4  0202    	MULS R16,R18
001CD5  0202    	MULS R16,R18
001CD6  0202    L252:	MULS R16,R18
001CD7  0202    	MULS R16,R18
001CD8  0202    L353:	MULS R16,R18
001CD9  0202    	MULS R16,R18
001CDA  0202    	MULS R16,R18
001CDB  0202    	MULS R16,R18
001CDC  0202    	MULS R16,R18
001CDD  0202    	MULS R16,R18
001CDE  0202    	MULS R16,R18
001CDF  0202    	MULS R16,R18
001CE0  0202    L355:	MULS R16,R18
001CE1  0202    	MULS R16,R18
001CE2  0202    	MULS R16,R18
001CE3  0202    	MULS R16,R18
001CE4  0202    	MULS R16,R18
001CE5  0202    	MULS R16,R18
001CE6  0202    	MULS R16,R18
001CE7  0202    	MULS R16,R18
001CE8  0202    	MULS R16,R18
001CE9  0202    	MULS R16,R18
001CEA  0202    	MULS R16,R18
001CEB  0202    	MULS R16,R18
001CEC  0202    	MULS R16,R18
001CED  0202    	MULS R16,R18
001CEE  0202    	MULS R16,R18
001CEF  0202    	MULS R16,R18
001CF0  0202    	MULS R16,R18
001CF1  0202    	MULS R16,R18
001CF2  0000    	NOP
001CF3  0000    	NOP
001CF4  0000    	NOP
001CF5  0000    	NOP
001CF6  0000    	NOP
001CF7  0000    	NOP
001CF8  0000    	NOP
001CF9  0000    	NOP
001CFA  0303    	MULSU R16,R19
001CFB  0303    	MULSU R16,R19
001CFC  0303    	MULSU R16,R19
001CFD  0303    	MULSU R16,R19
001CFE  0303    	MULSU R16,R19
001CFF  0303    	MULSU R16,R19
001D00  0303    	MULSU R16,R19
001D01  0303    	MULSU R16,R19
001D02  0000    	NOP
001D03  0000    	NOP
001D04  0000    	NOP
001D05  0000    	NOP
001D06  0000    	NOP
001D07  0000    	NOP
001D08  0000    	NOP
001D09  0000    	NOP
001D0A  0303    	MULSU R16,R19
001D0B  0303    	MULSU R16,R19
001D0C  0303    	MULSU R16,R19
001D0D  0303    	MULSU R16,R19
001D0E  0303    	MULSU R16,R19
001D0F  0303    	MULSU R16,R19
001D10  0303    	MULSU R16,R19
001D11  0303    	MULSU R16,R19
001D12  0202    	MULS R16,R18
001D13  0202    	MULS R16,R18
001D14  0202    	MULS R16,R18
001D15  0202    	MULS R16,R18
001D16  0202    	MULS R16,R18
001D17  0202    	MULS R16,R18
001D18  0202    	MULS R16,R18
001D19  0202    	MULS R16,R18
001D1A  0000    	NOP
001D1B  0000    	NOP
001D1C  0000    	NOP
001D1D  0000    	NOP
001D1E  0000    	NOP
001D1F  0000    	NOP
001D20  0000    	NOP
001D21  0000    	NOP
001D22  1414    	CP R1,R4
001D23  1414    	CP R1,R4
001D24  1414    	CP R1,R4
001D25  1414    	CP R1,R4
001D26  1414    	CP R1,R4
001D27  1414    	CP R1,R4
001D28  1414    	CP R1,R4
001D29  1414    	CP R1,R4
001D2A  1E1E    	ADC R1,ZL
001D2B  1E1E    	ADC R1,ZL
001D2C  1E1E    	ADC R1,ZL
001D2D  1E1E    	ADC R1,ZL
001D2E  1E1E    	ADC R1,ZL
001D2F  1E1E    	ADC R1,ZL
001D30  1E1E    	ADC R1,ZL
001D31  1E1E    	ADC R1,ZL
001D32  0000    	NOP
001D33  0000    	NOP
001D34  0000    	NOP
001D35  0000    	NOP
001D36  0000    	NOP
001D37  0000    	NOP
001D38  0000    	NOP
001D39  0000    	NOP
001D3A  0014    	UNRECOGNIZED
001D3B  0032    	UNRECOGNIZED
001D3C  0032    	UNRECOGNIZED
001D3D  0032    	UNRECOGNIZED
001D3E  0032    	UNRECOGNIZED
001D3F  0032    	UNRECOGNIZED
001D40  01F4    	MOVW R31:R30,R9:R8
001D41  07D0    	CPC YH,R16
001D42  03E8    	FMULSU R22,R16
001D43  03E8    	FMULSU R22,R16
001D44  03E8    L329:	FMULSU R22,R16
001D45  03E8    	FMULSU R22,R16
001D46  B37D    	IN R23,EEDR
001D47  58C7    	SUBI YL,$87
001D48  7E6C    	ANDI R22,$EC
001D49  3148    	CPI R20,$18
001D4A  8DA3    	LDD XL,Z+27
001D4B  7F59    	ANDI R21,$F9
001D4C  9F2F    	MUL R18,ZH
001D4D  AB70    	STD Z+48,R23
001D4E  B37D    	IN R23,EEDR
001D4F  58C7    	SUBI YL,$87
001D50  7E6C    	ANDI R22,$EC
001D51  3148    	CPI R20,$18
001D52  8DA3    	LDD XL,Z+27
001D53  7F59    	ANDI R21,$F9
001D54  9F2F    	MUL R18,ZH
001D55  AB70    	STD Z+48,R23
001D56  5A5A    	SUBI R21,$AA
001D57  6AAB    	ORI XL,$AB
001D58  A877    	LDD R7,Z+55
001D59  3148    	CPI R20,$18
001D5A  8DA3    	LDD XL,Z+27
001D5B  8A59    	STD Y+17,R5
001D5C  9F7A    	MUL R23,XL
001D5D  AB9E    	STD Y+54,R25
001D5E  9524    	UNRECOGNIZED
001D5F  5ED5    	SUBI YH,$E5
001D60  D06B    	RCALL L209
001D61  315F    	CPI R21,$1F
001D62  8CA3    	LDD R10,Z+27
001D63  7C59    	ANDI R21,$C9
001D64  9F6A    	MUL R22,XL
001D65  B699    	IN R9,EIMSK
001D66  8121    	LDD R18,Z+1
001D67  50F8    	SUBI ZH,$08
001D68  DA34    	RCALL L210
001D69  0482    	CPC R8,R2
001D6A  BAA9    	OUT PINA,R10
001D6B  7D59    	ANDI R21,$D9
001D6C  9F6A    	MUL R22,XL
001D6D  B599    	IN R25,OCR1BH
001D6E  804D    L290:	LDD R4,Y+5
001D6F  50EE    	SUBI ZL,$0E
001D70  AF3B    	STD Y+59,R19
001D71  0485    	CPC R8,R5
001D72  BEAB    	OUT RAMPZ,R10
001D73  7D44    	ANDI R20,$D4
001D74  9F21    	MUL R18,R17
001D75  B4A6    	IN R10,ICR1L
001D76  B37D    L292:	IN R23,EEDR
001D77  58C7    	SUBI YL,$87
001D78  7E6C    	ANDI R22,$EC
001D79  3148    	CPI R20,$18
001D7A  8DA3    	LDD XL,Z+27
001D7B  7F59    	ANDI R21,$F9
001D7C  9F2F    	MUL R18,ZH
001D7D  AB70    	STD Z+48,R23
001D7E  0202    	MULS R16,R18
001D7F  0202    	MULS R16,R18
001D80  0202    	MULS R16,R18
001D81  0202    	MULS R16,R18
001D82  0202    	MULS R16,R18
001D83  0202    	MULS R16,R18
001D84  0202    	MULS R16,R18
001D85  0202    	MULS R16,R18
001D86  0202    	MULS R16,R18
001D87  0202    	MULS R16,R18
001D88  0202    	MULS R16,R18
001D89  0202    	MULS R16,R18
001D8A  0202    	MULS R16,R18
001D8B  0202    	MULS R16,R18
001D8C  0202    	MULS R16,R18
001D8D  0202    	MULS R16,R18
001D8E  0202    	MULS R16,R18
001D8F  0202    	MULS R16,R18
001D90  0202    	MULS R16,R18
001D91  0202    	MULS R16,R18
001D92  0202    	MULS R16,R18
001D93  0202    	MULS R16,R18
001D94  0202    	MULS R16,R18
001D95  0202    	MULS R16,R18
001D96  0202    	MULS R16,R18
001D97  0202    	MULS R16,R18
001D98  0202    	MULS R16,R18
001D99  0202    	MULS R16,R18
001D9A  0202    	MULS R16,R18
001D9B  0202    	MULS R16,R18
001D9C  0202    	MULS R16,R18
001D9D  0202    	MULS R16,R18
001D9E  0202    	MULS R16,R18
001D9F  0202    	MULS R16,R18
001DA0  0202    	MULS R16,R18
001DA1  0202    	MULS R16,R18
001DA2  0202    	MULS R16,R18
001DA3  0202    	MULS R16,R18
001DA4  0202    	MULS R16,R18
001DA5  0202    	MULS R16,R18
001DA6  0202    	MULS R16,R18
001DA7  0202    	MULS R16,R18
001DA8  0202    	MULS R16,R18
001DA9  0202    	MULS R16,R18
001DAA  0202    	MULS R16,R18
001DAB  0202    	MULS R16,R18
001DAC  0202    	MULS R16,R18
001DAD  0202    	MULS R16,R18
001DAE  0000    	NOP
001DAF  0000    	NOP
001DB0  0000    	NOP
001DB1  0000    	NOP
001DB2  0000    	NOP
001DB3  0000    	NOP
001DB4  0000    	NOP
001DB5  0000    	NOP
001DB6  0303    	MULSU R16,R19
001DB7  0303    	MULSU R16,R19
001DB8  0303    	MULSU R16,R19
001DB9  0303    	MULSU R16,R19
001DBA  0303    	MULSU R16,R19
001DBB  0303    	MULSU R16,R19
001DBC  0303    	MULSU R16,R19
001DBD  0303    	MULSU R16,R19
001DBE  0000    	NOP
001DBF  0000    	NOP
001DC0  0000    	NOP
001DC1  0000    	NOP
001DC2  0000    	NOP
001DC3  0000    	NOP
001DC4  0000    	NOP
001DC5  0000    	NOP
001DC6  0303    	MULSU R16,R19
001DC7  0303    	MULSU R16,R19
001DC8  0303    	MULSU R16,R19
001DC9  0303    	MULSU R16,R19
001DCA  0303    	MULSU R16,R19
001DCB  0303    	MULSU R16,R19
001DCC  0303    L209:	MULSU R16,R19
001DCD  0303    	MULSU R16,R19
001DCE  0202    	MULS R16,R18
001DCF  0202    	MULS R16,R18
001DD0  0202    	MULS R16,R18
001DD1  0202    	MULS R16,R18
001DD2  0202    	MULS R16,R18
001DD3  0202    	MULS R16,R18
001DD4  0202    	MULS R16,R18
001DD5  0202    	MULS R16,R18
001DD6  0000    	NOP
001DD7  0000    	NOP
001DD8  0000    	NOP
001DD9  0000    	NOP
001DDA  0000    	NOP
001DDB  0000    	NOP
001DDC  0000    	NOP
001DDD  0000    	NOP
001DDE  1414    	CP R1,R4
001DDF  1414    	CP R1,R4
001DE0  1414    	CP R1,R4
001DE1  1414    	CP R1,R4
001DE2  1414    	CP R1,R4
001DE3  1414    	CP R1,R4
001DE4  1414    	CP R1,R4
001DE5  1414    	CP R1,R4
001DE6  1E1E    	ADC R1,ZL
001DE7  1E1E    	ADC R1,ZL
001DE8  1E1E    	ADC R1,ZL
001DE9  1E1E    	ADC R1,ZL
001DEA  1E1E    	ADC R1,ZL
001DEB  1E1E    	ADC R1,ZL
001DEC  1E1E    	ADC R1,ZL
001DED  1E1E    	ADC R1,ZL
001DEE  0000    	NOP
001DEF  0000    	NOP
001DF0  0000    	NOP
001DF1  0000    	NOP
001DF2  0000    	NOP
001DF3  0000    	NOP
001DF4  0000    	NOP
001DF5  0000    	NOP
001DF6  0001    	UNRECOGNIZED
001DF7  0001    	UNRECOGNIZED
001DF8  0001    	UNRECOGNIZED
001DF9  0001    	UNRECOGNIZED
001DFA  0001    	UNRECOGNIZED
001DFB  0001    	UNRECOGNIZED
001DFC  0001    	UNRECOGNIZED
001DFD  0001    	UNRECOGNIZED
001DFE  0001    	UNRECOGNIZED
001DFF  0001    	UNRECOGNIZED
001E00  0001    	UNRECOGNIZED
001E01  0001    	UNRECOGNIZED
001E02  0001    	UNRECOGNIZED
001E03  0001    	UNRECOGNIZED
001E04  0001    	UNRECOGNIZED
001E05  0001    	UNRECOGNIZED
001E06  0001    	UNRECOGNIZED
001E07  0001    	UNRECOGNIZED
001E08  0001    	UNRECOGNIZED
001E09  0001    	UNRECOGNIZED
001E0A  0001    	UNRECOGNIZED
001E0B  0001    	UNRECOGNIZED
001E0C  0001    	UNRECOGNIZED
001E0D  0001    	UNRECOGNIZED
001E0E  0001    	UNRECOGNIZED
001E0F  0001    	UNRECOGNIZED
001E10  0001    	UNRECOGNIZED
001E11  0001    	UNRECOGNIZED
001E12  0001    	UNRECOGNIZED
001E13  0001    	UNRECOGNIZED
001E14  0001    	UNRECOGNIZED
001E15  0001    	UNRECOGNIZED
001E16  0001    	UNRECOGNIZED
001E17  0001    	UNRECOGNIZED
001E18  0001    	UNRECOGNIZED
001E19  0001    	UNRECOGNIZED
001E1A  0001    	UNRECOGNIZED
001E1B  0001    	UNRECOGNIZED
001E1C  0001    	UNRECOGNIZED
001E1D  0001    	UNRECOGNIZED
001E1E  0001    	UNRECOGNIZED
001E1F  0001    	UNRECOGNIZED
001E20  0001    	UNRECOGNIZED
001E21  0001    	UNRECOGNIZED
001E22  0001    	UNRECOGNIZED
001E23  0001    	UNRECOGNIZED
001E24  0001    	UNRECOGNIZED
001E25  0001    	UNRECOGNIZED
001E26  0001    	UNRECOGNIZED
001E27  0001    	UNRECOGNIZED
001E28  0001    	UNRECOGNIZED
001E29  0014    	UNRECOGNIZED
001E2A  0014    	UNRECOGNIZED
001E2B  0014    	UNRECOGNIZED
001E2C  0014    	UNRECOGNIZED
001E2D  0014    	UNRECOGNIZED
001E2E  0014    	UNRECOGNIZED
001E2F  0014    	UNRECOGNIZED
001E30  0014    	UNRECOGNIZED
001E31  0014    	UNRECOGNIZED
001E32  0014    	UNRECOGNIZED
001E33  0014    	UNRECOGNIZED
001E34  0014    	UNRECOGNIZED
001E35  0014    	UNRECOGNIZED
001E36  0014    	UNRECOGNIZED
001E37  0014    	UNRECOGNIZED
001E38  0014    	UNRECOGNIZED
001E39  0014    	UNRECOGNIZED
001E3A  0014    	UNRECOGNIZED
001E3B  0014    	UNRECOGNIZED
001E3C  0014    L327:	UNRECOGNIZED
001E3D  0014    	UNRECOGNIZED
001E3E  0014    	UNRECOGNIZED
001E3F  0014    	UNRECOGNIZED
001E40  0014    	UNRECOGNIZED
001E41  0014    	UNRECOGNIZED
001E42  0014    	UNRECOGNIZED
001E43  0014    	UNRECOGNIZED
001E44  0014    	UNRECOGNIZED
001E45  0014    	UNRECOGNIZED
001E46  0014    L216:	UNRECOGNIZED
001E47  0014    	UNRECOGNIZED
001E48  0014    	UNRECOGNIZED
001E49  0014    	UNRECOGNIZED
001E4A  0014    	UNRECOGNIZED
001E4B  0014    	UNRECOGNIZED
001E4C  0014    	UNRECOGNIZED
001E4D  0014    	UNRECOGNIZED
001E4E  0014    	UNRECOGNIZED
001E4F  0014    	UNRECOGNIZED
001E50  0014    	UNRECOGNIZED
001E51  0014    	UNRECOGNIZED
001E52  0014    	UNRECOGNIZED
001E53  0014    	UNRECOGNIZED
001E54  0014    	UNRECOGNIZED
001E55  0014    	UNRECOGNIZED
001E56  0014    	UNRECOGNIZED
001E57  0014    	UNRECOGNIZED
001E58  0014    	UNRECOGNIZED
001E59  0014    	UNRECOGNIZED
001E5A  0014    	UNRECOGNIZED
001E5B  01F4    	MOVW R31:R30,R9:R8
001E5C  D19F    	RCALL L211
001E5D  7F7F    	ANDI R23,$FF
001E5E  5BC8    	SUBI YL,$B8
001E5F  7F29    	ANDI R18,$F9
001E60  347F    	CPI R23,$4F
001E61  278F    	EOR R24,ZH
001E62  6D34    	ORI R19,$D4
001E63  C8D2    	RJMP L212
001E64  D19F    	RCALL L213
001E65  7F7F    	ANDI R23,$FF
001E66  5BC8    	SUBI YL,$B8
001E67  7F29    	ANDI R18,$F9
001E68  347F    	CPI R23,$4F
001E69  278F    	EOR R24,ZH
001E6A  6D34    	ORI R19,$D4
001E6B  C8D2    	RJMP L214
001E6C  D1A1    	RCALL L215
001E6D  7F7F    	ANDI R23,$FF
001E6E  54DF    L357:	SUBI YH,$4F
001E6F  7F29    	ANDI R18,$F9
001E70  367F    	CPI R23,$6F
001E71  2797    	EOR R25,R23
001E72  8136    	LDD R19,Z+6
001E73  DFD2    	RCALL L216
001E74  D198    	RCALL L217
001E75  7F7F    	ANDI R23,$FF
001E76  51D2    L359:	SUBI YH,$12
001E77  7F29    	ANDI R18,$F9
001E78  377F    	CPI R23,$7F
001E79  279B    	EOR R25,XH
001E7A  7E37    	ANDI R19,$E7
001E7B  D2D2    	RCALL L218
001E7C  D18E    L373:	RCALL L219
001E7D  7F7F    	ANDI R23,$FF
001E7E  4FC3    	SBCI YL,$F3
001E7F  7F29    	ANDI R18,$F9
001E80  397F    	CPI R23,$9F
001E81  27A0    	EOR XL,R16
001E82  7939    	ANDI R19,$99
001E83  C3D2    	RJMP L220
001E84  D18E    	RCALL L221
001E85  7F7F    	ANDI R23,$FF
001E86  4FC3    	SBCI YL,$F3
001E87  7F29    	ANDI R18,$F9
001E88  397F    	CPI R23,$9F
001E89  27A0    	EOR XL,R16
001E8A  7939    	ANDI R19,$99
001E8B  C3D2    	RJMP L222
001E8C  D192    	RCALL L223
001E8D  7F7F    	ANDI R23,$FF
001E8E  4EC5    	SBCI YL,$E5
001E8F  7F29    	ANDI R18,$F9
001E90  327F    	CPI R23,$2F
001E91  2799    	CLR R25
001E92  7732    	ANDI R19,$72
001E93  C5D2    	RJMP L224
001E94  D196    	RCALL L225
001E95  7F7F    	ANDI R23,$FF
001E96  4DC6    	SBCI YL,$D6
001E97  7F29    	ANDI R18,$F9
001E98  2B7F    	OR R23,ZH
001E99  2793    	EOR R25,R19
001E9A  752B    	ANDI R18,$5B
001E9B  C6D2    	RJMP L226
001E9C  D19A    	RCALL L227
001E9D  7F7F    	ANDI R23,$FF
001E9E  4EC7    	SBCI YL,$E7
001E9F  7F29    	ANDI R18,$F9
001EA0  247F    	EOR R7,R15
001EA1  278D    	EOR R24,YH
001EA2  7224    	ANDI R18,$24
001EA3  C7D2    	RJMP L228
001EA4  D19D    	RCALL L229
001EA5  7F7F    	ANDI R23,$FF
001EA6  4FC8    	SBCI YL,$F8
001EA7  7F29    	ANDI R18,$F9
001EA8  1F7F    	ADC R23,ZH
001EA9  2787    	EOR R24,R23
001EAA  6F1F    	ORI R17,$FF
001EAB  C8D2    	RJMP L230
001EAC  D1A1    	RCALL L231
001EAD  7F7F    	ANDI R23,$FF
001EAE  53C8    	SUBI YL,$38
001EAF  7F29    	ANDI R18,$F9
001EB0  1F7F    	ADC R23,ZH
001EB1  2783    	EOR R24,R19
001EB2  6B1F    	ORI R17,$BF
001EB3  C8D2    	RJMP L232
001EB4  D1A4    	RCALL L233
001EB5  7F7F    	ANDI R23,$FF
001EB6  59C7    	SUBI YL,$97
001EB7  7F29    	ANDI R18,$F9
001EB8  247F    	EOR R7,R15
001EB9  2782    	EOR R24,R18
001EBA  6824    	ORI R18,$84
001EBB  C7D2    	RJMP L234
001EBC  D1A7    	RCALL L235
001EBD  7F7F    	ANDI R23,$FF
001EBE  5FC6    L374:	SUBI YL,$F6
001EBF  7F29    	ANDI R18,$F9
001EC0  2B7F    L376:	OR R23,ZH
001EC1  2781    	EOR R24,R17
001EC2  642B    	ORI R18,$4B
001EC3  C6D2    	RJMP L236
001EC4  D1A9    	RCALL L237
001EC5  7F7F    	ANDI R23,$FF
001EC6  65C5    	ORI YL,$55
001EC7  7F29    L378:	ANDI R18,$F9
001EC8  327F    	CPI R23,$2F
001EC9  2782    	EOR R24,R18
001ECA  6032    	ORI R19,$02
001ECB  C5D2    	RJMP L238
001ECC  D1AB    	RCALL L239
001ECD  7F7F    	ANDI R23,$FF
001ECE  6CC3    L380:	ORI YL,$C3
001ECF  7F29    	ANDI R18,$F9
001ED0  397F    	CPI R23,$9F
001ED1  2783    	EOR R24,R19
001ED2  5C39    	SUBI R19,$C9
001ED3  C3D2    	RJMP L240
001ED4  D1AB    	RCALL L241
001ED5  7F7F    L382:	ANDI R23,$FF
001ED6  6CC3    	ORI YL,$C3
001ED7  7F29    	ANDI R18,$F9
001ED8  397F    	CPI R23,$9F
001ED9  2783    	EOR R24,R19
001EDA  5C39    	SUBI R19,$C9
001EDB  C3D2    	RJMP L242
001EDC  D1AC    L384:	RCALL L243
001EDD  7F7F    	ANDI R23,$FF
001EDE  68CA    	ORI YL,$8A
001EDF  7F29    	ANDI R18,$F9
001EE0  377F    	CPI R23,$7F
001EE1  2785    	EOR R24,R21
001EE2  6337    	ORI R19,$37
001EE3  CAD2    L386:	RJMP L244
001EE4  D1AD    	RCALL L245
001EE5  7F7F    	ANDI R23,$FF
001EE6  64D1    	ORI YH,$41
001EE7  7F29    	ANDI R18,$F9
001EE8  367F    	CPI R23,$6F
001EE9  2787    	EOR R24,R23
001EEA  6936    L388:	ORI R19,$96
001EEB  D1D2    	RCALL L246
001EEC  D1AC    	RCALL L247
001EED  7F7F    	ANDI R23,$FF
001EEE  60D8    	ORI YH,$08
001EEF  7F29    	ANDI R18,$F9
001EF0  357F    	CPI R23,$5F
001EF1  278A    L390:	EOR R24,XL
001EF2  6F35    	ORI R19,$F5
001EF3  D8D2    	RCALL L248
001EF4  D1AB    	RCALL L249
001EF5  7F7F    	ANDI R23,$FF
001EF6  5DDD    	SUBI YH,$DD
001EF7  7F29    	ANDI R18,$F9
001EF8  347F    L392:	CPI R23,$4F
001EF9  278D    	EOR R24,YH
001EFA  7534    	ANDI R19,$54
001EFB  DDD2    	RCALL L250
001EFC  D1A7    	RCALL L251
001EFD  7F7F    	ANDI R23,$FF
001EFE  59DD    	SUBI YH,$9D
001EFF  7F29    	ANDI R18,$F9
001F00  347F    L394:	CPI R23,$4F
001F01  2791    	EOR R25,R17
001F02  7934    	ANDI R19,$94
001F03  DDD2    	RCALL L252
001F04  D1A1    	RCALL L253
001F05  7F7F    	ANDI R23,$FF
001F06  56D8    	SUBI YH,$68
001F07  7F29    	ANDI R18,$F9
001F08  357F    L396:	CPI R23,$5F
001F09  2794    	EOR R25,R20
001F0A  7A35    	ANDI R19,$A5
001F0B  D8D2    	RCALL L254
001F0C  D19B    	RCALL L255
001F0D  7F7F    	ANDI R23,$FF
001F0E  53D1    	SUBI YH,$31
001F0F  7F29    	ANDI R18,$F9
001F10  367F    	CPI R23,$6F
001F11  2798    	EOR R25,R24
001F12  7B36    	ANDI R19,$B6
001F13  D1D2    	RCALL L256
001F14  D195    	RCALL L257
001F15  7F7F    	ANDI R23,$FF
001F16  51CA    	SUBI YL,$1A
001F17  7F29    	ANDI R18,$F9
001F18  377F    	CPI R23,$7F
001F19  279C    	EOR R25,YL
001F1A  7A37    	ANDI R19,$A7
001F1B  CAD2    	RJMP L258
001F1C  D18E    	RCALL L259
001F1D  7F7F    	ANDI R23,$FF
001F1E  4FC3    	SBCI YL,$F3
001F1F  7F29    	ANDI R18,$F9
001F20  397F    	CPI R23,$9F
001F21  27A0    	EOR XL,R16
001F22  7939    	ANDI R19,$99
001F23  C3D2    	RJMP L260
001F24  D18E    	RCALL L261
001F25  7F7F    	ANDI R23,$FF
001F26  4FC3    	SBCI YL,$F3
001F27  7F29    	ANDI R18,$F9
001F28  397F    	CPI R23,$9F
001F29  27A0    	EOR XL,R16
001F2A  7939    	ANDI R19,$99
001F2B  C3D2    	RJMP L262
001F2C  D192    	RCALL L263
001F2D  7F7F    	ANDI R23,$FF
001F2E  4EC5    	SBCI YL,$E5
001F2F  7F29    	ANDI R18,$F9
001F30  327F    	CPI R23,$2F
001F31  2799    	CLR R25
001F32  7732    	ANDI R19,$72
001F33  C5D2    	RJMP L264
001F34  D196    L325:	RCALL L265
001F35  7F7F    	ANDI R23,$FF
001F36  4DC6    	SBCI YL,$D6
001F37  7F29    	ANDI R18,$F9
001F38  2B7F    	OR R23,ZH
001F39  2793    	EOR R25,R19
001F3A  752B    	ANDI R18,$5B
001F3B  C6D2    	RJMP L266
001F3C  D19A    	RCALL L267
001F3D  7F7F    	ANDI R23,$FF
001F3E  4EC7    	SBCI YL,$E7
001F3F  7F29    	ANDI R18,$F9
001F40  247F    	EOR R7,R15
001F41  278D    	EOR R24,YH
001F42  7224    	ANDI R18,$24
001F43  C7D2    	RJMP L268
001F44  D19D    	RCALL L269
001F45  7F7F    	ANDI R23,$FF
001F46  4FC8    	SBCI YL,$F8
001F47  7F29    	ANDI R18,$F9
001F48  1F7F    	ADC R23,ZH
001F49  2787    	EOR R24,R23
001F4A  6F1F    	ORI R17,$FF
001F4B  C8D2    	RJMP L270
001F4C  D1A1    	RCALL L271
001F4D  7F7F    	ANDI R23,$FF
001F4E  53C8    	SUBI YL,$38
001F4F  7F29    	ANDI R18,$F9
001F50  1F7F    	ADC R23,ZH
001F51  2783    	EOR R24,R19
001F52  6B1F    	ORI R17,$BF
001F53  C8D2    	RJMP L272
001F54  D1A4    	RCALL L273
001F55  7F7F    	ANDI R23,$FF
001F56  59C7    	SUBI YL,$97
001F57  7F29    	ANDI R18,$F9
001F58  247F    	EOR R7,R15
001F59  2782    	EOR R24,R18
001F5A  6824    	ORI R18,$84
001F5B  C7D2    	RJMP L274
001F5C  D1A7    	RCALL L275
001F5D  7F7F    	ANDI R23,$FF
001F5E  5FC6    	SUBI YL,$F6
001F5F  7F29    	ANDI R18,$F9
001F60  2B7F    	OR R23,ZH
001F61  2781    	EOR R24,R17
001F62  642B    	ORI R18,$4B
001F63  C6D2    	RJMP L276
001F64  D1A9    	RCALL L277
001F65  7F7F    	ANDI R23,$FF
001F66  65C5    	ORI YL,$55
001F67  7F29    	ANDI R18,$F9
001F68  327F    	CPI R23,$2F
001F69  2782    	EOR R24,R18
001F6A  6032    	ORI R19,$02
001F6B  C5D2    	RJMP L278
001F6C  D1AB    	RCALL L279
001F6D  7F7F    	ANDI R23,$FF
001F6E  6CC3    	ORI YL,$C3
001F6F  7F29    L370:	ANDI R18,$F9
001F70  397F    	CPI R23,$9F
001F71  2783    	EOR R24,R19
001F72  5C39    	SUBI R19,$C9
001F73  C3D2    	RJMP L280
001F74  D1AB    	RCALL L281
001F75  7F7F    	ANDI R23,$FF
001F76  6CC3    	ORI YL,$C3
001F77  7F29    	ANDI R18,$F9
001F78  397F    	CPI R23,$9F
001F79  2783    	EOR R24,R19
001F7A  5C39    	SUBI R19,$C9
001F7B  C3D2    	RJMP L282
001F7C  D1AC    	RCALL L283
001F7D  7F7F    	ANDI R23,$FF
001F7E  68CA    	ORI YL,$8A
001F7F  7F29    	ANDI R18,$F9
001F80  377F    	CPI R23,$7F
001F81  2785    	EOR R24,R21
001F82  6337    	ORI R19,$37
001F83  CAD2    	RJMP L284
001F84  D1AD    	RCALL L285
001F85  7F7F    	ANDI R23,$FF
001F86  64D1    	ORI YH,$41
001F87  7F29    	ANDI R18,$F9
001F88  367F    	CPI R23,$6F
001F89  2787    	EOR R24,R23
001F8A  6936    	ORI R19,$96
001F8B  D1D2    	RCALL L286
001F8C  D1AC    	RCALL L287
001F8D  7F7F    	ANDI R23,$FF
001F8E  60D8    	ORI YH,$08
001F8F  7F29    	ANDI R18,$F9
001F90  357F    	CPI R23,$5F
001F91  278A    	EOR R24,XL
001F92  6F35    	ORI R19,$F5
001F93  D8D2    	RCALL L288
001F94  D1AB    	RCALL L289
001F95  7F7F    	ANDI R23,$FF
001F96  5DDD    	SUBI YH,$DD
001F97  7F29    	ANDI R18,$F9
001F98  347F    	CPI R23,$4F
001F99  278D    	EOR R24,YH
001F9A  7534    	ANDI R19,$54
001F9B  DDD2    	RCALL L290
001F9C  D1A7    	RCALL L291
001F9D  7F7F    	ANDI R23,$FF
001F9E  59DD    	SUBI YH,$9D
001F9F  7F29    L338:	ANDI R18,$F9
001FA0  347F    	CPI R23,$4F
001FA1  2791    	EOR R25,R17
001FA2  7934    	ANDI R19,$94
001FA3  DDD2    	RCALL L292
001FA4  D1A1    	RCALL L293
001FA5  7F7F    	ANDI R23,$FF
001FA6  56D8    	SUBI YH,$68
001FA7  7F29    	ANDI R18,$F9
001FA8  357F    	CPI R23,$5F
001FA9  2794    	EOR R25,R20
001FAA  7A35    	ANDI R19,$A5
001FAB  D8D2    	RCALL L294
001FAC  D19B    	RCALL L295
001FAD  7F7F    	ANDI R23,$FF
001FAE  53D1    	SUBI YH,$31
001FAF  7F29    	ANDI R18,$F9
001FB0  367F    	CPI R23,$6F
001FB1  2798    	EOR R25,R24
001FB2  7B36    	ANDI R19,$B6
001FB3  D1D2    	RCALL L296
001FB4  D195    	RCALL L297
001FB5  7F7F    	ANDI R23,$FF
001FB6  51CA    	SUBI YL,$1A
001FB7  7F29    	ANDI R18,$F9
001FB8  377F    	CPI R23,$7F
001FB9  279C    	EOR R25,YL
001FBA  7A37    	ANDI R19,$A7
001FBB  CAD2    	RJMP L298
001FBC  D18E    	RCALL L299
001FBD  7F7F    	ANDI R23,$FF
001FBE  4FC3    	SBCI YL,$F3
001FBF  7F29    	ANDI R18,$F9
001FC0  397F    	CPI R23,$9F
001FC1  27A0    	EOR XL,R16
001FC2  7939    	ANDI R19,$99
001FC3  C3D2    	RJMP L300
001FC4  D18E    	RCALL L301
001FC5  7F7F    	ANDI R23,$FF
001FC6  4FC3    	SBCI YL,$F3
001FC7  7F29    	ANDI R18,$F9
001FC8  397F    	CPI R23,$9F
001FC9  27A0    	EOR XL,R16
001FCA  7939    	ANDI R19,$99
001FCB  C3D2    	RJMP L302
001FCC  D192    	RCALL L303
001FCD  7F7F    	ANDI R23,$FF
001FCE  4EC5    	SBCI YL,$E5
001FCF  7F29    	ANDI R18,$F9
001FD0  327F    L351:	CPI R23,$2F
001FD1  2799    	CLR R25
001FD2  7732    	ANDI R19,$72
001FD3  C5D2    	RJMP L304
001FD4  D196    	RCALL L305
001FD5  7F7F    	ANDI R23,$FF
001FD6  4DC6    	SBCI YL,$D6
001FD7  7F29    	ANDI R18,$F9
001FD8  2B7F    	OR R23,ZH
001FD9  2793    	EOR R25,R19
001FDA  752B    	ANDI R18,$5B
001FDB  C6D2    	RJMP L306
001FDC  D19A    	RCALL L307
001FDD  7F7F    	ANDI R23,$FF
001FDE  4EC7    	SBCI YL,$E7
001FDF  7F29    	ANDI R18,$F9
001FE0  247F    	EOR R7,R15
001FE1  278D    	EOR R24,YH
001FE2  7224    	ANDI R18,$24
001FE3  C7D2    	RJMP L308
001FE4  D19D    	RCALL L309
001FE5  7F7F    	ANDI R23,$FF
001FE6  4FC8    	SBCI YL,$F8
001FE7  7F29    	ANDI R18,$F9
001FE8  1F7F    	ADC R23,ZH
001FE9  2787    	EOR R24,R23
001FEA  6F1F    	ORI R17,$FF
001FEB  C8D2    	RJMP L310
001FEC  D1A1    	RCALL L311
001FED  7F7F    	ANDI R23,$FF
001FEE  53C8    	SUBI YL,$38
001FEF  7F29    	ANDI R18,$F9
001FF0  1F7F    	ADC R23,ZH
001FF1  2783    	EOR R24,R19
001FF2  6B1F    	ORI R17,$BF
001FF3  C8D2    	RJMP L312
001FF4  D19F    	RCALL L313
001FF5  7F7F    	ANDI R23,$FF
001FF6  5BC8    	SUBI YL,$B8
001FF7  7F29    	ANDI R18,$F9
001FF8  347F    	CPI R23,$4F
001FF9  278F    	EOR R24,ZH
001FFA  6D34    	ORI R19,$D4
001FFB  C8D2    	RJMP L314
001FFC  0202    L211:	MULS R16,R18
001FFD  0202    	MULS R16,R18
001FFE  0202    	MULS R16,R18
001FFF  0202    	MULS R16,R18
002000  0202    	MULS R16,R18
002001  0202    	MULS R16,R18
002002  0202    	MULS R16,R18
002003  0202    	MULS R16,R18
002004  0202    L213:	MULS R16,R18
002005  0202    	MULS R16,R18
002006  0202    	MULS R16,R18
002007  0202    	MULS R16,R18
002008  0202    	MULS R16,R18
002009  0202    	MULS R16,R18
00200A  0202    	MULS R16,R18
00200B  0202    L219:	MULS R16,R18
00200C  0202    	MULS R16,R18
00200D  0202    L217:	MULS R16,R18
00200E  0202    L215:	MULS R16,R18
00200F  0202    	MULS R16,R18
002010  0202    	MULS R16,R18
002011  0202    L206:	MULS R16,R18
002012  0202    	MULS R16,R18
002013  0202    L221:	MULS R16,R18
002014  0202    	MULS R16,R18
002015  0202    	MULS R16,R18
002016  0202    	MULS R16,R18
002017  0202    	MULS R16,R18
002018  0202    	MULS R16,R18
002019  0202    	MULS R16,R18
00201A  0202    	MULS R16,R18
00201B  0202    	MULS R16,R18
00201C  0202    	MULS R16,R18
00201D  0202    	MULS R16,R18
00201E  0202    	MULS R16,R18
00201F  0202    L223:	MULS R16,R18
002020  0202    	MULS R16,R18
002021  0202    	MULS R16,R18
002022  0202    	MULS R16,R18
002023  0202    	MULS R16,R18
002024  0202    	MULS R16,R18
002025  0202    	MULS R16,R18
002026  0202    	MULS R16,R18
002027  0202    	MULS R16,R18
002028  0202    	MULS R16,R18
002029  0202    	MULS R16,R18
00202A  0202    	MULS R16,R18
00202B  0202    L225:	MULS R16,R18
00202C  0202    L323:	MULS R16,R18
00202D  0202    	MULS R16,R18
00202E  0202    	MULS R16,R18
00202F  0202    	MULS R16,R18
002030  0202    	MULS R16,R18
002031  0202    	MULS R16,R18
002032  0202    	MULS R16,R18
002033  0202    	MULS R16,R18
002034  0202    	MULS R16,R18
002035  0202    	MULS R16,R18
002036  0202    	MULS R16,R18
002037  0202    L227:	MULS R16,R18
002038  0202    	MULS R16,R18
002039  0202    	MULS R16,R18
00203A  0202    	MULS R16,R18
00203B  0202    	MULS R16,R18
00203C  0202    	MULS R16,R18
00203D  0202    	MULS R16,R18
00203E  0202    	MULS R16,R18
00203F  0202    	MULS R16,R18
002040  0202    	MULS R16,R18
002041  0202    	MULS R16,R18
002042  0202    L229:	MULS R16,R18
002043  0202    	MULS R16,R18
002044  0202    	MULS R16,R18
002045  0202    	MULS R16,R18
002046  0202    	MULS R16,R18
002047  0202    	MULS R16,R18
002048  0202    	MULS R16,R18
002049  0202    	MULS R16,R18
00204A  0202    	MULS R16,R18
00204B  0202    	MULS R16,R18
00204C  0202    	MULS R16,R18
00204D  0202    	MULS R16,R18
00204E  0202    L231:	MULS R16,R18
00204F  0202    	MULS R16,R18
002050  0202    	MULS R16,R18
002051  0202    	MULS R16,R18
002052  0202    	MULS R16,R18
002053  0202    	MULS R16,R18
002054  0202    	MULS R16,R18
002055  0202    	MULS R16,R18
002056  0202    	MULS R16,R18
002057  0202    	MULS R16,R18
002058  0202    	MULS R16,R18
002059  0202    L233:	MULS R16,R18
00205A  0202    	MULS R16,R18
00205B  0202    	MULS R16,R18
00205C  0202    	MULS R16,R18
00205D  0202    	MULS R16,R18
00205E  0202    	MULS R16,R18
00205F  0202    	MULS R16,R18
002060  0202    	MULS R16,R18
002061  0202    	MULS R16,R18
002062  0202    	MULS R16,R18
002063  0202    	MULS R16,R18
002064  0202    L235:	MULS R16,R18
002065  0202    	MULS R16,R18
002066  0202    	MULS R16,R18
002067  0202    	MULS R16,R18
002068  0202    	MULS R16,R18
002069  0202    L368:	MULS R16,R18
00206A  0202    	MULS R16,R18
00206B  0202    	MULS R16,R18
00206C  0202    	MULS R16,R18
00206D  0202    	MULS R16,R18
00206E  0202    L237:	MULS R16,R18
00206F  0202    	MULS R16,R18
002070  0202    	MULS R16,R18
002071  0202    	MULS R16,R18
002072  0202    	MULS R16,R18
002073  0202    	MULS R16,R18
002074  0202    	MULS R16,R18
002075  0202    	MULS R16,R18
002076  0202    	MULS R16,R18
002077  0202    	MULS R16,R18
002078  0202    L239:	MULS R16,R18
002079  0202    	MULS R16,R18
00207A  0202    	MULS R16,R18
00207B  0202    	MULS R16,R18
00207C  0202    	MULS R16,R18
00207D  0202    	MULS R16,R18
00207E  0202    	MULS R16,R18
00207F  0202    	MULS R16,R18
002080  0202    L241:	MULS R16,R18
002081  0202    	MULS R16,R18
002082  0202    L398:	MULS R16,R18
002083  0202    	MULS R16,R18
002084  0202    	MULS R16,R18
002085  0202    	MULS R16,R18
002086  0202    	MULS R16,R18
002087  0202    	MULS R16,R18
002088  0202    	MULS R16,R18
002089  0202    L243:	MULS R16,R18
00208A  0202    L400:	MULS R16,R18
00208B  0202    	MULS R16,R18
00208C  0202    	MULS R16,R18
00208D  0202    	MULS R16,R18
00208E  0202    	MULS R16,R18
00208F  0202    	MULS R16,R18
002090  0202    	MULS R16,R18
002091  0202    	MULS R16,R18
002092  0202    L245:	MULS R16,R18
002093  0202    	MULS R16,R18
002094  0202    	MULS R16,R18
002095  0202    	MULS R16,R18
002096  0202    	MULS R16,R18
002097  0202    	MULS R16,R18
002098  0202    	MULS R16,R18
002099  0202    L247:	MULS R16,R18
00209A  0202    	MULS R16,R18
00209B  0202    	MULS R16,R18
00209C  0202    	MULS R16,R18
00209D  0202    	MULS R16,R18
00209E  0202    	MULS R16,R18
00209F  0202    	MULS R16,R18
0020A0  0202    L249:	MULS R16,R18
0020A1  0202    	MULS R16,R18
0020A2  0202    	MULS R16,R18
0020A3  0202    	MULS R16,R18
0020A4  0202    L251:	MULS R16,R18
0020A5  0202    	MULS R16,R18
0020A6  0202    L253:	MULS R16,R18
0020A7  0202    	MULS R16,R18
0020A8  0202    L255:	MULS R16,R18
0020A9  0202    	MULS R16,R18
0020AA  0202    L257:	MULS R16,R18
0020AB  0202    L259:	MULS R16,R18
0020AC  0202    	MULS R16,R18
0020AD  0202    	MULS R16,R18
0020AE  0202    	MULS R16,R18
0020AF  0202    	MULS R16,R18
0020B0  0202    	MULS R16,R18
0020B1  0202    	MULS R16,R18
0020B2  0202    	MULS R16,R18
0020B3  0202    L261:	MULS R16,R18
0020B4  0202    	MULS R16,R18
0020B5  0202    	MULS R16,R18
0020B6  0202    	MULS R16,R18
0020B7  0202    	MULS R16,R18
0020B8  0202    	MULS R16,R18
0020B9  0202    	MULS R16,R18
0020BA  0202    	MULS R16,R18
0020BB  0202    	MULS R16,R18
0020BC  0202    	MULS R16,R18
0020BD  0202    	MULS R16,R18
0020BE  0202    L246:	MULS R16,R18
0020BF  0202    L263:	MULS R16,R18
0020C0  0202    	MULS R16,R18
0020C1  0202    	MULS R16,R18
0020C2  0202    	MULS R16,R18
0020C3  0202    	MULS R16,R18
0020C4  0202    	MULS R16,R18
0020C5  0202    	MULS R16,R18
0020C6  0202    	MULS R16,R18
0020C7  0202    	MULS R16,R18
0020C8  0202    	MULS R16,R18
0020C9  0202    	MULS R16,R18
0020CA  0202    L416:	MULS R16,R18
0020CB  0202    L265:	MULS R16,R18
0020CC  0202    	MULS R16,R18
0020CD  0202    	MULS R16,R18
0020CE  0202    	MULS R16,R18
0020CF  0202    	MULS R16,R18
0020D0  0202    	MULS R16,R18
0020D1  0202    	MULS R16,R18
0020D2  0202    L418:	MULS R16,R18
0020D3  0202    	MULS R16,R18
0020D4  0202    	MULS R16,R18
0020D5  0202    	MULS R16,R18
0020D6  0202    	MULS R16,R18
0020D7  0202    L267:	MULS R16,R18
0020D8  0202    	MULS R16,R18
0020D9  0202    	MULS R16,R18
0020DA  0202    	MULS R16,R18
0020DB  0202    	MULS R16,R18
0020DC  0202    	MULS R16,R18
0020DD  0202    	MULS R16,R18
0020DE  0202    	MULS R16,R18
0020DF  0202    	MULS R16,R18
0020E0  0202    	MULS R16,R18
0020E1  0202    	MULS R16,R18
0020E2  0202    L269:	MULS R16,R18
0020E3  0202    	MULS R16,R18
0020E4  0202    	MULS R16,R18
0020E5  0202    	MULS R16,R18
0020E6  0202    L256:	MULS R16,R18
0020E7  0202    	MULS R16,R18
0020E8  0202    	MULS R16,R18
0020E9  0202    	MULS R16,R18
0020EA  0202    	MULS R16,R18
0020EB  0202    	MULS R16,R18
0020EC  0202    	MULS R16,R18
0020ED  0202    L205:	MULS R16,R18
0020EE  0202    L271:	MULS R16,R18
0020EF  0202    	MULS R16,R18
0020F0  0202    	MULS R16,R18
0020F1  0202    	MULS R16,R18
0020F2  0202    	MULS R16,R18
0020F3  0202    	MULS R16,R18
0020F4  0202    	MULS R16,R18
0020F5  0202    	MULS R16,R18
0020F6  0202    	MULS R16,R18
0020F7  0202    	MULS R16,R18
0020F8  0202    	MULS R16,R18
0020F9  0202    L273:	MULS R16,R18
0020FA  0202    	MULS R16,R18
0020FB  0202    	MULS R16,R18
0020FC  0202    	MULS R16,R18
0020FD  0202    	MULS R16,R18
0020FE  0202    	MULS R16,R18
0020FF  0202    	MULS R16,R18
002100  0202    	MULS R16,R18
002101  0202    	MULS R16,R18
002102  0202    	MULS R16,R18
002103  0202    	MULS R16,R18
002104  0202    L275:	MULS R16,R18
002105  0202    	MULS R16,R18
002106  0202    	MULS R16,R18
002107  0202    	MULS R16,R18
002108  0202    	MULS R16,R18
002109  0202    	MULS R16,R18
00210A  0202    	MULS R16,R18
00210B  0202    	MULS R16,R18
00210C  0202    	MULS R16,R18
00210D  0202    	MULS R16,R18
00210E  0202    L277:	MULS R16,R18
00210F  0202    	MULS R16,R18
002110  0202    	MULS R16,R18
002111  0202    	MULS R16,R18
002112  0202    	MULS R16,R18
002113  0202    	MULS R16,R18
002114  0202    	MULS R16,R18
002115  0202    	MULS R16,R18
002116  0202    	MULS R16,R18
002117  0202    	MULS R16,R18
002118  0202    L279:	MULS R16,R18
002119  0202    	MULS R16,R18
00211A  0202    	MULS R16,R18
00211B  0202    	MULS R16,R18
00211C  0202    	MULS R16,R18
00211D  0202    	MULS R16,R18
00211E  0202    	MULS R16,R18
00211F  0202    	MULS R16,R18
002120  0202    L281:	MULS R16,R18
002121  0202    	MULS R16,R18
002122  0202    	MULS R16,R18
002123  0202    	MULS R16,R18
002124  0202    L321:	MULS R16,R18
002125  0202    	MULS R16,R18
002126  0202    	MULS R16,R18
002127  0202    	MULS R16,R18
002128  0202    	MULS R16,R18
002129  0202    L283:	MULS R16,R18
00212A  0202    	MULS R16,R18
00212B  0202    	MULS R16,R18
00212C  0202    	MULS R16,R18
00212D  0202    	MULS R16,R18
00212E  0202    	MULS R16,R18
00212F  0202    	MULS R16,R18
002130  0202    	MULS R16,R18
002131  0202    	MULS R16,R18
002132  0202    L285:	MULS R16,R18
002133  0202    	MULS R16,R18
002134  0202    	MULS R16,R18
002135  0202    	MULS R16,R18
002136  0202    	MULS R16,R18
002137  0202    	MULS R16,R18
002138  0202    	MULS R16,R18
002139  0202    L287:	MULS R16,R18
00213A  0202    	MULS R16,R18
00213B  0202    	MULS R16,R18
00213C  0202    	MULS R16,R18
00213D  0202    	MULS R16,R18
00213E  0202    	MULS R16,R18
00213F  0202    	MULS R16,R18
002140  0202    L289:	MULS R16,R18
002141  0202    	MULS R16,R18
002142  0202    	MULS R16,R18
002143  0202    	MULS R16,R18
002144  0202    L291:	MULS R16,R18
002145  0202    	MULS R16,R18
002146  0202    L293:	MULS R16,R18
002147  0202    	MULS R16,R18
002148  0202    L295:	MULS R16,R18
002149  0202    	MULS R16,R18
00214A  0202    L297:	MULS R16,R18
00214B  0202    L299:	MULS R16,R18
00214C  0202    	MULS R16,R18
00214D  0202    	MULS R16,R18
00214E  0202    L218:	MULS R16,R18
00214F  0202    	MULS R16,R18
002150  0202    	MULS R16,R18
002151  0202    	MULS R16,R18
002152  0202    	MULS R16,R18
002153  0202    L301:	MULS R16,R18
002154  0202    	MULS R16,R18
002155  0202    	MULS R16,R18
002156  0202    	MULS R16,R18
002157  0202    	MULS R16,R18
002158  0202    	MULS R16,R18
002159  0202    	MULS R16,R18
00215A  0202    	MULS R16,R18
00215B  0202    	MULS R16,R18
00215C  0202    	MULS R16,R18
00215D  0202    	MULS R16,R18
00215E  0202    L286:	MULS R16,R18
00215F  0202    L303:	MULS R16,R18
002160  0202    	MULS R16,R18
002161  0202    	MULS R16,R18
002162  0202    L366:	MULS R16,R18
002163  0202    	MULS R16,R18
002164  0202    	MULS R16,R18
002165  0202    	MULS R16,R18
002166  0202    	MULS R16,R18
002167  0202    	MULS R16,R18
002168  0202    	MULS R16,R18
002169  0202    	MULS R16,R18
00216A  0202    	MULS R16,R18
00216B  0202    L305:	MULS R16,R18
00216C  0202    	MULS R16,R18
00216D  0202    	MULS R16,R18
00216E  0202    	MULS R16,R18
00216F  0202    	MULS R16,R18
002170  0202    	MULS R16,R18
002171  0202    	MULS R16,R18
002172  0202    	MULS R16,R18
002173  0202    	MULS R16,R18
002174  0202    	MULS R16,R18
002175  0202    	MULS R16,R18
002176  0202    	MULS R16,R18
002177  0202    L307:	MULS R16,R18
002178  0202    	MULS R16,R18
002179  0202    	MULS R16,R18
00217A  0202    	MULS R16,R18
00217B  0202    	MULS R16,R18
00217C  0202    	MULS R16,R18
00217D  0202    	MULS R16,R18
00217E  0202    	MULS R16,R18
00217F  0202    	MULS R16,R18
002180  0202    	MULS R16,R18
002181  0202    	MULS R16,R18
002182  0202    L309:	MULS R16,R18
002183  0202    	MULS R16,R18
002184  0202    	MULS R16,R18
002185  0202    	MULS R16,R18
002186  0202    L296:	MULS R16,R18
002187  0202    	MULS R16,R18
002188  0202    	MULS R16,R18
002189  0202    	MULS R16,R18
00218A  0202    	MULS R16,R18
00218B  0202    	MULS R16,R18
00218C  0303    	MULSU R16,R19
00218D  0303    	MULSU R16,R19
00218E  0303    L311:	MULSU R16,R19
00218F  0303    	MULSU R16,R19
002190  0303    	MULSU R16,R19
002191  0303    	MULSU R16,R19
002192  0303    	MULSU R16,R19
002193  0303    	MULSU R16,R19
002194  0000    L313:	NOP
002195  0000    	NOP
002196  0000    	NOP
002197  0000    	NOP
002198  0000    	NOP
002199  0000    	NOP
00219A  0000    	NOP
00219B  0000    	NOP
00219C  0000    	NOP
00219D  0000    	NOP
00219E  0000    	NOP
00219F  0000    	NOP
0021A0  0000    	NOP
0021A1  0000    	NOP
0021A2  0000    	NOP
0021A3  0000    	NOP
0021A4  0000    	NOP
0021A5  0000    	NOP
0021A6  0000    L420:	NOP
0021A7  0000    	NOP
0021A8  0000    	NOP
0021A9  0000    	NOP
0021AA  0000    	NOP
0021AB  0000    	NOP
0021AC  0000    	NOP
0021AD  0000    	NOP
0021AE  0000    L422:	NOP
0021AF  0000    	NOP
0021B0  0000    	NOP
0021B1  0000    	NOP
0021B2  0000    	NOP
0021B3  0000    	NOP
0021B4  0000    	NOP
0021B5  0000    	NOP
0021B6  0000    L372:	NOP
0021B7  0000    	NOP
0021B8  0000    	NOP
0021B9  0000    	NOP
0021BA  0000    	NOP
0021BB  0000    	NOP
0021BC  0000    	NOP
0021BD  0000    	NOP
0021BE  0000    	NOP
0021BF  0000    	NOP
0021C0  0000    	NOP
0021C1  0000    	NOP
0021C2  0000    	NOP
0021C3  0000    	NOP
0021C4  0000    	NOP
0021C5  0000    	NOP
0021C6  0000    	NOP
0021C7  0000    	NOP
0021C8  0000    	NOP
0021C9  0000    	NOP
0021CA  0000    	NOP
0021CB  0000    	NOP
0021CC  0000    	NOP
0021CD  0000    	NOP
0021CE  0000    	NOP
0021CF  0000    	NOP
0021D0  0000    	NOP
0021D1  0000    	NOP
0021D2  0000    	NOP
0021D3  0000    	NOP
0021D4  0000    	NOP
0021D5  0000    	NOP
0021D6  0000    	NOP
0021D7  0000    	NOP
0021D8  0000    	NOP
0021D9  0000    	NOP
0021DA  0000    	NOP
0021DB  0000    	NOP
0021DC  0000    	NOP
0021DD  0000    	NOP
0021DE  0000    	NOP
0021DF  0000    	NOP
0021E0  0000    	NOP
0021E1  0000    	NOP
0021E2  0000    	NOP
0021E3  0000    	NOP
0021E4  0000    	NOP
0021E5  0000    	NOP
0021E6  0000    	NOP
0021E7  0000    	NOP
0021E8  0000    	NOP
0021E9  0000    	NOP
0021EA  0000    	NOP
0021EB  0000    	NOP
0021EC  0000    	NOP
0021ED  0000    	NOP
0021EE  0000    L437:	NOP
0021EF  0000    	NOP
0021F0  0000    	NOP
0021F1  0000    	NOP
0021F2  0000    	NOP
0021F3  0000    	NOP
0021F4  0000    	NOP
0021F5  0000    	NOP
0021F6  0000    L439:	NOP
0021F7  0000    	NOP
0021F8  0000    	NOP
0021F9  0000    	NOP
0021FA  0000    	NOP
0021FB  0000    	NOP
0021FC  0000    	NOP
0021FD  0000    	NOP
0021FE  0000    	NOP
0021FF  0000    	NOP
002200  0000    	NOP
002201  0000    	NOP
002202  0000    	NOP
002203  0000    	NOP
002204  0000    	NOP
002205  0000    	NOP
002206  0000    	NOP
002207  0000    	NOP
002208  0000    	NOP
002209  0000    	NOP
00220A  0000    	NOP
00220B  0000    	NOP
00220C  0000    	NOP
00220D  0000    	NOP
00220E  0000    	NOP
00220F  0000    	NOP
002210  0000    	NOP
002211  0000    	NOP
002212  0000    	NOP
002213  0000    	NOP
002214  0000    	NOP
002215  0000    	NOP
002216  0000    	NOP
002217  0000    	NOP
002218  0000    	NOP
002219  0000    	NOP
00221A  0000    	NOP
00221B  0000    	NOP
00221C  0000    L319:	NOP
00221D  0000    	NOP
00221E  0000    	NOP
00221F  0000    	NOP
002220  0000    	NOP
002221  0000    	NOP
002222  0000    	NOP
002223  0000    	NOP
002224  0000    	NOP
002225  0000    	NOP
002226  0000    	NOP
002227  0000    	NOP
002228  0000    	NOP
002229  0000    	NOP
00222A  0000    	NOP
00222B  0000    	NOP
00222C  0000    	NOP
00222D  0000    	NOP
00222E  0000    	NOP
00222F  0000    	NOP
002230  0000    	NOP
002231  0000    	NOP
002232  0000    	NOP
002233  0000    	NOP
002234  0000    	NOP
002235  0000    	NOP
002236  0000    	NOP
002237  0000    	NOP
002238  0000    	NOP
002239  0000    	NOP
00223A  0000    	NOP
00223B  0000    	NOP
00223C  0000    	NOP
00223D  0000    	NOP
00223E  0000    	NOP
00223F  0000    	NOP
002240  0000    	NOP
002241  0000    	NOP
002242  0000    	NOP
002243  0000    	NOP
002244  0000    	NOP
002245  0000    	NOP
002246  0000    	NOP
002247  0000    	NOP
002248  0000    	NOP
002249  0000    	NOP
00224A  0000    	NOP
00224B  0000    	NOP
00224C  0000    	NOP
00224D  0000    	NOP
00224E  0000    	NOP
00224F  0000    	NOP
002250  0000    	NOP
002251  0000    	NOP
002252  0000    	NOP
002253  0000    	NOP
002254  0000    	NOP
002255  0000    	NOP
002256  0000    L220:	NOP
002257  0000    	NOP
002258  0000    	NOP
002259  0000    	NOP
00225A  0000    L364:	NOP
00225B  0000    	NOP
00225C  0000    L335:	NOP
00225D  0000    	NOP
00225E  0000    L222:	NOP
00225F  0000    	NOP
002260  0000    	NOP
002261  0000    	NOP
002262  0000    	NOP
002263  0000    	NOP
002264  0000    	NOP
002265  0000    	NOP
002266  0000    	NOP
002267  0000    	NOP
002268  0000    	NOP
002269  0000    	NOP
00226A  0000    	NOP
00226B  0000    	NOP
00226C  0000    	NOP
00226D  0000    	NOP
00226E  0000    	NOP
00226F  0000    	NOP
002270  0000    	NOP
002271  0000    	NOP
002272  0000    	NOP
002273  0000    	NOP
002274  0000    	NOP
002275  0000    	NOP
002276  0000    	NOP
002277  0000    	NOP
002278  0000    	NOP
002279  0000    	NOP
00227A  0000    	NOP
00227B  0000    	NOP
00227C  0000    	NOP
00227D  0000    	NOP
00227E  0000    	NOP
00227F  0000    	NOP
002280  0000    	NOP
002281  0000    	NOP
002282  0000    	NOP
002283  0000    	NOP
002284  0000    	NOP
002285  0000    	NOP
002286  0000    	NOP
002287  0000    	NOP
002288  0000    	NOP
002289  0000    	NOP
00228A  0000    	NOP
00228B  0000    	NOP
00228C  0000    	NOP
00228D  0000    	NOP
00228E  0000    	NOP
00228F  0000    	NOP
002290  0000    	NOP
002291  0000    	NOP
002292  0000    	NOP
002293  0000    	NOP
002294  0000    	NOP
002295  0000    	NOP
002296  0000    	NOP
002297  0000    	NOP
002298  0000    	NOP
002299  0000    	NOP
00229A  0000    	NOP
00229B  0000    	NOP
00229C  0000    	NOP
00229D  0000    	NOP
00229E  0000    	NOP
00229F  0000    	NOP
0022A0  0000    	NOP
0022A1  0000    	NOP
0022A2  0000    	NOP
0022A3  0000    	NOP
0022A4  0000    	NOP
0022A5  0000    	NOP
0022A6  0000    L240:	NOP
0022A7  0000    	NOP
0022A8  0000    	NOP
0022A9  0000    	NOP
0022AA  0000    	NOP
0022AB  0000    	NOP
0022AC  0000    	NOP
0022AD  0000    	NOP
0022AE  0000    L242:	NOP
0022AF  0000    	NOP
0022B0  0000    	NOP
0022B1  0000    	NOP
0022B2  0000    	NOP
0022B3  0000    	NOP
0022B4  0000    	NOP
0022B5  0000    	NOP
0022B6  0000    	NOP
0022B7  0000    	NOP
0022B8  0000    	NOP
0022B9  0000    	NOP
0022BA  0000    	NOP
0022BB  0000    	NOP
0022BC  0000    	NOP
0022BD  0000    	NOP
0022BE  0000    	NOP
0022BF  0000    	NOP
0022C0  0000    L441:	NOP
0022C1  0000    	NOP
0022C2  0000    	NOP
0022C3  0000    	NOP
0022C4  0000    	NOP
0022C5  0000    	NOP
0022C6  0000    	NOP
0022C7  0000    	NOP
0022C8  0000    L443:	NOP
0022C9  0000    L349:	NOP
0022CA  0000    	NOP
0022CB  0000    	NOP
0022CC  0000    	NOP
0022CD  0000    	NOP
0022CE  0000    	NOP
0022CF  0000    	NOP
0022D0  0000    L446:	NOP
0022D1  0000    	NOP
0022D2  0000    	NOP
0022D3  0000    	NOP
0022D4  0000    	NOP
0022D5  0000    	NOP
0022D6  0000    	NOP
0022D7  0000    	NOP
0022D8  0000    	NOP
0022D9  0000    	NOP
0022DA  0000    	NOP
0022DB  0000    	NOP
0022DC  0000    	NOP
0022DD  0000    	NOP
0022DE  0000    	NOP
0022DF  0000    	NOP
0022E0  0000    	NOP
0022E1  0000    	NOP
0022E2  0000    	NOP
0022E3  0000    	NOP
0022E4  0000    	NOP
0022E5  0000    	NOP
0022E6  0000    	NOP
0022E7  0000    	NOP
0022E8  0000    L451:	NOP
0022E9  0000    	NOP
0022EA  0000    	NOP
0022EB  0000    	NOP
0022EC  0000    	NOP
0022ED  0000    	NOP
0022EE  0000    	NOP
0022EF  0000    	NOP
0022F0  0000    	NOP
0022F1  0000    	NOP
0022F2  0000    	NOP
0022F3  0000    	NOP
0022F4  0000    	NOP
0022F5  0000    	NOP
0022F6  0000    L260:	NOP
0022F7  0000    	NOP
0022F8  0000    	NOP
0022F9  0000    	NOP
0022FA  0000    	NOP
0022FB  0000    	NOP
0022FC  0000    	NOP
0022FD  0000    	NOP
0022FE  0000    L262:	NOP
0022FF  0000    	NOP
002300  0000    	NOP
002301  0000    	NOP
002302  0000    	NOP
002303  0000    	NOP
002304  0000    	NOP
002305  0000    	NOP
002306  0000    	NOP
002307  0000    	NOP
002308  0000    	NOP
002309  0000    	NOP
00230A  0000    	NOP
00230B  0000    	NOP
00230C  0000    	NOP
00230D  0000    	NOP
00230E  0000    	NOP
00230F  0000    	NOP
002310  0000    	NOP
002311  0000    	NOP
002312  0000    	NOP
002313  0000    	NOP
002314  0000    	NOP
002315  0000    	NOP
002316  0000    	NOP
002317  0000    	NOP
002318  0000    	NOP
002319  0000    	NOP
00231A  0000    	NOP
00231B  0000    	NOP
00231C  0000    	NOP
00231D  0000    	NOP
00231E  0000    	NOP
00231F  0000    	NOP
002320  0000    	NOP
002321  0000    	NOP
002322  0000    	NOP
002323  0000    	NOP
002324  0000    	NOP
002325  0000    	NOP
002326  0000    	NOP
002327  0000    	NOP
002328  0000    	NOP
002329  0000    	NOP
00232A  0000    	NOP
00232B  0000    	NOP
00232C  1414    	CP R1,R4
00232D  1414    	CP R1,R4
00232E  1414    	CP R1,R4
00232F  1414    	CP R1,R4
002330  1414    	CP R1,R4
002331  1414    	CP R1,R4
002332  1414    	CP R1,R4
002333  1414    	CP R1,R4
002334  1E1E    	ADC R1,ZL
002335  1E1E    	ADC R1,ZL
002336  1E1E    	ADC R1,ZL
002337  1E1E    	ADC R1,ZL
002338  1E1E    	ADC R1,ZL
002339  1E1E    	ADC R1,ZL
00233A  1E1E    	ADC R1,ZL
00233B  1E1E    	ADC R1,ZL
00233C  0000    	NOP
00233D  0000    	NOP
00233E  0000    	NOP
00233F  0000    	NOP
002340  0000    	NOP
002341  0000    	NOP
002342  0000    	NOP
002343  0000    	NOP
002344  0001    	UNRECOGNIZED
002345  0001    	UNRECOGNIZED
002346  0001    L280:	UNRECOGNIZED
002347  0001    	UNRECOGNIZED
002348  0001    	UNRECOGNIZED
002349  0001    	UNRECOGNIZED
00234A  0001    	UNRECOGNIZED
00234B  0001    	UNRECOGNIZED
00234C  0001    	UNRECOGNIZED
00234D  0001    	UNRECOGNIZED
00234E  0001    L282:	UNRECOGNIZED
00234F  0001    	UNRECOGNIZED
002350  0001    	UNRECOGNIZED
002351  0001    L362:	UNRECOGNIZED
002352  0001    	UNRECOGNIZED
002353  0001    	UNRECOGNIZED
002354  0001    	UNRECOGNIZED
002355  0001    	UNRECOGNIZED
002356  0001    	UNRECOGNIZED
002357  0001    	UNRECOGNIZED
002358  0014    	UNRECOGNIZED
002359  0014    	UNRECOGNIZED
00235A  0014    	UNRECOGNIZED
00235B  0014    	UNRECOGNIZED
00235C  0014    	UNRECOGNIZED
00235D  0014    	UNRECOGNIZED
00235E  0014    	UNRECOGNIZED
00235F  0014    	UNRECOGNIZED
002360  0014    	UNRECOGNIZED
002361  0014    	UNRECOGNIZED
002362  0014    L453:	UNRECOGNIZED
002363  0014    	UNRECOGNIZED
002364  0014    	UNRECOGNIZED
002365  0014    	UNRECOGNIZED
002366  0014    L337:	UNRECOGNIZED
002367  0014    	UNRECOGNIZED
002368  0014    	UNRECOGNIZED
002369  0014    	UNRECOGNIZED
00236A  0014    L455:	UNRECOGNIZED
00236B  0014    	UNRECOGNIZED
00236C  D09F    	RCALL L315
00236D  7F7F    	ANDI R23,$FF
00236E  5BC8    	SUBI YL,$B8
00236F  7F2B    	ANDI R18,$FB
002370  347F    	CPI R23,$4F
002371  278F    	EOR R24,ZH
002372  6D34    L457:	ORI R19,$D4
002373  C8D2    	RJMP L316
002374  D09F    	RCALL L317
002375  7F7F    	ANDI R23,$FF
002376  5BC8    	SUBI YL,$B8
002377  7F2B    	ANDI R18,$FB
002378  347F    	CPI R23,$4F
002379  278F    	EOR R24,ZH
00237A  6D34    L459:	ORI R19,$D4
00237B  C8D2    	RJMP L318
00237C  CE9F    	RJMP L319
00237D  7F7F    	ANDI R23,$FF
00237E  58C8    	SUBI YL,$88
00237F  7F2F    	ANDI R18,$FF
002380  2E7F    	MOV R7,ZH
002381  258C    	EOR R24,R12
002382  6D2E    L460:	ORI R18,$DE
002383  C8D4    	RJMP L320
002384  CD9F    	RJMP L321
002385  7F7F    	ANDI R23,$FF
002386  56C8    	SUBI YL,$68
002387  7F31    	ANDI R19,$F1
002388  2B7F    	OR R23,ZH
002389  248A    	EOR R8,R10
00238A  6D2B    L462:	ORI R18,$DB
00238B  C8D5    	RJMP L322
00238C  CC9F    	RJMP L323
00238D  7F7F    	ANDI R23,$FF
00238E  55C8    	SUBI YL,$58
00238F  7F32    	ANDI R19,$F2
002390  287F    	OR R7,R15
002391  2389    	AND R24,R25
002392  6D28    	ORI R18,$D8
002393  C8D6    	RJMP L324
002394  CB9F    	RJMP L325
002395  7F7F    	ANDI R23,$FF
002396  55C8    L300:	SUBI YL,$58
002397  7F34    	ANDI R19,$F4
002398  287F    	OR R7,R15
002399  2289    	AND R8,R25
00239A  6D28    	ORI R18,$D8
00239B  C8D7    	RJMP L326
00239C  CA9F    	RJMP L327
00239D  7F7F    	ANDI R23,$FF
00239E  56C8    L302:	SUBI YL,$68
00239F  7F36    	ANDI R19,$F6
0023A0  2B7F    	OR R23,ZH
0023A1  218A    	AND R24,R10
0023A2  6D2B    	ORI R18,$DB
0023A3  C8D8    	RJMP L328
0023A4  C99F    	RJMP L329
0023A5  7F7F    	ANDI R23,$FF
0023A6  58C8    	SUBI YL,$88
0023A7  7F38    	ANDI R19,$F8
0023A8  2E7F    	MOV R7,ZH
0023A9  208C    	AND R8,R12
0023AA  6D2E    	ORI R18,$DE
0023AB  C8D9    	RJMP L330
0023AC  C89F    	RJMP L331
0023AD  7F7F    	ANDI R23,$FF
0023AE  59C8    	SUBI YL,$98
0023AF  7F3A    	ANDI R19,$FA
0023B0  317F    	CPI R23,$1F
0023B1  1F8D    	ADC R24,YH
0023B2  6D31    	ORI R19,$D1
0023B3  C8DA    	RJMP L332
0023B4  C89F    	RJMP L333
0023B5  7F7F    	ANDI R23,$FF
0023B6  5BC8    	SUBI YL,$B8
0023B7  7F3B    	ANDI R19,$FB
0023B8  347F    	CPI R23,$4F
0023B9  1F8F    	ADC R24,ZH
0023BA  6D34    	ORI R19,$D4
0023BB  C8DA    	RJMP L334
0023BC  CE9F    	RJMP L335
0023BD  7F7F    	ANDI R23,$FF
0023BE  5BC8    	SUBI YL,$B8
0023BF  7F2C    	ANDI R18,$FC
0023C0  347F    	CPI R23,$4F
0023C1  258F    	EOR R24,R15
0023C2  6D34    	ORI R19,$D4
0023C3  C8D4    	RJMP L336
0023C4  CFA1    	RJMP L337
0023C5  7F7F    	ANDI R23,$FF
0023C6  5BCB    	SUBI YL,$BB
0023C7  7F2B    	ANDI R18,$FB
0023C8  347F    	CPI R23,$4F
0023C9  268F    	EOR R8,ZH
0023CA  6F34    	ORI R19,$F4
0023CB  CBD3    	RJMP L338
0023CC  D0A2    	RCALL L339
0023CD  7F7F    	ANDI R23,$FF
0023CE  5BCE    	SUBI YL,$BE
0023CF  7F2A    	ANDI R18,$FA
0023D0  347F    	CPI R23,$4F
0023D1  278F    	EOR R24,ZH
0023D2  7034    	ANDI R19,$04
0023D3  CED2    	RJMP L240
0023D4  D1A4    	RCALL L340
0023D5  7F7F    	ANDI R23,$FF
0023D6  5BD1    	SUBI YH,$B1
0023D7  7F29    	ANDI R18,$F9
0023D8  347F    	CPI R23,$4F
0023D9  288F    	OR R8,R15
0023DA  7234    	ANDI R19,$24
0023DB  D1D1    	RCALL L341
0023DC  D2A5    	RCALL L342
0023DD  7F7F    	ANDI R23,$FF
0023DE  5BD4    	SUBI YH,$B4
0023DF  7F28    	ANDI R18,$F8
0023E0  347F    	CPI R23,$4F
0023E1  298F    	OR R24,R15
0023E2  7334    	ANDI R19,$34
0023E3  D4D0    	RCALL L343
0023E4  D3A5    	RCALL L344
0023E5  7F7F    	ANDI R23,$FF
0023E6  5BD4    	SUBI YH,$B4
0023E7  7F27    	ANDI R18,$F7
0023E8  347F    	CPI R23,$4F
0023E9  2A8F    	OR R8,ZH
0023EA  7334    	ANDI R19,$34
0023EB  D4CF    	RCALL L345
0023EC  D4A4    	RCALL L346
0023ED  7F7F    	ANDI R23,$FF
0023EE  5BD1    	SUBI YH,$B1
0023EF  7F26    	ANDI R18,$F6
0023F0  347F    	CPI R23,$4F
0023F1  2B8F    	OR R24,ZH
0023F2  7234    	ANDI R19,$24
0023F3  D1CE    	RCALL L347
0023F4  D5A2    	RCALL L348
0023F5  7F7F    	ANDI R23,$FF
0023F6  5BCE    	SUBI YL,$BE
0023F7  7F25    	ANDI R18,$F5
0023F8  347F    	CPI R23,$4F
0023F9  2C8F    	MOV R8,R15
0023FA  7034    	ANDI R19,$04
0023FB  CECD    	RJMP L349
0023FC  D6A1    	RCALL L350
0023FD  7F7F    	ANDI R23,$FF
0023FE  5BCB    	SUBI YL,$BB
0023FF  7F24    	ANDI R18,$F4
002400  347F    	CPI R23,$4F
002401  2D8F    	MOV R24,R15
002402  6F34    	ORI R19,$F4
002403  CBCC    	RJMP L351
002404  D69F    	RCALL L352
002405  7F7F    	ANDI R23,$FF
002406  5BC8    	SUBI YL,$B8
002407  7F24    	ANDI R18,$F4
002408  347F    	CPI R23,$4F
002409  2D8F    	MOV R24,R15
00240A  6D34    	ORI R19,$D4
00240B  C8CC    	RJMP L353
00240C  D69F    L315:	RCALL L354
00240D  7F7F    	ANDI R23,$FF
00240E  5BC8    	SUBI YL,$B8
00240F  7F24    	ANDI R18,$F4
002410  347F    	CPI R23,$4F
002411  2D8F    	MOV R24,R15
002412  6D34    	ORI R19,$D4
002413  C8CC    	RJMP L355
002414  0202    L317:	MULS R16,R18
002415  0202    	MULS R16,R18
002416  0202    	MULS R16,R18
002417  0202    	MULS R16,R18
002418  0202    	MULS R16,R18
002419  0202    	MULS R16,R18
00241A  0202    	MULS R16,R18
00241B  0202    	MULS R16,R18
00241C  0202    	MULS R16,R18
00241D  0202    	MULS R16,R18
00241E  0202    	MULS R16,R18
00241F  0202    	MULS R16,R18
002420  0202    	MULS R16,R18
002421  0202    	MULS R16,R18
002422  0202    L464:	MULS R16,R18
002423  0202    	MULS R16,R18
002424  0202    	MULS R16,R18
002425  0202    	MULS R16,R18
002426  0202    	MULS R16,R18
002427  0202    	MULS R16,R18
002428  0202    	MULS R16,R18
002429  0202    	MULS R16,R18
00242A  0202    L466:	MULS R16,R18
00242B  0202    	MULS R16,R18
00242C  0202    	MULS R16,R18
00242D  0202    	MULS R16,R18
00242E  0202    	MULS R16,R18
00242F  0202    	MULS R16,R18
002430  0202    	MULS R16,R18
002431  0202    	MULS R16,R18
002432  0202    	MULS R16,R18
002433  0202    	MULS R16,R18
002434  0202    	MULS R16,R18
002435  0202    	MULS R16,R18
002436  0202    	MULS R16,R18
002437  0202    	MULS R16,R18
002438  0202    	MULS R16,R18
002439  0202    	MULS R16,R18
00243A  0202    	MULS R16,R18
00243B  0202    	MULS R16,R18
00243C  0202    	MULS R16,R18
00243D  0202    	MULS R16,R18
00243E  0202    	MULS R16,R18
00243F  0202    	MULS R16,R18
002440  0202    	MULS R16,R18
002441  0202    	MULS R16,R18
002442  0202    	MULS R16,R18
002443  0202    	MULS R16,R18
002444  0202    	MULS R16,R18
002445  0202    	MULS R16,R18
002446  0202    	MULS R16,R18
002447  0202    L360:	MULS R16,R18
002448  0202    	MULS R16,R18
002449  0202    	MULS R16,R18
00244A  0202    	MULS R16,R18
00244B  0202    	MULS R16,R18
00244C  0202    	MULS R16,R18
00244D  0202    	MULS R16,R18
00244E  0202    	MULS R16,R18
00244F  0202    	MULS R16,R18
002450  0202    	MULS R16,R18
002451  0202    	MULS R16,R18
002452  0202    	MULS R16,R18
002453  0202    	MULS R16,R18
002454  0202    	MULS R16,R18
002455  0202    	MULS R16,R18
002456  0202    	MULS R16,R18
002457  0202    	MULS R16,R18
002458  0202    	MULS R16,R18
002459  0202    	MULS R16,R18
00245A  0202    	MULS R16,R18
00245B  0202    	MULS R16,R18
00245C  0202    	MULS R16,R18
00245D  0202    	MULS R16,R18
00245E  0202    	MULS R16,R18
00245F  0202    	MULS R16,R18
002460  0202    	MULS R16,R18
002461  0202    	MULS R16,R18
002462  0202    	MULS R16,R18
002463  0202    	MULS R16,R18
002464  0202    	MULS R16,R18
002465  0202    	MULS R16,R18
002466  0202    L224:	MULS R16,R18
002467  0202    	MULS R16,R18
002468  0202    	MULS R16,R18
002469  0202    	MULS R16,R18
00246A  0202    L482:	MULS R16,R18
00246B  0202    	MULS R16,R18
00246C  0202    	MULS R16,R18
00246D  0202    	MULS R16,R18
00246E  0202    	MULS R16,R18
00246F  0202    L339:	MULS R16,R18
002470  0202    	MULS R16,R18
002471  0202    	MULS R16,R18
002472  0202    L484:	MULS R16,R18
002473  0202    	MULS R16,R18
002474  0202    	MULS R16,R18
002475  0202    	MULS R16,R18
002476  0202    	MULS R16,R18
002477  0202    	MULS R16,R18
002478  0202    	MULS R16,R18
002479  0202    	MULS R16,R18
00247A  0202    	MULS R16,R18
00247B  0202    	MULS R16,R18
00247C  0202    	MULS R16,R18
00247D  0202    	MULS R16,R18
00247E  0202    	MULS R16,R18
00247F  0202    	MULS R16,R18
002480  0202    L361:	MULS R16,R18
002481  0202    	MULS R16,R18
002482  0202    	MULS R16,R18
002483  0202    	MULS R16,R18
002484  0202    L375:	MULS R16,R18
002485  0202    	MULS R16,R18
002486  0202    	MULS R16,R18
002487  0202    	MULS R16,R18
002488  0202    	MULS R16,R18
002489  0202    	MULS R16,R18
00248A  0202    	MULS R16,R18
00248B  0202    	MULS R16,R18
00248C  0202    	MULS R16,R18
00248D  0202    	MULS R16,R18
00248E  0202    	MULS R16,R18
00248F  0202    	MULS R16,R18
002490  0202    	MULS R16,R18
002491  0202    	MULS R16,R18
002492  0202    	MULS R16,R18
002493  0202    	MULS R16,R18
002494  0202    	MULS R16,R18
002495  0202    	MULS R16,R18
002496  0202    	MULS R16,R18
002497  0202    	MULS R16,R18
002498  0202    	MULS R16,R18
002499  0202    	MULS R16,R18
00249A  0202    	MULS R16,R18
00249B  0202    	MULS R16,R18
00249C  0202    	MULS R16,R18
00249D  0202    	MULS R16,R18
00249E  0202    L238:	MULS R16,R18
00249F  0202    	MULS R16,R18
0024A0  0202    	MULS R16,R18
0024A1  0202    	MULS R16,R18
0024A2  0202    	MULS R16,R18
0024A3  0202    	MULS R16,R18
0024A4  0202    	MULS R16,R18
0024A5  0202    	MULS R16,R18
0024A6  0202    	MULS R16,R18
0024A7  0202    	MULS R16,R18
0024A8  0202    	MULS R16,R18
0024A9  0202    	MULS R16,R18
0024AA  0202    	MULS R16,R18
0024AB  0202    	MULS R16,R18
0024AC  0404    	CPC R0,R4
0024AD  0404    L371:	CPC R0,R4
0024AE  0404    	CPC R0,R4
0024AF  0404    	CPC R0,R4
0024B0  0404    	CPC R0,R4
0024B1  0404    	CPC R0,R4
0024B2  0404    	CPC R0,R4
0024B3  0404    	CPC R0,R4
0024B4  0000    	NOP
0024B5  0000    	NOP
0024B6  0000    	NOP
0024B7  0000    	NOP
0024B8  0000    	NOP
0024B9  0000    	NOP
0024BA  0000    L502:	NOP
0024BB  0000    	NOP
0024BC  0000    	NOP
0024BD  0000    	NOP
0024BE  0000    	NOP
0024BF  0000    	NOP
0024C0  0000    	NOP
0024C1  0000    	NOP
0024C2  0000    L504:	NOP
0024C3  0000    	NOP
0024C4  0000    	NOP
0024C5  0000    	NOP
0024C6  0000    	NOP
0024C7  0000    	NOP
0024C8  0000    	NOP
0024C9  0000    	NOP
0024CA  0000    	NOP
0024CB  0000    	NOP
0024CC  0000    	NOP
0024CD  0000    	NOP
0024CE  0000    	NOP
0024CF  0000    	NOP
0024D0  0000    	NOP
0024D1  0000    	NOP
0024D2  0000    	NOP
0024D3  0000    	NOP
0024D4  0000    	NOP
0024D5  0000    	NOP
0024D6  0000    	NOP
0024D7  0000    	NOP
0024D8  0000    	NOP
0024D9  0000    	NOP
0024DA  0000    	NOP
0024DB  0000    	NOP
0024DC  0000    	NOP
0024DD  0000    	NOP
0024DE  0000    	NOP
0024DF  0000    	NOP
0024E0  0000    	NOP
0024E1  0000    	NOP
0024E2  0000    	NOP
0024E3  0000    	NOP
0024E4  0000    	NOP
0024E5  0000    	NOP
0024E6  0000    	NOP
0024E7  0000    	NOP
0024E8  0000    	NOP
0024E9  0000    	NOP
0024EA  0000    	NOP
0024EB  0000    	NOP
0024EC  0000    	NOP
0024ED  0000    	NOP
0024EE  0000    	NOP
0024EF  0000    	NOP
0024F0  0000    	NOP
0024F1  0000    	NOP
0024F2  0000    	NOP
0024F3  0000    	NOP
0024F4  0000    	NOP
0024F5  0000    	NOP
0024F6  0000    	NOP
0024F7  0000    	NOP
0024F8  0000    	NOP
0024F9  0000    	NOP
0024FA  0000    	NOP
0024FB  0000    	NOP
0024FC  0000    	NOP
0024FD  0000    	NOP
0024FE  0000    	NOP
0024FF  0000    	NOP
002500  0000    	NOP
002501  0000    	NOP
002502  0000    	NOP
002503  0000    	NOP
002504  0000    	NOP
002505  0000    	NOP
002506  0000    L264:	NOP
002507  0000    	NOP
002508  0000    	NOP
002509  0000    	NOP
00250A  0000    	NOP
00250B  0000    	NOP
00250C  0000    	NOP
00250D  0000    	NOP
00250E  0000    	NOP
00250F  0000    	NOP
002510  0000    	NOP
002511  0000    	NOP
002512  0000    	NOP
002513  0000    	NOP
002514  0000    	NOP
002515  0000    	NOP
002516  0000    	NOP
002517  0000    	NOP
002518  0000    	NOP
002519  0000    	NOP
00251A  0000    	NOP
00251B  0000    	NOP
00251C  0000    	NOP
00251D  0000    	NOP
00251E  0000    	NOP
00251F  0000    	NOP
002520  0000    	NOP
002521  0000    	NOP
002522  0000    	NOP
002523  0000    	NOP
002524  0000    	NOP
002525  0000    	NOP
002526  0000    	NOP
002527  0000    	NOP
002528  0000    	NOP
002529  0000    	NOP
00252A  0000    	NOP
00252B  0000    	NOP
00252C  0000    	NOP
00252D  0000    	NOP
00252E  0000    	NOP
00252F  0000    	NOP
002530  0000    	NOP
002531  0000    	NOP
002532  0000    	NOP
002533  0000    	NOP
002534  0000    	NOP
002535  0000    	NOP
002536  0000    	NOP
002537  0000    	NOP
002538  0000    	NOP
002539  0000    	NOP
00253A  0000    	NOP
00253B  0000    	NOP
00253C  0000    	NOP
00253D  0000    	NOP
00253E  0000    L278:	NOP
00253F  0000    	NOP
002540  0000    	NOP
002541  0000    	NOP
002542  0000    	NOP
002543  0000    	NOP
002544  0000    	NOP
002545  0000    	NOP
002546  0000    	NOP
002547  0000    	NOP
002548  0000    	NOP
002549  0000    	NOP
00254A  0000    	NOP
00254B  0000    	NOP
00254C  0000    	NOP
00254D  0000    	NOP
00254E  0000    	NOP
00254F  0000    	NOP
002550  0000    	NOP
002551  0000    	NOP
002552  0000    	NOP
002553  0000    	NOP
002554  1414    	CP R1,R4
002555  1414    	CP R1,R4
002556  1414    	CP R1,R4
002557  1414    	CP R1,R4
002558  1414    	CP R1,R4
002559  1414    	CP R1,R4
00255A  1414    	CP R1,R4
00255B  1414    	CP R1,R4
00255C  1E1E    	ADC R1,ZL
00255D  1E1E    	ADC R1,ZL
00255E  1E1E    	ADC R1,ZL
00255F  1E1E    	ADC R1,ZL
002560  1E1E    	ADC R1,ZL
002561  1E1E    	ADC R1,ZL
002562  1E1E    	ADC R1,ZL
002563  1E1E    	ADC R1,ZL
002564  0000    	NOP
002565  0000    	NOP
002566  0000    	NOP
002567  0000    	NOP
002568  0000    	NOP
002569  0000    	NOP
00256A  0000    	NOP
00256B  0000    	NOP
00256C  0001    	UNRECOGNIZED
00256D  0001    	UNRECOGNIZED
00256E  0001    L226:	UNRECOGNIZED
00256F  0001    	UNRECOGNIZED
002570  0001    	UNRECOGNIZED
002571  0001    	UNRECOGNIZED
002572  0001    	UNRECOGNIZED
002573  0001    	UNRECOGNIZED
002574  0001    	UNRECOGNIZED
002575  0001    	UNRECOGNIZED
002576  0001    	UNRECOGNIZED
002577  0001    	UNRECOGNIZED
002578  0001    	UNRECOGNIZED
002579  0001    L340:	UNRECOGNIZED
00257A  0001    	UNRECOGNIZED
00257B  0001    	UNRECOGNIZED
00257C  0001    	UNRECOGNIZED
00257D  0001    	UNRECOGNIZED
00257E  0001    	UNRECOGNIZED
00257F  0001    	UNRECOGNIZED
002580  0014    	UNRECOGNIZED
002581  0014    	UNRECOGNIZED
002582  0014    	UNRECOGNIZED
002583  0014    	UNRECOGNIZED
002584  0014    	UNRECOGNIZED
002585  0014    	UNRECOGNIZED
002586  0014    	UNRECOGNIZED
002587  0014    	UNRECOGNIZED
002588  0014    	UNRECOGNIZED
002589  0014    	UNRECOGNIZED
00258A  0014    	UNRECOGNIZED
00258B  0014    	UNRECOGNIZED
00258C  0014    L377:	UNRECOGNIZED
00258D  0014    	UNRECOGNIZED
00258E  0014    	UNRECOGNIZED
00258F  0014    	UNRECOGNIZED
002590  0014    	UNRECOGNIZED
002591  0014    	UNRECOGNIZED
002592  0014    	UNRECOGNIZED
002593  0014    	UNRECOGNIZED
002594  D09F    	RCALL L356
002595  7F7F    	ANDI R23,$FF
002596  5BC8    L236:	SUBI YL,$B8
002597  7F2B    	ANDI R18,$FB
002598  347F    	CPI R23,$4F
002599  278F    	EOR R24,ZH
00259A  6D34    	ORI R19,$D4
00259B  C8D2    	RJMP L357
00259C  D09F    	RCALL L358
00259D  7F7F    	ANDI R23,$FF
00259E  5BC8    	SUBI YL,$B8
00259F  7F2B    	ANDI R18,$FB
0025A0  347F    	CPI R23,$4F
0025A1  278F    	EOR R24,ZH
0025A2  6D34    	ORI R19,$D4
0025A3  C8D2    	RJMP L359
0025A4  CEA2    	RJMP L360
0025A5  7F7F    	ANDI R23,$FF
0025A6  5BCE    L304:	SUBI YL,$BE
0025A7  7F2F    	ANDI R18,$FF
0025A8  347F    	CPI R23,$4F
0025A9  258F    	EOR R24,R15
0025AA  7034    	ANDI R19,$04
0025AB  CED4    	RJMP L361
0025AC  CDA4    	RJMP L362
0025AD  7F7F    L341:	ANDI R23,$FF
0025AE  5BD1    	SUBI YH,$B1
0025AF  7F31    	ANDI R19,$F1
0025B0  347F    	CPI R23,$4F
0025B1  248F    	EOR R8,R15
0025B2  7234    	ANDI R19,$24
0025B3  D1D5    	RCALL L363
0025B4  CCA5    	RJMP L364
0025B5  7F7F    	ANDI R23,$FF
0025B6  5BD4    	SUBI YH,$B4
0025B7  7F32    	ANDI R19,$F2
0025B8  347F    	CPI R23,$4F
0025B9  238F    	AND R24,ZH
0025BA  7334    	ANDI R19,$34
0025BB  D4D6    	RCALL L365
0025BC  CBA5    	RJMP L366
0025BD  7F7F    	ANDI R23,$FF
0025BE  5BD4    	SUBI YH,$B4
0025BF  7F34    	ANDI R19,$F4
0025C0  347F    	CPI R23,$4F
0025C1  228F    	AND R8,ZH
0025C2  7334    L347:	ANDI R19,$34
0025C3  D4D7    	RCALL L367
0025C4  CAA4    	RJMP L368
0025C5  7F7F    	ANDI R23,$FF
0025C6  5BD1    	SUBI YH,$B1
0025C7  7F36    	ANDI R19,$F6
0025C8  347F    	CPI R23,$4F
0025C9  218F    	AND R24,R15
0025CA  7234    	ANDI R19,$24
0025CB  D1D8    	RCALL L369
0025CC  C9A2    	RJMP L370
0025CD  7F7F    	ANDI R23,$FF
0025CE  5BCE    	SUBI YL,$BE
0025CF  7F38    	ANDI R19,$F8
0025D0  347F    	CPI R23,$4F
0025D1  208F    	AND R8,R15
0025D2  7034    	ANDI R19,$04
0025D3  CED9    	RJMP L371
0025D4  C8A1    	RJMP L359
0025D5  7F7F    	ANDI R23,$FF
0025D6  5BCB    	SUBI YL,$BB
0025D7  7F3A    	ANDI R19,$FA
0025D8  347F    	CPI R23,$4F
0025D9  1F8F    	ADC R24,ZH
0025DA  6F34    	ORI R19,$F4
0025DB  CBDA    	RJMP L372
0025DC  C89F    	RJMP L373
0025DD  7F7F    	ANDI R23,$FF
0025DE  5BC8    	SUBI YL,$B8
0025DF  7F3B    	ANDI R19,$FB
0025E0  347F    	CPI R23,$4F
0025E1  1F8F    	ADC R24,ZH
0025E2  6D34    	ORI R19,$D4
0025E3  C8DA    	RJMP L374
0025E4  CE9F    	RJMP L375
0025E5  7F7F    	ANDI R23,$FF
0025E6  5BC8    	SUBI YL,$B8
0025E7  7F2C    	ANDI R18,$FC
0025E8  347F    	CPI R23,$4F
0025E9  258F    	EOR R24,R15
0025EA  6D34    	ORI R19,$D4
0025EB  C8D4    	RJMP L376
0025EC  CF9F    	RJMP L377
0025ED  7F7F    	ANDI R23,$FF
0025EE  59C8    	SUBI YL,$98
0025EF  7F2B    	ANDI R18,$FB
0025F0  317F    	CPI R23,$1F
0025F1  268D    	EOR R8,YH
0025F2  6D31    	ORI R19,$D1
0025F3  C8D3    	RJMP L378
0025F4  D09F    	RCALL L379
0025F5  7F7F    	ANDI R23,$FF
0025F6  58C8    	SUBI YL,$88
0025F7  7F2A    	ANDI R18,$FA
0025F8  2E7F    	MOV R7,ZH
0025F9  278C    	EOR R24,YL
0025FA  6D2E    	ORI R18,$DE
0025FB  C8D2    	RJMP L380
0025FC  D19F    	RCALL L381
0025FD  7F7F    	ANDI R23,$FF
0025FE  56C8    	SUBI YL,$68
0025FF  7F29    	ANDI R18,$F9
002600  2B7F    	OR R23,ZH
002601  288A    	OR R8,R10
002602  6D2B    	ORI R18,$DB
002603  C8D1    	RJMP L382
002604  D29F    	RCALL L383
002605  7F7F    	ANDI R23,$FF
002606  55C8    	SUBI YL,$58
002607  7F28    	ANDI R18,$F8
002608  287F    	OR R7,R15
002609  2989    	OR R24,R9
00260A  6D28    	ORI R18,$D8
00260B  C8D0    	RJMP L384
00260C  D39F    	RCALL L385
00260D  7F7F    	ANDI R23,$FF
00260E  55C8    L266:	SUBI YL,$58
00260F  7F27    	ANDI R18,$F7
002610  287F    	OR R7,R15
002611  2A89    	OR R8,R25
002612  6D28    	ORI R18,$D8
002613  C8CF    	RJMP L386
002614  D49F    	RCALL L387
002615  7F7F    	ANDI R23,$FF
002616  56C8    	SUBI YL,$68
002617  7F26    	ANDI R18,$F6
002618  2B7F    	OR R23,ZH
002619  2B8A    	OR R24,XL
00261A  6D2B    	ORI R18,$DB
00261B  C8CE    	RJMP L388
00261C  D59F    	RCALL L389
00261D  7F7F    	ANDI R23,$FF
00261E  58C8    	SUBI YL,$88
00261F  7F25    	ANDI R18,$F5
002620  2E7F    	MOV R7,ZH
002621  2C8C    	MOV R8,R12
002622  6D2E    	ORI R18,$DE
002623  C8CD    	RJMP L390
002624  D69F    	RCALL L391
002625  7F7F    	ANDI R23,$FF
002626  59C8    	SUBI YL,$98
002627  7F24    	ANDI R18,$F4
002628  317F    	CPI R23,$1F
002629  2D8D    	MOV R24,R13
00262A  6D31    L506:	ORI R19,$D1
00262B  C8CC    	RJMP L392
00262C  D69F    	RCALL L393
00262D  7F7F    	ANDI R23,$FF
00262E  5BC8    	SUBI YL,$B8
00262F  7F24    	ANDI R18,$F4
002630  347F    	CPI R23,$4F
002631  2D8F    	MOV R24,R15
002632  6D34    L508:	ORI R19,$D4
002633  C8CC    	RJMP L394
002634  D69F    L356:	RCALL L395
002635  7F7F    	ANDI R23,$FF
002636  5BC8    L276:	SUBI YL,$B8
002637  7F24    	ANDI R18,$F4
002638  347F    	CPI R23,$4F
002639  2D8F    	MOV R24,R15
00263A  6D34    	ORI R19,$D4
00263B  C8CC    	RJMP L396
00263C  0202    L358:	MULS R16,R18
00263D  0202    	MULS R16,R18
00263E  0202    	MULS R16,R18
00263F  0202    	MULS R16,R18
002640  0202    	MULS R16,R18
002641  0202    	MULS R16,R18
002642  0202    	MULS R16,R18
002643  0202    	MULS R16,R18
002644  0202    	MULS R16,R18
002645  0202    	MULS R16,R18
002646  0202    	MULS R16,R18
002647  0202    	MULS R16,R18
002648  0202    	MULS R16,R18
002649  0202    	MULS R16,R18
00264A  0202    L512:	MULS R16,R18
00264B  0202    	MULS R16,R18
00264C  0202    	MULS R16,R18
00264D  0202    	MULS R16,R18
00264E  0202    	MULS R16,R18
00264F  0202    	MULS R16,R18
002650  0202    	MULS R16,R18
002651  0202    	MULS R16,R18
002652  0202    	MULS R16,R18
002653  0202    	MULS R16,R18
002654  0202    	MULS R16,R18
002655  0202    	MULS R16,R18
002656  0202    	MULS R16,R18
002657  0202    	MULS R16,R18
002658  0202    	MULS R16,R18
002659  0202    	MULS R16,R18
00265A  0202    	MULS R16,R18
00265B  0202    	MULS R16,R18
00265C  0202    	MULS R16,R18
00265D  0202    	MULS R16,R18
00265E  0202    	MULS R16,R18
00265F  0202    	MULS R16,R18
002660  0202    	MULS R16,R18
002661  0202    	MULS R16,R18
002662  0202    	MULS R16,R18
002663  0202    	MULS R16,R18
002664  0202    	MULS R16,R18
002665  0202    	MULS R16,R18
002666  0202    	MULS R16,R18
002667  0202    	MULS R16,R18
002668  0202    	MULS R16,R18
002669  0202    	MULS R16,R18
00266A  0202    	MULS R16,R18
00266B  0202    	MULS R16,R18
00266C  0202    	MULS R16,R18
00266D  0202    	MULS R16,R18
00266E  0202    	MULS R16,R18
00266F  0202    	MULS R16,R18
002670  0202    	MULS R16,R18
002671  0202    	MULS R16,R18
002672  0202    	MULS R16,R18
002673  0202    	MULS R16,R18
002674  0202    	MULS R16,R18
002675  0202    	MULS R16,R18
002676  0202    L228:	MULS R16,R18
002677  0202    	MULS R16,R18
002678  0202    	MULS R16,R18
002679  0202    	MULS R16,R18
00267A  0202    	MULS R16,R18
00267B  0202    	MULS R16,R18
00267C  0202    	MULS R16,R18
00267D  0202    	MULS R16,R18
00267E  0202    	MULS R16,R18
00267F  0202    	MULS R16,R18
002680  0202    	MULS R16,R18
002681  0202    	MULS R16,R18
002682  0202    L342:	MULS R16,R18
002683  0202    	MULS R16,R18
002684  0202    	MULS R16,R18
002685  0202    	MULS R16,R18
002686  0202    	MULS R16,R18
002687  0202    	MULS R16,R18
002688  0202    	MULS R16,R18
002689  0202    	MULS R16,R18
00268A  0202    	MULS R16,R18
00268B  0202    	MULS R16,R18
00268C  0202    	MULS R16,R18
00268D  0202    	MULS R16,R18
00268E  0202    L234:	MULS R16,R18
00268F  0202    	MULS R16,R18
002690  0202    	MULS R16,R18
002691  0202    	MULS R16,R18
002692  0202    	MULS R16,R18
002693  0202    	MULS R16,R18
002694  0202    L379:	MULS R16,R18
002695  0202    	MULS R16,R18
002696  0202    	MULS R16,R18
002697  0202    	MULS R16,R18
002698  0202    	MULS R16,R18
002699  0202    	MULS R16,R18
00269A  0202    	MULS R16,R18
00269B  0202    	MULS R16,R18
00269C  0202    	MULS R16,R18
00269D  0202    	MULS R16,R18
00269E  0202    	MULS R16,R18
00269F  0202    	MULS R16,R18
0026A0  0202    	MULS R16,R18
0026A1  0202    	MULS R16,R18
0026A2  0202    	MULS R16,R18
0026A3  0202    	MULS R16,R18
0026A4  0202    	MULS R16,R18
0026A5  0202    	MULS R16,R18
0026A6  0202    	MULS R16,R18
0026A7  0202    	MULS R16,R18
0026A8  0202    	MULS R16,R18
0026A9  0202    	MULS R16,R18
0026AA  0202    	MULS R16,R18
0026AB  0202    	MULS R16,R18
0026AC  0202    	MULS R16,R18
0026AD  0202    	MULS R16,R18
0026AE  0202    L306:	MULS R16,R18
0026AF  0202    	MULS R16,R18
0026B0  0202    	MULS R16,R18
0026B1  0202    	MULS R16,R18
0026B2  0202    L514:	MULS R16,R18
0026B3  0202    	MULS R16,R18
0026B4  0202    	MULS R16,R18
0026B5  0202    	MULS R16,R18
0026B6  0202    	MULS R16,R18
0026B7  0202    	MULS R16,R18
0026B8  0202    	MULS R16,R18
0026B9  0202    	MULS R16,R18
0026BA  0202    L516:	MULS R16,R18
0026BB  0202    	MULS R16,R18
0026BC  0202    	MULS R16,R18
0026BD  0202    	MULS R16,R18
0026BE  0202    	MULS R16,R18
0026BF  0202    	MULS R16,R18
0026C0  0202    	MULS R16,R18
0026C1  0202    	MULS R16,R18
0026C2  0202    	MULS R16,R18
0026C3  0202    	MULS R16,R18
0026C4  0202    	MULS R16,R18
0026C5  0202    	MULS R16,R18
0026C6  0202    	MULS R16,R18
0026C7  0202    	MULS R16,R18
0026C8  0202    	MULS R16,R18
0026C9  0202    	MULS R16,R18
0026CA  0202    	MULS R16,R18
0026CB  0202    	MULS R16,R18
0026CC  0202    L518:	MULS R16,R18
0026CD  0202    	MULS R16,R18
0026CE  0202    	MULS R16,R18
0026CF  0202    	MULS R16,R18
0026D0  0202    	MULS R16,R18
0026D1  0202    	MULS R16,R18
0026D2  0202    L522:	MULS R16,R18
0026D3  0202    	MULS R16,R18
0026D4  0404    L520:	CPC R0,R4
0026D5  0404    	CPC R0,R4
0026D6  0404    	CPC R0,R4
0026D7  0404    	CPC R0,R4
0026D8  0404    	CPC R0,R4
0026D9  0404    	CPC R0,R4
0026DA  0404    	CPC R0,R4
0026DB  0404    	CPC R0,R4
0026DC  0000    	NOP
0026DD  0000    	NOP
0026DE  0000    	NOP
0026DF  0000    	NOP
0026E0  0000    	NOP
0026E1  0000    	NOP
0026E2  0000    	NOP
0026E3  0000    	NOP
0026E4  0000    	NOP
0026E5  0000    	NOP
0026E6  0000    	NOP
0026E7  0000    	NOP
0026E8  0000    	NOP
0026E9  0000    	NOP
0026EA  0000    	NOP
0026EB  0000    	NOP
0026EC  0000    	NOP
0026ED  0000    	NOP
0026EE  0000    	NOP
0026EF  0000    	NOP
0026F0  0000    	NOP
0026F1  0000    	NOP
0026F2  0000    	NOP
0026F3  0000    	NOP
0026F4  0000    	NOP
0026F5  0000    	NOP
0026F6  0000    	NOP
0026F7  0000    	NOP
0026F8  0000    	NOP
0026F9  0000    	NOP
0026FA  0000    	NOP
0026FB  0000    	NOP
0026FC  0000    	NOP
0026FD  0000    	NOP
0026FE  0000    	NOP
0026FF  0000    	NOP
002700  0000    	NOP
002701  0000    	NOP
002702  0000    	NOP
002703  0000    	NOP
002704  0000    	NOP
002705  0000    	NOP
002706  0000    	NOP
002707  0000    	NOP
002708  0000    	NOP
002709  0000    	NOP
00270A  0000    	NOP
00270B  0000    	NOP
00270C  0000    	NOP
00270D  0000    	NOP
00270E  0000    	NOP
00270F  0000    	NOP
002710  0000    	NOP
002711  0000    	NOP
002712  0000    	NOP
002713  0000    	NOP
002714  0000    	NOP
002715  0000    	NOP
002716  0000    L268:	NOP
002717  0000    	NOP
002718  0000    	NOP
002719  0000    	NOP
00271A  0000    	NOP
00271B  0000    	NOP
00271C  0000    	NOP
00271D  0000    	NOP
00271E  0000    	NOP
00271F  0000    	NOP
002720  0000    	NOP
002721  0000    	NOP
002722  0000    	NOP
002723  0000    	NOP
002724  0000    	NOP
002725  0000    	NOP
002726  0000    	NOP
002727  0000    	NOP
002728  0000    	NOP
002729  0000    	NOP
00272A  0000    L526:	NOP
00272B  0000    	NOP
00272C  0000    	NOP
00272D  0000    	NOP
00272E  0000    L274:	NOP
00272F  0000    	NOP
002730  0000    	NOP
002731  0000    	NOP
002732  0000    	NOP
002733  0000    	NOP
002734  0000    	NOP
002735  0000    	NOP
002736  0000    	NOP
002737  0000    	NOP
002738  0000    	NOP
002739  0000    	NOP
00273A  0000    	NOP
00273B  0000    	NOP
00273C  0000    	NOP
00273D  0000    	NOP
00273E  0000    	NOP
00273F  0000    	NOP
002740  0000    	NOP
002741  0000    	NOP
002742  0000    	NOP
002743  0000    	NOP
002744  0000    	NOP
002745  0000    	NOP
002746  0000    	NOP
002747  0000    	NOP
002748  0000    	NOP
002749  0000    	NOP
00274A  0000    	NOP
00274B  0000    	NOP
00274C  0000    	NOP
00274D  0000    	NOP
00274E  0000    	NOP
00274F  0000    	NOP
002750  0000    	NOP
002751  0000    	NOP
002752  0000    	NOP
002753  0000    	NOP
002754  0000    	NOP
002755  0000    	NOP
002756  0000    	NOP
002757  0000    	NOP
002758  0000    	NOP
002759  0000    	NOP
00275A  0000    	NOP
00275B  0000    	NOP
00275C  0000    	NOP
00275D  0000    	NOP
00275E  0000    	NOP
00275F  0000    	NOP
002760  0000    	NOP
002761  0000    	NOP
002762  0000    	NOP
002763  0000    	NOP
002764  0000    	NOP
002765  0000    	NOP
002766  0000    	NOP
002767  0000    	NOP
002768  0000    	NOP
002769  0000    	NOP
00276A  0000    	NOP
00276B  0000    	NOP
00276C  0000    	NOP
00276D  0000    	NOP
00276E  0000    	NOP
00276F  0000    	NOP
002770  0000    	NOP
002771  0000    	NOP
002772  0000    	NOP
002773  0000    	NOP
002774  0000    	NOP
002775  0000    	NOP
002776  0000    	NOP
002777  0000    	NOP
002778  0000    	NOP
002779  0000    	NOP
00277A  0000    	NOP
00277B  0000    	NOP
00277C  1414    	CP R1,R4
00277D  1414    	CP R1,R4
00277E  1414    	CP R1,R4
00277F  1414    	CP R1,R4
002780  1414    	CP R1,R4
002781  1414    	CP R1,R4
002782  1414    	CP R1,R4
002783  1414    	CP R1,R4
002784  1E1E    	ADC R1,ZL
002785  1E1E    	ADC R1,ZL
002786  1E1E    	ADC R1,ZL
002787  1E1E    	ADC R1,ZL
002788  1E1E    	ADC R1,ZL
002789  1E1E    L363:	ADC R1,ZL
00278A  1E1E    L344:	ADC R1,ZL
00278B  1E1E    	ADC R1,ZL
00278C  0000    	NOP
00278D  0000    	NOP
00278E  0000    	NOP
00278F  0000    	NOP
002790  0000    	NOP
002791  0000    	NOP
002792  0000    	NOP
002793  0000    	NOP
002794  0001    	UNRECOGNIZED
002795  0001    	UNRECOGNIZED
002796  0001    	UNRECOGNIZED
002797  0001    	UNRECOGNIZED
002798  0001    	UNRECOGNIZED
002799  0001    	UNRECOGNIZED
00279A  0001    	UNRECOGNIZED
00279B  0001    	UNRECOGNIZED
00279C  0001    L381:	UNRECOGNIZED
00279D  0001    	UNRECOGNIZED
00279E  0014    	UNRECOGNIZED
00279F  0014    	UNRECOGNIZED
0027A0  0014    	UNRECOGNIZED
0027A1  0014    	UNRECOGNIZED
0027A2  0014    	UNRECOGNIZED
0027A3  0014    	UNRECOGNIZED
0027A4  0014    L369:	UNRECOGNIZED
0027A5  0014    	UNRECOGNIZED
0027A6  0014    	UNRECOGNIZED
0027A7  0014    	UNRECOGNIZED
0027A8  D19F    	RCALL L397
0027A9  7F7F    	ANDI R23,$FF
0027AA  5BC8    	SUBI YL,$B8
0027AB  7F29    	ANDI R18,$F9
0027AC  347F    	CPI R23,$4F
0027AD  278F    	EOR R24,ZH
0027AE  6D34    	ORI R19,$D4
0027AF  C8D2    	RJMP L398
0027B0  D19F    	RCALL L399
0027B1  7F7F    	ANDI R23,$FF
0027B2  5BC8    	SUBI YL,$B8
0027B3  7F29    	ANDI R18,$F9
0027B4  347F    	CPI R23,$4F
0027B5  278F    	EOR R24,ZH
0027B6  6D34    L308:	ORI R19,$D4
0027B7  C8D2    	RJMP L400
0027B8  D2A6    	RCALL L401
0027B9  7F78    	ANDI R23,$F8
0027BA  47C6    	SBCI YL,$76
0027BB  7F28    L412:	ANDI R18,$F8
0027BC  1D7F    	ADC R23,R15
0027BD  267B    	EOR R7,XH
0027BE  741D    	ANDI R17,$4D
0027BF  C6D3    	RJMP L402
0027C0  D3A9    	RCALL L403
0027C1  7F73    	ANDI R23,$F3
0027C2  4AC5    	SBCI YL,$A5
0027C3  7F27    	ANDI R18,$F7
0027C4  2A7F    	OR R7,ZH
0027C5  257E    	EOR R23,R14
0027C6  772A    	ANDI R18,$7A
0027C7  C5D4    	RJMP L404
0027C8  D3AB    	RCALL L405
0027C9  7F6B    	ANDI R22,$FB
0027CA  4FC3    	SBCI YL,$F3
0027CB  7F27    	ANDI R18,$F7
0027CC  397F    	CPI R23,$9F
0027CD  2583    	EOR R24,R3
0027CE  7939    	ANDI R19,$99
0027CF  C3D4    	RJMP L406
0027D0  D3AB    	RCALL L407
0027D1  7F5A    	ANDI R21,$FA
0027D2  4FC3    	SBCI YL,$F3
0027D3  7F27    	ANDI R18,$F7
0027D4  397F    	CPI R23,$9F
0027D5  2583    	EOR R24,R3
0027D6  7939    	ANDI R19,$99
0027D7  C3D4    	RJMP L408
0027D8  D2B0    	RCALL L409
0027D9  7F65    	ANDI R22,$F5
0027DA  51D2    	SUBI YH,$12
0027DB  7F28    	ANDI R18,$F8
0027DC  377F    	CPI R23,$7F
0027DD  2685    	EOR R8,R21
0027DE  7E37    	ANDI R19,$E7
0027DF  D2D3    	RCALL L410
0027E0  D2B3    	RCALL L411
0027E1  7F6A    	ANDI R22,$FA
0027E2  54DF    	SUBI YH,$4F
0027E3  7F28    	ANDI R18,$F8
0027E4  367F    	CPI R23,$6F
0027E5  2688    	EOR R8,R24
0027E6  8136    	LDD R19,Z+6
0027E7  DFD3    	RCALL L412
0027E8  D1A9    	RCALL L413
0027E9  7F70    	ANDI R23,$F0
0027EA  57D4    	SUBI YH,$74
0027EB  7F29    	ANDI R18,$F9
0027EC  357F    	CPI R23,$5F
0027ED  278B    	EOR R24,XH
0027EE  7735    	ANDI R19,$75
0027EF  D4D2    	RCALL L414
0027F0  D19F    	RCALL L415
0027F1  7F74    	ANDI R23,$F4
0027F2  5BC8    	SUBI YL,$B8
0027F3  7F29    	ANDI R18,$F9
0027F4  347F    	CPI R23,$4F
0027F5  278F    	EOR R24,ZH
0027F6  6D34    	ORI R19,$D4
0027F7  C8D2    	RJMP L416
0027F8  D19F    	RCALL L417
0027F9  7F7F    	ANDI R23,$FF
0027FA  5BC8    	SUBI YL,$B8
0027FB  7F29    	ANDI R18,$F9
0027FC  347F    	CPI R23,$4F
0027FD  278F    	EOR R24,ZH
0027FE  6D34    L510:	ORI R19,$D4
0027FF  C8D2    	RJMP L418
002800  0202    L509:	MULS R16,R18
002801  0202    	MULS R16,R18
002802  0202    	MULS R16,R18
002803  0202    	MULS R16,R18
002804  0202    	MULS R16,R18
002805  0202    	MULS R16,R18
002806  0202    	MULS R16,R18
002807  0202    	MULS R16,R18
002808  0202    	MULS R16,R18
002809  0202    	MULS R16,R18
00280A  0202    	MULS R16,R18
00280B  0202    	MULS R16,R18
00280C  0202    	MULS R16,R18
00280D  0202    	MULS R16,R18
00280E  0202    	MULS R16,R18
00280F  0202    	MULS R16,R18
002810  0202    	MULS R16,R18
002811  0202    	MULS R16,R18
002812  0202    	MULS R16,R18
002813  0202    	MULS R16,R18
002814  0202    	MULS R16,R18
002815  0202    	MULS R16,R18
002816  0202    	MULS R16,R18
002817  0202    	MULS R16,R18
002818  0202    	MULS R16,R18
002819  0202    	MULS R16,R18
00281A  0202    	MULS R16,R18
00281B  0202    	MULS R16,R18
00281C  0202    	MULS R16,R18
00281D  0202    	MULS R16,R18
00281E  0202    	MULS R16,R18
00281F  0202    	MULS R16,R18
002820  0202    	MULS R16,R18
002821  0202    	MULS R16,R18
002822  0202    	MULS R16,R18
002823  0202    	MULS R16,R18
002824  0202    	MULS R16,R18
002825  0202    	MULS R16,R18
002826  0202    	MULS R16,R18
002827  0202    	MULS R16,R18
002828  0202    	MULS R16,R18
002829  0202    	MULS R16,R18
00282A  0202    	MULS R16,R18
00282B  0202    	MULS R16,R18
00282C  0202    	MULS R16,R18
00282D  0202    	MULS R16,R18
00282E  0202    	MULS R16,R18
00282F  0202    	MULS R16,R18
002830  0202    	MULS R16,R18
002831  0202    	MULS R16,R18
002832  0202    	MULS R16,R18
002833  0202    	MULS R16,R18
002834  0202    	MULS R16,R18
002835  0202    	MULS R16,R18
002836  0202    	MULS R16,R18
002837  0202    	MULS R16,R18
002838  0202    	MULS R16,R18
002839  0202    	MULS R16,R18
00283A  0202    	MULS R16,R18
00283B  0202    	MULS R16,R18
00283C  0202    	MULS R16,R18
00283D  0202    	MULS R16,R18
00283E  0202    	MULS R16,R18
00283F  0202    	MULS R16,R18
002840  0202    	MULS R16,R18
002841  0202    	MULS R16,R18
002842  0202    	MULS R16,R18
002843  0202    	MULS R16,R18
002844  0202    	MULS R16,R18
002845  0202    	MULS R16,R18
002846  0202    	MULS R16,R18
002847  0202    	MULS R16,R18
002848  0404    	CPC R0,R4
002849  0404    	CPC R0,R4
00284A  0404    	CPC R0,R4
00284B  0404    	CPC R0,R4
00284C  0404    	CPC R0,R4
00284D  0404    	CPC R0,R4
00284E  0404    	CPC R0,R4
00284F  0404    	CPC R0,R4
002850  0000    	NOP
002851  0000    	NOP
002852  0000    	NOP
002853  0000    	NOP
002854  0000    	NOP
002855  0000    	NOP
002856  0000    	NOP
002857  0000    	NOP
002858  0000    	NOP
002859  0000    	NOP
00285A  0000    	NOP
00285B  0000    	NOP
00285C  0000    	NOP
00285D  0000    	NOP
00285E  0000    	NOP
00285F  0000    	NOP
002860  0000    	NOP
002861  0000    	NOP
002862  0000    	NOP
002863  0000    	NOP
002864  0000    	NOP
002865  0000    	NOP
002866  0000    	NOP
002867  0000    	NOP
002868  0000    	NOP
002869  0000    	NOP
00286A  0000    	NOP
00286B  0000    	NOP
00286C  0000    	NOP
00286D  0000    	NOP
00286E  0000    	NOP
00286F  0000    	NOP
002870  0000    	NOP
002871  0000    	NOP
002872  0000    	NOP
002873  0000    	NOP
002874  0000    	NOP
002875  0000    	NOP
002876  0000    	NOP
002877  0000    	NOP
002878  0000    	NOP
002879  0000    	NOP
00287A  0000    	NOP
00287B  0000    	NOP
00287C  0000    	NOP
00287D  0000    	NOP
00287E  0000    	NOP
00287F  0000    	NOP
002880  0000    	NOP
002881  0000    	NOP
002882  0000    	NOP
002883  0000    	NOP
002884  0000    	NOP
002885  0000    	NOP
002886  0000    	NOP
002887  0000    	NOP
002888  0000    	NOP
002889  0000    	NOP
00288A  0000    	NOP
00288B  0000    	NOP
00288C  0000    	NOP
00288D  0000    	NOP
00288E  0000    	NOP
00288F  0000    	NOP
002890  0000    	NOP
002891  0000    L346:	NOP
002892  0000    	NOP
002893  0000    	NOP
002894  0000    	NOP
002895  0000    	NOP
002896  0000    	NOP
002897  0000    	NOP
002898  0000    	NOP
002899  0000    	NOP
00289A  0000    	NOP
00289B  0000    	NOP
00289C  0000    	NOP
00289D  0000    	NOP
00289E  0000    	NOP
00289F  0000    	NOP
0028A0  1414    	CP R1,R4
0028A1  1414    	CP R1,R4
0028A2  1414    	CP R1,R4
0028A3  1414    	CP R1,R4
0028A4  1414    L383:	CP R1,R4
0028A5  1414    	CP R1,R4
0028A6  1414    	CP R1,R4
0028A7  1414    	CP R1,R4
0028A8  1E1E    	ADC R1,ZL
0028A9  1E1E    	ADC R1,ZL
0028AA  1E1E    	ADC R1,ZL
0028AB  1E1E    	ADC R1,ZL
0028AC  1E1E    	ADC R1,ZL
0028AD  1E1E    	ADC R1,ZL
0028AE  1E1E    	ADC R1,ZL
0028AF  1E1E    	ADC R1,ZL
0028B0  0000    	NOP
0028B1  0000    	NOP
0028B2  0000    	NOP
0028B3  0000    	NOP
0028B4  0000    L343:	NOP
0028B5  0000    	NOP
0028B6  0000    	NOP
0028B7  0000    L424:	NOP
0028B8  0001    	UNRECOGNIZED
0028B9  0001    	UNRECOGNIZED
0028BA  0001    	UNRECOGNIZED
0028BB  0001    L345:	UNRECOGNIZED
0028BC  0001    	UNRECOGNIZED
0028BD  0001    	UNRECOGNIZED
0028BE  0001    	UNRECOGNIZED
0028BF  0001    	UNRECOGNIZED
0028C0  0001    	UNRECOGNIZED
0028C1  0001    	UNRECOGNIZED
0028C2  0014    	UNRECOGNIZED
0028C3  0014    	UNRECOGNIZED
0028C4  0014    	UNRECOGNIZED
0028C5  0014    	UNRECOGNIZED
0028C6  0014    	UNRECOGNIZED
0028C7  0014    	UNRECOGNIZED
0028C8  0014    	UNRECOGNIZED
0028C9  0014    	UNRECOGNIZED
0028CA  0014    	UNRECOGNIZED
0028CB  0014    	UNRECOGNIZED
0028CC  D19F    	RCALL L419
0028CD  7F7F    	ANDI R23,$FF
0028CE  5BC8    	SUBI YL,$B8
0028CF  7F29    	ANDI R18,$F9
0028D0  347F    	CPI R23,$4F
0028D1  278F    	EOR R24,ZH
0028D2  6D34    	ORI R19,$D4
0028D3  C8D2    	RJMP L420
0028D4  D19F    	RCALL L421
0028D5  7F7F    	ANDI R23,$FF
0028D6  5BC8    	SUBI YL,$B8
0028D7  7F29    	ANDI R18,$F9
0028D8  347F    	CPI R23,$4F
0028D9  278F    	EOR R24,ZH
0028DA  6D34    	ORI R19,$D4
0028DB  C8D2    	RJMP L422
0028DC  D2B3    	RCALL L423
0028DD  7F86    	ANDI R24,$F6
0028DE  54DF    	SUBI YH,$4F
0028DF  7F28    	ANDI R18,$F8
0028E0  367F    	CPI R23,$6F
0028E1  2688    	EOR R8,R24
0028E2  8136    	LDD R19,Z+6
0028E3  DFD3    	RCALL L424
0028E4  D3B0    	RCALL L425
0028E5  7F90    	ANDI R25,$F0
0028E6  51D2    	SUBI YH,$12
0028E7  7F27    	ANDI R18,$F7
0028E8  377F    	CPI R23,$7F
0028E9  2585    	EOR R24,R5
0028EA  7E37    	ANDI R19,$E7
0028EB  D2D4    	RCALL L426
0028EC  D3AB    	RCALL L427
0028ED  7F96    	ANDI R25,$F6
0028EE  4FC3    	SBCI YL,$F3
0028EF  7F27    	ANDI R18,$F7
0028F0  397F    	CPI R23,$9F
0028F1  2583    	EOR R24,R3
0028F2  7939    	ANDI R19,$99
0028F3  C3D4    	RJMP L428
0028F4  D3AB    	RCALL L429
0028F5  7F98    	ANDI R25,$F8
0028F6  4FC3    	SBCI YL,$F3
0028F7  7F27    	ANDI R18,$F7
0028F8  397F    	CPI R23,$9F
0028F9  2583    	EOR R24,R3
0028FA  7939    	ANDI R19,$99
0028FB  C3D4    	RJMP L430
0028FC  D2A9    	RCALL L431
0028FD  7F93    	ANDI R25,$F3
0028FE  4AC5    	SBCI YL,$A5
0028FF  7F28    	ANDI R18,$F8
002900  2A7F    	OR R7,ZH
002901  267E    	EOR R7,ZL
002902  772A    	ANDI R18,$7A
002903  C5D3    	RJMP L432
002904  D2A6    	RCALL L433
002905  7F8F    	ANDI R24,$FF
002906  47C6    	SBCI YL,$76
002907  7F28    	ANDI R18,$F8
002908  1D7F    	ADC R23,R15
002909  267B    	EOR R7,XH
00290A  741D    	ANDI R17,$4D
00290B  C6D3    	RJMP L434
00290C  D1A3    	RCALL L435
00290D  7F8B    	ANDI R24,$FB
00290E  51C7    	SUBI YL,$17
00290F  7F29    	ANDI R18,$F9
002910  287F    	OR R7,R15
002911  2785    	EOR R24,R21
002912  7128    	ANDI R18,$18
002913  C7D2    	RJMP L436
002914  D19F    	RCALL L387
002915  7F85    	ANDI R24,$F5
002916  5BC8    	SUBI YL,$B8
002917  7F29    	ANDI R18,$F9
002918  347F    	CPI R23,$4F
002919  278F    	EOR R24,ZH
00291A  6D34    	ORI R19,$D4
00291B  C8D2    	RJMP L437
00291C  D19F    	RCALL L438
00291D  7F80    	ANDI R24,$F0
00291E  5BC8    	SUBI YL,$B8
00291F  7F29    	ANDI R18,$F9
002920  347F    	CPI R23,$4F
002921  278F    	EOR R24,ZH
002922  6D34    	ORI R19,$D4
002923  C8D2    	RJMP L439
002924  0202    	MULS R16,R18
002925  0202    	MULS R16,R18
002926  0202    	MULS R16,R18
002927  0202    	MULS R16,R18
002928  0202    	MULS R16,R18
002929  0202    	MULS R16,R18
00292A  0202    	MULS R16,R18
00292B  0202    	MULS R16,R18
00292C  0202    	MULS R16,R18
00292D  0202    	MULS R16,R18
00292E  0202    	MULS R16,R18
00292F  0202    	MULS R16,R18
002930  0202    	MULS R16,R18
002931  0202    	MULS R16,R18
002932  0202    	MULS R16,R18
002933  0202    	MULS R16,R18
002934  0202    	MULS R16,R18
002935  0202    	MULS R16,R18
002936  0202    	MULS R16,R18
002937  0202    	MULS R16,R18
002938  0202    	MULS R16,R18
002939  0202    	MULS R16,R18
00293A  0202    	MULS R16,R18
00293B  0202    	MULS R16,R18
00293C  0202    	MULS R16,R18
00293D  0202    	MULS R16,R18
00293E  0202    	MULS R16,R18
00293F  0202    	MULS R16,R18
002940  0202    	MULS R16,R18
002941  0202    	MULS R16,R18
002942  0202    	MULS R16,R18
002943  0202    	MULS R16,R18
002944  0202    	MULS R16,R18
002945  0202    	MULS R16,R18
002946  0202    	MULS R16,R18
002947  0202    	MULS R16,R18
002948  0202    L397:	MULS R16,R18
002949  0202    	MULS R16,R18
00294A  0202    	MULS R16,R18
00294B  0202    	MULS R16,R18
00294C  0202    	MULS R16,R18
00294D  0202    	MULS R16,R18
00294E  0202    	MULS R16,R18
00294F  0202    	MULS R16,R18
002950  0202    L399:	MULS R16,R18
002951  0202    	MULS R16,R18
002952  0202    	MULS R16,R18
002953  0202    	MULS R16,R18
002954  0202    	MULS R16,R18
002955  0202    	MULS R16,R18
002956  0202    	MULS R16,R18
002957  0202    	MULS R16,R18
002958  0202    	MULS R16,R18
002959  0202    	MULS R16,R18
00295A  0202    	MULS R16,R18
00295B  0202    	MULS R16,R18
00295C  0202    	MULS R16,R18
00295D  0202    	MULS R16,R18
00295E  0202    	MULS R16,R18
00295F  0202    	MULS R16,R18
002960  0202    	MULS R16,R18
002961  0202    	MULS R16,R18
002962  0202    	MULS R16,R18
002963  0202    	MULS R16,R18
002964  0202    	MULS R16,R18
002965  0202    	MULS R16,R18
002966  0202    	MULS R16,R18
002967  0202    	MULS R16,R18
002968  0202    	MULS R16,R18
002969  0202    	MULS R16,R18
00296A  0202    	MULS R16,R18
00296B  0202    	MULS R16,R18
00296C  0404    	CPC R0,R4
00296D  0404    	CPC R0,R4
00296E  0404    	CPC R0,R4
00296F  0404    	CPC R0,R4
002970  0404    	CPC R0,R4
002971  0404    	CPC R0,R4
002972  0404    	CPC R0,R4
002973  0404    	CPC R0,R4
002974  0000    	NOP
002975  0000    	NOP
002976  0000    	NOP
002977  0000    	NOP
002978  0000    	NOP
002979  0000    	NOP
00297A  0000    	NOP
00297B  0000    	NOP
00297C  0000    	NOP
00297D  0000    	NOP
00297E  0000    	NOP
00297F  0000    	NOP
002980  0000    	NOP
002981  0000    	NOP
002982  0000    	NOP
002983  0000    	NOP
002984  0000    	NOP
002985  0000    	NOP
002986  0000    	NOP
002987  0000    	NOP
002988  0000    	NOP
002989  0000    	NOP
00298A  0000    	NOP
00298B  0000    	NOP
00298C  0000    	NOP
00298D  0000    	NOP
00298E  0000    	NOP
00298F  0000    	NOP
002990  0000    L415:	NOP
002991  0000    	NOP
002992  0000    L413:	NOP
002993  0000    	NOP
002994  0000    	NOP
002995  0000    	NOP
002996  0000    	NOP
002997  0000    L348:	NOP
002998  0000    L417:	NOP
002999  0000    	NOP
00299A  0000    	NOP
00299B  0000    	NOP
00299C  0000    	NOP
00299D  0000    	NOP
00299E  0000    	NOP
00299F  0000    	NOP
0029A0  0000    	NOP
0029A1  0000    	NOP
0029A2  0000    	NOP
0029A3  0000    	NOP
0029A4  0000    	NOP
0029A5  0000    	NOP
0029A6  0000    	NOP
0029A7  0000    	NOP
0029A8  0000    	NOP
0029A9  0000    	NOP
0029AA  0000    	NOP
0029AB  0000    	NOP
0029AC  0000    L385:	NOP
0029AD  0000    	NOP
0029AE  0000    	NOP
0029AF  0000    	NOP
0029B0  0000    	NOP
0029B1  0000    	NOP
0029B2  0000    	NOP
0029B3  0000    	NOP
0029B4  0000    	NOP
0029B5  0000    	NOP
0029B6  0000    	NOP
0029B7  0000    	NOP
0029B8  0000    	NOP
0029B9  0000    	NOP
0029BA  0000    	NOP
0029BB  0000    	NOP
0029BC  0000    	NOP
0029BD  0000    	NOP
0029BE  0000    	NOP
0029BF  0000    	NOP
0029C0  0000    	NOP
0029C1  0000    	NOP
0029C2  0000    	NOP
0029C3  0000    	NOP
0029C4  1414    	CP R1,R4
0029C5  1414    	CP R1,R4
0029C6  1414    	CP R1,R4
0029C7  1414    	CP R1,R4
0029C8  1414    	CP R1,R4
0029C9  1414    	CP R1,R4
0029CA  1414    	CP R1,R4
0029CB  1414    	CP R1,R4
0029CC  1E1E    	ADC R1,ZL
0029CD  1E1E    	ADC R1,ZL
0029CE  1E1E    	ADC R1,ZL
0029CF  1E1E    	ADC R1,ZL
0029D0  1E1E    	ADC R1,ZL
0029D1  1E1E    	ADC R1,ZL
0029D2  1E1E    	ADC R1,ZL
0029D3  1E1E    	ADC R1,ZL
0029D4  0000    	NOP
0029D5  0000    	NOP
0029D6  0000    	NOP
0029D7  0000    	NOP
0029D8  0000    	NOP
0029D9  0000    	NOP
0029DA  0000    	NOP
0029DB  0000    	NOP
0029DC  0001    	UNRECOGNIZED
0029DD  0001    	UNRECOGNIZED
0029DE  0001    	UNRECOGNIZED
0029DF  0001    	UNRECOGNIZED
0029E0  0005    	UNRECOGNIZED
0029E1  0190    	MOVW R19:R18,R1:R0
0029E2  0190    	MOVW R19:R18,R1:R0
0029E3  03E8    	FMULSU R22,R16
0029E4  0190    	MOVW R19:R18,R1:R0
0029E5  0258    	MULS R21,R24
0029E6  D19F    	RCALL L440
0029E7  7F7F    	ANDI R23,$FF
0029E8  5BC8    	SUBI YL,$B8
0029E9  7F29    	ANDI R18,$F9
0029EA  347F    	CPI R23,$4F
0029EB  278F    	EOR R24,ZH
0029EC  6D34    	ORI R19,$D4
0029ED  C8D2    	RJMP L441
0029EE  D19F    	RCALL L442
0029EF  7F7F    	ANDI R23,$FF
0029F0  5BC8    	SUBI YL,$B8
0029F1  7F29    	ANDI R18,$F9
0029F2  347F    	CPI R23,$4F
0029F3  278F    	EOR R24,ZH
0029F4  6D34    	ORI R19,$D4
0029F5  C8D2    	RJMP L443
0029F6  D19F    	RCALL L444
0029F7  7F7F    	ANDI R23,$FF
0029F8  F1C8    	BRCS L445
0029F9  5A29    	SUBI R18,$A9
0029FA  347F    	CPI R23,$4F
0029FB  278F    	EOR R24,ZH
0029FC  6D34    	ORI R19,$D4
0029FD  C8D2    	RJMP L446
0029FE  D19F    	RCALL L447
0029FF  7F7F    	ANDI R23,$FF
002A00  F1C8    	BRCS L448
002A01  5529    	SUBI R18,$59
002A02  347F    	CPI R23,$4F
002A03  278F    	EOR R24,ZH
002A04  0D34    	ADD R19,R4
002A05  92D2    	ST -Z,R13
002A06  D19F    	RCALL L431
002A07  7F7F    	ANDI R23,$FF
002A08  F1C8    	BRCS L449
002A09  556D    	SUBI R22,$5D
002A0A  347F    	CPI R23,$4F
002A0B  278F    	EOR R24,ZH
002A0C  0D34    	ADD R19,R4
002A0D  92D2    	ST -Z,R13
002A0E  D19F    	RCALL L450
002A0F  7F7F    	ANDI R23,$FF
002A10  5BC8    	SUBI YL,$B8
002A11  7F29    	ANDI R18,$F9
002A12  347F    	CPI R23,$4F
002A13  278F    	EOR R24,ZH
002A14  6D34    	ORI R19,$D4
002A15  C8D2    	RJMP L451
002A16  0404    	CPC R0,R4
002A17  0404    	CPC R0,R4
002A18  0404    	CPC R0,R4
002A19  0404    	CPC R0,R4
002A1A  0404    	CPC R0,R4
002A1B  0404    	CPC R0,R4
002A1C  0404    	CPC R0,R4
002A1D  0404    	CPC R0,R4
002A1E  0404    	CPC R0,R4
002A1F  0404    	CPC R0,R4
002A20  0404    	CPC R0,R4
002A21  0404    	CPC R0,R4
002A22  0404    	CPC R0,R4
002A23  0404    	CPC R0,R4
002A24  0404    	CPC R0,R4
002A25  0404    	CPC R0,R4
002A26  0404    	CPC R0,R4
002A27  0404    	CPC R0,R4
002A28  0404    	CPC R0,R4
002A29  0404    	CPC R0,R4
002A2A  0404    	CPC R0,R4
002A2B  0404    	CPC R0,R4
002A2C  0404    	CPC R0,R4
002A2D  0404    	CPC R0,R4
002A2E  0404    	CPC R0,R4
002A2F  0404    	CPC R0,R4
002A30  0404    	CPC R0,R4
002A31  0404    	CPC R0,R4
002A32  0404    L445:	CPC R0,R4
002A33  0404    	CPC R0,R4
002A34  0404    	CPC R0,R4
002A35  0404    	CPC R0,R4
002A36  0404    	CPC R0,R4
002A37  0404    	CPC R0,R4
002A38  0404    	CPC R0,R4
002A39  0404    	CPC R0,R4
002A3A  0404    L448:	CPC R0,R4
002A3B  0404    	CPC R0,R4
002A3C  0404    	CPC R0,R4
002A3D  0404    	CPC R0,R4
002A3E  0000    	NOP
002A3F  0000    	NOP
002A40  0000    	NOP
002A41  0000    	NOP
002A42  0000    L449:	NOP
002A43  0000    	NOP
002A44  0000    	NOP
002A45  0000    	NOP
002A46  0000    	NOP
002A47  0000    	NOP
002A48  0000    	NOP
002A49  0000    	NOP
002A4A  0000    	NOP
002A4B  0000    	NOP
002A4C  0000    	NOP
002A4D  0000    	NOP
002A4E  0000    	NOP
002A4F  0000    	NOP
002A50  0000    	NOP
002A51  0000    	NOP
002A52  0000    	NOP
002A53  0000    	NOP
002A54  0000    	NOP
002A55  0000    	NOP
002A56  0000    	NOP
002A57  0000    	NOP
002A58  0000    	NOP
002A59  0000    	NOP
002A5A  0000    	NOP
002A5B  0000    	NOP
002A5C  0000    	NOP
002A5D  0000    	NOP
002A5E  0000    	NOP
002A5F  0000    L401:	NOP
002A60  0000    	NOP
002A61  0000    	NOP
002A62  0000    	NOP
002A63  0000    	NOP
002A64  0000    	NOP
002A65  0000    	NOP
002A66  1414    	CP R1,R4
002A67  1414    	CP R1,R4
002A68  1414    	CP R1,R4
002A69  1414    	CP R1,R4
002A6A  1414    	CP R1,R4
002A6B  1414    	CP R1,R4
002A6C  1414    L419:	CP R1,R4
002A6D  1414    	CP R1,R4
002A6E  1E1E    	ADC R1,ZL
002A6F  1E1E    	ADC R1,ZL
002A70  1E1E    	ADC R1,ZL
002A71  1E1E    	ADC R1,ZL
002A72  1E1E    	ADC R1,ZL
002A73  1E1E    	ADC R1,ZL
002A74  1E1E    L421:	ADC R1,ZL
002A75  1E1E    	ADC R1,ZL
002A76  0000    	NOP
002A77  0000    	NOP
002A78  0000    	NOP
002A79  0000    	NOP
002A7A  0000    	NOP
002A7B  0000    	NOP
002A7C  0000    	NOP
002A7D  0000    	NOP
002A7E  0001    	UNRECOGNIZED
002A7F  0001    	UNRECOGNIZED
002A80  0001    	UNRECOGNIZED
002A81  0001    	UNRECOGNIZED
002A82  0005    	UNRECOGNIZED
002A83  0190    	MOVW R19:R18,R1:R0
002A84  0190    	MOVW R19:R18,R1:R0
002A85  03E8    	FMULSU R22,R16
002A86  0190    	MOVW R19:R18,R1:R0
002A87  0258    	MULS R21,R24
002A88  D19F    	RCALL L452
002A89  7F7F    L409:	ANDI R23,$FF
002A8A  5BC8    	SUBI YL,$B8
002A8B  7F29    	ANDI R18,$F9
002A8C  347F    	CPI R23,$4F
002A8D  278F    	EOR R24,ZH
002A8E  6D34    	ORI R19,$D4
002A8F  C8D2    	RJMP L453
002A90  D19F    	RCALL L454
002A91  7F7F    	ANDI R23,$FF
002A92  5BC8    L365:	SUBI YL,$B8
002A93  7F29    	ANDI R18,$F9
002A94  347F    L411:	CPI R23,$4F
002A95  278F    	EOR R24,ZH
002A96  6D34    	ORI R19,$D4
002A97  C8D2    	RJMP L455
002A98  D110    	RCALL L456
002A99  7F7F    	ANDI R23,$FF
002A9A  5BC8    	SUBI YL,$B8
002A9B  9A29    L367:	SBI ADCH,ADCH1
002A9C  347F    	CPI R23,$4F
002A9D  278F    	EOR R24,ZH
002A9E  6D34    L350:	ORI R19,$D4
002A9F  C8D2    	RJMP L457
002AA0  D110    	RCALL L458
002AA1  7F7F    	ANDI R23,$FF
002AA2  5BC8    	SUBI YL,$B8
002AA3  AC29    	LDD R2,Y+57
002AA4  347F    L352:	CPI R23,$4F
002AA5  27F4    	EOR ZH,R20
002AA6  6D70    	ORI R23,$D0
002AA7  C8D2    	RJMP L459
002AA8  7B10    	ANDI R17,$B0
002AA9  7F7F    	ANDI R23,$FF
002AAA  5BC8    	SUBI YL,$B8
002AAB  AC29    	LDD R2,Y+57
002AAC  347F    L354:	CPI R23,$4F
002AAD  27F4    	EOR ZH,R20
002AAE  6D70    	ORI R23,$D0
002AAF  C8D2    	RJMP L460
002AB0  D19F    L435:	RCALL L461
002AB1  7F7F    	ANDI R23,$FF
002AB2  5BC8    	SUBI YL,$B8
002AB3  7F29    L410:	ANDI R18,$F9
002AB4  347F    L387:	CPI R23,$4F
002AB5  278F    	EOR R24,ZH
002AB6  6D34    	ORI R19,$D4
002AB7  C8D2    	RJMP L462
002AB8  0404    	CPC R0,R4
002AB9  0404    	CPC R0,R4
002ABA  0404    	CPC R0,R4
002ABB  0404    	CPC R0,R4
002ABC  0404    L438:	CPC R0,R4
002ABD  0404    	CPC R0,R4
002ABE  0404    	CPC R0,R4
002ABF  0404    	CPC R0,R4
002AC0  0404    	CPC R0,R4
002AC1  0404    	CPC R0,R4
002AC2  0404    	CPC R0,R4
002AC3  0404    	CPC R0,R4
002AC4  0404    	CPC R0,R4
002AC5  0404    	CPC R0,R4
002AC6  0404    	CPC R0,R4
002AC7  0404    	CPC R0,R4
002AC8  0404    	CPC R0,R4
002AC9  0404    	CPC R0,R4
002ACA  0404    	CPC R0,R4
002ACB  0404    	CPC R0,R4
002ACC  0404    	CPC R0,R4
002ACD  0404    	CPC R0,R4
002ACE  0404    	CPC R0,R4
002ACF  0404    	CPC R0,R4
002AD0  0404    	CPC R0,R4
002AD1  0404    	CPC R0,R4
002AD2  0404    	CPC R0,R4
002AD3  0404    	CPC R0,R4
002AD4  0404    	CPC R0,R4
002AD5  0404    	CPC R0,R4
002AD6  0404    	CPC R0,R4
002AD7  0404    	CPC R0,R4
002AD8  0404    	CPC R0,R4
002AD9  0404    	CPC R0,R4
002ADA  0404    	CPC R0,R4
002ADB  0404    	CPC R0,R4
002ADC  0404    	CPC R0,R4
002ADD  0404    	CPC R0,R4
002ADE  0404    	CPC R0,R4
002ADF  0404    	CPC R0,R4
002AE0  0000    	NOP
002AE1  0000    	NOP
002AE2  0000    	NOP
002AE3  0000    	NOP
002AE4  0000    	NOP
002AE5  0000    	NOP
002AE6  0000    	NOP
002AE7  0000    	NOP
002AE8  0000    	NOP
002AE9  0000    	NOP
002AEA  0000    	NOP
002AEB  0000    	NOP
002AEC  0000    	NOP
002AED  0000    	NOP
002AEE  0000    	NOP
002AEF  0000    	NOP
002AF0  0000    	NOP
002AF1  0000    	NOP
002AF2  0000    	NOP
002AF3  0000    	NOP
002AF4  0000    	NOP
002AF5  0000    	NOP
002AF6  0000    	NOP
002AF7  0000    	NOP
002AF8  0000    	NOP
002AF9  0000    	NOP
002AFA  0000    	NOP
002AFB  0000    	NOP
002AFC  0000    	NOP
002AFD  0000    	NOP
002AFE  0000    	NOP
002AFF  0000    	NOP
002B00  0000    	NOP
002B01  0000    	NOP
002B02  0000    	NOP
002B03  0000    	NOP
002B04  0000    	NOP
002B05  0000    	NOP
002B06  0000    	NOP
002B07  0000    	NOP
002B08  1414    	CP R1,R4
002B09  1414    	CP R1,R4
002B0A  1414    	CP R1,R4
002B0B  1414    	CP R1,R4
002B0C  1414    	CP R1,R4
002B0D  1414    	CP R1,R4
002B0E  1414    	CP R1,R4
002B0F  1414    	CP R1,R4
002B10  1E1E    	ADC R1,ZL
002B11  1E1E    	ADC R1,ZL
002B12  1E1E    	ADC R1,ZL
002B13  1E1E    	ADC R1,ZL
002B14  1E1E    	ADC R1,ZL
002B15  1E1E    	ADC R1,ZL
002B16  1E1E    	ADC R1,ZL
002B17  1E1E    	ADC R1,ZL
002B18  0000    	NOP
002B19  0000    	NOP
002B1A  0000    	NOP
002B1B  0000    	NOP
002B1C  0000    	NOP
002B1D  0000    	NOP
002B1E  0000    	NOP
002B1F  0000    	NOP
002B20  0001    	UNRECOGNIZED
002B21  0001    	UNRECOGNIZED
002B22  0001    	UNRECOGNIZED
002B23  0001    	UNRECOGNIZED
002B24  0001    	UNRECOGNIZED
002B25  0001    	UNRECOGNIZED
002B26  0001    	UNRECOGNIZED
002B27  0001    	UNRECOGNIZED
002B28  0001    	UNRECOGNIZED
002B29  0001    	UNRECOGNIZED
002B2A  0001    	UNRECOGNIZED
002B2B  0001    	UNRECOGNIZED
002B2C  0001    L527:	UNRECOGNIZED
002B2D  0001    	UNRECOGNIZED
002B2E  0001    	UNRECOGNIZED
002B2F  0001    	UNRECOGNIZED
002B30  0001    	UNRECOGNIZED
002B31  0001    	UNRECOGNIZED
002B32  0001    L468:	UNRECOGNIZED
002B33  0001    	UNRECOGNIZED
002B34  0014    	UNRECOGNIZED
002B35  0014    	UNRECOGNIZED
002B36  0014    	UNRECOGNIZED
002B37  0014    	UNRECOGNIZED
002B38  0014    	UNRECOGNIZED
002B39  0014    	UNRECOGNIZED
002B3A  0014    	UNRECOGNIZED
002B3B  0014    	UNRECOGNIZED
002B3C  0014    	UNRECOGNIZED
002B3D  0014    	UNRECOGNIZED
002B3E  0014    	UNRECOGNIZED
002B3F  0014    	UNRECOGNIZED
002B40  0014    	UNRECOGNIZED
002B41  0014    	UNRECOGNIZED
002B42  0014    	UNRECOGNIZED
002B43  0014    	UNRECOGNIZED
002B44  0014    	UNRECOGNIZED
002B45  0014    	UNRECOGNIZED
002B46  0014    	UNRECOGNIZED
002B47  0014    	UNRECOGNIZED
002B48  D19F    	RCALL L463
002B49  7F7F    	ANDI R23,$FF
002B4A  5BC8    	SUBI YL,$B8
002B4B  7F29    	ANDI R18,$F9
002B4C  347F    	CPI R23,$4F
002B4D  278F    	EOR R24,ZH
002B4E  6D34    	ORI R19,$D4
002B4F  C8D2    	RJMP L464
002B50  D19F    	RCALL L465
002B51  7F7F    	ANDI R23,$FF
002B52  5BC8    	SUBI YL,$B8
002B53  7F29    	ANDI R18,$F9
002B54  347F    	CPI R23,$4F
002B55  278F    	EOR R24,ZH
002B56  6D34    	ORI R19,$D4
002B57  C8D2    	RJMP L466
002B58  D1B3    	RCALL L467
002B59  7F7F    	ANDI R23,$FF
002B5A  63DF    	ORI YH,$3F
002B5B  7F29    	ANDI R18,$F9
002B5C  367F    	CPI R23,$6F
002B5D  2788    	CLR R24
002B5E  6F36    	ORI R19,$F6
002B5F  DFD2    	RCALL L468
002B60  D1B0    	RCALL L469
002B61  7F7F    	ANDI R23,$FF
002B62  67D2    	ORI YH,$72
002B63  7F29    	ANDI R18,$F9
002B64  377F    	CPI R23,$7F
002B65  2785    	EOR R24,R21
002B66  6637    	ORI R19,$67
002B67  D2D2    	RCALL L470
002B68  D1AB    	RCALL L471
002B69  7F7F    	ANDI R23,$FF
002B6A  6CC3    L403:	ORI YL,$C3
002B6B  7F29    	ANDI R18,$F9
002B6C  397F    	CPI R23,$9F
002B6D  2783    	EOR R24,R19
002B6E  5C39    	SUBI R19,$C9
002B6F  C3D2    	RJMP L472
002B70  D1AB    	RCALL L473
002B71  7F7F    	ANDI R23,$FF
002B72  6CC3    	ORI YL,$C3
002B73  7F29    	ANDI R18,$F9
002B74  397F    L405:	CPI R23,$9F
002B75  2783    	EOR R24,R19
002B76  5C39    	SUBI R19,$C9
002B77  C3D2    	RJMP L474
002B78  D1A9    	RCALL L475
002B79  7F7F    	ANDI R23,$FF
002B7A  65C5    	ORI YL,$55
002B7B  7F29    	ANDI R18,$F9
002B7C  327F    L407:	CPI R23,$2F
002B7D  2782    	EOR R24,R18
002B7E  6032    	ORI R19,$02
002B7F  C5D2    	RJMP L476
002B80  D1A7    	RCALL L477
002B81  7F7F    	ANDI R23,$FF
002B82  5FC6    	SUBI YL,$F6
002B83  7F29    	ANDI R18,$F9
002B84  2B7F    	OR R23,ZH
002B85  2781    	EOR R24,R17
002B86  642B    L440:	ORI R18,$4B
002B87  C6D2    	RJMP L478
002B88  D1A4    	RCALL L479
002B89  7F7F    	ANDI R23,$FF
002B8A  59C7    	SUBI YL,$97
002B8B  7F29    	ANDI R18,$F9
002B8C  247F    	EOR R7,R15
002B8D  2782    	EOR R24,R18
002B8E  6824    L442:	ORI R18,$84
002B8F  C7D2    	RJMP L480
002B90  D1A1    L423:	RCALL L481
002B91  7F7F    	ANDI R23,$FF
002B92  53C8    	SUBI YL,$38
002B93  7F29    	ANDI R18,$F9
002B94  1F7F    	ADC R23,ZH
002B95  2783    	EOR R24,R19
002B96  6B1F    L444:	ORI R17,$BF
002B97  C8D2    	RJMP L482
002B98  D19D    	RCALL L483
002B99  7F7F    	ANDI R23,$FF
002B9A  4FC8    	SBCI YL,$F8
002B9B  7F29    	ANDI R18,$F9
002B9C  1F7F    	ADC R23,ZH
002B9D  2787    	EOR R24,R23
002B9E  6F1F    L447:	ORI R17,$FF
002B9F  C8D2    	RJMP L484
002BA0  D19A    	RCALL L485
002BA1  7F7F    	ANDI R23,$FF
002BA2  4EC7    	SBCI YL,$E7
002BA3  7F29    	ANDI R18,$F9
002BA4  247F    L406:	EOR R7,R15
002BA5  278D    	EOR R24,YH
002BA6  7224    L431:	ANDI R18,$24
002BA7  C7D2    	RJMP L486
002BA8  D196    	RCALL L487
002BA9  7F7F    L456:	ANDI R23,$FF
002BAA  4DC6    L498:	SBCI YL,$D6
002BAB  7F29    L433:	ANDI R18,$F9
002BAC  2B7F    L408:	OR R23,ZH
002BAD  2793    	EOR R25,R19
002BAE  752B    L450:	ANDI R18,$5B
002BAF  C6D2    	RJMP L488
002BB0  D192    	RCALL L489
002BB1  7F7F    L458:	ANDI R23,$FF
002BB2  4EC5    	SBCI YL,$E5
002BB3  7F29    	ANDI R18,$F9
002BB4  327F    	CPI R23,$2F
002BB5  2799    	CLR R25
002BB6  7732    	ANDI R19,$72
002BB7  C5D2    	RJMP L490
002BB8  D18E    	RCALL L491
002BB9  7F7F    	ANDI R23,$FF
002BBA  4FC3    	SBCI YL,$F3
002BBB  7F29    	ANDI R18,$F9
002BBC  397F    L389:	CPI R23,$9F
002BBD  27A0    	EOR XL,R16
002BBE  7939    	ANDI R19,$99
002BBF  C3D2    	RJMP L492
002BC0  D18E    L426:	RCALL L493
002BC1  7F7F    	ANDI R23,$FF
002BC2  4FC3    	SBCI YL,$F3
002BC3  7F29    	ANDI R18,$F9
002BC4  397F    	CPI R23,$9F
002BC5  27A0    	EOR XL,R16
002BC6  7939    	ANDI R19,$99
002BC7  C3D2    	RJMP L494
002BC8  D198    	RCALL L495
002BC9  7F7F    	ANDI R23,$FF
002BCA  51D2    	SUBI YH,$12
002BCB  7F29    	ANDI R18,$F9
002BCC  377F    	CPI R23,$7F
002BCD  279B    	EOR R25,XH
002BCE  7E37    	ANDI R19,$E7
002BCF  D2D2    	RCALL L496
002BD0  D1A1    	RCALL L497
002BD1  7F7F    	ANDI R23,$FF
002BD2  54DF    	SUBI YH,$4F
002BD3  7F29    	ANDI R18,$F9
002BD4  367F    	CPI R23,$6F
002BD5  2797    	EOR R25,R23
002BD6  8136    	LDD R19,Z+6
002BD7  DFD2    	RCALL L498
002BD8  D1A1    	RCALL L499
002BD9  7F7F    	ANDI R23,$FF
002BDA  57D4    	SUBI YH,$74
002BDB  7F29    	ANDI R18,$F9
002BDC  357F    	CPI R23,$5F
002BDD  2793    	EOR R25,R19
002BDE  7735    	ANDI R19,$75
002BDF  D4D2    	RCALL L500
002BE0  D19F    	RCALL L501
002BE1  7F7F    	ANDI R23,$FF
002BE2  5BC8    	SUBI YL,$B8
002BE3  7F29    	ANDI R18,$F9
002BE4  347F    	CPI R23,$4F
002BE5  278F    	EOR R24,ZH
002BE6  6D34    	ORI R19,$D4
002BE7  C8D2    	RJMP L502
002BE8  D19F    	RCALL L503
002BE9  7F7F    	ANDI R23,$FF
002BEA  5BC8    	SUBI YL,$B8
002BEB  7F29    	ANDI R18,$F9
002BEC  347F    	CPI R23,$4F
002BED  278F    	EOR R24,ZH
002BEE  6D34    	ORI R19,$D4
002BEF  C8D2    	RJMP L504
002BF0  0202    	MULS R16,R18
002BF1  0202    	MULS R16,R18
002BF2  0202    	MULS R16,R18
002BF3  0202    	MULS R16,R18
002BF4  0202    	MULS R16,R18
002BF5  0202    	MULS R16,R18
002BF6  0202    	MULS R16,R18
002BF7  0202    	MULS R16,R18
002BF8  0202    	MULS R16,R18
002BF9  0202    	MULS R16,R18
002BFA  0202    	MULS R16,R18
002BFB  0202    	MULS R16,R18
002BFC  0202    	MULS R16,R18
002BFD  0202    	MULS R16,R18
002BFE  0202    	MULS R16,R18
002BFF  0202    	MULS R16,R18
002C00  0202    	MULS R16,R18
002C01  0202    	MULS R16,R18
002C02  0202    	MULS R16,R18
002C03  0202    	MULS R16,R18
002C04  0202    	MULS R16,R18
002C05  0202    	MULS R16,R18
002C06  0202    	MULS R16,R18
002C07  0202    	MULS R16,R18
002C08  0202    	MULS R16,R18
002C09  0202    	MULS R16,R18
002C0A  0202    	MULS R16,R18
002C0B  0202    	MULS R16,R18
002C0C  0202    	MULS R16,R18
002C0D  0202    	MULS R16,R18
002C0E  0202    	MULS R16,R18
002C0F  0202    	MULS R16,R18
002C10  0202    	MULS R16,R18
002C11  0202    	MULS R16,R18
002C12  0202    	MULS R16,R18
002C13  0202    	MULS R16,R18
002C14  0202    	MULS R16,R18
002C15  0202    L524:	MULS R16,R18
002C16  0202    	MULS R16,R18
002C17  0202    	MULS R16,R18
002C18  0202    	MULS R16,R18
002C19  0202    	MULS R16,R18
002C1A  0202    	MULS R16,R18
002C1B  0202    	MULS R16,R18
002C1C  0202    	MULS R16,R18
002C1D  0202    	MULS R16,R18
002C1E  0202    	MULS R16,R18
002C1F  0202    	MULS R16,R18
002C20  0202    	MULS R16,R18
002C21  0202    	MULS R16,R18
002C22  0202    	MULS R16,R18
002C23  0202    	MULS R16,R18
002C24  0202    	MULS R16,R18
002C25  0202    	MULS R16,R18
002C26  0202    	MULS R16,R18
002C27  0202    	MULS R16,R18
002C28  0202    L452:	MULS R16,R18
002C29  0202    	MULS R16,R18
002C2A  0202    	MULS R16,R18
002C2B  0202    	MULS R16,R18
002C2C  0202    	MULS R16,R18
002C2D  0202    	MULS R16,R18
002C2E  0202    	MULS R16,R18
002C2F  0202    	MULS R16,R18
002C30  0202    L454:	MULS R16,R18
002C31  0202    	MULS R16,R18
002C32  0202    	MULS R16,R18
002C33  0202    	MULS R16,R18
002C34  0202    	MULS R16,R18
002C35  0202    	MULS R16,R18
002C36  0202    	MULS R16,R18
002C37  0202    	MULS R16,R18
002C38  0202    	MULS R16,R18
002C39  0202    	MULS R16,R18
002C3A  0202    	MULS R16,R18
002C3B  0202    	MULS R16,R18
002C3C  0202    	MULS R16,R18
002C3D  0202    	MULS R16,R18
002C3E  0202    	MULS R16,R18
002C3F  0202    	MULS R16,R18
002C40  0202    	MULS R16,R18
002C41  0202    	MULS R16,R18
002C42  0202    	MULS R16,R18
002C43  0202    	MULS R16,R18
002C44  0202    	MULS R16,R18
002C45  0202    	MULS R16,R18
002C46  0202    	MULS R16,R18
002C47  0202    	MULS R16,R18
002C48  0202    	MULS R16,R18
002C49  0202    	MULS R16,R18
002C4A  0202    	MULS R16,R18
002C4B  0202    	MULS R16,R18
002C4C  0202    	MULS R16,R18
002C4D  0202    	MULS R16,R18
002C4E  0202    	MULS R16,R18
002C4F  0202    	MULS R16,R18
002C50  0202    L461:	MULS R16,R18
002C51  0202    	MULS R16,R18
002C52  0202    	MULS R16,R18
002C53  0202    	MULS R16,R18
002C54  0202    	MULS R16,R18
002C55  0202    	MULS R16,R18
002C56  0202    	MULS R16,R18
002C57  0202    	MULS R16,R18
002C58  0202    	MULS R16,R18
002C59  0202    	MULS R16,R18
002C5A  0202    	MULS R16,R18
002C5B  0202    	MULS R16,R18
002C5C  0202    	MULS R16,R18
002C5D  0202    	MULS R16,R18
002C5E  0202    	MULS R16,R18
002C5F  0202    	MULS R16,R18
002C60  0202    	MULS R16,R18
002C61  0202    	MULS R16,R18
002C62  0202    	MULS R16,R18
002C63  0202    	MULS R16,R18
002C64  0202    	MULS R16,R18
002C65  0202    	MULS R16,R18
002C66  0202    	MULS R16,R18
002C67  0202    	MULS R16,R18
002C68  0202    	MULS R16,R18
002C69  0202    	MULS R16,R18
002C6A  0202    	MULS R16,R18
002C6B  0202    	MULS R16,R18
002C6C  0202    	MULS R16,R18
002C6D  0202    	MULS R16,R18
002C6E  0202    	MULS R16,R18
002C6F  0202    	MULS R16,R18
002C70  0202    	MULS R16,R18
002C71  0202    	MULS R16,R18
002C72  0202    	MULS R16,R18
002C73  0202    	MULS R16,R18
002C74  0202    	MULS R16,R18
002C75  0202    	MULS R16,R18
002C76  0202    	MULS R16,R18
002C77  0202    	MULS R16,R18
002C78  0202    	MULS R16,R18
002C79  0202    	MULS R16,R18
002C7A  0202    	MULS R16,R18
002C7B  0202    	MULS R16,R18
002C7C  0202    	MULS R16,R18
002C7D  0202    	MULS R16,R18
002C7E  0202    	MULS R16,R18
002C7F  0202    	MULS R16,R18
002C80  0202    	MULS R16,R18
002C81  0202    	MULS R16,R18
002C82  0202    	MULS R16,R18
002C83  0202    	MULS R16,R18
002C84  0202    	MULS R16,R18
002C85  0202    	MULS R16,R18
002C86  0202    	MULS R16,R18
002C87  0202    	MULS R16,R18
002C88  0404    	CPC R0,R4
002C89  0404    	CPC R0,R4
002C8A  0404    	CPC R0,R4
002C8B  0404    	CPC R0,R4
002C8C  0404    	CPC R0,R4
002C8D  0404    	CPC R0,R4
002C8E  0404    	CPC R0,R4
002C8F  0404    	CPC R0,R4
002C90  0000    	NOP
002C91  0000    	NOP
002C92  0000    	NOP
002C93  0000    	NOP
002C94  0000    	NOP
002C95  0000    L425:	NOP
002C96  0000    	NOP
002C97  0000    	NOP
002C98  0000    L427:	NOP
002C99  0000    	NOP
002C9A  0000    	NOP
002C9B  0000    	NOP
002C9C  0000    	NOP
002C9D  0000    	NOP
002C9E  0000    	NOP
002C9F  0000    	NOP
002CA0  0000    L429:	NOP
002CA1  0000    	NOP
002CA2  0000    	NOP
002CA3  0000    	NOP
002CA4  0000    	NOP
002CA5  0000    	NOP
002CA6  0000    	NOP
002CA7  0000    	NOP
002CA8  0000    	NOP
002CA9  0000    	NOP
002CAA  0000    	NOP
002CAB  0000    	NOP
002CAC  0000    	NOP
002CAD  0000    	NOP
002CAE  0000    	NOP
002CAF  0000    	NOP
002CB0  0000    	NOP
002CB1  0000    	NOP
002CB2  0000    	NOP
002CB3  0000    	NOP
002CB4  0000    	NOP
002CB5  0000    	NOP
002CB6  0000    	NOP
002CB7  0000    	NOP
002CB8  0000    	NOP
002CB9  0000    	NOP
002CBA  0000    	NOP
002CBB  0000    	NOP
002CBC  0000    	NOP
002CBD  0000    	NOP
002CBE  0000    	NOP
002CBF  0000    	NOP
002CC0  0000    	NOP
002CC1  0000    	NOP
002CC2  0000    L414:	NOP
002CC3  0000    	NOP
002CC4  0000    L391:	NOP
002CC5  0000    	NOP
002CC6  0000    	NOP
002CC7  0000    	NOP
002CC8  0000    L428:	NOP
002CC9  0000    	NOP
002CCA  0000    	NOP
002CCB  0000    	NOP
002CCC  0000    L393:	NOP
002CCD  0000    	NOP
002CCE  0000    	NOP
002CCF  0000    	NOP
002CD0  0000    L430:	NOP
002CD1  0000    	NOP
002CD2  0000    	NOP
002CD3  0000    	NOP
002CD4  0000    L395:	NOP
002CD5  0000    	NOP
002CD6  0000    	NOP
002CD7  0000    	NOP
002CD8  0000    	NOP
002CD9  0000    	NOP
002CDA  0000    	NOP
002CDB  0000    	NOP
002CDC  0000    	NOP
002CDD  0000    	NOP
002CDE  0000    	NOP
002CDF  0000    	NOP
002CE0  0000    	NOP
002CE1  0000    	NOP
002CE2  0000    	NOP
002CE3  0000    	NOP
002CE4  0000    	NOP
002CE5  0000    	NOP
002CE6  0000    	NOP
002CE7  0000    	NOP
002CE8  0000    L463:	NOP
002CE9  0000    	NOP
002CEA  0000    	NOP
002CEB  0000    	NOP
002CEC  0000    	NOP
002CED  0000    	NOP
002CEE  0000    	NOP
002CEF  0000    	NOP
002CF0  0000    L465:	NOP
002CF1  0000    	NOP
002CF2  0000    	NOP
002CF3  0000    	NOP
002CF4  0000    	NOP
002CF5  0000    	NOP
002CF6  0000    	NOP
002CF7  0000    	NOP
002CF8  0000    	NOP
002CF9  0000    	NOP
002CFA  0000    	NOP
002CFB  0000    	NOP
002CFC  0000    	NOP
002CFD  0000    	NOP
002CFE  0000    	NOP
002CFF  0000    	NOP
002D00  0000    	NOP
002D01  0000    	NOP
002D02  0000    	NOP
002D03  0000    	NOP
002D04  0000    	NOP
002D05  0000    	NOP
002D06  0000    	NOP
002D07  0000    	NOP
002D08  0000    	NOP
002D09  0000    	NOP
002D0A  0000    	NOP
002D0B  0000    	NOP
002D0C  0000    L467:	NOP
002D0D  0000    	NOP
002D0E  0000    	NOP
002D0F  0000    	NOP
002D10  0000    	NOP
002D11  0000    L469:	NOP
002D12  0000    	NOP
002D13  0000    	NOP
002D14  0000    L471:	NOP
002D15  0000    	NOP
002D16  0000    	NOP
002D17  0000    	NOP
002D18  0000    	NOP
002D19  0000    	NOP
002D1A  0000    	NOP
002D1B  0000    	NOP
002D1C  0000    L473:	NOP
002D1D  0000    	NOP
002D1E  0000    	NOP
002D1F  0000    	NOP
002D20  0000    	NOP
002D21  0000    	NOP
002D22  0000    L475:	NOP
002D23  0000    	NOP
002D24  0000    	NOP
002D25  0000    	NOP
002D26  0000    	NOP
002D27  0000    	NOP
002D28  0000    L477:	NOP
002D29  0000    	NOP
002D2A  0000    	NOP
002D2B  0000    	NOP
002D2C  0000    	NOP
002D2D  0000    L479:	NOP
002D2E  0000    	NOP
002D2F  0000    	NOP
002D30  1414    	CP R1,R4
002D31  1414    	CP R1,R4
002D32  1414    L481:	CP R1,R4
002D33  1414    	CP R1,R4
002D34  1414    	CP R1,R4
002D35  1414    	CP R1,R4
002D36  1414    L483:	CP R1,R4
002D37  1414    	CP R1,R4
002D38  1E1E    	ADC R1,ZL
002D39  1E1E    	ADC R1,ZL
002D3A  1E1E    	ADC R1,ZL
002D3B  1E1E    L485:	ADC R1,ZL
002D3C  1E1E    	ADC R1,ZL
002D3D  1E1E    	ADC R1,ZL
002D3E  1E1E    	ADC R1,ZL
002D3F  1E1E    L487:	ADC R1,ZL
002D40  0000    	NOP
002D41  0000    	NOP
002D42  0000    	NOP
002D43  0000    L489:	NOP
002D44  0000    	NOP
002D45  0000    	NOP
002D46  0000    	NOP
002D47  0000    L491:	NOP
002D48  0001    	UNRECOGNIZED
002D49  0005    	UNRECOGNIZED
002D4A  0001    	UNRECOGNIZED
002D4B  0005    	UNRECOGNIZED
002D4C  01F4    	MOVW R31:R30,R9:R8
002D4D  012C    	MOVW R5:R4,R25:R24
002D4E  0190    	MOVW R19:R18,R1:R0
002D4F  012C    L493:	MOVW R5:R4,R25:R24
002D50  D19F    	RCALL L505
002D51  7F7F    	ANDI R23,$FF
002D52  5BC8    	SUBI YL,$B8
002D53  7F29    	ANDI R18,$F9
002D54  347F    	CPI R23,$4F
002D55  278F    	EOR R24,ZH
002D56  6D34    	ORI R19,$D4
002D57  C8D2    	RJMP L506
002D58  D19F    	RCALL L507
002D59  7F7F    	ANDI R23,$FF
002D5A  5BC8    	SUBI YL,$B8
002D5B  7F29    	ANDI R18,$F9
002D5C  347F    	CPI R23,$4F
002D5D  278F    	EOR R24,ZH
002D5E  6D34    	ORI R19,$D4
002D5F  C8D2    	RJMP L508
002D60  DA9F    	RCALL L509
002D61  7F9F    L495:	ANDI R25,$FF
002D62  5BC8    	SUBI YL,$B8
002D63  9C29    	MUL R2,R9
002D64  1B7F    	SUB R23,ZH
002D65  1B8F    	SUB R24,ZH
002D66  6D34    	ORI R19,$D4
002D67  C8C2    	RJMP L506
002D68  DA95    	RCALL L510
002D69  7FC7    	ANDI YL,$F7
002D6A  B4C8    	IN R12,OCR1BL
002D6B  9C29    	MUL R2,R9
002D6C  5E7F    	SUBI R23,$EF
002D6D  1B8F    	SUB R24,ZH
002D6E  6D34    	ORI R19,$D4
002D6F  C8C2    	RJMP L508
002D70  D19F    	RCALL L511
002D71  7F7F    	ANDI R23,$FF
002D72  5BC8    L497:	SUBI YL,$B8
002D73  7F29    	ANDI R18,$F9
002D74  347F    	CPI R23,$4F
002D75  278F    	EOR R24,ZH
002D76  6D34    	ORI R19,$D4
002D77  C8D2    	RJMP L512
002D78  0404    	CPC R0,R4
002D79  0404    	CPC R0,R4
002D7A  0404    L499:	CPC R0,R4
002D7B  0404    	CPC R0,R4
002D7C  0404    	CPC R0,R4
002D7D  0404    	CPC R0,R4
002D7E  0404    	CPC R0,R4
002D7F  0404    	CPC R0,R4
002D80  0202    L501:	MULS R16,R18
002D81  0202    	MULS R16,R18
002D82  0202    	MULS R16,R18
002D83  0202    	MULS R16,R18
002D84  0202    	MULS R16,R18
002D85  0202    	MULS R16,R18
002D86  0202    	MULS R16,R18
002D87  0202    	MULS R16,R18
002D88  0202    L503:	MULS R16,R18
002D89  0202    	MULS R16,R18
002D8A  0202    	MULS R16,R18
002D8B  0202    	MULS R16,R18
002D8C  0202    	MULS R16,R18
002D8D  0202    	MULS R16,R18
002D8E  0202    	MULS R16,R18
002D8F  0202    	MULS R16,R18
002D90  0303    	MULSU R16,R19
002D91  0303    	MULSU R16,R19
002D92  0303    	MULSU R16,R19
002D93  0303    	MULSU R16,R19
002D94  0303    	MULSU R16,R19
002D95  0303    	MULSU R16,R19
002D96  0303    	MULSU R16,R19
002D97  0303    	MULSU R16,R19
002D98  0000    	NOP
002D99  0000    	NOP
002D9A  0000    	NOP
002D9B  0000    	NOP
002D9C  0000    L404:	NOP
002D9D  0000    	NOP
002D9E  0000    	NOP
002D9F  0000    	NOP
002DA0  0000    	NOP
002DA1  0000    	NOP
002DA2  0000    	NOP
002DA3  0000    	NOP
002DA4  0000    	NOP
002DA5  0000    	NOP
002DA6  0000    	NOP
002DA7  0000    	NOP
002DA8  0000    	NOP
002DA9  0000    	NOP
002DAA  0000    	NOP
002DAB  0000    	NOP
002DAC  0000    	NOP
002DAD  0000    	NOP
002DAE  0000    	NOP
002DAF  0000    	NOP
002DB0  0000    	NOP
002DB1  0000    	NOP
002DB2  0000    	NOP
002DB3  0000    	NOP
002DB4  0000    	NOP
002DB5  0000    	NOP
002DB6  0000    	NOP
002DB7  0000    	NOP
002DB8  1414    	CP R1,R4
002DB9  1414    	CP R1,R4
002DBA  1414    	CP R1,R4
002DBB  1414    	CP R1,R4
002DBC  1414    	CP R1,R4
002DBD  1414    	CP R1,R4
002DBE  1414    	CP R1,R4
002DBF  1414    	CP R1,R4
002DC0  1E1E    	ADC R1,ZL
002DC1  1E1E    	ADC R1,ZL
002DC2  1E1E    	ADC R1,ZL
002DC3  1E1E    	ADC R1,ZL
002DC4  1E1E    	ADC R1,ZL
002DC5  1E1E    	ADC R1,ZL
002DC6  1E1E    	ADC R1,ZL
002DC7  1E1E    	ADC R1,ZL
002DC8  0000    	NOP
002DC9  0000    	NOP
002DCA  0000    	NOP
002DCB  0000    	NOP
002DCC  0000    	NOP
002DCD  0000    	NOP
002DCE  0000    	NOP
002DCF  0000    	NOP
002DD0  0001    	UNRECOGNIZED
002DD1  0005    	UNRECOGNIZED
002DD2  0001    	UNRECOGNIZED
002DD3  0005    	UNRECOGNIZED
002DD4  01F4    	MOVW R31:R30,R9:R8
002DD5  0190    	MOVW R19:R18,R1:R0
002DD6  0190    	MOVW R19:R18,R1:R0
002DD7  0190    	MOVW R19:R18,R1:R0
002DD8  D19F    	RCALL L513
002DD9  7F7F    	ANDI R23,$FF
002DDA  5BC8    	SUBI YL,$B8
002DDB  7F29    	ANDI R18,$F9
002DDC  347F    	CPI R23,$4F
002DDD  278F    	EOR R24,ZH
002DDE  6D34    	ORI R19,$D4
002DDF  C8D2    	RJMP L514
002DE0  D19F    	RCALL L515
002DE1  7F7F    	ANDI R23,$FF
002DE2  5BC8    	SUBI YL,$B8
002DE3  7F29    	ANDI R18,$F9
002DE4  347F    	CPI R23,$4F
002DE5  278F    	EOR R24,ZH
002DE6  6D34    	ORI R19,$D4
002DE7  C8D2    	RJMP L516
002DE8  D19F    	RCALL L517
002DE9  8456    	LDD R5,Z+14
002DEA  5BD8    	SUBI YH,$B8
002DEB  611D    	ORI R17,$1D
002DEC  347F    	CPI R23,$4F
002DED  368F    	CPI R24,$6F
002DEE  6D34    	ORI R19,$D4
002DEF  C8DC    	RJMP L518
002DF0  D14B    	RCALL L519
002DF1  8456    	LDD R5,Z+14
002DF2  5B9D    	SUBI R25,$BD
002DF3  611D    	ORI R17,$1D
002DF4  347F    	CPI R23,$4F
002DF5  368F    	CPI R24,$6F
002DF6  6D34    	ORI R19,$D4
002DF7  C8DC    	RJMP L520
002DF8  D19F    	RCALL L521
002DF9  7F7F    	ANDI R23,$FF
002DFA  5BC8    	SUBI YL,$B8
002DFB  7F29    	ANDI R18,$F9
002DFC  347F    	CPI R23,$4F
002DFD  278F    	EOR R24,ZH
002DFE  6D34    	ORI R19,$D4
002DFF  C8D2    	RJMP L522
002E00  0404    	CPC R0,R4
002E01  0404    	CPC R0,R4
002E02  0404    	CPC R0,R4
002E03  0404    	CPC R0,R4
002E04  0404    	CPC R0,R4
002E05  0404    	CPC R0,R4
002E06  0404    	CPC R0,R4
002E07  0404    	CPC R0,R4
002E08  0202    	MULS R16,R18
002E09  0202    	MULS R16,R18
002E0A  0202    	MULS R16,R18
002E0B  0202    	MULS R16,R18
002E0C  0202    	MULS R16,R18
002E0D  0202    	MULS R16,R18
002E0E  0202    	MULS R16,R18
002E0F  0202    	MULS R16,R18
002E10  0000    	NOP
002E11  0202    	MULS R16,R18
002E12  0200    	MULS R16,R16
002E13  0202    	MULS R16,R18
002E14  0202    	MULS R16,R18
002E15  0202    	MULS R16,R18
002E16  0202    	MULS R16,R18
002E17  0202    	MULS R16,R18
002E18  0303    	MULSU R16,R19
002E19  0303    	MULSU R16,R19
002E1A  0303    	MULSU R16,R19
002E1B  0303    	MULSU R16,R19
002E1C  0303    	MULSU R16,R19
002E1D  0303    	MULSU R16,R19
002E1E  0303    	MULSU R16,R19
002E1F  0303    	MULSU R16,R19
002E20  0000    	NOP
002E21  0000    	NOP
002E22  0000    	NOP
002E23  0000    	NOP
002E24  0000    	NOP
002E25  0000    	NOP
002E26  0000    	NOP
002E27  0000    	NOP
002E28  0000    	NOP
002E29  0000    	NOP
002E2A  0000    	NOP
002E2B  0000    	NOP
002E2C  0000    	NOP
002E2D  0000    	NOP
002E2E  0000    	NOP
002E2F  0000    	NOP
002E30  0000    	NOP
002E31  0000    	NOP
002E32  0000    	NOP
002E33  0000    	NOP
002E34  0000    	NOP
002E35  0000    	NOP
002E36  0000    	NOP
002E37  0000    	NOP
002E38  0000    	NOP
002E39  0000    	NOP
002E3A  0000    L470:	NOP
002E3B  0000    	NOP
002E3C  0000    	NOP
002E3D  0000    	NOP
002E3E  0000    	NOP
002E3F  0000    	NOP
002E40  B37D    	IN R23,EEDR
002E41  58C7    	SUBI YL,$87
002E42  7E6C    	ANDI R22,$EC
002E43  3148    	CPI R20,$18
002E44  8DA3    	LDD XL,Z+27
002E45  2F33    	MOV R19,R19
002E46  C731    	RJMP L523
002E47  CDCD    	RJMP L524
002E48  B37D    	IN R23,EEDR
002E49  58C7    	SUBI YL,$87
002E4A  7E6C    	ANDI R22,$EC
002E4B  3148    	CPI R20,$18
002E4C  8DA3    	LDD XL,Z+27
002E4D  7F59    	ANDI R21,$F9
002E4E  9F2F    	MUL R18,ZH
002E4F  AB70    	STD Z+48,R23
002E50  D19F    	RCALL L525
002E51  7F7F    	ANDI R23,$FF
002E52  5BC8    	SUBI YL,$B8
002E53  7F29    	ANDI R18,$F9
002E54  347F    	CPI R23,$4F
002E55  278F    	EOR R24,ZH
002E56  6D34    	ORI R19,$D4
002E57  C8D2    	RJMP L526
002E58  0000    	NOP
002E59  0000    	NOP
002E5A  0000    	NOP
002E5B  0000    	NOP
002E5C  E148    	LDI R20,$18
002E5D  3EFA    	CPI ZH,$EA
002E5E  CCCD    	RJMP L527
002E5F  3D4C    	CPI R20,$DC
002E60  D70A    	RCALL L528
002E61  3BA3    	CPI XL,$B3
002E62  126F    	CPSE R6,ZH
002E63  3A03    	CPI R16,$A3
002E64  B717    	IN R17,TIMSK
002E65  3851    	CPI R21,$81
002E66  C5AC    	RJMP L529
002E67  36A7    	CPI XL,$67
002E68  0D0A    	ADD R16,R10      crlf
002E69  2052    	AND R5,R2        
002E6A  7830    	ANDI R19,$80
002E6B  3025    	CPI R18,$05
002E6C  5832    	SUBI R19,$82
002E6D  302C    	CPI R18,$0C
002E6E  2578    	EOR R23,R8
002E6F  3230    	CPI R19,$20             %x20d"
002E70  0058    	UNRECOGNIZED
002E71  0D0A    	ADD R16,R10     
002E72  2046    	AND R4,R6
002E73  7830    	ANDI R19,$80
002E74  3025    	CPI R18,$05
002E75  5832    	SUBI R19,$82
002E76  302C    	CPI R18,$0C
002E77  2578    	EOR R23,R8
002E78  3230    	CPI R19,$20
002E79  0058    	UNRECOGNIZED    .X
002E7A  3025    	CPI R18,$05     0%    "X0%d=30\l"
002E7B  6432    	ORI R19,$42     d2
002E7C  3D20    	CPI R18,$D0     = 
002E7D  2520    	EOR R18,R0      % 
002E7E  3330    	CPI R19,$30     30
002E7F  0A64    	SBC R6,R20      .d
002E80  000D    	UNRECOGNIZED
002E81  5667    	SUBI R22,$67    Vg    "Voltage=%d\n"
002E82  4C4F    	SBCI R20,$CF    LO
002E83  4154    	SBCI R21,$14    AT
002E84  4547    	SBCI R20,$57    EG
002E85  253D    	EOR R19,R13     %=
002E86  6433    	ORI R19,$43     d3
002E87  0D0A    	ADD R16,R10     crlf
002E88  0000    	NOP
002E89  0000    	NOP

##################################################################

'- RESET 

##################################################################

002E8A  94F8    L1:	BCLR 7     ' Clear Global Interupt Flag CEI
002E8B  27EE    	CLR ZL
002E8C  BBEC    	OUT EECR,ZL
002E8D  E0F1    	LDI ZH,$01
002E8E  BFF5    	OUT MCUCR,ZH
002E8F  BFE5    	OUT MCUCR,ZL
002E90  93E0    	STS $006C,ZL
002E91  006C
002E92  E1F8    	LDI ZH,$18
002E93  BDF1    L402:	OUT WDTCR,ZH   ' Watchdog
002E94  BDE1    	OUT WDTCR,ZL
002E95  E08D    	LDI R24,$0D
002E96  E0A2    	LDI XL,$02
002E97  27BB    	CLR XH
002E98  93ED    L530:	ST X+,ZL
002E99  958A    	DEC R24
002E9A  F7E9    	BRNE L530
002E9B  E080    	LDI R24,$00
002E9C  E190    	LDI R25,$10
002E9D  E0A0    	LDI XL,$00
002E9E  E0B1    	LDI XH,$01
002E9F  93ED    L531:	ST X+,ZL
002EA0  9701    	SBIW R25:R24,1
002EA1  F7E9    	BRNE L531
002EA2  E1E2    L496:	LDI ZL,$12
002EA3  E5FD    	LDI ZH,$5D
002EA4  E0D0    	LDI YH,$00
002EA5  BFDB    L534:	OUT RAMPZ,YH   ' clearing RAM ?
002EA6  9187    	ELPM R24,Z+
002EA7  9197    	ELPM R25,Z+
002EA8  9700    	SBIW R25:R24,0
002EA9  F081    	BREQ L532
002EAA  91A7    	ELPM XL,Z+
002EAB  91B7    	ELPM XH,Z+
002EAC  9007    	ELPM R0,Z+
002EAD  9017    	ELPM R1,Z+
002EAE  91C7    	ELPM YL,Z+
002EAF  91D7    	ELPM YH,Z+
002EB0  01BF    	MOVW R23:R22,R31:R30
002EB1  B7DB    	IN YH,RAMPZ
002EB2  01F0    	MOVW R31:R30,R1:R0
002EB3  BFCB    	OUT RAMPZ,YL
002EB4  9007    L533:	ELPM R0,Z+
002EB5  920D    	ST X+,R0
002EB6  9701    	SBIW R25:R24,1
002EB7  F7E1    	BRNE L533
002EB8  01FB    	MOVW R31:R30,R23:R22
002EB9  CFEB    	RJMP L534
002EBA  EFEF    L532:	LDI ZL,$FF          ' set up stack ?
002EBB  BFED    	OUT SPL,ZL
002EBC  E1E0    	LDI ZL,$10
002EBD  BFEE    	OUT SPH,ZL
002EBE  E0C0    	LDI YL,$00
002EBF  E0D5    	LDI YH,$05               y=$0500
002EC0  940C    	JMP L535                 'Jump Main()
002EC1  4037

#########################

########################  

002EC2  91E0    L656:	LDS ZL,$05F8
002EC3  05F8
002EC4  93E0    	STS $06C1,ZL
002EC5  06C1
002EC6  E0E0    	LDI ZL,$00
002EC7  93E0    	STS $05F3,ZL
002EC8  05F3
002EC9  93E0    	STS $05F4,ZL
002ECA  05F4
002ECB  91E0    	LDS ZL,$05ED
002ECC  05ED
002ECD  91F0    	LDS ZH,$05EE
002ECE  05EE
002ECF  9631    	ADIW ZH:ZL,1
002ED0  93E0    	STS $05ED,ZL
002ED1  05ED
002ED2  93F0    	STS $05EE,ZH
002ED3  05EE
002ED4  9508    	RET

#########################

########################  

002ED5  931A    L668:	ST -Y,R17
002ED6  930A    	ST -Y,R16
002ED7  91A0    L432:	LDS XL,$05F3
002ED8  05F3
002ED9  91B0    	LDS XH,$05F4
002EDA  05F4
002EDB  5EA2    	SUBI XL,$E2
002EDC  4FB6    	SBCI XH,$F6
002EDD  91E0    	LDS ZL,$05F8
002EDE  05F8
002EDF  93EC    	ST X,ZL
002EE0  91E0    	LDS ZL,$05F3
002EE1  05F3
002EE2  91F0    	LDS ZH,$05F4
002EE3  05F4
002EE4  9631    	ADIW ZH:ZL,1
002EE5  93E0    	STS $05F3,ZL
002EE6  05F3
002EE7  93F0    	STS $05F4,ZH
002EE8  05F4
002EE9  91E0    	LDS ZL,$05F5
002EEA  05F5
002EEB  91F0    	LDS ZH,$05F6
002EEC  05F6
002EED  9631    	ADIW ZH:ZL,1
002EEE  93E0    	STS $05F5,ZL
002EEF  05F5
002EF0  93F0    L505:	STS $05F6,ZH
002EF1  05F6
002EF2  91E0    	LDS ZL,$0780
002EF3  0780
002EF4  91F0    	LDS ZH,$0781
002EF5  0781
002EF6  9631    	ADIW ZH:ZL,1
002EF7  91A0    	LDS XL,$05F5
002EF8  05F5
002EF9  91B0    	LDS XH,$05F6
002EFA  05F6
002EFB  17EA    	CP ZL,XL
002EFC  07FB    	CPC ZH,XH
002EFD  F011    	BREQ L536
002EFE  940C    	JMP L515
002EFF  2F80
002F00  E1EE    L536:	LDI ZL,$1E
002F01  E0F9    	LDI ZH,$09
002F02  93FA    	ST -Y,ZH
002F03  93EA    	ST -Y,ZL
002F04  91E0    	LDS ZL,$0879
002F05  0879
002F06  91F0    	LDS ZH,$087A
002F07  087A
002F08  93FA    	ST -Y,ZH
002F09  93EA    	ST -Y,ZL
002F0A  91E0    	LDS ZL,$05F3
002F0B  05F3
002F0C  91F0    	LDS ZH,$05F4
002F0D  05F4
002F0E  9731    	SBIW ZH:ZL,1
002F0F  93FA    	ST -Y,ZH
002F10  93EA    L511:	ST -Y,ZL
002F11  940E    	CALL L537
002F12  6516
002F13  E0E5    	LDI ZL,$05
002F14  E0F0    	LDI ZH,$00
002F15  93FA    	ST -Y,ZH
002F16  93EA    	ST -Y,ZL
002F17  940E    	CALL L538
002F18  6B57
002F19  91E0    	LDS ZL,$0879
002F1A  0879
002F1B  91F0    	LDS ZH,$087A
002F1C  087A
002F1D  93FA    	ST -Y,ZH
002F1E  93EA    	ST -Y,ZL
002F1F  91E0    	LDS ZL,$05F3
002F20  05F3
002F21  91F0    	LDS ZH,$05F4
002F22  05F4
002F23  9731    	SBIW ZH:ZL,1
002F24  93FA    	ST -Y,ZH
002F25  93EA    	ST -Y,ZL
002F26  940E    	CALL L539
002F27  64BF
002F28  E000    	LDI R16,$00
002F29  E010    	LDI R17,$00
002F2A  91E0    L543:	LDS ZL,$05F3
002F2B  05F3
002F2C  91F0    	LDS ZH,$05F4
002F2D  05F4
002F2E  9731    	SBIW ZH:ZL,1
002F2F  170E    	CP R16,ZL
002F30  071F    	CPC R17,ZH
002F31  F4D0    	BRCC L540
002F32  E1AE    	LDI XL,$1E
002F33  E0B9    	LDI XH,$09
002F34  0FA0    	ADD XL,R16
002F35  1FB1    	ADC XH,R17
002F36  900C    	LD R0,X
002F37  E7AD    	LDI XL,$7D
002F38  E0B8    	LDI XH,$08
002F39  0FA0    	ADD XL,R16
002F3A  1FB1    	ADC XH,R17
002F3B  91EC    	LD ZL,X
002F3C  15E0    L519:	CP ZL,R0
002F3D  F059    	BREQ L541
002F3E  E0E0    	LDI ZL,$00
002F3F  93E0    	STS $05ED,ZL
002F40  05ED
002F41  93E0    	STS $05EE,ZL
002F42  05EE
002F43  94E8    	BCLR 6
002F44  F824    	BLD R2,4
002F45  9ADE    	SBI PORTA,PA6
002F46  E0E1    	LDI ZL,$01
002F47  2E5E    	MOV R5,ZL
002F48  C36C    	RJMP L542
002F49  5F0F    L541:	SUBI R16,$FF
002F4A  4F1F    L474:	SBCI R17,$FF
002F4B  CFDE    	RJMP L543
002F4C  91E0    L540:	LDS ZL,$05F3
002F4D  05F3
002F4E  91F0    	LDS ZH,$05F4
002F4F  05F4
002F50  9731    	SBIW ZH:ZL,1
002F51  91A0    	LDS XL,$0879
002F52  0879
002F53  91B0    	LDS XH,$087A
002F54  087A
002F55  0FEA    	ADD ZL,XL
002F56  1FFB    	ADC ZH,XH
002F57  93E0    	STS $0879,ZL
002F58  0879
002F59  93F0    	STS $087A,ZH
002F5A  087A
002F5B  91E0    	LDS ZL,$05F8
002F5C  05F8
002F5D  91A0    	LDS XL,$05F7
002F5E  05F7
002F5F  17EA    	CP ZL,XL
002F60  F4A1    	BRNE L544
002F61  EFEF    	LDI ZL,$FF
002F62  2E5E    	MOV R5,ZL
002F63  91E0    	LDS ZL,$087B
002F64  087B
002F65  5FEF    	SUBI ZL,$FF
002F66  93E0    	STS $087B,ZL
002F67  087B
002F68  E2AE    	LDI XL,$2E
002F69  E0B0    	LDI XH,$00
002F6A  940E    	CALL L545
002F6B  6C7C
002F6C  5FEF    	SUBI ZL,$FF
002F6D  940E    	CALL L546
002F6E  6C90
002F6F  50E1    	SUBI ZL,$01
002F70  E4E0    	LDI ZL,$40
002F71  93EA    	ST -Y,ZL
002F72  940E    	CALL L547
002F73  4082
002F74  C002    	RJMP L548
002F75  E0E2    L544:	LDI ZL,$02
002F76  2E5E    	MOV R5,ZL
002F77  E0E0    L548:	LDI ZL,$00
002F78  93E0    L513:	STS $05ED,ZL
002F79  05ED
002F7A  93E0    	STS $05EE,ZL
002F7B  05EE
002F7C  94E8    	BCLR 6
002F7D  F824    	BLD R2,4
002F7E  9ADE    	SBI PORTA,PA6
002F7F  C335    	RJMP L542
002F80  91A0    L515:	LDS XL,$05F3
002F81  05F3
002F82  91B0    	LDS XH,$05F4
002F83  05F4
002F84  34A0    	CPI XL,$40
002F85  E0E0    	LDI ZL,$00
002F86  07BE    	CPC XH,ZL
002F87  F011    	BREQ L549
002F88  940C    L517:	JMP L434
002F89  2FDF
002F8A  E1EE    L549:	LDI ZL,$1E
002F8B  E0F9    	LDI ZH,$09
002F8C  93FA    	ST -Y,ZH
002F8D  93EA    	ST -Y,ZL
002F8E  91E0    	LDS ZL,$0879
002F8F  0879
002F90  91F0    	LDS ZH,$087A
002F91  087A
002F92  93FA    L492:	ST -Y,ZH
002F93  93EA    	ST -Y,ZL
002F94  E4E0    	LDI ZL,$40
002F95  E0F0    	LDI ZH,$00
002F96  93FA    	ST -Y,ZH
002F97  93EA    	ST -Y,ZL
002F98  940E    L521:	CALL L537
002F99  6516
002F9A  E0E5    L494:	LDI ZL,$05
002F9B  E0F0    	LDI ZH,$00
002F9C  93FA    	ST -Y,ZH
002F9D  93EA    	ST -Y,ZL
002F9E  940E    	CALL L538
002F9F  6B57
002FA0  91E0    	LDS ZL,$0879
002FA1  0879
002FA2  91F0    	LDS ZH,$087A
002FA3  087A
002FA4  93FA    	ST -Y,ZH
002FA5  93EA    	ST -Y,ZL
002FA6  E4E0    	LDI ZL,$40
002FA7  E0F0    	LDI ZH,$00
002FA8  93FA    	ST -Y,ZH
002FA9  93EA    	ST -Y,ZL
002FAA  940E    	CALL L539
002FAB  64BF
002FAC  E000    	LDI R16,$00
002FAD  E010    	LDI R17,$00
002FAE  3400    L552:	CPI R16,$40
002FAF  E0E0    	LDI ZL,$00
002FB0  071E    	CPC R17,ZL
002FB1  F4D0    	BRCC L550
002FB2  E1AE    	LDI XL,$1E
002FB3  E0B9    	LDI XH,$09
002FB4  0FA0    	ADD XL,R16
002FB5  1FB1    	ADC XH,R17
002FB6  900C    	LD R0,X
002FB7  E7AD    	LDI XL,$7D
002FB8  E0B8    	LDI XH,$08
002FB9  0FA0    	ADD XL,R16
002FBA  1FB1    	ADC XH,R17
002FBB  91EC    	LD ZL,X
002FBC  15E0    	CP ZL,R0
002FBD  F059    	BREQ L551
002FBE  E0E0    	LDI ZL,$00
002FBF  93E0    	STS $05ED,ZL
002FC0  05ED
002FC1  93E0    	STS $05EE,ZL
002FC2  05EE
002FC3  94E8    	BCLR 6
002FC4  F824    	BLD R2,4
002FC5  9ADE    	SBI PORTA,PA6
002FC6  E0E1    	LDI ZL,$01
002FC7  2E5E    	MOV R5,ZL
002FC8  C2EC    	RJMP L542
002FC9  5F0F    L551:	SUBI R16,$FF
002FCA  4F1F    	SBCI R17,$FF
002FCB  CFE2    	RJMP L552
002FCC  91E0    L550:	LDS ZL,$0879
002FCD  0879
002FCE  91F0    	LDS ZH,$087A
002FCF  087A
002FD0  5CE0    	SUBI ZL,$C0
002FD1  4FFF    	SBCI ZH,$FF
002FD2  93E0    	STS $0879,ZL
002FD3  0879
002FD4  93F0    	STS $087A,ZH
002FD5  087A
002FD6  E0E0    	LDI ZL,$00
002FD7  93E0    	STS $05F3,ZL
002FD8  05F3
002FD9  93E0    	STS $05F4,ZL
002FDA  05F4
002FDB  E4E0    	LDI ZL,$40
002FDC  93EA    	ST -Y,ZL
002FDD  940E    	CALL L547
002FDE  4082
002FDF  91E0    L434:	LDS ZL,$05F8
002FE0  05F8
002FE1  91A0    	LDS XL,$05F7
002FE2  05F7
002FE3  27EA    	EOR ZL,XL
002FE4  93E0    	STS $05F7,ZL
002FE5  05F7
002FE6  C2CE    	RJMP L542
002FE7  931A    L679:	ST -Y,R17
002FE8  930A    	ST -Y,R16
002FE9  91A0    	LDS XL,$05F3
002FEA  05F3
002FEB  91B0    	LDS XH,$05F4
002FEC  05F4
002FED  5EA2    	SUBI XL,$E2
002FEE  4FB6    	SBCI XH,$F6
002FEF  91E0    	LDS ZL,$05F8
002FF0  05F8
002FF1  93EC    	ST X,ZL
002FF2  91E0    	LDS ZL,$05F3
002FF3  05F3
002FF4  91F0    	LDS ZH,$05F4
002FF5  05F4
002FF6  9631    	ADIW ZH:ZL,1
002FF7  93E0    	STS $05F3,ZL
002FF8  05F3
002FF9  93F0    	STS $05F4,ZH
002FFA  05F4
002FFB  91E0    	LDS ZL,$05F5
002FFC  05F5
002FFD  91F0    	LDS ZH,$05F6
002FFE  05F6
002FFF  9631    	ADIW ZH:ZL,1
003000  93E0    	STS $05F5,ZL
003001  05F5
003002  93F0    	STS $05F6,ZH
003003  05F6
003004  91E0    	LDS ZL,$0837
003005  0837
003006  91F0    	LDS ZH,$0838
003007  0838
003008  9631    	ADIW ZH:ZL,1
003009  91A0    	LDS XL,$05F5
00300A  05F5
00300B  91B0    	LDS XH,$05F6
00300C  05F6
00300D  17EA    	CP ZL,XL
00300E  07FB    	CPC ZH,XH
00300F  F011    	BREQ L553
003010  940C    	JMP L554
003011  3092
003012  E1EE    L553:	LDI ZL,$1E
003013  E0F9    	LDI ZH,$09
003014  93FA    	ST -Y,ZH
003015  93EA    	ST -Y,ZL
003016  91E0    	LDS ZL,$0879
003017  0879
003018  91F0    	LDS ZH,$087A
003019  087A
00301A  93FA    	ST -Y,ZH
00301B  93EA    	ST -Y,ZL
00301C  91E0    	LDS ZL,$05F3
00301D  05F3
00301E  91F0    	LDS ZH,$05F4
00301F  05F4
003020  9731    	SBIW ZH:ZL,1
003021  93FA    	ST -Y,ZH
003022  93EA    	ST -Y,ZL
003023  940E    	CALL L537
003024  6516
003025  E0E5    	LDI ZL,$05
003026  E0F0    	LDI ZH,$00
003027  93FA    	ST -Y,ZH
003028  93EA    	ST -Y,ZL
003029  940E    	CALL L538
00302A  6B57
00302B  91E0    	LDS ZL,$0879
00302C  0879
00302D  91F0    	LDS ZH,$087A
00302E  087A
00302F  93FA    	ST -Y,ZH
003030  93EA    	ST -Y,ZL
003031  91E0    	LDS ZL,$05F3
003032  05F3
003033  91F0    	LDS ZH,$05F4
003034  05F4
003035  9731    	SBIW ZH:ZL,1
003036  93FA    	ST -Y,ZH
003037  93EA    	ST -Y,ZL
003038  940E    	CALL L539
003039  64BF
00303A  E000    	LDI R16,$00
00303B  E010    	LDI R17,$00
00303C  91E0    L557:	LDS ZL,$05F3
00303D  05F3
00303E  91F0    	LDS ZH,$05F4
00303F  05F4
003040  9731    	SBIW ZH:ZL,1
003041  170E    	CP R16,ZL
003042  071F    	CPC R17,ZH
003043  F4D0    	BRCC L555
003044  E1AE    	LDI XL,$1E
003045  E0B9    	LDI XH,$09
003046  0FA0    	ADD XL,R16
003047  1FB1    	ADC XH,R17
003048  900C    	LD R0,X
003049  E7AD    	LDI XL,$7D
00304A  E0B8    	LDI XH,$08
00304B  0FA0    	ADD XL,R16
00304C  1FB1    	ADC XH,R17
00304D  91EC    	LD ZL,X
00304E  15E0    	CP ZL,R0
00304F  F059    	BREQ L556
003050  E0E0    	LDI ZL,$00
003051  93E0    	STS $05ED,ZL
003052  05ED
003053  93E0    	STS $05EE,ZL
003054  05EE
003055  94E8    	BCLR 6
003056  F824    	BLD R2,4
003057  9ADE    	SBI PORTA,PA6
003058  E0E1    	LDI ZL,$01
003059  2E5E    	MOV R5,ZL
00305A  C25A    	RJMP L542
00305B  5F0F    L556:	SUBI R16,$FF
00305C  4F1F    	SBCI R17,$FF
00305D  CFDE    	RJMP L557
00305E  91E0    L555:	LDS ZL,$05F3
00305F  05F3
003060  91F0    	LDS ZH,$05F4
003061  05F4
003062  9731    	SBIW ZH:ZL,1
003063  91A0    	LDS XL,$0879
003064  0879
003065  91B0    	LDS XH,$087A
003066  087A
003067  0FEA    	ADD ZL,XL
003068  1FFB    	ADC ZH,XH
003069  93E0    	STS $0879,ZL
00306A  0879
00306B  93F0    	STS $087A,ZH
00306C  087A
00306D  91E0    	LDS ZL,$05F8
00306E  05F8
00306F  91A0    	LDS XL,$05F7
003070  05F7
003071  17EA    	CP ZL,XL
003072  F4A1    	BRNE L558
003073  EFEF    	LDI ZL,$FF
003074  2E5E    	MOV R5,ZL
003075  91E0    	LDS ZL,$087C
003076  087C
003077  5FEF    	SUBI ZL,$FF
003078  93E0    	STS $087C,ZL
003079  087C
00307A  E2AF    	LDI XL,$2F
00307B  E0B0    	LDI XH,$00
00307C  940E    	CALL L545
00307D  6C7C
00307E  5FEF    	SUBI ZL,$FF
00307F  940E    	CALL L546
003080  6C90
003081  50E1    	SUBI ZL,$01
003082  E4E0    	LDI ZL,$40
003083  93EA    	ST -Y,ZL
003084  940E    	CALL L547
003085  4082
003086  C002    	RJMP L559
003087  E0E2    L558:	LDI ZL,$02
003088  2E5E    	MOV R5,ZL
003089  E0E0    L559:	LDI ZL,$00
00308A  93E0    	STS $05ED,ZL
00308B  05ED
00308C  93E0    	STS $05EE,ZL
00308D  05EE
00308E  94E8    	BCLR 6
00308F  F824    	BLD R2,4
003090  9ADE    	SBI PORTA,PA6
003091  C223    	RJMP L542
003092  91A0    L554:	LDS XL,$05F3
003093  05F3
003094  91B0    	LDS XH,$05F4
003095  05F4
003096  34A0    	CPI XL,$40
003097  E0E0    	LDI ZL,$00
003098  07BE    	CPC XH,ZL
003099  F011    	BREQ L560
00309A  940C    	JMP L561
00309B  30F1
00309C  E1EE    L560:	LDI ZL,$1E
00309D  E0F9    	LDI ZH,$09
00309E  93FA    	ST -Y,ZH
00309F  93EA    	ST -Y,ZL
0030A0  91E0    	LDS ZL,$0879
0030A1  0879
0030A2  91F0    	LDS ZH,$087A
0030A3  087A
0030A4  93FA    	ST -Y,ZH
0030A5  93EA    	ST -Y,ZL
0030A6  E4E0    	LDI ZL,$40
0030A7  E0F0    	LDI ZH,$00
0030A8  93FA    	ST -Y,ZH
0030A9  93EA    	ST -Y,ZL
0030AA  940E    	CALL L537
0030AB  6516
0030AC  E0E5    	LDI ZL,$05
0030AD  E0F0    	LDI ZH,$00
0030AE  93FA    	ST -Y,ZH
0030AF  93EA    	ST -Y,ZL
0030B0  940E    	CALL L538
0030B1  6B57
0030B2  91E0    L500:	LDS ZL,$0879
0030B3  0879
0030B4  91F0    	LDS ZH,$087A
0030B5  087A
0030B6  93FA    	ST -Y,ZH
0030B7  93EA    	ST -Y,ZL
0030B8  E4E0    	LDI ZL,$40
0030B9  E0F0    	LDI ZH,$00
0030BA  93FA    	ST -Y,ZH
0030BB  93EA    	ST -Y,ZL
0030BC  940E    	CALL L539
0030BD  64BF
0030BE  E000    	LDI R16,$00
0030BF  E010    	LDI R17,$00
0030C0  3400    L564:	CPI R16,$40
0030C1  E0E0    	LDI ZL,$00
0030C2  071E    	CPC R17,ZL
0030C3  F4D0    	BRCC L562
0030C4  E1AE    	LDI XL,$1E
0030C5  E0B9    	LDI XH,$09
0030C6  0FA0    	ADD XL,R16
0030C7  1FB1    	ADC XH,R17
0030C8  900C    	LD R0,X
0030C9  E7AD    	LDI XL,$7D
0030CA  E0B8    	LDI XH,$08
0030CB  0FA0    	ADD XL,R16
0030CC  1FB1    	ADC XH,R17
0030CD  91EC    	LD ZL,X
0030CE  15E0    	CP ZL,R0
0030CF  F059    	BREQ L563
0030D0  E0E0    	LDI ZL,$00
0030D1  93E0    	STS $05ED,ZL
0030D2  05ED
0030D3  93E0    	STS $05EE,ZL
0030D4  05EE
0030D5  94E8    	BCLR 6
0030D6  F824    	BLD R2,4
0030D7  9ADE    	SBI PORTA,PA6   ' RUN LED OFF

0030D8  E0E1    	LDI ZL,$01
0030D9  2E5E    	MOV R5,ZL
0030DA  C1DA    	RJMP L542
0030DB  5F0F    L563:	SUBI R16,$FF
0030DC  4F1F    	SBCI R17,$FF
0030DD  CFE2    	RJMP L564
0030DE  91E0    L562:	LDS ZL,$0879
0030DF  0879
0030E0  91F0    	LDS ZH,$087A
0030E1  087A
0030E2  5CE0    	SUBI ZL,$C0
0030E3  4FFF    	SBCI ZH,$FF
0030E4  93E0    	STS $0879,ZL
0030E5  0879
0030E6  93F0    L436:	STS $087A,ZH
0030E7  087A
0030E8  E0E0    	LDI ZL,$00
0030E9  93E0    	STS $05F3,ZL
0030EA  05F3
0030EB  93E0    	STS $05F4,ZL
0030EC  05F4
0030ED  E4E0    	LDI ZL,$40
0030EE  93EA    	ST -Y,ZL
0030EF  940E    	CALL L547
0030F0  4082
0030F1  91E0    L561:	LDS ZL,$05F8
0030F2  05F8
0030F3  91A0    	LDS XL,$05F7
0030F4  05F7
0030F5  27EA    	EOR ZL,XL
0030F6  93E0    	STS $05F7,ZL
0030F7  05F7
0030F8  C1BC    	RJMP L542
0030F9  91E0    L682:	LDS ZL,$05F3
0030FA  05F3
0030FB  91F0    	LDS ZH,$05F4
0030FC  05F4
0030FD  9631    	ADIW ZH:ZL,1
0030FE  93E0    	STS $05F3,ZL
0030FF  05F3
003100  93F0    	STS $05F4,ZH
003101  05F4
003102  91A0    	LDS XL,$05F3
003103  05F3
003104  91B0    	LDS XH,$05F4
003105  05F4
003106  9714    	SBIW XH:XL,4
003107  F4F1    	BRNE L565
003108  E0E0    	LDI ZL,$00
003109  93E0    	STS $05F3,ZL
00310A  05F3
00310B  93E0    	STS $05F4,ZL
00310C  05F4
00310D  E0E0    	LDI ZL,$00
00310E  93E0    	STS $05F7,ZL
00310F  05F7
003110  91A0    	LDS XL,$05F8
003111  05F8
003112  30A1    	CPI XL,$01
003113  F451    	BRNE L566
003114  91E0    	LDS ZL,$05ED
003115  05ED
003116  91F0    	LDS ZH,$05EE
003117  05EE
003118  9631    	ADIW ZH:ZL,1
003119  93E0    	STS $05ED,ZL
00311A  05ED
00311B  93F0    	STS $05EE,ZH
00311C  05EE
00311D  C008    	RJMP L565
00311E  E0E0    L566:	LDI ZL,$00
00311F  93E0    	STS $05ED,ZL
003120  05ED
003121  93E0    	STS $05EE,ZL
003122  05EE
003123  94E8    	BCLR 6
003124  F824    	BLD R2,4
003125  9ADE    	SBI PORTA,PA6  ' RUN LED OFF
003126  9508    L565:	RET

''''''''''''''''


''''''''''''''''

003127  91E0    L684:	LDS ZL,$05F8
003128  05F8
003129  91A0    	LDS XL,$05F7
00312A  05F7
00312B  27EA    	EOR ZL,XL
00312C  93E0    	STS $05F7,ZL
00312D  05F7
00312E  91A0    	LDS XL,$05F8
00312F  05F8
003130  30A1    	CPI XL,$01
003131  F451    	BRNE L567
003132  91E0    	LDS ZL,$05ED
003133  05ED
003134  91F0    	LDS ZH,$05EE
003135  05EE
003136  9631    	ADIW ZH:ZL,1
003137  93E0    	STS $05ED,ZL
003138  05ED
003139  93F0    	STS $05EE,ZH
00313A  05EE
00313B  C008    	RJMP L568
00313C  E0E0    L567:	LDI ZL,$00
00313D  93E0    	STS $05ED,ZL
00313E  05ED
00313F  93E0    	STS $05EE,ZL
003140  05EE
003141  94E8    	BCLR 6
003142  F824    	BLD R2,4
003143  9ADE    	SBI PORTA,PA6    ' RUN LED OFF
003144  9508    L568:	RET

#############

##############

003145  931A    L686:	ST -Y,R17
003146  930A    	ST -Y,R16
003147  91A0    	LDS XL,$05F8
003148  05F8
003149  30A1    	CPI XL,$01
00314A  F559    	BRNE L569
00314B  E0EB    	LDI ZL,$0B
00314C  93EA    	ST -Y,ZL
00314D  E1E0    	LDI ZL,$10
00314E  93EA    	ST -Y,ZL
00314F  940E    	CALL L570
003150  4315
003151  E0E0    	LDI ZL,$00
003152  93E0    L476:	STS $05F7,ZL
003153  05F7
003154  E000    	LDI R16,$00
003155  E010    	LDI R17,$00
003156  3100    L572:	CPI R16,$10
003157  E0E0    	LDI ZL,$00
003158  071E    	CPC R17,ZL
003159  F4BC    	BRGE L571
00315A  E1AD    	LDI XL,$1D
00315B  E0B0    	LDI XH,$00
00315C  0FA0    	ADD XL,R16
00315D  1FB1    	ADC XH,R17
00315E  940E    	CALL L545
00315F  6C7C
003160  93EA    	ST -Y,ZL
003161  940E    	CALL L547
003162  4082
003163  E1AD    	LDI XL,$1D
003164  E0B0    	LDI XH,$00
003165  0FA0    	ADD XL,R16
003166  1FB1    	ADC XH,R17
003167  940E    	CALL L545
003168  6C7C
003169  91A0    	LDS XL,$05F7
00316A  05F7
00316B  27EA    	EOR ZL,XL
00316C  93E0    	STS $05F7,ZL
00316D  05F7
00316E  5F0F    	SUBI R16,$FF
00316F  4F1F    	SBCI R17,$FF
003170  CFE5    	RJMP L572
003171  91E0    L571:	LDS ZL,$05F7
003172  05F7
003173  93EA    	ST -Y,ZL
003174  940E    	CALL L547
003175  4082
003176  E0E0    L569:	LDI ZL,$00
003177  93E0    	STS $05ED,ZL
003178  05ED
003179  93E0    	STS $05EE,ZL
00317A  05EE
00317B  94E8    	BCLR 6
00317C  F824    	BLD R2,4
00317D  9ADE    	SBI PORTA,PA6
00317E  C136    	RJMP L542
00317F  931A    L693:	ST -Y,R17
003180  930A    	ST -Y,R16
003181  91A0    	LDS XL,$05F8
003182  05F8
003183  30A1    	CPI XL,$01
003184  F559    	BRNE L573
003185  E0EC    	LDI ZL,$0C
003186  93EA    	ST -Y,ZL
003187  E0ED    	LDI ZL,$0D
003188  93EA    	ST -Y,ZL
003189  940E    	CALL L570
00318A  4315
00318B  E0E0    	LDI ZL,$00
00318C  93E0    	STS $05F7,ZL
00318D  05F7
00318E  E000    	LDI R16,$00
00318F  E010    	LDI R17,$00
003190  300D    L575:	CPI R16,$0D
003191  E0E0    	LDI ZL,$00
003192  071E    	CPC R17,ZL
003193  F4BC    	BRGE L574
003194  E0A1    	LDI XL,$01
003195  E0B0    	LDI XH,$00
003196  0FA0    	ADD XL,R16
003197  1FB1    	ADC XH,R17
003198  940E    	CALL L545
003199  6C7C
00319A  93EA    	ST -Y,ZL
00319B  940E    	CALL L547
00319C  4082
00319D  E0A1    	LDI XL,$01
00319E  E0B0    	LDI XH,$00
00319F  0FA0    	ADD XL,R16
0031A0  1FB1    	ADC XH,R17
0031A1  940E    	CALL L545
0031A2  6C7C
0031A3  91A0    	LDS XL,$05F7
0031A4  05F7
0031A5  27EA    	EOR ZL,XL
0031A6  93E0    	STS $05F7,ZL
0031A7  05F7
0031A8  5F0F    	SUBI R16,$FF
0031A9  4F1F    	SBCI R17,$FF
0031AA  CFE5    	RJMP L575
0031AB  91E0    L574:	LDS ZL,$05F7
0031AC  05F7
0031AD  93EA    	ST -Y,ZL
0031AE  940E    	CALL L547
0031AF  4082
0031B0  E0E0    L573:	LDI ZL,$00
0031B1  93E0    	STS $05ED,ZL
0031B2  05ED
0031B3  93E0    	STS $05EE,ZL
0031B4  05EE
0031B5  94E8    	BCLR 6
0031B6  F824    	BLD R2,4
0031B7  9ADE    	SBI PORTA,PA6
0031B8  C0FC    	RJMP L542
0031B9  931A    L701:	ST -Y,R17
0031BA  930A    	ST -Y,R16
0031BB  91E0    	LDS ZL,$05F8
0031BC  05F8
0031BD  91A0    	LDS XL,$05F7
0031BE  05F7
0031BF  17EA    	CP ZL,XL
0031C0  F011    	BREQ L576
0031C1  940C    	JMP L577
0031C2  31FF
0031C3  E000    L576:	LDI R16,$00
0031C4  E010    	LDI R17,$00
0031C5  300D    L579:	CPI R16,$0D
0031C6  E0E0    	LDI ZL,$00
0031C7  071E    	CPC R17,ZL
0031C8  F464    	BRGE L578
0031C9  01D8    	MOVW R27:R26,R17:R16
0031CA  5FAF    	SUBI XL,$FF
0031CB  4FBF    	SBCI XH,$FF
0031CC  01F8    	MOVW R31:R30,R17:R16
0031CD  52E2    	SUBI ZL,$22
0031CE  4FFA    	SBCI ZH,$FA
0031CF  81E0    	LD ZL,Z
0031D0  940E    	CALL L546
0031D1  6C90
0031D2  5F0F    	SUBI R16,$FF
0031D3  4F1F    	SBCI R17,$FF
0031D4  CFF0    	RJMP L579
0031D5  E0ED    L578:	LDI ZL,$0D
0031D6  93EA    	ST -Y,ZL
0031D7  93EA    	ST -Y,ZL
0031D8  940E    	CALL L570
0031D9  4315
0031DA  E0E0    	LDI ZL,$00
0031DB  93E0    	STS $05F7,ZL
0031DC  05F7
0031DD  E000    	LDI R16,$00
0031DE  E010    	LDI R17,$00
0031DF  300D    L581:	CPI R16,$0D
0031E0  E0E0    	LDI ZL,$00
0031E1  071E    	CPC R17,ZL
0031E2  F4BC    	BRGE L580
0031E3  E0A1    	LDI XL,$01
0031E4  E0B0    	LDI XH,$00
0031E5  0FA0    	ADD XL,R16
0031E6  1FB1    	ADC XH,R17
0031E7  940E    	CALL L545
0031E8  6C7C
0031E9  93EA    	ST -Y,ZL
0031EA  940E    	CALL L547
0031EB  4082
0031EC  E0A1    	LDI XL,$01
0031ED  E0B0    	LDI XH,$00
0031EE  0FA0    	ADD XL,R16
0031EF  1FB1    	ADC XH,R17
0031F0  940E    	CALL L545
0031F1  6C7C
0031F2  91A0    	LDS XL,$05F7
0031F3  05F7
0031F4  27EA    	EOR ZL,XL
0031F5  93E0    	STS $05F7,ZL
0031F6  05F7
0031F7  5F0F    	SUBI R16,$FF
0031F8  4F1F    	SBCI R17,$FF
0031F9  CFE5    	RJMP L581
0031FA  91E0    L580:	LDS ZL,$05F7
0031FB  05F7
0031FC  93EA    	ST -Y,ZL
0031FD  940E    	CALL L547
0031FE  4082
0031FF  E0E0    L577:	LDI ZL,$00
003200  93E0    	STS $05ED,ZL
003201  05ED
003202  93E0    	STS $05EE,ZL
003203  05EE
003204  94E8    	BCLR 6
003205  F824    	BLD R2,4
003206  9ADE    	SBI PORTA,PA6
003207  C0AD    	RJMP L542
003208  91E0    L704:	LDS ZL,$05F3
003209  05F3
00320A  91F0    	LDS ZH,$05F4
00320B  05F4
00320C  9631    	ADIW ZH:ZL,1
00320D  93E0    	STS $05F3,ZL
00320E  05F3
00320F  93F0    	STS $05F4,ZH
003210  05F4
003211  91A0    	LDS XL,$05F3
003212  05F3
003213  91B0    	LDS XH,$05F4
003214  05F4
003215  9714    	SBIW XH:XL,4
003216  F4D9    	BRNE L582
003217  E0E0    	LDI ZL,$00
003218  93E0    	STS $05F3,ZL
003219  05F3
00321A  93E0    	STS $05F4,ZL
00321B  05F4
00321C  E0E0    	LDI ZL,$00
00321D  93E0    	STS $05F7,ZL
00321E  05F7
00321F  91A0    	LDS XL,$05F8
003220  05F8
003221  31A0    	CPI XL,$10
003222  F439    	BRNE L583
003223  E5EA    	LDI ZL,$5A
003224  E0F2    	LDI ZH,$02
003225  93E0    	STS $05ED,ZL
003226  05ED
003227  93F0    	STS $05EE,ZH
003228  05EE
003229  C008    	RJMP L582
00322A  E0E0    L583:	LDI ZL,$00
00322B  93E0    	STS $05ED,ZL
00322C  05ED
00322D  93E0    	STS $05EE,ZL
00322E  05EE
00322F  94E8    	BCLR 6
003230  F824    	BLD R2,4
003231  9ADE    	SBI PORTA,PA6
003232  9508    L582:	RET

########################

#######################

003233  931A    L708:	ST -Y,R17
003234  930A    	ST -Y,R16
003235  91E0    	LDS ZL,$05F8
003236  05F8
003237  91A0    	LDS XL,$05F7
003238  05F7
003239  17EA    	CP ZL,XL
00323A  F011    	BREQ L584
00323B  940C    	JMP L585
00323C  32AD
00323D  EFEF    L584:	LDI ZL,$FF
00323E  2E5E    	MOV R5,ZL
00323F  E000    	LDI R16,$00
003240  E010    	LDI R17,$00
003241  3100    L589:	CPI R16,$10
003242  E0E0    	LDI ZL,$00
003243  071E    	CPC R17,ZL
003244  F534    	BRGE L586
003245  01F8    	MOVW R31:R30,R17:R16
003246  2766    	CLR R22
003247  2777    	CLR R23
003248  57E4    	SUBI ZL,$74
003249  4FFF    	SBCI ZH,$FF
00324A  4F6F    	SBCI R22,$FF
00324B  BF6B    	OUT RAMPZ,R22
00324C  91E6    	ELPM ZL,Z
00324D  5FE6    	SUBI ZL,$F6
00324E  2FAE    	MOV XL,ZL
00324F  01F8    	MOVW R31:R30,R17:R16
003250  52E5    	SUBI ZL,$25
003251  4FFA    	SBCI ZH,$FA
003252  81E0    	LD ZL,Z
003253  17AE    	CP XL,ZL
003254  F080    	BRCS L587
003255  01F8    	MOVW R31:R30,R17:R16
003256  2766    	CLR R22
003257  2777    	CLR R23
003258  57E4    	SUBI ZL,$74
003259  4FFF    	SBCI ZH,$FF
00325A  4F6F    L478:	SBCI R22,$FF
00325B  BF6B    	OUT RAMPZ,R22
00325C  91E6    	ELPM ZL,Z
00325D  50EA    	SUBI ZL,$0A
00325E  2FAE    	MOV XL,ZL
00325F  01F8    	MOVW R31:R30,R17:R16
003260  52E5    	SUBI ZL,$25
003261  4FFA    	SBCI ZH,$FA
003262  81E0    	LD ZL,Z
003263  17EA    	CP ZL,XL
003264  F418    	BRCC L588
003265  E0E7    L587:	LDI ZL,$07
003266  2E5E    	MOV R5,ZL
003267  C003    	RJMP L586
003268  5F0F    L588:	SUBI R16,$FF
003269  4F1F    	SBCI R17,$FF
00326A  CFD6    	RJMP L589
00326B  EFEF    L586:	LDI ZL,$FF
00326C  15E5    	CP ZL,R5
00326D  F011    	BREQ L590
00326E  940C    	JMP L585
00326F  32AD
003270  E000    L590:	LDI R16,$00
003271  E010    	LDI R17,$00
003272  3100    L591:	CPI R16,$10
003273  E0E0    	LDI ZL,$00
003274  071E    	CPC R17,ZL
003275  F464    	BRGE L488
003276  01D8    	MOVW R27:R26,R17:R16
003277  5EA3    	SUBI XL,$E3
003278  4FBF    	SBCI XH,$FF
003279  01F8    	MOVW R31:R30,R17:R16
00327A  52E5    	SUBI ZL,$25
00327B  4FFA    	SBCI ZH,$FA
00327C  81E0    	LD ZL,Z
00327D  940E    	CALL L546
00327E  6C90
00327F  5F0F    	SUBI R16,$FF
003280  4F1F    	SBCI R17,$FF
003281  CFF0    	RJMP L591
003282  E0EE    L488:	LDI ZL,$0E
003283  93EA    	ST -Y,ZL
003284  E1E0    	LDI ZL,$10
003285  93EA    	ST -Y,ZL
003286  940E    	CALL L570
003287  4315
003288  E0E0    	LDI ZL,$00
003289  93E0    	STS $05F7,ZL
00328A  05F7
00328B  E000    	LDI R16,$00
00328C  E010    	LDI R17,$00
00328D  3100    L593:	CPI R16,$10
00328E  E0E0    	LDI ZL,$00
00328F  071E    	CPC R17,ZL
003290  F4BC    	BRGE L592
003291  E1AD    	LDI XL,$1D
003292  E0B0    	LDI XH,$00
003293  0FA0    	ADD XL,R16
003294  1FB1    	ADC XH,R17
003295  940E    	CALL L545
003296  6C7C
003297  93EA    	ST -Y,ZL
003298  940E    	CALL L547
003299  4082
00329A  E1AD    	LDI XL,$1D
00329B  E0B0    	LDI XH,$00
00329C  0FA0    	ADD XL,R16
00329D  1FB1    	ADC XH,R17
00329E  940E    	CALL L545
00329F  6C7C
0032A0  91A0    	LDS XL,$05F7
0032A1  05F7
0032A2  27EA    	EOR ZL,XL
0032A3  93E0    	STS $05F7,ZL
0032A4  05F7
0032A5  5F0F    	SUBI R16,$FF
0032A6  4F1F    	SBCI R17,$FF
0032A7  CFE5    	RJMP L593
0032A8  91E0    L592:	LDS ZL,$05F7
0032A9  05F7
0032AA  93EA    	ST -Y,ZL
0032AB  940E    	CALL L547
0032AC  4082
0032AD  E0E0    L585:	LDI ZL,$00
0032AE  93E0    	STS $05ED,ZL
0032AF  05ED
0032B0  93E0    	STS $05EE,ZL
0032B1  05EE
0032B2  94E8    	BCLR 6
0032B3  F824    	BLD R2,4
0032B4  9ADE    	SBI PORTA,PA6     RUN Light GREEN OFF
0032B5  9109    L542:	LD R16,Y+
0032B6  9119    	LD R17,Y+
0032B7  9508    	RET

########################

#######################

0032B8  940E    L716:	CALL L594
0032B9  6E29
0032BA  91E0    	LDS ZL,$05F8
0032BB  05F8
0032BC  91A0    	LDS XL,$05F7
0032BD  05F7
0032BE  17EA    	CP ZL,XL
0032BF  F011    	BREQ L595
0032C0  940C    	JMP L596
0032C1  336C
0032C2  91E0    L595:	LDS ZL,$087B
0032C3  087B
0032C4  30E0    	CPI ZL,$00
0032C5  F471    	BRNE L597
0032C6  91E0    	LDS ZL,$05EA
0032C7  05EA
0032C8  30E1    	CPI ZL,$01
0032C9  F419    	BRNE L598
0032CA  E000    	LDI R16,$00
0032CB  E610    	LDI R17,$60
0032CC  C006    	RJMP L599
0032CD  91E0    L598:	LDS ZL,$05EA
0032CE  05EA
0032CF  30E2    	CPI ZL,$02
0032D0  F411    	BRNE L599
0032D1  E000    	LDI R16,$00
0032D2  E210    	LDI R17,$20
0032D3  C070    L599:	RJMP L600
0032D4  91E0    L597:	LDS ZL,$05EA
0032D5  05EA
0032D6  30E1    	CPI ZL,$01
0032D7  F591    	BRNE L601
0032D8  91E0    	LDS ZL,$087B
0032D9  087B
0032DA  50E1    	SUBI ZL,$01
0032DB  2F6E    	MOV R22,ZL
0032DC  E3A0    	LDI XL,$30
0032DD  E0B0    	LDI XH,$00
0032DE  E0F0    	LDI ZH,$00
0032DF  0FEE    	LSL ZL
0032E0  1FFF    	ROL ZH
0032E1  0FAE    	ADD XL,ZL
0032E2  1FBF    	ADC XH,ZH
0032E3  940E    	CALL L602
0032E4  6C78
0032E5  010F    	MOVW R1:R0,R31:R30
0032E6  2FE6    	MOV ZL,R22
0032E7  E5A8    	LDI XL,$58
0032E8  E0B0    	LDI XH,$00
0032E9  E0F0    	LDI ZH,$00
0032EA  0FEE    	LSL ZL
0032EB  1FFF    	ROL ZH
0032EC  0FAE    	ADD XL,ZL
0032ED  1FBF    	ADC XH,ZH
0032EE  940E    	CALL L602
0032EF  6C78
0032F0  0DE0    	ADD ZL,R0
0032F1  1DF1    	ADC ZH,R1
0032F2  018F    	MOVW R17:R16,R31:R30
0032F3  91E0    	LDS ZL,$087B
0032F4  087B
0032F5  50E1    	SUBI ZL,$01
0032F6  E5A8    	LDI XL,$58
0032F7  E0B0    	LDI XH,$00
0032F8  E0F0    	LDI ZH,$00
0032F9  0FEE    	LSL ZL
0032FA  1FFF    	ROL ZH
0032FB  0FAE    	ADD XL,ZL
0032FC  1FBF    	ADC XH,ZH
0032FD  940E    	CALL L602
0032FE  6C78
0032FF  73EF    	ANDI ZL,$3F
003300  70F0    	ANDI ZH,$00
003301  01D8    	MOVW R27:R26,R17:R16
003302  5CA0    	SUBI XL,$C0
003303  4FBF    	SBCI XH,$FF
003304  1BAE    	SUB XL,ZL
003305  0BBF    	SBC XH,ZH
003306  018D    	MOVW R17:R16,R27:R26
003307  E0E0    	LDI ZL,$00
003308  E6F0    	LDI ZH,$60
003309  C037    	RJMP L603
00330A  91E0    L601:	LDS ZL,$05EA
00330B  05EA
00330C  30E2    	CPI ZL,$02
00330D  F011    	BREQ L604
00330E  940C    	JMP L600
00330F  3344
003310  91E0    L604:	LDS ZL,$087C
003311  087C
003312  50E1    	SUBI ZL,$01
003313  2F6E    	MOV R22,ZL
003314  E8A0    	LDI XL,$80
003315  E0B0    	LDI XH,$00
003316  E0F0    	LDI ZH,$00
003317  0FEE    	LSL ZL
003318  1FFF    	ROL ZH
003319  0FAE    	ADD XL,ZL
00331A  1FBF    	ADC XH,ZH
00331B  940E    	CALL L602
00331C  6C78
00331D  010F    	MOVW R1:R0,R31:R30
00331E  2FE6    	MOV ZL,R22
00331F  E9A4    	LDI XL,$94
003320  E0B0    	LDI XH,$00
003321  E0F0    	LDI ZH,$00
003322  0FEE    	LSL ZL
003323  1FFF    	ROL ZH
003324  0FAE    	ADD XL,ZL
003325  1FBF    	ADC XH,ZH
003326  940E    	CALL L602
003327  6C78
003328  0DE0    	ADD ZL,R0
003329  1DF1    	ADC ZH,R1
00332A  018F    	MOVW R17:R16,R31:R30
00332B  91E0    	LDS ZL,$087C
00332C  087C
00332D  50E1    	SUBI ZL,$01
00332E  E9A4    	LDI XL,$94
00332F  E0B0    	LDI XH,$00
003330  E0F0    	LDI ZH,$00
003331  0FEE    	LSL ZL
003332  1FFF    	ROL ZH
003333  0FAE    	ADD XL,ZL
003334  1FBF    	ADC XH,ZH
003335  940E    	CALL L602
003336  6C78
003337  73EF    	ANDI ZL,$3F
003338  70F0    	ANDI ZH,$00
003339  01D8    	MOVW R27:R26,R17:R16
00333A  5CA0    	SUBI XL,$C0
00333B  4FBF    	SBCI XH,$FF
00333C  1BAE    	SUB XL,ZL
00333D  0BBF    	SBC XH,ZH
00333E  018D    	MOVW R17:R16,R27:R26
00333F  E0E0    	LDI ZL,$00
003340  E8F0    	LDI ZH,$80
003341  1BE0    L603:	SUB ZL,R16
003342  0BF1    	SBC ZH,R17
003343  018F    	MOVW R17:R16,R31:R30
003344  E0EF    L600:	LDI ZL,$0F
003345  93EA    	ST -Y,ZL
003346  E0E4    	LDI ZL,$04
003347  93EA    	ST -Y,ZL
003348  940E    	CALL L570
003349  4315
00334A  E0E0    	LDI ZL,$00
00334B  93E0    	STS $05F7,ZL
00334C  05F7
00334D  93EA    	ST -Y,ZL
00334E  940E    	CALL L547
00334F  4082
003350  E0E0    	LDI ZL,$00
003351  93EA    	ST -Y,ZL
003352  940E    	CALL L547
003353  4082
003354  2F21    	MOV R18,R17
003355  932A    	ST -Y,R18
003356  940E    	CALL L547
003357  4082
003358  2FE2    	MOV ZL,R18
003359  91A0    	LDS XL,$05F7
00335A  05F7
00335B  27EA    	EOR ZL,XL
00335C  93E0    	STS $05F7,ZL
00335D  05F7
00335E  01F8    	MOVW R31:R30,R17:R16
00335F  2F2E    	MOV R18,ZL
003360  932A    	ST -Y,R18
003361  940E    	CALL L547
003362  4082
003363  2FE2    	MOV ZL,R18
003364  91A0    	LDS XL,$05F7
003365  05F7
003366  27EA    	EOR ZL,XL
003367  93E0    	STS $05F7,ZL
003368  05F7
003369  93EA    	ST -Y,ZL
00336A  940E    	CALL L547
00336B  4082
00336C  E0E0    L596:	LDI ZL,$00
00336D  93E0    	STS $05ED,ZL
00336E  05ED
00336F  93E0    	STS $05EE,ZL
003370  05EE
003371  94E8    	BCLR 6
003372  F824    	BLD R2,4
003373  9ADE    	SBI PORTA,PA6      'RUN LED
003374  940E    	CALL L605
003375  6E30
003376  9623    	ADIW YH:YL,3
003377  9508    	RET

###################################

ISR (USRT0_TX)

###################################

003378  93AA    L8:	ST -Y,XL
003379  93EA    	ST -Y,ZL
00337A  93FA    L486:	ST -Y,ZH
00337B  B7EF    	IN ZL,SREG
00337C  93EA    	ST -Y,ZL
00337D  91E0    	LDS ZL,$05CC           
00337E  05CC
00337F  91A0    	LDS XL,$05CE
003380  05CE
003381  17AE    	CP XL,ZL                 if(gTx0BufIdx<gTx0Cnt)
003382  F478    	BRCC L606
003383  9B5D    L607:	SBIS UCSR0A,UDRE0
003384  CFFE    	RJMP L607
003385  91E0    	LDS ZL,$05CE
003386  05CE
003387  E0F0    	LDI ZH,$00
003388  5EEE    	SUBI ZL,$EE
003389  4FFA    	SBCI ZH,$FA
00338A  81E0    	LD ZL,Z
00338B  B9EC    	OUT UDR0,ZL
00338C  91E0    	LDS ZL,$05CE
00338D  05CE
00338E  5FEF    	SUBI ZL,$FF
00338F  93E0    	STS $05CE,ZL
003390  05CE
003391  C00B    	RJMP L608
003392  91E0    L606:	LDS ZL,$05CC
003393  05CC
003394  91A0    	LDS XL,$05CE
003395  05CE
003396  17EA    	CP ZL,XL
003397  F429    	BRNE L608
003398  E0E0    	LDI ZL,$00
003399  93E0    	STS $05CE,ZL
00339A  05CE
00339B  93E0    	STS $05CC,ZL
00339C  05CC
00339D  91E9    L608:	LD ZL,Y+
00339E  BFEF    	OUT SREG,ZL
00339F  91F9    	LD ZH,Y+
0033A0  91E9    	LD ZL,Y+
0033A1  91A9    	LD XL,Y+
0033A2  9518    	RETI

########################

Analog comparator

#######################

0033A3  920A    L7:	ST -Y,R0
0033A4  921A    	ST -Y,R1
0033A5  93AA    	ST -Y,XL
0033A6  93BA    	ST -Y,XH
0033A7  93EA    	ST -Y,ZL
0033A8  93FA    	ST -Y,ZH
0033A9  B7EF    	IN ZL,SREG
0033AA  93EA    	ST -Y,ZL
0033AB  940E    	CALL L594
0033AC  6E29
0033AD  B12C    	IN R18,UDR0
0033AE  FE22    	SBRS R2,2
0033AF  C012    	RJMP L609
0033B0  91E0    L610:	LDS ZL,$009B
0033B1  009B
0033B2  72E0    	ANDI ZL,$20
0033B3  F3E1    	BREQ L610
0033B4  9320    	STS $009C,R18
0033B5  009C
0033B6  940E    	CALL L605
0033B7  6E30
0033B8  9623    	ADIW YH:YL,3
0033B9  91E9    	LD ZL,Y+
0033BA  BFEF    	OUT SREG,ZL
0033BB  91F9    	LD ZH,Y+
0033BC  91E9    	LD ZL,Y+
0033BD  91B9    	LD XH,Y+
0033BE  91A9    	LD XL,Y+
0033BF  9019    	LD R1,Y+
0033C0  9009    	LD R0,Y+
0033C1  9518    	RETI
0033C2  91E0    L609:	LDS ZL,$05CD
0033C3  05CD
0033C4  5FEF    	SUBI ZL,$FF
0033C5  93E0    	STS $05CD,ZL
0033C6  05CD
0033C7  E001    	LDI R16,$01
0033C8  E010    	LDI R17,$00
0033C9  3008    L612:	CPI R16,$08
0033CA  E0E0    	LDI ZL,$00
0033CB  071E    	CPC R17,ZL
0033CC  F47C    	BRGE L611
0033CD  01F8    	MOVW R31:R30,R17:R16
0033CE  9731    	SBIW ZH:ZL,1
0033CF  53E1    	SUBI ZL,$31
0033D0  4FFA    	SBCI ZH,$FA
0033D1  010F    	MOVW R1:R0,R31:R30
0033D2  ECAF    	LDI XL,$CF
0033D3  E0B5    	LDI XH,$05
0033D4  0FA0    	ADD XL,R16
0033D5  1FB1    	ADC XH,R17
0033D6  91EC    	LD ZL,X
0033D7  01D0    	MOVW R27:R26,R1:R0
0033D8  93EC    	ST X,ZL
0033D9  5F0F    	SUBI R16,$FF
0033DA  4F1F    	SBCI R17,$FF
0033DB  CFED    	RJMP L612
0033DC  9320    L611:	STS $05D6,R18
0033DD  05D6
0033DE  940E    	CALL L605
0033DF  6E30
0033E0  9623    	ADIW YH:YL,3
0033E1  91E9    	LD ZL,Y+
0033E2  BFEF    	OUT SREG,ZL
0033E3  91F9    	LD ZH,Y+
0033E4  91E9    	LD ZL,Y+
0033E5  91B9    	LD XH,Y+
0033E6  91A9    	LD XL,Y+
0033E7  9019    	LD R1,Y+
0033E8  9009    	LD R0,Y+
0033E9  9518    	RETI

########################

ISR (USART0_RX)

#######################
0033EA  920A    L10:	ST -Y,R0
0033EB  921A    	ST -Y,R1
0033EC  92FA    	ST -Y,R15
0033ED  936A    	ST -Y,R22
0033EE  937A    	ST -Y,R23
0033EF  938A    	ST -Y,R24
0033F0  939A    	ST -Y,R25
0033F1  93AA    	ST -Y,XL
0033F2  93BA    	ST -Y,XH
0033F3  93EA    	ST -Y,ZL
0033F4  93FA    	ST -Y,ZH
0033F5  B7EB    	IN ZL,RAMPZ
0033F6  93EA    	ST -Y,ZL
0033F7  B7EF    	IN ZL,SREG
0033F8  93EA    	ST -Y,ZL
0033F9  9721    	SBIW YH:YL,1
0033FA  940E    	CALL L613
0033FB  6E26
0033FC  91E0    	LDS ZL,$009C
0033FD  009C
0033FE  93E0    	STS $05F8,ZL
0033FF  05F8
003400  FE22    	SBRS R2,2
003401  C0BE    	RJMP L614
003402  9B5D    L615:	SBIS UCSR0A,UDRE0
003403  CFFE    	RJMP L615
003404  91E0    	LDS ZL,$05F8
003405  05F8
003406  B9EC    	OUT UDR0,ZL
003407  91A0    	LDS XL,$05F8
003408  05F8
003409  3FAF    	CPI XL,$FF
00340A  F4E1    	BRNE L616
00340B  E0E1    	LDI ZL,$01
00340C  E0F0    	LDI ZH,$00
00340D  93E0    	STS $05EF,ZL
00340E  05EF
00340F  93F0    	STS $05F0,ZH
003410  05F0
003411  E0E0    	LDI ZL,$00
003412  93E0    	STS $05F7,ZL
003413  05F7
003414  940E    	CALL L617
003415  6E2D
003416  9627    	ADIW YH:YL,7
003417  91E9    	LD ZL,Y+
003418  BFEF    	OUT SREG,ZL
003419  91E9    	LD ZL,Y+
00341A  BFEB    	OUT RAMPZ,ZL
00341B  91F9    	LD ZH,Y+
00341C  91E9    	LD ZL,Y+
00341D  91B9    	LD XH,Y+
00341E  91A9    	LD XL,Y+
00341F  9199    	LD R25,Y+
003420  9189    	LD R24,Y+
003421  9179    	LD R23,Y+
003422  9169    	LD R22,Y+
003423  90F9    	LD R15,Y+
003424  9019    	LD R1,Y+
003425  9009    	LD R0,Y+
003426  9518    	RETI
003427  91E0    L616:	LDS ZL,$05EF
003428  05EF
003429  91F0    	LDS ZH,$05F0
00342A  05F0
00342B  30E1    	CPI ZL,$01
00342C  E0A0    	LDI XL,$00
00342D  07FA    	CPC ZH,XL
00342E  F4C1    	BRNE L618
00342F  91A0    	LDS XL,$05F8
003430  05F8
003431  3EA0    	CPI XL,$E0
003432  F439    	BRNE L619
003433  E0E2    	LDI ZL,$02
003434  E0F0    	LDI ZH,$00
003435  93E0    	STS $05EF,ZL
003436  05EF
003437  93F0    	STS $05F0,ZH
003438  05F0
003439  C005    	RJMP L620
00343A  E0E0    L619:	LDI ZL,$00
00343B  93E0    	STS $05EF,ZL
00343C  05EF
00343D  93E0    	STS $05F0,ZL
00343E  05F0
00343F  91E0    L620:	LDS ZL,$05F8
003440  05F8
003441  91A0    	LDS XL,$05F7
003442  05F7
003443  27EA    	EOR ZL,XL
003444  93E0    	STS $05F7,ZL
003445  05F7
003446  C066    	RJMP L621
003447  30E2    L618:	CPI ZL,$02
003448  E0A0    	LDI XL,$00
003449  07FA    	CPC ZH,XL
00344A  F4C1    	BRNE L622
00344B  91A0    	LDS XL,$05F8
00344C  05F8
00344D  3FAB    	CPI XL,$FB
00344E  F439    	BRNE L623
00344F  E0E3    	LDI ZL,$03
003450  E0F0    	LDI ZH,$00
003451  93E0    	STS $05EF,ZL
003452  05EF
003453  93F0    	STS $05F0,ZH
003454  05F0
003455  C005    	RJMP L624
003456  E0E0    L623:	LDI ZL,$00
003457  93E0    	STS $05EF,ZL
003458  05EF
003459  93E0    	STS $05F0,ZL
00345A  05F0
00345B  91E0    L624:	LDS ZL,$05F8
00345C  05F8
00345D  91A0    	LDS XL,$05F7
00345E  05F7
00345F  27EA    	EOR ZL,XL
003460  93E0    	STS $05F7,ZL
003461  05F7
003462  C04A    	RJMP L621
003463  30E3    L622:	CPI ZL,$03
003464  E0A0    	LDI XL,$00
003465  07FA    	CPC ZH,XL
003466  F4C1    	BRNE L625
003467  91A0    	LDS XL,$05F8
003468  05F8
003469  30A1    	CPI XL,$01
00346A  F439    	BRNE L626
00346B  E0E4    	LDI ZL,$04
00346C  E0F0    	LDI ZH,$00
00346D  93E0    	STS $05EF,ZL
00346E  05EF
00346F  93F0    	STS $05F0,ZH
003470  05F0
003471  C005    	RJMP L627
003472  E0E0    L626:	LDI ZL,$00
003473  93E0    	STS $05EF,ZL
003474  05EF
003475  93E0    	STS $05F0,ZL
003476  05F0
003477  91E0    L627:	LDS ZL,$05F8
003478  05F8
003479  91A0    	LDS XL,$05F7
00347A  05F7
00347B  27EA    	EOR ZL,XL
00347C  93E0    	STS $05F7,ZL
00347D  05F7
00347E  C02E    	RJMP L621
00347F  30E4    L625:	CPI ZL,$04
003480  E0A0    	LDI XL,$00
003481  07FA    	CPC ZH,XL
003482  F489    	BRNE L628
003483  E0E5    	LDI ZL,$05
003484  E0F0    	LDI ZH,$00
003485  93E0    	STS $05EF,ZL
003486  05EF
003487  93F0    	STS $05F0,ZH
003488  05F0
003489  91E0    	LDS ZL,$05F8
00348A  05F8
00348B  91A0    	LDS XL,$05F7
00348C  05F7
00348D  27EA    	EOR ZL,XL
00348E  93E0    	STS $05F7,ZL
00348F  05F7
003490  77EF    	ANDI ZL,$7F
003491  93E0    	STS $05F7,ZL
003492  05F7
003493  C019    	RJMP L621
003494  30E5    L628:	CPI ZL,$05
003495  E0A0    	LDI XL,$00
003496  07FA    	CPC ZH,XL
003497  F4A9    	BRNE L621
003498  91E0    	LDS ZL,$05F7
003499  05F7
00349A  91A0    	LDS XL,$05F8
00349B  05F8
00349C  17EA    	CP ZL,XL
00349D  F451    	BRNE L629
00349E  B7E7    	IN ZL,TIMSK
00349F  60E1    	ORI ZL,$01
0034A0  BFE7    	OUT TIMSK,ZL
0034A1  B7E9    	IN ZL,EIMSK
0034A2  64E0    	ORI ZL,$40
0034A3  BFE9    	OUT EIMSK,ZL
0034A4  9857    	CBI UCSR0B,RXCIE0
0034A5  9A56    	SBI UCSR0B,TXCIE0
0034A6  94E8    	BCLR 6
0034A7  F822    	BLD R2,2
0034A8  E0E0    L629:	LDI ZL,$00
0034A9  93E0    	STS $05EF,ZL
0034AA  05EF
0034AB  93E0    	STS $05F0,ZL
0034AC  05F0
0034AD  940E    L621:	CALL L617
0034AE  6E2D
0034AF  9627    	ADIW YH:YL,7
0034B0  91E9    	LD ZL,Y+
0034B1  BFEF    	OUT SREG,ZL
0034B2  91E9    	LD ZL,Y+
0034B3  BFEB    	OUT RAMPZ,ZL
0034B4  91F9    	LD ZH,Y+
0034B5  91E9    	LD ZL,Y+
0034B6  91B9    	LD XH,Y+
0034B7  91A9    	LD XL,Y+
0034B8  9199    	LD R25,Y+
0034B9  9189    	LD R24,Y+
0034BA  9179    	LD R23,Y+
0034BB  9169    	LD R22,Y+
0034BC  90F9    	LD R15,Y+
0034BD  9019    	LD R1,Y+
0034BE  9009    	LD R0,Y+
0034BF  9518    	RETI
0034C0  9856    L614:	CBI UCSR0B,TXCIE0
0034C1  B7E9    	IN ZL,EIMSK
0034C2  7BEF    	ANDI ZL,$BF
0034C3  BFE9    	OUT EIMSK,ZL
0034C4  E001    	LDI R16,$01
0034C5  E010    	LDI R17,$00
0034C6  3104    L631:	CPI R16,$14
0034C7  E0E0    	LDI ZL,$00
0034C8  071E    	CPC R17,ZL
0034C9  F478    	BRCC L630
0034CA  01F8    	MOVW R31:R30,R17:R16
0034CB  9731    	SBIW ZH:ZL,1
0034CC  52E8    	SUBI ZL,$28
0034CD  4FFA    	SBCI ZH,$FA
0034CE  010F    	MOVW R1:R0,R31:R30
0034CF  EDA8    	LDI XL,$D8
0034D0  E0B5    	LDI XH,$05
0034D1  0FA0    	ADD XL,R16
0034D2  1FB1    	ADC XH,R17
0034D3  91EC    	LD ZL,X
0034D4  01D0    	MOVW R27:R26,R1:R0
0034D5  93EC    	ST X,ZL
0034D6  5F0F    	SUBI R16,$FF
0034D7  4F1F    	SBCI R17,$FF
0034D8  CFED    	RJMP L631
0034D9  EEAB    L630:	LDI XL,$EB
0034DA  E0B5    	LDI XH,$05
0034DB  91E0    	LDS ZL,$05F8
0034DC  05F8
0034DD  93EC    	ST X,ZL
0034DE  FC24    	SBRC R2,4
0034DF  C020    	RJMP L632
0034E0  91E0    	LDS ZL,$05E4
0034E1  05E4
0034E2  3FEF    	CPI ZL,$FF
0034E3  F4E1    	BRNE L632
0034E4  91E0    	LDS ZL,$05E5
0034E5  05E5
0034E6  3FEF    	CPI ZL,$FF
0034E7  F4C1    	BRNE L632
0034E8  91E0    	LDS ZL,$05E6
0034E9  05E6
0034EA  3AEA    	CPI ZL,$AA
0034EB  F4A1    	BRNE L632
0034EC  91E0    	LDS ZL,$05E7
0034ED  05E7
0034EE  35E5    	CPI ZL,$55
0034EF  F481    	BRNE L632
0034F0  91E0    	LDS ZL,$05E8
0034F1  05E8
0034F2  3AEA    	CPI ZL,$AA
0034F3  F461    	BRNE L632
0034F4  91E0    	LDS ZL,$05E9
0034F5  05E9
0034F6  35E5    	CPI ZL,$55
0034F7  F441    	BRNE L632
0034F8  91E0    	LDS ZL,$05EA
0034F9  05EA
0034FA  33E7    	CPI ZL,$37
0034FB  F421    	BRNE L632
0034FC  91E0    	LDS ZL,$05EB
0034FD  05EB
0034FE  3BEA    	CPI ZL,$BA
0034FF  F009    	BREQ L633
003500  C02F    L632:	RJMP L634
003501  9468    L633:	BSET 6
003502  F824    	BLD R2,4
003503  98DE    	CBI PORTA,PA6
003504  E0E1    	LDI ZL,$01
003505  E0F0    	LDI ZH,$00
003506  93E0    	STS $05ED,ZL
003507  05ED
003508  93F0    	STS $05EE,ZH
003509  05EE
00350A  E000    	LDI R16,$00
00350B  E010    	LDI R17,$00
00350C  3400    L636:	CPI R16,$40
00350D  E0E0    	LDI ZL,$00
00350E  071E    	CPC R17,ZL
00350F  F448    	BRCC L635
003510  E1AE    	LDI XL,$1E
003511  E0B9    	LDI XH,$09
003512  0FA0    	ADD XL,R16
003513  1FB1    	ADC XH,R17
003514  EFEF    	LDI ZL,$FF
003515  93EC    	ST X,ZL
003516  5F0F    	SUBI R16,$FF
003517  4F1F    	SBCI R17,$FF
003518  CFF3    	RJMP L636
003519  9A56    L635:	SBI UCSR0B,TXCIE0
00351A  B7E9    	IN ZL,EIMSK
00351B  64E0    	ORI ZL,$40
00351C  BFE9    	OUT EIMSK,ZL
00351D  940E    	CALL L617
00351E  6E2D
00351F  9627    	ADIW YH:YL,7
003520  91E9    	LD ZL,Y+
003521  BFEF    	OUT SREG,ZL
003522  91E9    	LD ZL,Y+
003523  BFEB    	OUT RAMPZ,ZL
003524  91F9    	LD ZH,Y+
003525  91E9    	LD ZL,Y+
003526  91B9    	LD XH,Y+
003527  91A9    	LD XL,Y+
003528  9199    	LD R25,Y+
003529  9189    	LD R24,Y+
00352A  9179    	LD R23,Y+
00352B  9169    	LD R22,Y+
00352C  90F9    	LD R15,Y+
00352D  9019    	LD R1,Y+
00352E  9009    	LD R0,Y+
00352F  9518    	RETI
003530  91E0    L634:	LDS ZL,$05ED
003531  05ED
003532  91F0    	LDS ZH,$05EE
003533  05EE
003534  30E1    	CPI ZL,$01
003535  E0A0    	LDI XL,$00
003536  07FA    	CPC ZH,XL
003537  F011    	BREQ L637
003538  940C    	JMP L638
003539  35D5
00353A  91A0    L637:	LDS XL,$05F8
00353B  05F8
00353C  30A1    	CPI XL,$01
00353D  F461    	BRNE L639
00353E  E0E0    	LDI ZL,$00
00353F  93E0    	STS $05F3,ZL
003540  05F3
003541  93E0    	STS $05F4,ZL
003542  05F4
003543  E6E4    	LDI ZL,$64
003544  E0F0    	LDI ZH,$00
003545  93E0    	STS $05ED,ZL
003546  05ED
003547  93F0    	STS $05EE,ZH
003548  05EE
003549  C08A    	RJMP L640
00354A  91A0    L639:	LDS XL,$05F8
00354B  05F8
00354C  30A2    	CPI XL,$02
00354D  F461    	BRNE L641
00354E  E0E0    	LDI ZL,$00
00354F  93E0    	STS $05F3,ZL
003550  05F3
003551  93E0    	STS $05F4,ZL
003552  05F4
003553  ECE8    	LDI ZL,$C8
003554  E0F0    	LDI ZH,$00
003555  93E0    	STS $05ED,ZL
003556  05ED
003557  93F0    	STS $05EE,ZH
003558  05EE
003559  C07A    	RJMP L640
00355A  91A0    L641:	LDS XL,$05F8
00355B  05F8
00355C  30AB    	CPI XL,$0B
00355D  F439    	BRNE L642
00355E  E2EC    	LDI ZL,$2C
00355F  E0F1    	LDI ZH,$01
003560  93E0    	STS $05ED,ZL
003561  05ED
003562  93F0    	STS $05EE,ZH
003563  05EE
003564  C06F    	RJMP L640
003565  91A0    L642:	LDS XL,$05F8
003566  05F8
003567  30AC    	CPI XL,$0C
003568  F439    	BRNE L643
003569  E9E0    	LDI ZL,$90
00356A  E0F1    	LDI ZH,$01
00356B  93E0    L528:	STS $05ED,ZL
00356C  05ED
00356D  93F0    	STS $05EE,ZH
00356E  05EE
00356F  C064    	RJMP L640
003570  91A0    L643:	LDS XL,$05F8
003571  05F8
003572  30AD    	CPI XL,$0D
003573  F439    	BRNE L644
003574  EFE4    	LDI ZL,$F4
003575  E0F1    	LDI ZH,$01
003576  93E0    	STS $05ED,ZL
003577  05ED
003578  93F0    L523:	STS $05EE,ZH
003579  05EE
00357A  C059    	RJMP L640
00357B  91A0    L644:	LDS XL,$05F8
00357C  05F8
00357D  30AE    	CPI XL,$0E
00357E  F439    	BRNE L645
00357F  E5E8    	LDI ZL,$58
003580  E0F2    	LDI ZH,$02
003581  93E0    	STS $05ED,ZL
003582  05ED
003583  93F0    	STS $05EE,ZH
003584  05EE
003585  C04E    	RJMP L640
003586  91A0    L645:	LDS XL,$05F8
003587  05F8
003588  30AF    	CPI XL,$0F
003589  F439    	BRNE L646
00358A  EBEC    	LDI ZL,$BC
00358B  E0F2    	LDI ZH,$02
00358C  93E0    	STS $05ED,ZL
00358D  05ED
00358E  93F0    	STS $05EE,ZH
00358F  05EE
003590  C043    	RJMP L640
003591  91A0    L646:	LDS XL,$05F8
003592  05F8
003593  31A0    	CPI XL,$10
003594  F439    	BRNE L647
003595  E2E0    	LDI ZL,$20
003596  E0F3    	LDI ZH,$03
003597  93E0    	STS $05ED,ZL
003598  05ED
003599  93F0    	STS $05EE,ZH
00359A  05EE
00359B  C038    	RJMP L640
00359C  91A0    L647:	LDS XL,$05F8
00359D  05F8
00359E  31A1    	CPI XL,$11
00359F  F439    	BRNE L648
0035A0  E8E4    	LDI ZL,$84
0035A1  E0F3    	LDI ZH,$03
0035A2  93E0    	STS $05ED,ZL
0035A3  05ED
0035A4  93F0    	STS $05EE,ZH
0035A5  05EE
0035A6  C02D    	RJMP L640
0035A7  91A0    L648:	LDS XL,$05F8
0035A8  05F8
0035A9  31A2    	CPI XL,$12
0035AA  F439    	BRNE L649
0035AB  EEE8    	LDI ZL,$E8
0035AC  E0F3    	LDI ZH,$03
0035AD  93E0    	STS $05ED,ZL
0035AE  05ED
0035AF  93F0    	STS $05EE,ZH
0035B0  05EE
0035B1  C022    	RJMP L640
0035B2  91A0    L649:	LDS XL,$05F8
0035B3  05F8
0035B4  31A3    	CPI XL,$13
0035B5  F439    	BRNE L650
0035B6  E4EC    	LDI ZL,$4C
0035B7  E0F4    	LDI ZH,$04
0035B8  93E0    	STS $05ED,ZL
0035B9  05ED
0035BA  93F0    	STS $05EE,ZH
0035BB  05EE
0035BC  C017    	RJMP L640
0035BD  91A0    L650:	LDS XL,$05F8
0035BE  05F8
0035BF  31A4    	CPI XL,$14
0035C0  F439    	BRNE L651
0035C1  EBE0    	LDI ZL,$B0
0035C2  E0F4    	LDI ZH,$04
0035C3  93E0    	STS $05ED,ZL
0035C4  05ED
0035C5  93F0    	STS $05EE,ZH
0035C6  05EE
0035C7  C00C    	RJMP L640
0035C8  91A0    L651:	LDS XL,$05F8
0035C9  05F8
0035CA  31A5    	CPI XL,$15
0035CB  F439    	BRNE L652
0035CC  E1E4    	LDI ZL,$14
0035CD  E0F5    	LDI ZH,$05
0035CE  93E0    	STS $05ED,ZL
0035CF  05ED
0035D0  93F0    	STS $05EE,ZH
0035D1  05EE
0035D2  C001    	RJMP L640
0035D3  C529    L652:	RJMP L653
0035D4  C530    L640:	RJMP L654
0035D5  36E4    L638:	CPI ZL,$64
0035D6  E0A0    	LDI XL,$00
0035D7  07FA    	CPC ZH,XL
0035D8  F419    	BRNE L655
0035D9  940E    	CALL L656
0035DA  2EC2
0035DB  C529    	RJMP L654
0035DC  36E5    L655:	CPI ZL,$65
0035DD  E0A0    	LDI XL,$00
0035DE  07FA    	CPC ZH,XL
0035DF  F011    	BREQ L657
0035E0  940C    	JMP L658
0035E1  36F3
0035E2  91E0    L657:	LDS ZL,$05F3
0035E3  05F3
0035E4  91F0    	LDS ZH,$05F4
0035E5  05F4
0035E6  9631    	ADIW ZH:ZL,1
0035E7  93E0    	STS $05F3,ZL
0035E8  05F3
0035E9  93F0    	STS $05F4,ZH
0035EA  05F4
0035EB  91A0    	LDS XL,$05F3
0035EC  05F3
0035ED  91B0    	LDS XH,$05F4
0035EE  05F4
0035EF  9714    	SBIW XH:XL,4
0035F0  F011    	BREQ L659
0035F1  940C    	JMP L660
0035F2  36F2
0035F3  E0E0    L659:	LDI ZL,$00
0035F4  93E0    	STS $05F3,ZL
0035F5  05F3
0035F6  93E0    	STS $05F4,ZL
0035F7  05F4
0035F8  E0E0    	LDI ZL,$00
0035F9  93E0    	STS $05F5,ZL
0035FA  05F5
0035FB  93E0    	STS $05F6,ZL
0035FC  05F6
0035FD  E0E0    	LDI ZL,$00
0035FE  93E0    	STS $05F7,ZL
0035FF  05F7
003600  E8A0    	LDI XL,$80
003601  E0B7    	LDI XH,$07
003602  91E0    	LDS ZL,$05E8
003603  05E8
003604  E0F0    	LDI ZH,$00
003605  93ED    	ST X+,ZL
003606  93FC    	ST X,ZH
003607  91F0    	LDS ZH,$0780
003608  0780
003609  E0E0    	LDI ZL,$00
00360A  2766    	CLR R22
00360B  2777    	CLR R23
00360C  70E0    	ANDI ZL,$00
00360D  01DF    	MOVW R27:R26,R31:R30
00360E  01CB    	MOVW R25:R24,R23:R22
00360F  91E0    	LDS ZL,$05E9
003610  05E9
003611  27FF    	CLR ZH
003612  2766    	CLR R22
003613  2777    	CLR R23
003614  940E    	CALL L661
003615  6BA4
003616  93E0    	STS $0780,ZL
003617  0780
003618  93F0    	STS $0781,ZH
003619  0781
00361A  91F0    	LDS ZH,$0780
00361B  0780
00361C  E0E0    	LDI ZL,$00
00361D  2766    	CLR R22
00361E  2777    	CLR R23
00361F  70E0    	ANDI ZL,$00
003620  01DF    	MOVW R27:R26,R31:R30
003621  01CB    	MOVW R25:R24,R23:R22
003622  91E0    	LDS ZL,$05EA
003623  05EA
003624  27FF    	CLR ZH
003625  2766    	CLR R22
003626  2777    	CLR R23
003627  940E    	CALL L661
003628  6BA4
003629  93E0    	STS $0780,ZL
00362A  0780
00362B  93F0    	STS $0781,ZH
00362C  0781
00362D  91F0    	LDS ZH,$0780
00362E  0780
00362F  E0E0    	LDI ZL,$00
003630  2766    	CLR R22
003631  2777    	CLR R23
003632  70E0    	ANDI ZL,$00
003633  01DF    	MOVW R27:R26,R31:R30
003634  01CB    	MOVW R25:R24,R23:R22
003635  91E0    	LDS ZL,$05EB
003636  05EB
003637  27FF    	CLR ZH
003638  2766    	CLR R22
003639  2777    	CLR R23
00363A  940E    	CALL L661
00363B  6BA4
00363C  93E0    	STS $0780,ZL
00363D  0780
00363E  93F0    	STS $0781,ZH
00363F  0781
003640  91E0    	LDS ZL,$087B
003641  087B
003642  E5A8    	LDI XL,$58
003643  E0B0    	LDI XH,$00
003644  E0F0    	LDI ZH,$00
003645  0FEE    	LSL ZL
003646  1FFF    	ROL ZH
003647  0FAE    	ADD XL,ZL
003648  1FBF    	ADC XH,ZH
003649  91E0    	LDS ZL,$0780
00364A  0780
00364B  91F0    	LDS ZH,$0781
00364C  0781
00364D  940E    	CALL L662
00364E  6C88
00364F  91E0    	LDS ZL,$087B
003650  087B
003651  30E0    	CPI ZL,$00
003652  F459    	BRNE L663
003653  E3A0    	LDI XL,$30
003654  E0B0    	LDI XH,$00
003655  E0E0    	LDI ZL,$00
003656  E0F0    	LDI ZH,$00
003657  940E    	CALL L662
003658  6C88
003659  E2AE    	LDI XL,$2E
00365A  E0B0    	LDI XH,$00
00365B  940E    	CALL L546
00365C  6C90
00365D  C079    	RJMP L664
00365E  91A0    L663:	LDS XL,$087B
00365F  087B
003660  31A4    	CPI XL,$14
003661  F010    	BRCS L665
003662  940C    	JMP L666
003663  36BA
003664  91E0    L665:	LDS ZL,$087B
003665  087B
003666  E3A0    	LDI XL,$30
003667  E0B0    	LDI XH,$00
003668  E0F0    	LDI ZH,$00
003669  0FEE    	LSL ZL
00366A  1FFF    	ROL ZH
00366B  0FEA    	ADD ZL,XL
00366C  1FFB    	ADC ZH,XH
00366D  01BF    	MOVW R23:R22,R31:R30
00366E  91E0    	LDS ZL,$087B
00366F  087B
003670  50E1    	SUBI ZL,$01
003671  E3A0    	LDI XL,$30
003672  E0B0    	LDI XH,$00
003673  E0F0    	LDI ZH,$00
003674  0FEE    	LSL ZL
003675  1FFF    	ROL ZH
003676  0FAE    	ADD XL,ZL
003677  1FBF    	ADC XH,ZH
003678  940E    	CALL L602
003679  6C78
00367A  010F    	MOVW R1:R0,R31:R30
00367B  91E0    	LDS ZL,$087B
00367C  087B
00367D  50E1    	SUBI ZL,$01
00367E  E5A8    	LDI XL,$58
00367F  E0B0    	LDI XH,$00
003680  E0F0    	LDI ZH,$00
003681  0FEE    	LSL ZL
003682  1FFF    	ROL ZH
003683  0FAE    	ADD XL,ZL
003684  1FBF    	ADC XH,ZH
003685  940E    	CALL L602
003686  6C78
003687  0DE0    	ADD ZL,R0
003688  1DF1    	ADC ZH,R1
003689  01DB    	MOVW R27:R26,R23:R22
00368A  940E    	CALL L662
00368B  6C88
00368C  91E0    	LDS ZL,$087B
00368D  087B
00368E  E3A0    	LDI XL,$30
00368F  E0B0    	LDI XH,$00
003690  E0F0    	LDI ZH,$00
003691  0FEE    	LSL ZL
003692  1FFF    	ROL ZH
003693  0FEA    	ADD ZL,XL
003694  1FFB    	ADC ZH,XH
003695  01BF    	MOVW R23:R22,R31:R30
003696  91E0    	LDS ZL,$087B
003697  087B
003698  E3A0    	LDI XL,$30
003699  E0B0    	LDI XH,$00
00369A  E0F0    	LDI ZH,$00
00369B  0FEE    	LSL ZL
00369C  1FFF    	ROL ZH
00369D  0FAE    	ADD XL,ZL
00369E  1FBF    	ADC XH,ZH
00369F  940E    	CALL L602
0036A0  6C78
0036A1  5CE0    	SUBI ZL,$C0
0036A2  4FFF    	SBCI ZH,$FF
0036A3  010F    	MOVW R1:R0,R31:R30
0036A4  91E0    	LDS ZL,$087B
0036A5  087B
0036A6  50E1    	SUBI ZL,$01
0036A7  E5A8    	LDI XL,$58
0036A8  E0B0    	LDI XH,$00
0036A9  E0F0    	LDI ZH,$00
0036AA  0FEE    	LSL ZL
0036AB  1FFF    	ROL ZH
0036AC  0FAE    	ADD XL,ZL
0036AD  1FBF    	ADC XH,ZH
0036AE  940E    	CALL L602
0036AF  6C78
0036B0  73EF    	ANDI ZL,$3F
0036B1  70F0    	ANDI ZH,$00
0036B2  01DF    	MOVW R27:R26,R31:R30
0036B3  01F0    	MOVW R31:R30,R1:R0
0036B4  1BEA    	SUB ZL,XL
0036B5  0BFB    	SBC ZH,XH
0036B6  01DB    	MOVW R27:R26,R23:R22
0036B7  940E    	CALL L662
0036B8  6C88
0036B9  C01D    	RJMP L664
0036BA  E0E3    L666:	LDI ZL,$03
0036BB  2E5E    	MOV R5,ZL
0036BC  E0E0    	LDI ZL,$00
0036BD  93E0    	STS $05ED,ZL
0036BE  05ED
0036BF  93E0    	STS $05EE,ZL
0036C0  05EE
0036C1  94E8    	BCLR 6
0036C2  F824    	BLD R2,4
0036C3  9ADE    	SBI PORTA,PA6
0036C4  940E    	CALL L617
0036C5  6E2D
0036C6  9627    	ADIW YH:YL,7
0036C7  91E9    	LD ZL,Y+
0036C8  BFEF    	OUT SREG,ZL
0036C9  91E9    	LD ZL,Y+
0036CA  BFEB    	OUT RAMPZ,ZL
0036CB  91F9    	LD ZH,Y+
0036CC  91E9    	LD ZL,Y+
0036CD  91B9    	LD XH,Y+
0036CE  91A9    	LD XL,Y+
0036CF  9199    	LD R25,Y+
0036D0  9189    	LD R24,Y+
0036D1  9179    	LD R23,Y+
0036D2  9169    	LD R22,Y+
0036D3  90F9    	LD R15,Y+
0036D4  9019    	LD R1,Y+
0036D5  9009    	LD R0,Y+
0036D6  9518    	RETI
0036D7  EFEF    L664:	LDI ZL,$FF
0036D8  2E5E    	MOV R5,ZL
0036D9  91E0    	LDS ZL,$087B
0036DA  087B
0036DB  E3A0    	LDI XL,$30
0036DC  E0B0    	LDI XH,$00
0036DD  E0F0    	LDI ZH,$00
0036DE  0FEE    	LSL ZL
0036DF  1FFF    	ROL ZH
0036E0  0FAE    	ADD XL,ZL
0036E1  1FBF    	ADC XH,ZH
0036E2  940E    	CALL L602
0036E3  6C78
0036E4  93E0    	STS $0879,ZL
0036E5  0879
0036E6  93F0    	STS $087A,ZH
0036E7  087A
0036E8  E6E6    	LDI ZL,$66
0036E9  E0F0    	LDI ZH,$00
0036EA  93E0    	STS $05ED,ZL
0036EB  05ED
0036EC  93F0    	STS $05EE,ZH
0036ED  05EE
0036EE  E4E0    	LDI ZL,$40
0036EF  93EA    	ST -Y,ZL
0036F0  940E    	CALL L547
0036F1  4082
0036F2  C412    L660:	RJMP L654
0036F3  36E6    L658:	CPI ZL,$66
0036F4  E0A0    	LDI XL,$00
0036F5  07FA    	CPC ZH,XL
0036F6  F419    	BRNE L667
0036F7  940E    	CALL L668
0036F8  2ED5
0036F9  C40B    	RJMP L654
0036FA  3CE8    L667:	CPI ZL,$C8
0036FB  E0A0    	LDI XL,$00
0036FC  07FA    	CPC ZH,XL
0036FD  F499    	BRNE L669
0036FE  91E0    	LDS ZL,$05F8
0036FF  05F8
003700  93E0    	STS $0834,ZL
003701  0834
003702  E0E0    	LDI ZL,$00
003703  93E0    	STS $05F3,ZL
003704  05F3
003705  93E0    	STS $05F4,ZL
003706  05F4
003707  91E0    	LDS ZL,$05ED
003708  05ED
003709  91F0    	LDS ZH,$05EE
00370A  05EE
00370B  9631    	ADIW ZH:ZL,1
00370C  93E0    	STS $05ED,ZL
00370D  05ED
00370E  93F0    	STS $05EE,ZH
00370F  05EE
003710  C3F4    	RJMP L654
003711  3CE9    L669:	CPI ZL,$C9
003712  E0A0    	LDI XL,$00
003713  07FA    	CPC ZH,XL
003714  F011    	BREQ L670
003715  940C    	JMP L671
003716  3828
003717  91E0    L670:	LDS ZL,$05F3
003718  05F3
003719  91F0    	LDS ZH,$05F4
00371A  05F4
00371B  9631    	ADIW ZH:ZL,1
00371C  93E0    	STS $05F3,ZL
00371D  05F3
00371E  93F0    	STS $05F4,ZH
00371F  05F4
003720  91A0    	LDS XL,$05F3
003721  05F3
003722  91B0    	LDS XH,$05F4
003723  05F4
003724  9714    	SBIW XH:XL,4
003725  F011    	BREQ L672
003726  940C    	JMP L673
003727  3827
003728  E0E0    L672:	LDI ZL,$00
003729  93E0    	STS $05F3,ZL
00372A  05F3
00372B  93E0    	STS $05F4,ZL
00372C  05F4
00372D  E0E0    	LDI ZL,$00
00372E  93E0    	STS $05F5,ZL
00372F  05F5
003730  93E0    	STS $05F6,ZL
003731  05F6
003732  E0E0    	LDI ZL,$00
003733  93E0    	STS $05F7,ZL
003734  05F7
003735  E3A7    	LDI XL,$37
003736  E0B8    	LDI XH,$08
003737  91E0    	LDS ZL,$05E8
003738  05E8
003739  E0F0    	LDI ZH,$00
00373A  93ED    	ST X+,ZL
00373B  93FC    	ST X,ZH
00373C  91F0    	LDS ZH,$0837
00373D  0837
00373E  E0E0    	LDI ZL,$00
00373F  2766    	CLR R22
003740  2777    	CLR R23
003741  70E0    	ANDI ZL,$00
003742  01DF    	MOVW R27:R26,R31:R30
003743  01CB    	MOVW R25:R24,R23:R22
003744  91E0    	LDS ZL,$05E9
003745  05E9
003746  27FF    	CLR ZH
003747  2766    	CLR R22
003748  2777    	CLR R23
003749  940E    	CALL L661
00374A  6BA4
00374B  93E0    	STS $0837,ZL
00374C  0837
00374D  93F0    	STS $0838,ZH
00374E  0838
00374F  91F0    	LDS ZH,$0837
003750  0837
003751  E0E0    	LDI ZL,$00
003752  2766    	CLR R22
003753  2777    	CLR R23
003754  70E0    	ANDI ZL,$00
003755  01DF    	MOVW R27:R26,R31:R30
003756  01CB    	MOVW R25:R24,R23:R22
003757  91E0    	LDS ZL,$05EA
003758  05EA
003759  27FF    	CLR ZH
00375A  2766    	CLR R22
00375B  2777    	CLR R23
00375C  940E    	CALL L661
00375D  6BA4
00375E  93E0    	STS $0837,ZL
00375F  0837
003760  93F0    	STS $0838,ZH
003761  0838
003762  91F0    	LDS ZH,$0837
003763  0837
003764  E0E0    	LDI ZL,$00
003765  2766    	CLR R22
003766  2777    	CLR R23
003767  70E0    	ANDI ZL,$00
003768  01DF    	MOVW R27:R26,R31:R30
003769  01CB    	MOVW R25:R24,R23:R22
00376A  91E0    	LDS ZL,$05EB
00376B  05EB
00376C  27FF    	CLR ZH
00376D  2766    	CLR R22
00376E  2777    	CLR R23
00376F  940E    	CALL L661
003770  6BA4
003771  93E0    	STS $0837,ZL
003772  0837
003773  93F0    	STS $0838,ZH
003774  0838
003775  91E0    	LDS ZL,$087C
003776  087C
003777  E9A4    	LDI XL,$94
003778  E0B0    	LDI XH,$00
003779  E0F0    	LDI ZH,$00
00377A  0FEE    	LSL ZL
00377B  1FFF    	ROL ZH
00377C  0FAE    	ADD XL,ZL
00377D  1FBF    	ADC XH,ZH
00377E  91E0    	LDS ZL,$0837
00377F  0837
003780  91F0    	LDS ZH,$0838
003781  0838
003782  940E    	CALL L662
003783  6C88
003784  91E0    	LDS ZL,$087C
003785  087C
003786  30E0    	CPI ZL,$00
003787  F459    	BRNE L674
003788  E8A0    	LDI XL,$80
003789  E0B0    	LDI XH,$00
00378A  E0E0    	LDI ZL,$00
00378B  E6F0    	LDI ZH,$60
00378C  940E    	CALL L662
00378D  6C88
00378E  E2AF    	LDI XL,$2F
00378F  E0B0    	LDI XH,$00
003790  940E    	CALL L546
003791  6C90
003792  C079    	RJMP L675
003793  91A0    L674:	LDS XL,$087C
003794  087C
003795  30AA    	CPI XL,$0A
003796  F010    	BRCS L676
003797  940C    	JMP L677
003798  37EF
003799  91E0    L676:	LDS ZL,$087C
00379A  087C
00379B  E8A0    	LDI XL,$80
00379C  E0B0    	LDI XH,$00
00379D  E0F0    	LDI ZH,$00
00379E  0FEE    	LSL ZL
00379F  1FFF    	ROL ZH
0037A0  0FEA    	ADD ZL,XL
0037A1  1FFB    	ADC ZH,XH
0037A2  01BF    	MOVW R23:R22,R31:R30
0037A3  91E0    	LDS ZL,$087C
0037A4  087C
0037A5  50E1    	SUBI ZL,$01
0037A6  E8A0    	LDI XL,$80
0037A7  E0B0    	LDI XH,$00
0037A8  E0F0    	LDI ZH,$00
0037A9  0FEE    	LSL ZL
0037AA  1FFF    	ROL ZH
0037AB  0FAE    	ADD XL,ZL
0037AC  1FBF    	ADC XH,ZH
0037AD  940E    	CALL L602
0037AE  6C78
0037AF  010F    	MOVW R1:R0,R31:R30
0037B0  91E0    	LDS ZL,$087C
0037B1  087C
0037B2  50E1    	SUBI ZL,$01
0037B3  E9A4    	LDI XL,$94
0037B4  E0B0    	LDI XH,$00
0037B5  E0F0    	LDI ZH,$00
0037B6  0FEE    	LSL ZL
0037B7  1FFF    	ROL ZH
0037B8  0FAE    	ADD XL,ZL
0037B9  1FBF    	ADC XH,ZH
0037BA  940E    	CALL L602
0037BB  6C78
0037BC  0DE0    	ADD ZL,R0
0037BD  1DF1    	ADC ZH,R1
0037BE  01DB    	MOVW R27:R26,R23:R22
0037BF  940E    	CALL L662
0037C0  6C88
0037C1  91E0    	LDS ZL,$087C
0037C2  087C
0037C3  E8A0    	LDI XL,$80
0037C4  E0B0    	LDI XH,$00
0037C5  E0F0    	LDI ZH,$00
0037C6  0FEE    	LSL ZL
0037C7  1FFF    	ROL ZH
0037C8  0FEA    	ADD ZL,XL
0037C9  1FFB    	ADC ZH,XH
0037CA  01BF    	MOVW R23:R22,R31:R30
0037CB  91E0    	LDS ZL,$087C
0037CC  087C
0037CD  E8A0    	LDI XL,$80
0037CE  E0B0    	LDI XH,$00
0037CF  E0F0    	LDI ZH,$00
0037D0  0FEE    	LSL ZL
0037D1  1FFF    	ROL ZH
0037D2  0FAE    	ADD XL,ZL
0037D3  1FBF    	ADC XH,ZH
0037D4  940E    	CALL L602
0037D5  6C78
0037D6  5CE0    	SUBI ZL,$C0
0037D7  4FFF    	SBCI ZH,$FF
0037D8  010F    	MOVW R1:R0,R31:R30
0037D9  91E0    	LDS ZL,$087C
0037DA  087C
0037DB  50E1    	SUBI ZL,$01
0037DC  E9A4    	LDI XL,$94
0037DD  E0B0    	LDI XH,$00
0037DE  E0F0    	LDI ZH,$00
0037DF  0FEE    	LSL ZL
0037E0  1FFF    	ROL ZH
0037E1  0FAE    	ADD XL,ZL
0037E2  1FBF    	ADC XH,ZH
0037E3  940E    	CALL L602
0037E4  6C78
0037E5  73EF    	ANDI ZL,$3F
0037E6  70F0    	ANDI ZH,$00
0037E7  01DF    	MOVW R27:R26,R31:R30
0037E8  01F0    	MOVW R31:R30,R1:R0
0037E9  1BEA    	SUB ZL,XL
0037EA  0BFB    	SBC ZH,XH
0037EB  01DB    	MOVW R27:R26,R23:R22
0037EC  940E    	CALL L662
0037ED  6C88
0037EE  C01D    	RJMP L675
0037EF  E0E4    L677:	LDI ZL,$04
0037F0  2E5E    	MOV R5,ZL
0037F1  E0E0    	LDI ZL,$00
0037F2  93E0    	STS $05ED,ZL
0037F3  05ED
0037F4  93E0    	STS $05EE,ZL
0037F5  05EE
0037F6  94E8    	BCLR 6
0037F7  F824    	BLD R2,4
0037F8  9ADE    	SBI PORTA,PA6
0037F9  940E    	CALL L617
0037FA  6E2D
0037FB  9627    	ADIW YH:YL,7
0037FC  91E9    	LD ZL,Y+
0037FD  BFEF    	OUT SREG,ZL
0037FE  91E9    	LD ZL,Y+
0037FF  BFEB    	OUT RAMPZ,ZL
003800  91F9    	LD ZH,Y+
003801  91E9    	LD ZL,Y+
003802  91B9    	LD XH,Y+
003803  91A9    	LD XL,Y+
003804  9199    	LD R25,Y+
003805  9189    	LD R24,Y+
003806  9179    	LD R23,Y+
003807  9169    	LD R22,Y+
003808  90F9    	LD R15,Y+
003809  9019    	LD R1,Y+
00380A  9009    	LD R0,Y+
00380B  9518    	RETI
00380C  EFEF    L675:	LDI ZL,$FF
00380D  2E5E    	MOV R5,ZL
00380E  91E0    	LDS ZL,$087C
00380F  087C
003810  E8A0    	LDI XL,$80
003811  E0B0    	LDI XH,$00
003812  E0F0    	LDI ZH,$00
003813  0FEE    	LSL ZL
003814  1FFF    	ROL ZH
003815  0FAE    	ADD XL,ZL
003816  1FBF    	ADC XH,ZH
003817  940E    	CALL L602
003818  6C78
003819  93E0    	STS $0879,ZL
00381A  0879
00381B  93F0    	STS $087A,ZH
00381C  087A
00381D  ECEA    	LDI ZL,$CA
00381E  E0F0    	LDI ZH,$00
00381F  93E0    	STS $05ED,ZL
003820  05ED
003821  93F0    	STS $05EE,ZH
003822  05EE
003823  E4E0    	LDI ZL,$40
003824  93EA    	ST -Y,ZL
003825  940E    	CALL L547
003826  4082
003827  C2DD    L673:	RJMP L654
003828  3CEA    L671:	CPI ZL,$CA
003829  E0A0    	LDI XL,$00
00382A  07FA    	CPC ZH,XL
00382B  F419    	BRNE L678
00382C  940E    	CALL L679
00382D  2FE7
00382E  C2D6    	RJMP L654
00382F  32EC    L678:	CPI ZL,$2C
003830  E0A1    	LDI XL,$01
003831  07FA    	CPC ZH,XL
003832  F419    	BRNE L680
003833  940E    	CALL L656
003834  2EC2
003835  C2CF    	RJMP L654
003836  32ED    L680:	CPI ZL,$2D
003837  E0A1    	LDI XL,$01
003838  07FA    	CPC ZH,XL
003839  F419    	BRNE L681
00383A  940E    	CALL L682
00383B  30F9
00383C  C2C8    	RJMP L654
00383D  32EE    L681:	CPI ZL,$2E
00383E  E0A1    	LDI XL,$01
00383F  07FA    	CPC ZH,XL
003840  F419    	BRNE L683
003841  940E    	CALL L684
003842  3127
003843  C2C1    	RJMP L654
003844  32EF    L683:	CPI ZL,$2F
003845  E0A1    	LDI XL,$01
003846  07FA    	CPC ZH,XL
003847  F419    	BRNE L685
003848  940E    	CALL L686
003849  3145
00384A  C2BA    	RJMP L654
00384B  39E0    L685:	CPI ZL,$90
00384C  E0A1    	LDI XL,$01
00384D  07FA    	CPC ZH,XL
00384E  F419    	BRNE L687
00384F  940E    	CALL L656
003850  2EC2
003851  C2B3    	RJMP L654
003852  39E1    L687:	CPI ZL,$91
003853  E0A1    	LDI XL,$01
003854  07FA    	CPC ZH,XL
003855  F559    	BRNE L688
003856  91E0    	LDS ZL,$05F3
003857  05F3
003858  91F0    	LDS ZH,$05F4
003859  05F4
00385A  9631    	ADIW ZH:ZL,1
00385B  93E0    	STS $05F3,ZL
00385C  05F3
00385D  93F0    	STS $05F4,ZH
00385E  05F4
00385F  91A0    	LDS XL,$05F3
003860  05F3
003861  91B0    	LDS XH,$05F4
003862  05F4
003863  9714    	SBIW XH:XL,4
003864  F4D9    	BRNE L689
003865  E0E0    	LDI ZL,$00
003866  93E0    	STS $05F3,ZL
003867  05F3
003868  93E0    	STS $05F4,ZL
003869  05F4
00386A  E0E0    	LDI ZL,$00
00386B  93E0    	STS $05F7,ZL
00386C  05F7
00386D  91A0    	LDS XL,$05F8
00386E  05F8
00386F  30A1    	CPI XL,$01
003870  F439    	BRNE L690
003871  E9E2    	LDI ZL,$92
003872  E0F1    	LDI ZH,$01
003873  93E0    	STS $05ED,ZL
003874  05ED
003875  93F0    	STS $05EE,ZH
003876  05EE
003877  C008    	RJMP L689
003878  E0E0    L690:	LDI ZL,$00
003879  93E0    	STS $05ED,ZL
00387A  05ED
00387B  93E0    	STS $05EE,ZL
00387C  05EE
00387D  94E8    	BCLR 6
00387E  F824    	BLD R2,4
00387F  9ADE    	SBI PORTA,PA6
003880  C284    L689:	RJMP L654
003881  39E2    L688:	CPI ZL,$92
003882  E0A1    	LDI XL,$01
003883  07FA    	CPC ZH,XL
003884  F419    	BRNE L691
003885  940E    	CALL L684
003886  3127
003887  C27D    	RJMP L654
003888  39E3    L691:	CPI ZL,$93
003889  E0A1    	LDI XL,$01
00388A  07FA    	CPC ZH,XL
00388B  F419    	BRNE L692
00388C  940E    	CALL L693
00388D  317F
00388E  C276    	RJMP L654
00388F  3FE4    L692:	CPI ZL,$F4
003890  E0A1    	LDI XL,$01
003891  07FA    	CPC ZH,XL
003892  F419    	BRNE L694
003893  940E    	CALL L656
003894  2EC2
003895  C26F    	RJMP L654
003896  3FE5    L694:	CPI ZL,$F5
003897  E0A1    	LDI XL,$01
003898  07FA    	CPC ZH,XL
003899  F521    	BRNE L695
00389A  91E0    	LDS ZL,$05F3
00389B  05F3
00389C  91F0    	LDS ZH,$05F4
00389D  05F4
00389E  9631    	ADIW ZH:ZL,1
00389F  93E0    	STS $05F3,ZL
0038A0  05F3
0038A1  93F0    	STS $05F4,ZH
0038A2  05F4
0038A3  91A0    	LDS XL,$05F3
0038A4  05F3
0038A5  91B0    	LDS XH,$05F4
0038A6  05F4
0038A7  9714    	SBIW XH:XL,4
0038A8  F4A1    	BRNE L696
0038A9  E0E0    	LDI ZL,$00
0038AA  93E0    	STS $05F3,ZL
0038AB  05F3
0038AC  93E0    	STS $05F4,ZL
0038AD  05F4
0038AE  E0E0    	LDI ZL,$00
0038AF  93E0    	STS $05F7,ZL
0038B0  05F7
0038B1  91A0    	LDS XL,$05F8
0038B2  05F8
0038B3  30AD    	CPI XL,$0D
0038B4  F439    	BRNE L697
0038B5  EFE6    	LDI ZL,$F6
0038B6  E0F1    	LDI ZH,$01
0038B7  93E0    	STS $05ED,ZL
0038B8  05ED
0038B9  93F0    	STS $05EE,ZH
0038BA  05EE
0038BB  C001    	RJMP L696
0038BC  C240    L697:	RJMP L653
0038BD  C247    L696:	RJMP L654
0038BE  3FE6    L695:	CPI ZL,$F6
0038BF  E0A1    	LDI XL,$01
0038C0  07FA    	CPC ZH,XL
0038C1  F4E9    	BRNE L698
0038C2  91E0    	LDS ZL,$05F8
0038C3  05F8
0038C4  91A0    	LDS XL,$05F7
0038C5  05F7
0038C6  27EA    	EOR ZL,XL
0038C7  93E0    	STS $05F7,ZL
0038C8  05F7
0038C9  91E0    	LDS ZL,$05F3
0038CA  05F3
0038CB  91F0    	LDS ZH,$05F4
0038CC  05F4
0038CD  9631    	ADIW ZH:ZL,1
0038CE  93E0    	STS $05F3,ZL
0038CF  05F3
0038D0  93F0    	STS $05F4,ZH
0038D1  05F4
0038D2  91A0    	LDS XL,$05F3
0038D3  05F3
0038D4  91B0    	LDS XH,$05F4
0038D5  05F4
0038D6  971D    	SBIW XH:XL,13
0038D7  F431    	BRNE L699
0038D8  EFE7    	LDI ZL,$F7
0038D9  E0F1    	LDI ZH,$01
0038DA  93E0    	STS $05ED,ZL
0038DB  05ED
0038DC  93F0    	STS $05EE,ZH
0038DD  05EE
0038DE  C226    L699:	RJMP L654
0038DF  3FE7    L698:	CPI ZL,$F7
0038E0  E0A1    	LDI XL,$01
0038E1  07FA    	CPC ZH,XL
0038E2  F419    	BRNE L700
0038E3  940E    	CALL L701
0038E4  31B9
0038E5  C21F    	RJMP L654
0038E6  35E8    L700:	CPI ZL,$58
0038E7  E0A2    	LDI XL,$02
0038E8  07FA    	CPC ZH,XL
0038E9  F419    	BRNE L702
0038EA  940E    	CALL L656
0038EB  2EC2
0038EC  C218    	RJMP L654
0038ED  35E9    L702:	CPI ZL,$59
0038EE  E0A2    	LDI XL,$02
0038EF  07FA    	CPC ZH,XL
0038F0  F419    	BRNE L703
0038F1  940E    	CALL L704
0038F2  3208
0038F3  C211    	RJMP L654
0038F4  35EA    L703:	CPI ZL,$5A
0038F5  E0A2    	LDI XL,$02
0038F6  07FA    	CPC ZH,XL
0038F7  F4E9    	BRNE L705
0038F8  91E0    	LDS ZL,$05F8
0038F9  05F8
0038FA  91A0    	LDS XL,$05F7
0038FB  05F7
0038FC  27EA    	EOR ZL,XL
0038FD  93E0    	STS $05F7,ZL
0038FE  05F7
0038FF  91E0    	LDS ZL,$05F3
003900  05F3
003901  91F0    	LDS ZH,$05F4
003902  05F4
003903  9631    	ADIW ZH:ZL,1
003904  93E0    	STS $05F3,ZL
003905  05F3
003906  93F0    	STS $05F4,ZH
003907  05F4
003908  91A0    	LDS XL,$05F3
003909  05F3
00390A  91B0    	LDS XH,$05F4
00390B  05F4
00390C  9750    	SBIW XH:XL,16
00390D  F431    	BRNE L706
00390E  E5EB    	LDI ZL,$5B
00390F  E0F2    	LDI ZH,$02
003910  93E0    	STS $05ED,ZL
003911  05ED
003912  93F0    	STS $05EE,ZH
003913  05EE
003914  C1F0    L706:	RJMP L654
003915  35EB    L705:	CPI ZL,$5B
003916  E0A2    	LDI XL,$02
003917  07FA    	CPC ZH,XL
003918  F419    	BRNE L707
003919  940E    	CALL L708
00391A  3233
00391B  C1E9    	RJMP L654
00391C  3BEC    L707:	CPI ZL,$BC
00391D  E0A2    	LDI XL,$02
00391E  07FA    	CPC ZH,XL
00391F  F419    	BRNE L709
003920  940E    	CALL L656
003921  2EC2
003922  C1E2    	RJMP L654
003923  3BED    L709:	CPI ZL,$BD
003924  E0A2    	LDI XL,$02
003925  07FA    	CPC ZH,XL
003926  F419    	BRNE L710
003927  940E    	CALL L682
003928  30F9
003929  C1DB    	RJMP L654
00392A  3BEE    L710:	CPI ZL,$BE
00392B  E0A2    	LDI XL,$02
00392C  07FA    	CPC ZH,XL
00392D  F4E9    	BRNE L711
00392E  91E0    	LDS ZL,$05F8
00392F  05F8
003930  91A0    	LDS XL,$05F7
003931  05F7
003932  27EA    	EOR ZL,XL
003933  93E0    	STS $05F7,ZL
003934  05F7
003935  91A0    	LDS XL,$05F8
003936  05F8
003937  30A1    	CPI XL,$01
003938  F011    	BREQ L712
003939  30A2    	CPI XL,$02
00393A  F439    	BRNE L713
00393B  EBEF    L712:	LDI ZL,$BF
00393C  E0F2    	LDI ZH,$02
00393D  93E0    	STS $05ED,ZL
00393E  05ED
00393F  93F0    	STS $05EE,ZH
003940  05EE
003941  C008    	RJMP L714
003942  E0E0    L713:	LDI ZL,$00
003943  93E0    	STS $05ED,ZL
003944  05ED
003945  93E0    	STS $05EE,ZL
003946  05EE
003947  94E8    	BCLR 6
003948  F824    	BLD R2,4
003949  9ADE    	SBI PORTA,PA6
00394A  C1BA    L714:	RJMP L654
00394B  3BEF    L711:	CPI ZL,$BF
00394C  E0A2    	LDI XL,$02
00394D  07FA    	CPC ZH,XL
00394E  F419    	BRNE L715
00394F  940E    	CALL L716
003950  32B8
003951  C1B3    	RJMP L654
003952  32E0    L715:	CPI ZL,$20
003953  E0A3    	LDI XL,$03
003954  07FA    	CPC ZH,XL
003955  F419    	BRNE L717
003956  940E    	CALL L656
003957  2EC2
003958  C1AC    	RJMP L654
003959  32E1    L717:	CPI ZL,$21
00395A  E0A3    	LDI XL,$03
00395B  07FA    	CPC ZH,XL
00395C  F419    	BRNE L718
00395D  940E    	CALL L682
00395E  30F9
00395F  C1A5    	RJMP L654
003960  32E2    L718:	CPI ZL,$22
003961  E0A3    	LDI XL,$03
003962  07FA    	CPC ZH,XL
003963  F419    	BRNE L719
003964  940E    	CALL L684
003965  3127
003966  C19E    	RJMP L654
003967  32E3    L719:	CPI ZL,$23
003968  E0A3    	LDI XL,$03
003969  07FA    	CPC ZH,XL
00396A  F011    	BREQ L720
00396B  940C    	JMP L721
00396C  39B0
00396D  91E0    L720:	LDS ZL,$05F8
00396E  05F8
00396F  91A0    	LDS XL,$05F7
003970  05F7
003971  17EA    	CP ZL,XL
003972  F5E1    	BRNE L722
003973  E1E0    	LDI ZL,$10
003974  93EA    	ST -Y,ZL
003975  E0E1    	LDI ZL,$01
003976  93EA    	ST -Y,ZL
003977  940E    	CALL L570
003978  4315
003979  E0E0    	LDI ZL,$00
00397A  93E0    	STS $05F7,ZL
00397B  05F7
00397C  E0E1    	LDI ZL,$01
00397D  93EA    	ST -Y,ZL
00397E  D703    	RCALL L547
00397F  91A0    	LDS XL,$05F7
003980  05F7
003981  E0E1    	LDI ZL,$01
003982  27EA    	EOR ZL,XL
003983  93E0    	STS $05F7,ZL
003984  05F7
003985  93EA    	ST -Y,ZL
003986  D6FB    	RCALL L547
003987  E0E0    	LDI ZL,$00
003988  93E0    	STS $05ED,ZL
003989  05ED
00398A  93E0    	STS $05EE,ZL
00398B  05EE
00398C  94E8    	BCLR 6
00398D  F824    	BLD R2,4
00398E  9ADE    	SBI PORTA,PA6
00398F  B7E7    	IN ZL,TIMSK
003990  7FEE    	ANDI ZL,$FE
003991  BFE7    	OUT TIMSK,ZL
003992  B7E9    	IN ZL,EIMSK
003993  7BEF    	ANDI ZL,$BF
003994  BFE9    	OUT EIMSK,ZL
003995  9A57    	SBI UCSR0B,RXCIE0
003996  9856    	CBI UCSR0B,TXCIE0
003997  9468    	BSET 6
003998  F822    	BLD R2,2
003999  98DA    	CBI PORTA,PA2
00399A  9ADB    	SBI PORTA,PA3
00399B  98DC    	CBI PORTA,PA4
00399C  940E    	CALL L617
00399D  6E2D
00399E  9627    	ADIW YH:YL,7
00399F  91E9    	LD ZL,Y+
0039A0  BFEF    	OUT SREG,ZL
0039A1  91E9    	LD ZL,Y+
0039A2  BFEB    	OUT RAMPZ,ZL
0039A3  91F9    	LD ZH,Y+
0039A4  91E9    	LD ZL,Y+
0039A5  91B9    	LD XH,Y+
0039A6  91A9    	LD XL,Y+
0039A7  9199    	LD R25,Y+
0039A8  9189    	LD R24,Y+
0039A9  9179    	LD R23,Y+
0039AA  9169    	LD R22,Y+
0039AB  90F9    	LD R15,Y+
0039AC  9019    	LD R1,Y+
0039AD  9009    	LD R0,Y+
0039AE  9518    	RETI
0039AF  C14D    L722:	RJMP L653
0039B0  38E4    L721:	CPI ZL,$84
0039B1  E0A3    	LDI XL,$03
0039B2  07FA    	CPC ZH,XL
0039B3  F419    	BRNE L723
0039B4  940E    	CALL L656
0039B5  2EC2
0039B6  C14E    	RJMP L654
0039B7  38E5    L723:	CPI ZL,$85
0039B8  E0A3    	LDI XL,$03
0039B9  07FA    	CPC ZH,XL
0039BA  F419    	BRNE L724
0039BB  940E    	CALL L682
0039BC  30F9
0039BD  C147    	RJMP L654
0039BE  38E6    L724:	CPI ZL,$86
0039BF  E0A3    	LDI XL,$03
0039C0  07FA    	CPC ZH,XL
0039C1  F419    	BRNE L725
0039C2  940E    	CALL L684
0039C3  3127
0039C4  C140    	RJMP L654
0039C5  38E7    L725:	CPI ZL,$87
0039C6  E0A3    	LDI XL,$03
0039C7  07FA    	CPC ZH,XL
0039C8  F511    	BRNE L726
0039C9  91E0    	LDS ZL,$05F8
0039CA  05F8
0039CB  91A0    	LDS XL,$05F7
0039CC  05F7
0039CD  17EA    	CP ZL,XL
0039CE  F4D9    	BRNE L727
0039CF  E1E1    	LDI ZL,$11
0039D0  93EA    	ST -Y,ZL
0039D1  E0E2    	LDI ZL,$02
0039D2  93EA    	ST -Y,ZL
0039D3  940E    	CALL L570
0039D4  4315
0039D5  E0E0    	LDI ZL,$00
0039D6  93E0    	STS $05F7,ZL
0039D7  05F7
0039D8  925A    	ST -Y,R5
0039D9  D6A8    	RCALL L547
0039DA  2DE5    	MOV ZL,R5
0039DB  91A0    	LDS XL,$05F7
0039DC  05F7
0039DD  27EA    	EOR ZL,XL
0039DE  93E0    	STS $05F7,ZL
0039DF  05F7
0039E0  924A    	ST -Y,R4
0039E1  D6A0    	RCALL L547
0039E2  2DE4    	MOV ZL,R4
0039E3  91A0    	LDS XL,$05F7
0039E4  05F7
0039E5  27EA    	EOR ZL,XL
0039E6  93E0    	STS $05F7,ZL
0039E7  05F7
0039E8  93EA    	ST -Y,ZL
0039E9  D698    	RCALL L547
0039EA  C112    L727:	RJMP L653
0039EB  3EE8    L726:	CPI ZL,$E8
0039EC  E0A3    	LDI XL,$03
0039ED  07FA    	CPC ZH,XL
0039EE  F419    	BRNE L728
0039EF  940E    	CALL L656
0039F0  2EC2
0039F1  C113    	RJMP L654
0039F2  3EE9    L728:	CPI ZL,$E9
0039F3  E0A3    	LDI XL,$03
0039F4  07FA    	CPC ZH,XL
0039F5  F419    	BRNE L729
0039F6  940E    	CALL L682
0039F7  30F9
0039F8  C10C    	RJMP L654
0039F9  3EEA    L729:	CPI ZL,$EA
0039FA  E0A3    	LDI XL,$03
0039FB  07FA    	CPC ZH,XL
0039FC  F419    	BRNE L730
0039FD  940E    	CALL L684
0039FE  3127
0039FF  C105    	RJMP L654
003A00  3EEB    L730:	CPI ZL,$EB
003A01  E0A3    	LDI XL,$03
003A02  07FA    	CPC ZH,XL
003A03  F521    	BRNE L731
003A04  91E0    	LDS ZL,$05F8
003A05  05F8
003A06  91A0    	LDS XL,$05F7
003A07  05F7
003A08  17EA    	CP ZL,XL
003A09  F4E9    	BRNE L732
003A0A  E1E2    	LDI ZL,$12
003A0B  93EA    	ST -Y,ZL
003A0C  E0E2    	LDI ZL,$02
003A0D  93EA    	ST -Y,ZL
003A0E  940E    	CALL L570
003A0F  4315
003A10  E0E0    	LDI ZL,$00
003A11  93E0    	STS $05F7,ZL
003A12  05F7
003A13  E0E2    	LDI ZL,$02
003A14  93EA    	ST -Y,ZL
003A15  D66C    	RCALL L547
003A16  91A0    	LDS XL,$05F7
003A17  05F7
003A18  E0E2    	LDI ZL,$02
003A19  27EA    	EOR ZL,XL
003A1A  93E0    	STS $05F7,ZL
003A1B  05F7
003A1C  E0E1    	LDI ZL,$01
003A1D  93EA    	ST -Y,ZL
003A1E  D663    	RCALL L547
003A1F  91A0    	LDS XL,$05F7
003A20  05F7
003A21  E0E1    	LDI ZL,$01
003A22  27EA    	EOR ZL,XL
003A23  93E0    	STS $05F7,ZL
003A24  05F7
003A25  93EA    	ST -Y,ZL
003A26  D65B    	RCALL L547
003A27  C0D5    L732:	RJMP L653
003A28  34EC    L731:	CPI ZL,$4C
003A29  E0A4    	LDI XL,$04
003A2A  07FA    	CPC ZH,XL
003A2B  F419    	BRNE L733
003A2C  940E    	CALL L656
003A2D  2EC2
003A2E  C0D6    	RJMP L654
003A2F  34ED    L733:	CPI ZL,$4D
003A30  E0A4    	LDI XL,$04
003A31  07FA    	CPC ZH,XL
003A32  F419    	BRNE L734
003A33  940E    	CALL L682
003A34  30F9
003A35  C0CF    	RJMP L654
003A36  34EE    L734:	CPI ZL,$4E
003A37  E0A4    	LDI XL,$04
003A38  07FA    	CPC ZH,XL
003A39  F419    	BRNE L735
003A3A  940E    	CALL L684
003A3B  3127
003A3C  C0C8    	RJMP L654
003A3D  34EF    L735:	CPI ZL,$4F
003A3E  E0A4    	LDI XL,$04
003A3F  07FA    	CPC ZH,XL
003A40  F449    	BRNE L736
003A41  91E0    	LDS ZL,$05F8
003A42  05F8
003A43  91A0    	LDS XL,$05F7
003A44  05F7
003A45  17EA    	CP ZL,XL
003A46  F411    	BRNE L737
003A47  9468    	BSET 6
003A48  F834    	BLD R3,4
003A49  C0B3    L737:	RJMP L653
003A4A  3BE0    L736:	CPI ZL,$B0
003A4B  E0A4    	LDI XL,$04
003A4C  07FA    	CPC ZH,XL
003A4D  F419    	BRNE L738
003A4E  940E    	CALL L656
003A4F  2EC2
003A50  C0B4    	RJMP L654
003A51  3BE1    L738:	CPI ZL,$B1
003A52  E0A4    	LDI XL,$04
003A53  07FA    	CPC ZH,XL
003A54  F419    	BRNE L739
003A55  940E    	CALL L682
003A56  30F9
003A57  C0AD    	RJMP L654
003A58  3BE2    L739:	CPI ZL,$B2
003A59  E0A4    	LDI XL,$04
003A5A  07FA    	CPC ZH,XL
003A5B  F4F1    	BRNE L740
003A5C  91E0    	LDS ZL,$05F8
003A5D  05F8
003A5E  91A0    	LDS XL,$05F7
003A5F  05F7
003A60  27EA    	EOR ZL,XL
003A61  93E0    	STS $05F7,ZL
003A62  05F7
003A63  91A0    	LDS XL,$05F8
003A64  05F8
003A65  34A0    	CPI XL,$40
003A66  F450    	BRCC L741
003A67  91E0    	LDS ZL,$05ED
003A68  05ED
003A69  91F0    	LDS ZH,$05EE
003A6A  05EE
003A6B  9631    	ADIW ZH:ZL,1
003A6C  93E0    	STS $05ED,ZL
003A6D  05ED
003A6E  93F0    	STS $05EE,ZH
003A6F  05EE
003A70  C008    	RJMP L742
003A71  E0E0    L741:	LDI ZL,$00
003A72  93E0    	STS $05ED,ZL
003A73  05ED
003A74  93E0    	STS $05EE,ZL
003A75  05EE
003A76  94E8    	BCLR 6
003A77  F824    	BLD R2,4
003A78  9ADE    	SBI PORTA,PA6
003A79  C08B    L742:	RJMP L654
003A7A  3BE3    L740:	CPI ZL,$B3
003A7B  E0A4    	LDI XL,$04
003A7C  07FA    	CPC ZH,XL
003A7D  F011    	BREQ L743
003A7E  940C    	JMP L744
003A7F  3ADC
003A80  91E0    L743:	LDS ZL,$05F8
003A81  05F8
003A82  91A0    	LDS XL,$05F7
003A83  05F7
003A84  17EA    	CP ZL,XL
003A85  F011    	BREQ L745
003A86  940C    	JMP L746
003A87  3ADB
003A88  91E0    L745:	LDS ZL,$05EA
003A89  05EA
003A8A  30E7    	CPI ZL,$07
003A8B  F411    	BRNE L747
003A8C  9468    	BSET 6
003A8D  F823    	BLD R2,3
003A8E  E1E4    L747:	LDI ZL,$14
003A8F  93EA    	ST -Y,ZL
003A90  E0E1    	LDI ZL,$01
003A91  93EA    	ST -Y,ZL
003A92  940E    	CALL L570
003A93  4315
003A94  E0E0    	LDI ZL,$00
003A95  93E0    	STS $05F7,ZL
003A96  05F7
003A97  91E0    	LDS ZL,$05EA
003A98  05EA
003A99  93EA    	ST -Y,ZL
003A9A  D5E7    	RCALL L547
003A9B  91E0    	LDS ZL,$05EA
003A9C  05EA
003A9D  91A0    	LDS XL,$05F7
003A9E  05F7
003A9F  27EA    	EOR ZL,XL
003AA0  93E0    	STS $05F7,ZL
003AA1  05F7
003AA2  93EA    	ST -Y,ZL
003AA3  D5DE    	RCALL L547
003AA4  E0E0    	LDI ZL,$00
003AA5  93E0    	STS $05ED,ZL
003AA6  05ED
003AA7  93E0    	STS $05EE,ZL
003AA8  05EE
003AA9  94E8    	BCLR 6
003AAA  F824    	BLD R2,4
003AAB  9ADE    	SBI PORTA,PA6
003AAC  9A56    	SBI UCSR0B,TXCIE0
003AAD  B7E9    	IN ZL,EIMSK
003AAE  64E0    	ORI ZL,$40
003AAF  BFE9    	OUT EIMSK,ZL
003AB0  9468    	BSET 6
003AB1  F832    	BLD R3,2
003AB2  E0AE    	LDI XL,$0E
003AB3  E0B0    	LDI XH,$00
003AB4  940E    	CALL L545
003AB5  6C7C
003AB6  93E0    	STS $05F9,ZL
003AB7  05F9
003AB8  E1A3    	LDI XL,$13
003AB9  E0B0    	LDI XH,$00
003ABA  940E    	CALL L545
003ABB  6C7C
003ABC  93E0    	STS $05FA,ZL
003ABD  05FA
003ABE  E1A8    	LDI XL,$18
003ABF  E0B0    	LDI XH,$00
003AC0  940E    	CALL L545
003AC1  6C7C
003AC2  93E0    	STS $05FB,ZL
003AC3  05FB
003AC4  91E0    	LDS ZL,$05EA
003AC5  05EA
003AC6  93E0    	STS $05FC,ZL
003AC7  05FC
003AC8  940E    	CALL L617
003AC9  6E2D
003ACA  9627    	ADIW YH:YL,7
003ACB  91E9    	LD ZL,Y+
003ACC  BFEF    	OUT SREG,ZL
003ACD  91E9    	LD ZL,Y+
003ACE  BFEB    	OUT RAMPZ,ZL
003ACF  91F9    	LD ZH,Y+
003AD0  91E9    	LD ZL,Y+
003AD1  91B9    	LD XH,Y+
003AD2  91A9    	LD XL,Y+
003AD3  9199    	LD R25,Y+
003AD4  9189    	LD R24,Y+
003AD5  9179    	LD R23,Y+
003AD6  9169    	LD R22,Y+
003AD7  90F9    	LD R15,Y+
003AD8  9019    	LD R1,Y+
003AD9  9009    	LD R0,Y+
003ADA  9518    	RETI
003ADB  C021    L746:	RJMP L653
003ADC  31E4    L744:	CPI ZL,$14
003ADD  E0A5    	LDI XL,$05
003ADE  07FA    	CPC ZH,XL
003ADF  F419    	BRNE L748
003AE0  940E    	CALL L656
003AE1  2EC2
003AE2  C022    	RJMP L654
003AE3  31E5    L748:	CPI ZL,$15
003AE4  E0A5    	LDI XL,$05
003AE5  07FA    	CPC ZH,XL
003AE6  F419    	BRNE L749
003AE7  940E    	CALL L682
003AE8  30F9
003AE9  C01B    	RJMP L654
003AEA  31E6    L749:	CPI ZL,$16
003AEB  E0A5    	LDI XL,$05
003AEC  07FA    	CPC ZH,XL
003AED  F419    	BRNE L750
003AEE  940E    	CALL L684
003AEF  3127
003AF0  C014    	RJMP L654
003AF1  31E7    L750:	CPI ZL,$17
003AF2  E0A5    	LDI XL,$05
003AF3  07FA    	CPC ZH,XL
003AF4  F481    	BRNE L654
003AF5  91E0    	LDS ZL,$05F8
003AF6  05F8
003AF7  91A0    	LDS XL,$05F7
003AF8  05F7
003AF9  17EA    	CP ZL,XL
003AFA  F411    	BRNE L653
003AFB  9468    	BSET 6
003AFC  F835    	BLD R3,5
003AFD  E0E0    L653:	LDI ZL,$00
003AFE  93E0    	STS $05ED,ZL
003AFF  05ED
003B00  93E0    	STS $05EE,ZL
003B01  05EE
003B02  94E8    	BCLR 6
003B03  F824    	BLD R2,4
003B04  9ADE    	SBI PORTA,PA6
003B05  9A56    L654:	SBI UCSR0B,TXCIE0
003B06  B7E9    	IN ZL,EIMSK
003B07  64E0    	ORI ZL,$40
003B08  BFE9    	OUT EIMSK,ZL
003B09  940E    	CALL L617
003B0A  6E2D
003B0B  9627    	ADIW YH:YL,7
003B0C  91E9    	LD ZL,Y+
003B0D  BFEF    	OUT SREG,ZL
003B0E  91E9    	LD ZL,Y+
003B0F  BFEB    	OUT RAMPZ,ZL
003B10  91F9    	LD ZH,Y+
003B11  91E9    	LD ZL,Y+
003B12  91B9    	LD XH,Y+
003B13  91A9    	LD XL,Y+
003B14  9199    	LD R25,Y+
003B15  9189    	LD R24,Y+
003B16  9179    	LD R23,Y+
003B17  9169    	LD R22,Y+
003B18  90F9    	LD R15,Y+
003B19  9019    	LD R1,Y+
003B1A  9009    	LD R0,Y+
003B1B  9518    	RETI

#####################

ISR TIMER1 OVF

#####################

003B1C  920A    L6:	ST -Y,R0
003B1D  93AA    	ST -Y,XL
003B1E  93BA    	ST -Y,XH
003B1F  93EA    	ST -Y,ZL
003B20  93FA    	ST -Y,ZH
003B21  B7EF    	IN ZL,SREG
003B22  93EA    	ST -Y,ZL
003B23  E1E9    	LDI ZL,$19          'RESET TIMER
003B24  BFE2    	OUT TCNT0,ZL
003B25  91A0    	LDS XL,$0503
003B26  0503
003B27  91B0    	LDS XH,$0504
003B28  0504
003B29  9611    	ADIW XH:XL,1
003B2A  93A0    	STS $0503,XL
003B2B  0503
003B2C  93B0    	STS $0504,XH
003B2D  0504
003B2E  3EA8    	CPI XL,$E8
003B2F  E0E3    	LDI ZL,$03
003B30  07BE    	CPC XH,ZL
003B31  F410    	BRCC L751
003B32  940C    	JMP L752
003B33  3B76
003B34  E0E0    L751:	LDI ZL,$00
003B35  93E0    	STS $0503,ZL
003B36  0503
003B37  93E0    	STS $0504,ZL
003B38  0504
003B39  91A0    	LDS XL,$0508
003B3A  0508
003B3B  91B0    	LDS XH,$0509
003B3C  0509
003B3D  940E    	CALL L753
003B3E  6E1E
003B3F  F448    	BRCC L754
003B40  91E0    	LDS ZL,$0508
003B41  0508
003B42  91F0    	LDS ZH,$0509
003B43  0509
003B44  9731    	SBIW ZH:ZL,1
003B45  93E0    	STS $0508,ZL
003B46  0508
003B47  93F0    	STS $0509,ZH
003B48  0509
003B49  91A0    L754:	LDS XL,$0505
003B4A  0505
003B4B  5FAF    	SUBI XL,$FF
003B4C  93A0    	STS $0505,XL
003B4D  0505
003B4E  33AC    	CPI XL,$3C
003B4F  F130    	BRCS L752
003B50  E0E0    	LDI ZL,$00
003B51  93E0    	STS $0505,ZL
003B52  0505
003B53  91A0    	LDS XL,$050A
003B54  050A
003B55  91B0    	LDS XH,$050B
003B56  050B
003B57  940E    	CALL L753
003B58  6E1E
003B59  F448    	BRCC L755
003B5A  91E0    	LDS ZL,$050A
003B5B  050A
003B5C  91F0    	LDS ZH,$050B
003B5D  050B
003B5E  9731    	SBIW ZH:ZL,1
003B5F  93E0    	STS $050A,ZL
003B60  050A
003B61  93F0    	STS $050B,ZH
003B62  050B
003B63  91A0    L755:	LDS XL,$0506
003B64  0506
003B65  5FAF    	SUBI XL,$FF
003B66  93A0    	STS $0506,XL
003B67  0506
003B68  33AC    	CPI XL,$3C
003B69  F060    	BRCS L752
003B6A  E0E0    	LDI ZL,$00
003B6B  93E0    	STS $0506,ZL
003B6C  0506
003B6D  91A0    	LDS XL,$0507
003B6E  0507
003B6F  5FAF    	SUBI XL,$FF
003B70  93A0    	STS $0507,XL
003B71  0507
003B72  31A8    	CPI XL,$18
003B73  F010    	BRCS L752
003B74  93E0    	STS $0507,ZL
003B75  0507
003B76  91E9    L752:	LD ZL,Y+
003B77  BFEF    	OUT SREG,ZL
003B78  91F9    	LD ZH,Y+
003B79  91E9    	LD ZL,Y+
003B7A  91B9    	LD XH,Y+
003B7B  91A9    	LD XL,Y+
003B7C  9009    	LD R0,Y+
003B7D  9518    	RETI


003B7E  920A    L5:	ST -Y,R0
003B7F  921A    	ST -Y,R1
003B80  92FA    	ST -Y,R15
003B81  936A    	ST -Y,R22
003B82  937A    	ST -Y,R23
003B83  938A    	ST -Y,R24
003B84  939A    	ST -Y,R25
003B85  93AA    	ST -Y,XL
003B86  93BA    	ST -Y,XH
003B87  93EA    	ST -Y,ZL
003B88  93FA    	ST -Y,ZH
003B89  B7EB    	IN ZL,RAMPZ
003B8A  93EA    	ST -Y,ZL
003B8B  B7EF    	IN ZL,SREG
003B8C  93EA    	ST -Y,ZL
003B8D  91E0    	LDS ZL,$0784
003B8E  0784
003B8F  91F0    	LDS ZH,$0785
003B90  0785
003B91  91A0    	LDS XL,$0619
003B92  0619
003B93  91B0    	LDS XH,$061A
003B94  061A
003B95  17EA    	CP ZL,XL
003B96  07FB    	CPC ZH,XH
003B97  F4E9    	BRNE L756
003B98  E0E0    	LDI ZL,$00
003B99  93E0    	STS $0619,ZL
003B9A  0619
003B9B  93E0    	STS $061A,ZL
003B9C  061A
003B9D  9ADD    	SBI PORTA,PA5
003B9E  94E8    	BCLR 6
003B9F  F820    	BLD R2,0
003BA0  B7E7    	IN ZL,TIMSK
003BA1  7FEB    	ANDI ZL,$FB
003BA2  BFE7    	OUT TIMSK,ZL
003BA3  E0E0    	LDI ZL,$00
003BA4  BDEE    	OUT TCCR1B,ZL
003BA5  91E9    	LD ZL,Y+
003BA6  BFEF    	OUT SREG,ZL
003BA7  91E9    	LD ZL,Y+
003BA8  BFEB    	OUT RAMPZ,ZL
003BA9  91F9    	LD ZH,Y+
003BAA  91E9    	LD ZL,Y+
003BAB  91B9    	LD XH,Y+
003BAC  91A9    	LD XL,Y+
003BAD  9199    	LD R25,Y+
003BAE  9189    	LD R24,Y+
003BAF  9179    	LD R23,Y+
003BB0  9169    	LD R22,Y+
003BB1  90F9    	LD R15,Y+
003BB2  9019    	LD R1,Y+
003BB3  9009    	LD R0,Y+
003BB4  9518    	RETI


003BB5  91E0    L756:	LDS ZL,$061B
003BB6  061B
003BB7  91F0    	LDS ZH,$061C
003BB8  061C
003BB9  BDFD    	OUT TCNT1H,ZH
003BBA  BDEC    	OUT TCNT1L,ZL
003BBB  B7E6    	IN ZL,TIFR
003BBC  60E4    	ORI ZL,$04
003BBD  BFE6    	OUT TIFR,ZL
003BBE  B7E7    	IN ZL,TIMSK
003BBF  60E4    	ORI ZL,$04
003BC0  BFE7    	OUT TIMSK,ZL
003BC1  940E    	CALL L757
003BC2  4B0F
003BC3  940E    	CALL L758
003BC4  4B23
003BC5  91E9    	LD ZL,Y+
003BC6  BFEF    	OUT SREG,ZL
003BC7  91E9    	LD ZL,Y+
003BC8  BFEB    	OUT RAMPZ,ZL
003BC9  91F9    	LD ZH,Y+
003BCA  91E9    	LD ZL,Y+
003BCB  91B9    	LD XH,Y+
003BCC  91A9    	LD XL,Y+
003BCD  9199    	LD R25,Y+
003BCE  9189    	LD R24,Y+
003BCF  9179    	LD R23,Y+
003BD0  9169    	LD R22,Y+
003BD1  90F9    	LD R15,Y+
003BD2  9019    	LD R1,Y+
003BD3  9009    	LD R0,Y+
003BD4  9518    	RETI

#############################################################

INT 4

#############################################################

003BD5  920A    L3:	ST -Y,R0
003BD6  921A    	ST -Y,R1
003BD7  92FA    	ST -Y,R15
003BD8  936A    	ST -Y,R22
003BD9  937A    	ST -Y,R23
003BDA  938A    	ST -Y,R24
003BDB  939A    	ST -Y,R25
003BDC  93AA    	ST -Y,XL
003BDD  93BA    	ST -Y,XH
003BDE  93EA    	ST -Y,ZL
003BDF  93FA    	ST -Y,ZH
003BE0  B7EB    	IN ZL,RAMPZ
003BE1  93EA    	ST -Y,ZL
003BE2  B7EF    	IN ZL,SREG
003BE3  93EA    	ST -Y,ZL
003BE4  940E    	CALL L594
003BE5  6E29
003BE6  E085    	LDI R24,$05
003BE7  958A    L759:	DEC R24
003BE8  F7F1    	BRNE L759
003BE9  B101    	IN R16,PINE
003BEA  FF04    	SBRS R16,4
003BEB  C01D    	RJMP L760
003BEC  E0E0    	LDI ZL,$00
003BED  93E0    	STS $0089,ZL
003BEE  0089
003BEF  93E0    	STS $0088,ZL
003BF0  0088
003BF1  EDE0    	LDI ZL,$D0
003BF2  E5FC    	LDI ZH,$5C
003BF3  E060    	LDI R22,$00
003BF4  940E    	CALL L761
003BF5  6C66
003BF6  91E0    	LDS ZL,$0089
003BF7  0089
003BF8  27FF    	CLR ZH
003BF9  2766    	CLR R22
003BFA  2777    	CLR R23
003BFB  940E    	CALL L761
003BFC  6C66
003BFD  91E0    	LDS ZL,$0088
003BFE  0088
003BFF  27FF    	CLR ZH
003C00  2766    	CLR R22
003C01  2777    	CLR R23
003C02  940E    	CALL L761
003C03  6C66
003C04  E088    	LDI R24,$08
003C05  940E    	CALL L762
003C06  6B1E
003C07  962C    	ADIW YH:YL,12
003C08  C029    	RJMP L763
003C09  91E0    L760:	LDS ZL,$0089
003C0A  0089
003C0B  2FFE    	MOV ZH,ZL
003C0C  E0E0    	LDI ZL,$00
003C0D  01DF    	MOVW R27:R26,R31:R30
003C0E  91E0    	LDS ZL,$0088
003C0F  0088
003C10  E0F0    	LDI ZH,$00
003C11  2BEA    	OR ZL,XL
003C12  2BFB    	OR ZH,XH
003C13  2F1E    	MOV R17,ZL
003C14  2F2F    	MOV R18,ZH
003C15  EEE2    	LDI ZL,$E2
003C16  E5FC    	LDI ZH,$5C
003C17  E060    	LDI R22,$00
003C18  940E    	CALL L761
003C19  6C66
003C1A  91E0    	LDS ZL,$0089
003C1B  0089
003C1C  27FF    	CLR ZH
003C1D  2766    	CLR R22
003C1E  2777    	CLR R23
003C1F  940E    	CALL L761
003C20  6C66
003C21  91E0    	LDS ZL,$0088
003C22  0088
003C23  27FF    	CLR ZH
003C24  2766    	CLR R22
003C25  2777    	CLR R23
003C26  940E    	CALL L761
003C27  6C66
003C28  E088    	LDI R24,$08
003C29  940E    	CALL L762
003C2A  6B1E
003C2B  962C    	ADIW YH:YL,12
003C2C  9320    	STS $0602,R18
003C2D  0602
003C2E  2FE1    	MOV ZL,R17
003C2F  2FF2    	MOV ZH,R18
003C30  93E0    	STS $0603,ZL
003C31  0603
003C32  940E    L763:	CALL L605
003C33  6E30
003C34  9623    	ADIW YH:YL,3
003C35  91E9    	LD ZL,Y+
003C36  BFEF    	OUT SREG,ZL
003C37  91E9    	LD ZL,Y+
003C38  BFEB    	OUT RAMPZ,ZL
003C39  91F9    	LD ZH,Y+
003C3A  91E9    	LD ZL,Y+
003C3B  91B9    	LD XH,Y+
003C3C  91A9    	LD XL,Y+
003C3D  9199    	LD R25,Y+
003C3E  9189    	LD R24,Y+
003C3F  9179    	LD R23,Y+
003C40  9169    	LD R22,Y+
003C41  90F9    	LD R15,Y+
003C42  9019    	LD R1,Y+
003C43  9009    	LD R0,Y+
003C44  9518    	RETI

###################

 ISR(6) - Read IR ??

###################

003C45  920A    L4:	ST -Y,R0  
003C46  921A    	ST -Y,R1
003C47  936A    	ST -Y,R22
003C48  937A    	ST -Y,R23
003C49  93AA    	ST -Y,XL
003C4A  93BA    	ST -Y,XH
003C4B  93EA    	ST -Y,ZL
003C4C  93FA    	ST -Y,ZH
003C4D  B7EF    	IN ZL,SREG
003C4E  93EA    	ST -Y,ZL
003C4F  940E    	CALL L594
003C50  6E29
003C51  B504    	IN R16,TCNT2       Read timer counter
003C52  E0E0    	LDI ZL,$00
003C53  BDE4    	OUT TCNT2,ZL       Set timer counter
003C54  91A0    	LDS XL,$05FD
003C55  05FD
003C56  3FAF    	CPI XL,$FF
003C57  F4C1    	BRNE L764
003C58  330F    	CPI R16,$3F        '83 = Max value from IR controller #+0  ?
003C59  F010    	BRCS L765 
003C5A  3502    	CPI R16,$52        '82
003C5B  F008    	BRCS L766
003C5C  C012    L765:	RJMP L767
003C5D  E0E0    L766:	LDI ZL,$00
003C5E  93E0    	STS $05FD,ZL
003C5F  05FD
003C60  E010    	LDI R17,$00              vnt=0;
003C61  E020    	LDI R18,$00
003C62  3014    L768:	CPI R17,$04
003C63  E0E0    	LDI ZL,$00
003C64  072E    	CPC R18,ZL
003C65  F448    	BRCC L767
003C66  EFA9    	LDI XL,$F9           l
003C67  E0B5    	LDI XH,$05
003C68  0FA1    	ADD XL,R17
003C69  1FB2    	ADC XH,R18
003C6A  E0E0    	LDI ZL,$00
003C6B  93EC    	ST X,ZL                    5F9 + cnt =0
003C6C  5F1F    	SUBI R17,$FF               dec cnt
003C6D  4F2F    	SBCI R18,$FF
003C6E  CFF3    	RJMP L768
003C6F  C037    L767:	RJMP L769
003C70  300A    L764:	CPI R16,$0A
003C71  F010    	BRCS L770
003C72  3103    	CPI R16,$13
003C73  F008    	BRCS L771
003C74  C004    L770:	RJMP L772
003C75  91E0    L771:	LDS ZL,$05FD
003C76  05FD
003C77  5FEF    	SUBI ZL,$FF
003C78  C023    	RJMP L773
003C79  3103    L772:	CPI R16,$13
003C7A  F010    	BRCS L774
003C7B  310B    	CPI R16,$1B
003C7C  F008    	BRCS L775
003C7D  C01D    L774:	RJMP L776
003C7E  91E0    L775:	LDS ZL,$05FD
003C7F  05FD
003C80  30E0    	CPI ZL,$00               IF 5FD==0
003C81  F091    	BREQ L777
003C82  95E6    	LSR ZL
003C83  95E6    	LSR ZL
003C84  95E6    	LSR ZL
003C85  E0F0    	LDI ZH,$00
003C86  50E7    	SUBI ZL,$07
003C87  4FFA    	SBCI ZH,$FA
003C88  01BF    	MOVW R23:R22,R31:R30
003C89  8010    	LD R1,Z
003C8A  91E0    	LDS ZL,$05FD
003C8B  05FD
003C8C  70E7    	ANDI ZL,$07
003C8D  E0A1    	LDI XL,$01
003C8E  940E    	CALL L778
003C8F  6BB2
003C90  29E1    	OR ZL,R1
003C91  01DB    	MOVW R27:R26,R23:R22
003C92  93EC    	ST X,ZL
003C93  C003    	RJMP L779
003C94  E0E1    L777:	LDI ZL,$01
003C95  93E0    	STS $05F9,ZL          '$05F9 = 1
003C96  05F9
003C97  91E0    L779:	LDS ZL,$05FD
003C98  05FD
003C99  5FEF    	SUBI ZL,$FF
003C9A  C001    	RJMP L773
003C9B  EFEF    L776:	LDI ZL,$FF
003C9C  93E0    L773:	STS $05FD,ZL
003C9D  05FD
003C9E  91A0    	LDS XL,$05FD
003C9F  05FD
003CA0  32A0    	CPI XL,$20
003CA1  F429    	BRNE L769
003CA2  9468    	BSET 6               Clear 
003CA3  F832    	BLD R3,2
003CA4  EFEF    	LDI ZL,$FF            
003CA5  93E0    	STS $05FD,ZL          $0F5D = -1
003CA6  05FD
003CA7  940E    L769:	CALL L605
003CA8  6E30
003CA9  9623    	ADIW YH:YL,3
003CAA  91E9    	LD ZL,Y+
003CAB  BFEF    	OUT SREG,ZL
003CAC  91F9    	LD ZH,Y+
003CAD  91E9    	LD ZL,Y+
003CAE  91B9    	LD XH,Y+
003CAF  91A9    	LD XL,Y+
003CB0  9179    	LD R23,Y+
003CB1  9169    	LD R22,Y+
003CB2  9019    	LD R1,Y+
003CB3  9009    	LD R0,Y+
003CB4  9518    	RETI

###################

ISR (ADC)  - PSD or Power Voltage or Mic
channel 0,1,15

606 channel
618 Temp
616 PSD
617 Mic 
611 Voltage 
612

###################



003CB5  920A    L9:	ST -Y,R0
003CB6  921A    	ST -Y,R1
003CB7  93AA    	ST -Y,XL
003CB8  93EA    	ST -Y,ZL
003CB9  93FA    	ST -Y,ZH
003CBA  B7EF    	IN ZL,SREG
003CBB  93EA    	ST -Y,ZL
003CBC  931A    	ST -Y,R17
003CBD  930A    	ST -Y,R16
003CBE  B1E5    	IN ZL,ADCH
003CBF  93E0    	STS $0618,ZL    temp = ADCH
003CC0  0618
003CC1  91E0    	LDS ZL,$0606     'channel id   (0,1,F)
003CC2  0606
003CC3  30E0    	CPI ZL,$00         channel 0
003CC4  F429    	BRNE L780
003CC5  91E0    	LDS ZL,$0618     'Get value ADC
003CC6  0618
003CC7  93E0    	STS $0616,ZL    '$616 = PSD value
003CC8  0616
003CC9  C01B    	RJMP L781
003CCA  30E1    L780:	CPI ZL,$01
003CCB  F469    	BRNE L782
003CCC  9100    	LDS R16,$0618     get ADC value
003CCD  0618
003CCE  2711    	CLR R17
003CCF  E3A9    	LDI XL,$39       'ADC*51 ?
003CD0  9FA0    	MUL XL,R16
003CD1  01F0    	MOVW R31:R30,R1:R0
003CD2  9FA1    	MUL XL,R17
003CD3  0DF0    	ADD ZH,R0
003CD4  93E0    	STS $0611,ZL      '10 bit precision ???
003CD5  0611
003CD6  93F0    	STS $0612,ZH      'voltage
003CD7  0612
003CD8  C00C    	RJMP L781
003CD9  30EF    L782:	CPI ZL,$0F      channel 15 ?
003CDA  F451    	BRNE L781
003CDB  91A0    	LDS XL,$0618      'GET ADCH value
003CDC  0618
003CDD  3EA6    	CPI XL,$E6         'ADC= 230
003CDE  F418    	BRCC L783
003CDF  91E0    	LDS ZL,$0618      
003CE0  0618
003CE1  C001    	RJMP L784
003CE2  E0E0    L783:	LDI ZL,$00
003CE3  93E0    L784:	STS $0617,ZL     value = 0 < ADC < 230
003CE4  0617
003CE5  94E8    L781:	BCLR 6         
003CE6  F827    	BLD R2,7            '
003CE7  9109    	LD R16,Y+
003CE8  9119    	LD R17,Y+
003CE9  91E9    	LD ZL,Y+
003CEA  BFEF    	OUT SREG,ZL
003CEB  91F9    	LD ZH,Y+
003CEC  91E9    	LD ZL,Y+
003CED  91A9    	LD XL,Y+
003CEE  9019    	LD R1,Y+
003CEF  9009    	LD R0,Y+
003CF0  9518    	RETI

#####################

Start conversion  (x)
X=DC   = 1101 1100      ADEN | ADSC | ACIF | ACIE | ADSPS2
x=ED   = 1110 1101      ADEN | ADSC | ADFR | ACIE | ADSPS2 | ADSP0
x=0    = 0000 0000

0	ADMUX = 20
1           21
F           2F


#####################

003CF1  91E0    L1258:	LDS ZL,$0606    'Channel ID ?
003CF2  0606
003CF3  62E0    	ORI ZL,$20         (SET ADLAR )  
003CF4  B9E7    	OUT ADMUX,ZL      ' ADMUX=(ADMUX&0x20)|channel;
003CF5  81E8    	LD ZL,Y
003CF6  B9E6    	OUT ADCSRA,ZL     '	ADCSRA |= (1<<ADSC)|(1<<ADIE);

003CF7  9621    	ADIW YH:YL,1
003CF8  9508    	RET

###########

what is this doing ???????????????????????????????????????????????

###########


003CF9  FC24    L794:	SBRC R2,4   'skip if Bit 4 set  &0x10
003CFA  9508    	RET


003CFB  FE25    	SBRS R2,5       'skip if bit 5 set   &0x20
003CFC  C025    	RJMP L785
003CFD  91A0    	LDS XL,$0611
003CFE  0611
003CFF  91B0    	LDS XH,$0612
003D00  0612
003D01  31AC    	CPI XL,$1C       ' 28 ?
003D02  E2E5    	LDI ZL,$25       '37?
003D03  07BE    	CPC XH,ZL
003D04  F030    	BRCS L786
003D05  E0E0    	LDI ZL,$00
003D06  93E0    	STS $050E,ZL      'set 0x050E=0x0000;
003D07  050E
003D08  93E0    	STS $050F,ZL
003D09  050F
003D0A  C009    	RJMP L787
003D0B  91E0    L786:	LDS ZL,$050E
003D0C  050E
003D0D  91F0    	LDS ZH,$050F
003D0E  050F
003D0F  9631    	ADIW ZH:ZL,1
003D10  93E0    	STS $050E,ZL        inc (0xo50E)
003D11  050E
003D12  93F0    	STS $050F,ZH
003D13  050F
003D14  91A0    L787:	LDS XL,$050E
003D15  050E
003D16  91B0    	LDS XH,$050F
003D17  050F
003D18  9717    	SBIW XH:XL,7
003D19  F038    	BRCS L788
003D1A  94E8    	BCLR 6
003D1B  F825    	BLD R2,5
003D1C  E0E0    	LDI ZL,$00
003D1D  93E0    	STS $050E,ZL
003D1E  050E
003D1F  93E0    	STS $050F,ZL
003D20  050F
003D21  C029    L788:	RJMP L789
003D22  91A0    L785:	LDS XL,$0611
003D23  0611
003D24  91B0    	LDS XH,$0612
003D25  0612
003D26  31AC    	CPI XL,$1C
003D27  E2E5    	LDI ZL,$25
003D28  07BE    	CPC XH,ZL
003D29  F078    	BRCS L790
003D2A  E0E0    	LDI ZL,$00
003D2B  93E0    	STS $050E,ZL
003D2C  050E
003D2D  93E0    	STS $050F,ZL
003D2E  050F
003D2F  91E0    	LDS ZL,$050C
003D30  050C
003D31  91F0    	LDS ZH,$050D
003D32  050D
003D33  9631    	ADIW ZH:ZL,1
003D34  93E0    	STS $050C,ZL
003D35  050C
003D36  93F0    	STS $050D,ZH
003D37  050D
003D38  C005    	RJMP L791
003D39  E0E0    L790:	LDI ZL,$00
003D3A  93E0    	STS $050C,ZL
003D3B  050C
003D3C  93E0    	STS $050D,ZL
003D3D  050D
003D3E  91A0    L791:	LDS XL,$050C
003D3F  050C
003D40  91B0    	LDS XH,$050D
003D41  050D
003D42  9713    	SBIW XH:XL,3
003D43  F038    	BRCS L789
003D44  9468    	BSET 6
003D45  F825    	BLD R2,5
003D46  E0E0    	LDI ZL,$00
003D47  93E0    	STS $050C,ZL
003D48  050C
003D49  93E0    	STS $050D,ZL
003D4A  050D
003D4B  9508    L789:	RET

####################


####################

003D4C  9468    L1221:	BSET 6
003D4D  F826    	BLD R2,6
003D4E  E0E5    	LDI ZL,$05
003D4F  E0F0    	LDI ZH,$00
003D50  93E0    	STS $050A,ZL
003D51  050A
003D52  93F0    	STS $050B,ZH
003D53  050B
003D54  91E0    L795:	LDS ZL,$050A        ' while () {
003D55  050A
003D56  91F0    	LDS ZH,$050B
003D57  050B
003D58  9730    	SBIW ZH:ZL,0
003D59  F161    	BREQ L792
003D5A  9AAF    	SBI PORTC,PC7          'Power LED RED
003D5B  91E0    	LDS ZL,$0065           'PORTG
003D5C  0065
003D5D  7FEB    	ANDI ZL,$FB
003D5E  93E0    	STS $0065,ZL			GREEN LED
003D5F  0065
003D60  940E    	CALL L793
003D61  6617
003D62  940E    	CALL L794
003D63  3CF9
003D64  FE25    	SBRS R2,5
003D65  C020    	RJMP L792
003D66  9AC4    	SBI PORTB,PB4           'Battery charging ON
003D67  E2E8    	LDI ZL,$28
003D68  E0F0    	LDI ZH,$00
003D69  93FA    	ST -Y,ZH
003D6A  93EA    	ST -Y,ZL
003D6B  940E    	CALL L538               call F538(40)
003D6C  6B57
003D6D  98C4    	CBI PORTB,PB4           'Battery charging OFF

003D6E  ECEC    	LDI ZL,$CC
003D6F  E0F1    	LDI ZH,$01
003D70  93FA    	ST -Y,ZH
003D71  93EA    	ST -Y,ZL
003D72  940E    	CALL L538               call F538(460)
003D73  6B57
003D74  91E0    	LDS ZL,$0065            PORTG
003D75  0065
003D76  60E4    	ORI ZL,$04              PG2 = Power LED  GREEN
003D77  93E0    	STS $0065,ZL
003D78  0065
003D79  940E    	CALL L793              'read adc for voltage level
003D7A  6617
003D7B  940E    	CALL L794
003D7C  3CF9
003D7D  FE25    	SBRS R2,5
003D7E  C007    	RJMP L792			if (call L794 == ?) break ;
003D7F  EFE4    	LDI ZL,$F4
003D80  E0F1    	LDI ZH,$01
003D81  93FA    	ST -Y,ZH
003D82  93EA    	ST -Y,ZL
003D83  940E    	CALL L538             call F538(500)  'delay 0.5s
003D84  6B57
003D85  CFCE    	RJMP L795			}

003D86  E5E5    L792:	LDI ZL,$55
003D87  E0F0    	LDI ZH,$00
003D88  93E0    	STS $050A,ZL
003D89  050A
003D8A  93F0    	STS $050B,ZH
003D8B  050B
003D8C  91E0    L801:	LDS ZL,$050A
003D8D  050A
003D8E  91F0    	LDS ZH,$050B
003D8F  050B
003D90  9730    	SBIW ZH:ZL,0
003D91  F129    	BREQ L796
003D92  9AAF    	SBI PORTC,PC7
003D93  91A0    	LDS XL,$0503
003D94  0503
003D95  91B0    	LDS XH,$0504
003D96  0504
003D97  3FA5    	CPI XL,$F5
003D98  E0E1    	LDI ZL,$01
003D99  07BE    	CPC XH,ZL
003D9A  F020    	BRCS L797
003D9B  91E0    	LDS ZL,$0065
003D9C  0065
003D9D  7FEB    	ANDI ZL,$FB
003D9E  C003    	RJMP L798
003D9F  91E0    L797:	LDS ZL,$0065
003DA0  0065
003DA1  60E4    	ORI ZL,$04
003DA2  93E0    L798:	STS $0065,ZL
003DA3  0065
003DA4  9AC4    	SBI PORTB,PB4               'Start battery charging
003DA5  FE25    	SBRS R2,5
003DA6  C010    	RJMP L796
003DA7  91A0    	LDS XL,$0503
003DA8  0503
003DA9  91B0    	LDS XH,$0504
003DAA  0504
003DAB  940E    	CALL L753
003DAC  6E1E
003DAD  F021    	BREQ L799
003DAE  3FA4    	CPI XL,$F4
003DAF  E0E1    	LDI ZL,$01
003DB0  07BE    	CPC XH,ZL
003DB1  F421    	BRNE L800
003DB2  940E    L799:	CALL L793
003DB3  6617
003DB4  940E    	CALL L794
003DB5  3CF9
003DB6  CFD5    L800:	RJMP L801
003DB7  98C4    L796:	CBI PORTB,PB4          'Stop battery charging
003DB8  94E8    	BCLR 6
003DB9  F826    	BLD R2,6
003DBA  9508    	RET


##############################

'HW_init()

#############################
003DBB  E0E3    L849:	LDI ZL,$03   
003DBC  BBEB    	OUT PORTA,ZL
003DBD  EFEC    	LDI ZL,$FC
003DBE  BBEA    	OUT DDRA,ZL
003DBF  E0E0    	LDI ZL,$00
003DC0  BBE8    	OUT PORTB,ZL
003DC1  E7E4    	LDI ZL,$74
003DC2  BBE7    	OUT DDRB,ZL
003DC3  E0E0    	LDI ZL,$00
003DC4  BBE5    	OUT PORTC,ZL
003DC5  E8E0    	LDI ZL,$80
003DC6  BBE4    	OUT DDRC,ZL
003DC7  E0E3    	LDI ZL,$03
003DC8  BBE2    	OUT PORTD,ZL
003DC9  E0E0    	LDI ZL,$00
003DCA  BBE1    	OUT DDRD,ZL
003DCB  B9E3    	OUT PORTE,ZL
003DCC  E0E8    	LDI ZL,$08
003DCD  B9E2    	OUT DDRE,ZL
003DCE  E0E0    	LDI ZL,$00
003DCF  93E0    	STS $0062,ZL
003DD0  0062
003DD1  93E0    	STS $0061,ZL
003DD2  0061
003DD3  93E0    	STS $0065,ZL
003DD4  0065
003DD5  E0E4    	LDI ZL,$04
003DD6  93E0    	STS $0064,ZL
003DD7  0064
003DD8  E0E0    	LDI ZL,$00
003DD9  BFE0    	OUT ASSR,ZL
003DDA  E0E4    	LDI ZL,$04
003DDB  BFE3    	OUT TCCR0,ZL
003DDC  E0E0    	LDI ZL,$00
003DDD  BFE2    	OUT TCNT0,ZL
003DDE  BFE1    	OUT OCR0,ZL
003DDF  BDEF    	OUT TCCR1A,ZL
003DE0  E0E5    	LDI ZL,$05
003DE1  BDEE    	OUT TCCR1B,ZL
003DE2  E0E0    	LDI ZL,$00
003DE3  BDED    	OUT TCNT1H,ZL
003DE4  BDEC    	OUT TCNT1L,ZL
003DE5  BDE7    	OUT ICR1H,ZL
003DE6  BDE6    	OUT ICR1L,ZL
003DE7  BDEB    	OUT OCR1AH,ZL
003DE8  BDEA    	OUT OCR1AL,ZL
003DE9  BDE9    	OUT OCR1BH,ZL
003DEA  BDE8    	OUT OCR1BL,ZL
003DEB  93E0    	STS $0079,ZL
003DEC  0079
003DED  93E0    	STS $0078,ZL
003DEE  0078
003DEF  E0E5    	LDI ZL,$05
003DF0  BDE5    	OUT TCCR2,ZL
003DF1  E0E0    	LDI ZL,$00
003DF2  BDE4    	OUT TCNT2,ZL
003DF3  BDE3    	OUT OCR2,ZL
003DF4  93E0    	STS $008B,ZL
003DF5  008B
003DF6  E0E3    	LDI ZL,$03
003DF7  93E0    	STS $008A,ZL
003DF8  008A
003DF9  E0E0    	LDI ZL,$00
003DFA  93E0    	STS $0089,ZL
003DFB  0089
003DFC  93E0    	STS $0088,ZL
003DFD  0088
003DFE  93E0    	STS $0081,ZL
003DFF  0081
003E00  93E0    	STS $0080,ZL
003E01  0080
003E02  93E0    	STS $0087,ZL
003E03  0087
003E04  93E0    	STS $0086,ZL
003E05  0086
003E06  93E0    	STS $0085,ZL
003E07  0085
003E08  93E0    	STS $0084,ZL
003E09  0084
003E0A  93E0    	STS $0083,ZL
003E0B  0083
003E0C  93E0    	STS $0082,ZL
003E0D  0082
003E0E  93E0    	STS $006A,ZL
003E0F  006A
003E10  E2E0    	LDI ZL,$20
003E11  BFEA    	OUT EICRB,ZL
003E12  E4E0    	LDI ZL,$40
003E13  BFE9    	OUT EIMSK,ZL
003E14  BFE8    	OUT EIFR,ZL
003E15  E0E0    	LDI ZL,$00
003E16  BFE7    	OUT TIMSK,ZL
003E17  93E0    	STS $007D,ZL
003E18  007D
003E19  B9EB    	OUT UCSR0A,ZL
003E1A  E9E8    	LDI ZL,$98
003E1B  B9EA    	OUT UCSR0B,ZL
003E1C  E0E6    	LDI ZL,$06
003E1D  93E0    	STS $0095,ZL
003E1E  0095
003E1F  E0E0    	LDI ZL,$00
003E20  93E0    	STS $0090,ZL
003E21  0090
003E22  E0E7    	LDI ZL,$07
003E23  B9E9    	OUT UBRR0L,ZL
003E24  E0E0    	LDI ZL,$00
003E25  93E0    	STS $009B,ZL
003E26  009B
003E27  E9E8    	LDI ZL,$98
003E28  93E0    	STS $009A,ZL
003E29  009A
003E2A  E0E6    	LDI ZL,$06
003E2B  93E0    	STS $009D,ZL
003E2C  009D
003E2D  E0E0    	LDI ZL,$00
003E2E  93E0    	STS $0098,ZL
003E2F  0098
003E30  E0E7    	LDI ZL,$07
003E31  93E0    	STS $0099,ZL
003E32  0099

####  ADC initialisation
003E33  E8E0    	LDI ZL,$80
003E34  B9E8    	OUT ACSR,ZL           ACSR=80
003E35  E0E0    	LDI ZL,$00
003E36  BDE0    	OUT SFIOR,ZL          SFIOR=0
003E37  E2E0    	LDI ZL,$20
003E38  B9E7    	OUT ADMUX,ZL          ADMUX=20   ADMUX|=(0<<REFS1)|(1<<REFS0);
003E39  E0E0    	LDI ZL,$00
003E3A  B9E6    	OUT ADCSRA,ZL         ADCRSA=0
003E3B  93E0    	STS $0074,ZL          TWCR = 0   
003E3C  0074
003E3D  9508    	RET

#########################################

SW Init()

##########################################
003E3E  9ADA    L850:	SBI PORTA,PA2   PF1 Blue
003E3F  9ADB    	SBI PORTA,PA3         PF1 Red
003E40  9ADC    	SBI PORTA,PA4         PF2 Orange
003E41  91E0    	LDS ZL,$0065
003E42  0065
003E43  60E4    	ORI ZL,$04
003E44  93E0    	STS $0065,ZL
003E45  0065
003E46  9AAF    	SBI PORTC,PC7         Power RED
003E47  9ADD    	SBI PORTA,PA5         Run Blue
003E48  9ADE    	SBI PORTA,PA6         Run GREEN  OFF
003E49  9ADF    	SBI PORTA,PA7         Error RED  OFF
003E4A  E2AD    	LDI XL,$2D
003E4B  E0B0    	LDI XH,$00
003E4C  940E    	CALL L545
003E4D  6C7C
003E4E  2E4E    	MOV R4,ZL
003E4F  94E8    	BCLR 6
003E50  F820    	BLD R2,0
003E51  F821    	BLD R2,1
003E52  F823    	BLD R2,3
003E53  F822    	BLD R2,2
003E54  F826    	BLD R2,6
003E55  F830    	BLD R3,0
003E56  EFEF    	LDI ZL,$FF
003E57  2E5E    	MOV R5,ZL
003E58  F824    	BLD R2,4
003E59  E0E0    	LDI ZL,$00
003E5A  93E0    	STS $05CC,ZL
003E5B  05CC
003E5C  93E0    	STS $05CE,ZL
003E5D  05CE
003E5E  98C5    	CBI PORTB,PB5       'PSD Senor power
003E5F  E0E0    	LDI ZL,$00
003E60  93E0    	STS $0503,ZL
003E61  0503
003E62  93E0    	STS $0504,ZL
003E63  0504
003E64  E0E0    	LDI ZL,$00
003E65  93E0    	STS $0505,ZL
003E66  0505
003E67  93E0    	STS $0506,ZL
003E68  0506
003E69  93E0    	STS $0507,ZL
003E6A  0507
003E6B  F825    	BLD R2,5
003E6C  F831    	BLD R3,1
003E6D  F832    	BLD R3,2
003E6E  2466    	CLR R6
003E6F  9AC2    	SBI PORTB,PB2         Serial EEPROM Power
003E70  93E0    	STS $087B,ZL
003E71  087B
003E72  93E0    	STS $087C,ZL
003E73  087C
003E74  9468    	BSET 6            
003E75  F833    	BLD R3,3
003E76  94E8    	BCLR 6
003E77  F834    	BLD R3,4
003E78  F835    	BLD R3,5
003E79  9508    	RET

###################################################

Special Mode


####################################################


003E7A  931A    L851:	ST -Y,R17
003E7B  930A    	ST -Y,R16
003E7C  E0E1    	LDI ZL,$01
003E7D  15E4    	CP ZL,R4
003E7E  F4F1    	BRNE L802
003E7F  E000    	LDI R16,$00
003E80  E010    	LDI R17,$00
003E81  3100    L805:	CPI R16,$10
003E82  E0E0    	LDI ZL,$00
003E83  071E    	CPC R17,ZL
003E84  F4BC    	BRGE L803
003E85  930A    	ST -Y,R16
003E86  01F8    	MOVW R31:R30,R17:R16
003E87  2766    	CLR R22
003E88  2777    	CLR R23
003E89  55E4    	SUBI ZL,$54
003E8A  4FFF    	SBCI ZH,$FF
003E8B  4F6F    	SBCI R22,$FF
003E8C  BF6B    	OUT RAMPZ,R22
003E8D  91E6    	ELPM ZL,Z
003E8E  93EA    	ST -Y,ZL
003E8F  01F8    	MOVW R31:R30,R17:R16
003E90  2766    	CLR R22
003E91  2777    	CLR R23
003E92  56E4    	SUBI ZL,$64
003E93  4FFF    	SBCI ZH,$FF
003E94  4F6F    	SBCI R22,$FF
003E95  BF6B    	OUT RAMPZ,R22
003E96  91E6    	ELPM ZL,Z
003E97  93EA    	ST -Y,ZL
003E98  D259    	RCALL L804
003E99  5F0F    	SUBI R16,$FF
003E9A  4F1F    	SBCI R17,$FF
003E9B  CFE5    	RJMP L805
003E9C  C054    L803:	RJMP L806
003E9D  E0E2    L802:	LDI ZL,$02
003E9E  15E4    	CP ZL,R4
003E9F  F4F1    	BRNE L807
003EA0  E000    	LDI R16,$00
003EA1  E010    	LDI R17,$00
003EA2  3100    L809:	CPI R16,$10
003EA3  E0E0    	LDI ZL,$00
003EA4  071E    	CPC R17,ZL
003EA5  F4BC    	BRGE L808
003EA6  930A    	ST -Y,R16
003EA7  01F8    	MOVW R31:R30,R17:R16
003EA8  2766    	CLR R22
003EA9  2777    	CLR R23
003EAA  53E4    	SUBI ZL,$34
003EAB  4FFF    	SBCI ZH,$FF
003EAC  4F6F    	SBCI R22,$FF
003EAD  BF6B    	OUT RAMPZ,R22
003EAE  91E6    	ELPM ZL,Z
003EAF  93EA    	ST -Y,ZL
003EB0  01F8    	MOVW R31:R30,R17:R16
003EB1  2766    	CLR R22
003EB2  2777    	CLR R23
003EB3  54E4    	SUBI ZL,$44
003EB4  4FFF    	SBCI ZH,$FF
003EB5  4F6F    	SBCI R22,$FF
003EB6  BF6B    	OUT RAMPZ,R22
003EB7  91E6    	ELPM ZL,Z
003EB8  93EA    	ST -Y,ZL
003EB9  D238    	RCALL L804
003EBA  5F0F    	SUBI R16,$FF
003EBB  4F1F    	SBCI R17,$FF
003EBC  CFE5    	RJMP L809
003EBD  C033    L808:	RJMP L806
003EBE  E0E3    L807:	LDI ZL,$03
003EBF  15E4    	CP ZL,R4
003EC0  F4F1    	BRNE L810
003EC1  E000    	LDI R16,$00
003EC2  E010    	LDI R17,$00
003EC3  3100    L812:	CPI R16,$10
003EC4  E0E0    	LDI ZL,$00
003EC5  071E    	CPC R17,ZL
003EC6  F4BC    	BRGE L811
003EC7  930A    	ST -Y,R16
003EC8  01F8    	MOVW R31:R30,R17:R16
003EC9  2766    	CLR R22
003ECA  2777    	CLR R23
003ECB  51E4    	SUBI ZL,$14
003ECC  4FFF    	SBCI ZH,$FF
003ECD  4F6F    	SBCI R22,$FF
003ECE  BF6B    	OUT RAMPZ,R22
003ECF  91E6    	ELPM ZL,Z
003ED0  93EA    	ST -Y,ZL
003ED1  01F8    	MOVW R31:R30,R17:R16
003ED2  2766    	CLR R22
003ED3  2777    	CLR R23
003ED4  52E4    	SUBI ZL,$24
003ED5  4FFF    	SBCI ZH,$FF
003ED6  4F6F    	SBCI R22,$FF
003ED7  BF6B    	OUT RAMPZ,R22
003ED8  91E6    	ELPM ZL,Z
003ED9  93EA    	ST -Y,ZL
003EDA  D217    	RCALL L804
003EDB  5F0F    	SUBI R16,$FF
003EDC  4F1F    	SBCI R17,$FF
003EDD  CFE5    	RJMP L812
003EDE  C012    L811:	RJMP L806
003EDF  E0E4    L810:	LDI ZL,$04
003EE0  15E4    	CP ZL,R4
003EE1  F479    	BRNE L806
003EE2  E000    	LDI R16,$00
003EE3  E010    	LDI R17,$00
003EE4  3100    L813:	CPI R16,$10  while () {
003EE5  E0E0    	LDI ZL,$00
003EE6  071E    	CPC R17,ZL
003EE7  F44C    	BRGE L806
003EE8  930A    	ST -Y,R16
003EE9  E0E1    	LDI ZL,$01
003EEA  93EA    	ST -Y,ZL
003EEB  EFEE    	LDI ZL,$FE
003EEC  93EA    	ST -Y,ZL
003EED  D204    	RCALL L804          if (call F804(510) == -1)
003EEE  5F0F    	SUBI R16,$FF
003EEF  4F1F    	SBCI R17,$FF
003EF0  CFF3    	RJMP L813            }
003EF1  D1E7    L806:	RCALL L814      
003EF2  E0EA    	LDI ZL,$0A
003EF3  E0F0    	LDI ZH,$00
003EF4  93FA    	ST -Y,ZH
003EF5  93EA    	ST -Y,ZL
003EF6  940E    	CALL L538            call F538(10)
003EF7  6B57
003EF8  99C8    	SBIC PINA,PINA0
003EF9  C002    	RJMP L815
003EFA  99C9    	SBIC PINA,PINA1
003EFB  C001    	RJMP L816
003EFC  C062    L815:	RJMP L817
003EFD  E0E0    L816:	LDI ZL,$00     if (PINA0 and PIN A1)
003EFE  93EA    	ST -Y,ZL
003EFF  E9E6    	LDI ZL,$96
003F00  E0F0    	LDI ZH,$00
003F01  93FA    	ST -Y,ZH
003F02  93EA    	ST -Y,ZL
003F03  EBE8    	LDI ZL,$B8
003F04  E0FB    	LDI ZH,$0B
003F05  93FA    	ST -Y,ZH
003F06  93EA    	ST -Y,ZL
003F07  E0E4    	LDI ZL,$04
003F08  93EA    	ST -Y,ZL
003F09  940E    	CALL L818            Call  F818(150, 3000, 4)
003F0A  4B36
003F0B  E6E4    	LDI ZL,$64
003F0C  E0F0    	LDI ZH,$00
003F0D  93FA    	ST -Y,ZH
003F0E  93EA    	ST -Y,ZL
003F0F  940E    	CALL L538            call F538(100)
003F10  6B57
003F11  EFEF    	LDI ZL,$FF
003F12  15E5    	CP ZL,R5
003F13  F1E1    	BREQ L819
003F14  E1EE    	LDI ZL,$1E
003F15  E0F0    	LDI ZH,$00
003F16  93E0    	STS $0508,ZL
003F17  0508
003F18  93F0    	STS $0509,ZH
003F19  0509
003F1A  B7E9    	IN ZL,EIMSK            GEt Ext Int Mask
003F1B  7BEF    	ANDI ZL,$BF            Set bit 6 (int 6)  Infrared
003F1C  BFE9    	OUT EIMSK,ZL		   Enable Int.
003F1D  91E0    L826:	LDS ZL,$0508
003F1E  0508
003F1F  91F0    	LDS ZH,$0509
003F20  0509
003F21  9730    	SBIW ZH:ZL,0
003F22  F139    	BREQ L820
003F23  91A0    	LDS XL,$0503
003F24  0503
003F25  91B0    	LDS XH,$0504
003F26  0504
003F27  3FAA    	CPI XL,$FA
003F28  E0E0    	LDI ZL,$00
003F29  07BE    	CPC XH,ZL
003F2A  F410    	BRCC L821
003F2B  98DF    	CBI PORTA,PA7        ' Error LED   ON (low)
003F2C  C01C    	RJMP L822
003F2D  91A0    L821:	LDS XL,$0503
003F2E  0503
003F2F  91B0    	LDS XH,$0504
003F30  0504
003F31  3FA4    	CPI XL,$F4
003F32  E0E1    	LDI ZL,$01
003F33  07BE    	CPC XH,ZL
003F34  F408    	BRCC L823
003F35  C012    	RJMP L824
003F36  91A0    L823:	LDS XL,$0503
003F37  0503
003F38  91B0    	LDS XH,$0504
003F39  0504
003F3A  3EAE    	CPI XL,$EE
003F3B  E0E2    	LDI ZL,$02
003F3C  07BE    	CPC XH,ZL
003F3D  F410    	BRCC L825
003F3E  98DF    	CBI PORTA,PA7
003F3F  C009    	RJMP L822
003F40  91A0    L825:	LDS XL,$0503
003F41  0503
003F42  91B0    	LDS XH,$0504
003F43  0504
003F44  3EA8    	CPI XL,$E8
003F45  E0E3    	LDI ZL,$03
003F46  07BE    	CPC XH,ZL
003F47  F408    	BRCC L822
003F48  9ADF    L824:	SBI PORTA,PA7      Error LED OFF
003F49  CFD3    L822:	RJMP L826
003F4A  EFEF    L820:	LDI ZL,$FF
003F4B  2E5E    	MOV R5,ZL
003F4C  B7E9    	IN ZL,EIMSK
003F4D  64E0    	ORI ZL,$40
003F4E  BFE9    	OUT EIMSK,ZL
003F4F  C00E    	RJMP L827
003F50  E0E0    L819:	LDI ZL,$00
003F51  93EA    	ST -Y,ZL
003F52  E0E1    	LDI ZL,$01
003F53  E0F0    	LDI ZH,$00
003F54  93FA    	ST -Y,ZH
003F55  93EA    	ST -Y,ZL
003F56  E6E4    	LDI ZL,$64
003F57  E0F0    	LDI ZH,$00
003F58  93FA    	ST -Y,ZH
003F59  93EA    	ST -Y,ZL
003F5A  E0E1    	LDI ZL,$01
003F5B  93EA    	ST -Y,ZL
003F5C  940E    	CALL L818                       Call F818(0,1,64,1)
003F5D  4B36
003F5E  C0D5    L827:	RJMP L828
003F5F  9BC8    L817:	SBIS PINA,PINA0                'PF1
003F60  C002    	RJMP L829
003F61  9BC9    	SBIS PINA,PINA1                      'PF2
003F62  C001    	RJMP L830
003F63  C013    L829:	RJMP L831
003F64  E0EA    L830:	LDI ZL,$0A
003F65  E0F0    	LDI ZH,$00
003F66  93FA    	ST -Y,ZH
003F67  93EA    	ST -Y,ZL
003F68  940E    	CALL L538                        Call F538(10)
003F69  6B57
003F6A  9BC8    	SBIS PINA,PINA0                  If PF1 pressed
003F6B  C00A    	RJMP L832
003F6C  B7E7    	IN ZL,TIMSK                     
003F6D  7FEE    	ANDI ZL,$FE
003F6E  BFE7    	OUT TIMSK,ZL
003F6F  B7E9    	IN ZL,EIMSK
003F70  7BEF    	ANDI ZL,$BF						INT 6 - Infrared
003F71  BFE9    	OUT EIMSK,ZL
003F72  9A57    	SBI UCSR0B,RXCIE0
003F73  9856    	CBI UCSR0B,TXCIE0
003F74  9468    	BSET 6
003F75  F822    	BLD R2,2
003F76  C0BD    L832:	RJMP L828 
003F77  99C8    L831:	SBIC PINA,PINA0                  'PF1
003F78  C002    	RJMP L833
003F79  9BC9    	SBIS PINA,PINA1                        'PF2
003F7A  C001    	RJMP L834
003F7B  C0B8    L833:	RJMP L828
003F7C  91A0    L834:	LDS XL,$0505
003F7D  0505
003F7E  30AB    	CPI XL,$0B                          ' IF ? = 11
003F7F  F010    	BRCS L835
003F80  940C    	JMP L828
003F81  4034
003F82  91A0    L835:	LDS XL,$0503
003F83  0503
003F84  91B0    	LDS XH,$0504
003F85  0504
003F86  3FA5    	CPI XL,$F5
003F87  E0E1    	LDI ZL,$01
003F88  07BE    	CPC XH,ZL
003F89  F418    	BRCC L836
003F8A  9ADD    	SBI PORTA,PA5               RUN LED OFF
003F8B  9ADE    	SBI PORTA,PA6               RUN LED OFF
003F8C  C002    	RJMP L837
003F8D  98DD    L836:	CBI PORTA,PA5         RUN LED ON GREEN
003F8E  98DE    	CBI PORTA,PA6               RUN LED ON BLUE
003F8F  FE32    L837:	SBRS R3,2
003F90  C0A2    	RJMP L838
003F91  B7E9    	IN ZL,EIMSK					
003F92  7BEF    	ANDI ZL,$BF
003F93  BFE9    	OUT EIMSK,ZL			Enable INT 6 (infrared)
003F94  94E8    	BCLR 6
003F95  F832    	BLD R3,2
003F96  91E0    	LDS ZL,$05FC            ??  Get Byte from controller ?
003F97  05FC
003F98  30E7    	CPI ZL,$07                   Compare = 7
003F99  F011    	BREQ L839
003F9A  940C    	JMP L840
003F9B  4021
003F9C  E001    L839:	LDI R16,$01
003F9D  E010    	LDI R17,$00
003F9E  3005    L842:	CPI R16,$05
003F9F  E0E0    	LDI ZL,$00
003FA0  071E    	CPC R17,ZL
003FA1  F56C    	BRGE L841
003FA2  01F8    	MOVW R31:R30,R17:R16
003FA3  9731    	SBIW ZH:ZL,1
003FA4  5FE2    	SUBI ZL,$F2
003FA5  4FFF    	SBCI ZH,$FF
003FA6  010F    	MOVW R1:R0,R31:R30
003FA7  E0AE    	LDI XL,$0E
003FA8  E0B0    	LDI XH,$00
003FA9  0FA0    	ADD XL,R16
003FAA  1FB1    	ADC XH,R17
003FAB  940E    	CALL L545
003FAC  6C7C
003FAD  01D0    	MOVW R27:R26,R1:R0
003FAE  940E    	CALL L546
003FAF  6C90
003FB0  01F8    	MOVW R31:R30,R17:R16
003FB1  9731    	SBIW ZH:ZL,1
003FB2  5EED    	SUBI ZL,$ED
003FB3  4FFF    	SBCI ZH,$FF
003FB4  010F    	MOVW R1:R0,R31:R30
003FB5  E1A3    	LDI XL,$13
003FB6  E0B0    	LDI XH,$00
003FB7  0FA0    	ADD XL,R16
003FB8  1FB1    	ADC XH,R17
003FB9  940E    	CALL L545
003FBA  6C7C
003FBB  01D0    	MOVW R27:R26,R1:R0
003FBC  940E    	CALL L546
003FBD  6C90
003FBE  01F8    	MOVW R31:R30,R17:R16
003FBF  9731    	SBIW ZH:ZL,1
003FC0  5EE8    	SUBI ZL,$E8
003FC1  4FFF    	SBCI ZH,$FF
003FC2  010F    	MOVW R1:R0,R31:R30
003FC3  E1A8    	LDI XL,$18
003FC4  E0B0    	LDI XH,$00
003FC5  0FA0    	ADD XL,R16
003FC6  1FB1    	ADC XH,R17
003FC7  940E    	CALL L545
003FC8  6C7C
003FC9  01D0    	MOVW R27:R26,R1:R0
003FCA  940E    	CALL L546
003FCB  6C90
003FCC  5F0F    	SUBI R16,$FF
003FCD  4F1F    	SBCI R17,$FF
003FCE  CFCF    	RJMP L842
003FCF  E1A2    L841:	LDI XL,$12
003FD0  E0B0    	LDI XH,$00
003FD1  91E0    	LDS ZL,$05F9
003FD2  05F9
003FD3  940E    	CALL L546
003FD4  6C90
003FD5  E1A7    	LDI XL,$17
003FD6  E0B0    	LDI XH,$00
003FD7  91E0    	LDS ZL,$05FA
003FD8  05FA
003FD9  940E    	CALL L546
003FDA  6C90
003FDB  E1AC    	LDI XL,$1C
003FDC  E0B0    	LDI XH,$00
003FDD  91E0    	LDS ZL,$05FB
003FDE  05FB
003FDF  940E    	CALL L546
003FE0  6C90
003FE1  E000    	LDI R16,$00
003FE2  E010    	LDI R17,$00
003FE3  3003    L844:	CPI R16,$03
003FE4  E0E0    	LDI ZL,$00
003FE5  071E    	CPC R17,ZL
003FE6  F53C    	BRGE L843
003FE7  98DA    	CBI PORTA,PA2
003FE8  98DB    	CBI PORTA,PA3
003FE9  98DC    	CBI PORTA,PA4
003FEA  98DD    	CBI PORTA,PA5
003FEB  98DE    	CBI PORTA,PA6
003FEC  98DF    	CBI PORTA,PA7
003FED  91E0    	LDS ZL,$0065
003FEE  0065
003FEF  7FEB    	ANDI ZL,$FB
003FF0  93E0    	STS $0065,ZL
003FF1  0065
003FF2  98AF    	CBI PORTC,PC7
003FF3  EFE4    	LDI ZL,$F4
003FF4  E0F1    	LDI ZH,$01
003FF5  93FA    	ST -Y,ZH
003FF6  93EA    	ST -Y,ZL
003FF7  940E    	CALL L538
003FF8  6B57
003FF9  9ADA    	SBI PORTA,PA2
003FFA  9ADB    	SBI PORTA,PA3
003FFB  9ADC    	SBI PORTA,PA4
003FFC  9ADD    	SBI PORTA,PA5
003FFD  9ADE    	SBI PORTA,PA6
003FFE  9ADF    	SBI PORTA,PA7
003FFF  91E0    	LDS ZL,$0065
004000  0065
004001  60E4    	ORI ZL,$04
004002  93E0    	STS $0065,ZL
004003  0065
004004  98AF    	CBI PORTC,PC7         Power Light ON
004005  EFE4    	LDI ZL,$F4
004006  E0F1    	LDI ZH,$01
004007  93FA    	ST -Y,ZH
004008  93EA    	ST -Y,ZL
004009  940E    	CALL L538
00400A  6B57
00400B  5F0F    	SUBI R16,$FF
00400C  4F1F    	SBCI R17,$FF
00400D  CFD5    	RJMP L844
00400E  E000    L843:	LDI R16,$00
00400F  E010    	LDI R17,$00
004010  3004    L846:	CPI R16,$04
004011  E0E0    	LDI ZL,$00
004012  071E    	CPC R17,ZL
004013  F44C    	BRGE L845
004014  EFA9    	LDI XL,$F9
004015  E0B5    	LDI XH,$05
004016  0FA0    	ADD XL,R16
004017  1FB1    	ADC XH,R17
004018  E0E0    	LDI ZL,$00
004019  93EC    	ST X,ZL
00401A  5F0F    	SUBI R16,$FF
00401B  4F1F    	SBCI R17,$FF
00401C  CFF3    	RJMP L846
00401D  B7E9    L845:	IN ZL,EIMSK
00401E  64E0    	ORI ZL,$40
00401F  BFE9    	OUT EIMSK,ZL
004020  C013    	RJMP L828
004021  E000    L840:	LDI R16,$00
004022  E010    	LDI R17,$00
004023  3004    L848:	CPI R16,$04
004024  E0E0    	LDI ZL,$00
004025  071E    	CPC R17,ZL
004026  F44C    	BRGE L847
004027  EFA9    	LDI XL,$F9
004028  E0B5    	LDI XH,$05
004029  0FA0    	ADD XL,R16
00402A  1FB1    	ADC XH,R17
00402B  E0E0    	LDI ZL,$00
00402C  93EC    	ST X,ZL
00402D  5F0F    	SUBI R16,$FF
00402E  4F1F    	SBCI R17,$FF
00402F  CFF3    	RJMP L848
004030  B7E9    L847:	IN ZL,EIMSK
004031  64E0    	ORI ZL,$40
004032  BFE9    	OUT EIMSK,ZL
004033  CF48    L838:	RJMP L834
004034  9109    L828:	LD R16,Y+
004035  9119    	LD R17,Y+
004036  9508    	RET  

###############

Main ()

###############

004037  940E    L535:	CALL L849    'Call HW_init ()
004038  3DBB
004039  940E    	CALL L850          'Call SW_init ()
00403A  3E3E
00403B  9478    	BSET 7               'Enable interupt (SEI)
00403C  B7E7    	IN ZL,TIMSK
00403D  60E1    	ORI ZL,$01
00403E  BFE7    	OUT TIMSK,ZL
00403F  940E    	CALL L851          ;CAll Special Mode ??
004040  3E7A
004041  B7E9    	IN ZL,EIMSK
004042  7EEF    	ANDI ZL,$EF
004043  BFE9    	OUT EIMSK,ZL
004044  B7E8    	IN ZL,EIFR
004045  7EEF    	ANDI ZL,$EF
004046  BFE8    	OUT EIFR,ZL
004047  B7E9    	IN ZL,EIMSK
004048  7DEF    	ANDI ZL,$DF
004049  BFE9    	OUT EIMSK,ZL
00404A  B7E8    	IN ZL,EIFR
00404B  7DEF    	ANDI ZL,$DF
00404C  BFE8    	OUT EIFR,ZL
00404D  98C6    	CBI PORTB,PB6       'Sound IC
00404E  E1E4    	LDI ZL,$14
00404F  E0F0    	LDI ZH,$00
004050  93FA    	ST -Y,ZH
004051  93EA    	ST -Y,ZL
004052  940E    	CALL L538          Call F538(20)
004053  6B57
004054  9AC6    	SBI PORTB,PB6     'Sound IC Reset
004055  940E    	CALL L852
004056  6064
004057  9120    L862:	LDS R18,$0503   ' 1MSec
004058  0503
004059  9130    	LDS R19,$0504        'gMSec
00405A  0504
00405B  940E    	CALL L853          ???  ReadButton
00405C  5E85
00405D  940E    	CALL L854          ???  IO Update 
00405E  5F19
00405F  940E    	CALL L855          ???  (Sub 4)
004060  5FB4
004061  2400    	CLR R0
004062  1602    	CP R0,R18              
004063  0603    	CPC R0,R19
004064  F029    	BREQ L856             IF !=0 ?
004065  EFE4    	LDI ZL,$F4
004066  E0F1    	LDI ZH,$01
004067  17E2    	CP ZL,R18
004068  07F3    	CPC ZH,R19
004069  F421    	BRNE L857             iF = 500 ?
00406A  940E    L856:	CALL L793
00406B  6617
00406C  940E    	CALL L794
00406D  3CF9
00406E  940E    L857:	CALL L858
00406F  6259
004070  91E0    L859:	LDS ZL,$0503
004071  0503
004072  91F0    	LDS ZH,$0504
004073  0504
004074  17E2    	CP ZL,R18
004075  07F3    	CPC ZH,R19
004076  F3C9    	BREQ L859
004077  FE34    	SBRS R3,4
004078  C002    	RJMP L860
004079  940E    	CALL L861
00407A  60DB
00407B  CFDB    L860:	RJMP L862
00407C  CFFF    L863:	RJMP L863


''''''''''''''''''''''
'SciTx0Data(byte x)
''''''''''''

00407D  9B5D    L864:	SBIS UCSR0A,UDRE0
00407E  CFFE    	RJMP L864
00407F  81E8    	LD ZL,Y
004080  B9EC    	OUT UDR0,ZL
004081  C007    	RJMP L865
004082  91E0    L547:	LDS ZL,$009B
004083  009B
004084  72E0    	ANDI ZL,$20
004085  F3E1    	BREQ L547
004086  81E8    	LD ZL,Y
004087  93E0    	STS $009C,ZL
004088  009C
004089  9621    L865:	ADIW YH:YL,1
00408A  9508    	RET



00408B  930A    L931:	ST -Y,R16
00408C  81EC    	LDD ZL,Y+4
00408D  6EE0    	ORI ZL,$E0
00408E  83EC    	STD Y+4,ZL
00408F  81EB    	LDD ZL,Y+3
004090  81AC    	LDD XL,Y+4
004091  27EA    	EOR ZL,XL
004092  81AA    	LDD XL,Y+2
004093  27EA    	EOR ZL,XL
004094  81A9    	LDD XL,Y+1
004095  27AE    	EOR XL,ZL
004096  E7EF    	LDI ZL,$7F
004097  23EA    	AND ZL,XL
004098  2F0E    	MOV R16,ZL
004099  91A0    	LDS XL,$05CC
00409A  05CC
00409B  E0B0    	LDI XH,$00
00409C  5EAE    	SUBI XL,$EE
00409D  4FBA    	SBCI XH,$FA
00409E  EFEF    	LDI ZL,$FF
00409F  93EC    	ST X,ZL
0040A0  91E0    	LDS ZL,$05CC
0040A1  05CC
0040A2  5FEF    	SUBI ZL,$FF
0040A3  93E0    	STS $05CC,ZL
0040A4  05CC
0040A5  E0F0    	LDI ZH,$00
0040A6  5EEE    	SUBI ZL,$EE
0040A7  4FFA    	SBCI ZH,$FA
0040A8  81AC    	LDD XL,Y+4
0040A9  83A0    	ST Z,XL
0040AA  91E0    	LDS ZL,$05CC
0040AB  05CC
0040AC  5FEF    	SUBI ZL,$FF
0040AD  93E0    	STS $05CC,ZL
0040AE  05CC
0040AF  E0F0    	LDI ZH,$00
0040B0  5EEE    	SUBI ZL,$EE
0040B1  4FFA    	SBCI ZH,$FA
0040B2  81AB    	LDD XL,Y+3
0040B3  83A0    	ST Z,XL
0040B4  91E0    	LDS ZL,$05CC
0040B5  05CC
0040B6  5FEF    	SUBI ZL,$FF
0040B7  93E0    	STS $05CC,ZL
0040B8  05CC
0040B9  E0F0    	LDI ZH,$00
0040BA  5EEE    	SUBI ZL,$EE
0040BB  4FFA    	SBCI ZH,$FA
0040BC  81AA    	LDD XL,Y+2
0040BD  83A0    	ST Z,XL
0040BE  91E0    	LDS ZL,$05CC
0040BF  05CC
0040C0  5FEF    	SUBI ZL,$FF
0040C1  93E0    	STS $05CC,ZL
0040C2  05CC
0040C3  E0F0    	LDI ZH,$00
0040C4  5EEE    	SUBI ZL,$EE
0040C5  4FFA    	SBCI ZH,$FA
0040C6  81A9    	LDD XL,Y+1
0040C7  83A0    	ST Z,XL
0040C8  91E0    	LDS ZL,$05CC
0040C9  05CC
0040CA  5FEF    	SUBI ZL,$FF
0040CB  93E0    	STS $05CC,ZL
0040CC  05CC
0040CD  91A0    	LDS XL,$05CC
0040CE  05CC
0040CF  E0B0    	LDI XH,$00
0040D0  5EAE    	SUBI XL,$EE
0040D1  4FBA    	SBCI XH,$FA
0040D2  930C    	ST X,R16
0040D3  5FEF    	SUBI ZL,$FF
0040D4  93E0    	STS $05CC,ZL
0040D5  05CC
0040D6  8108    	LD R16,Y
0040D7  9625    	ADIW YH:YL,5
0040D8  9508    	RET
0040D9  940E    L814:	CALL L594
0040DA  6E29
0040DB  ED0F    	LDI R16,$DF
0040DC  E210    	LDI R17,$20
0040DD  2FE1    	MOV ZL,R17
0040DE  27E0    	EOR ZL,R16
0040DF  77EF    	ANDI ZL,$7F
0040E0  2F2E    	MOV R18,ZL
0040E1  EFEF    	LDI ZL,$FF
0040E2  93EA    	ST -Y,ZL
0040E3  940E    	CALL L864
0040E4  407D
0040E5  930A    	ST -Y,R16
0040E6  940E    	CALL L864
0040E7  407D
0040E8  931A    	ST -Y,R17
0040E9  940E    	CALL L864
0040EA  407D
0040EB  932A    	ST -Y,R18
0040EC  940E    	CALL L864
0040ED  407D
0040EE  940E    	CALL L605
0040EF  6E30
0040F0  9623    	ADIW YH:YL,3
0040F1  9508    	RET
0040F2  940E    L804:	CALL L594
0040F3  6E29
0040F4  81ED    	LDD ZL,Y+5
0040F5  6EE0    	ORI ZL,$E0
0040F6  2F0E    	MOV R16,ZL
0040F7  E111    	LDI R17,$11
0040F8  2FE1    	MOV ZL,R17
0040F9  27E0    	EOR ZL,R16
0040FA  81AB    	LDD XL,Y+3
0040FB  27EA    	EOR ZL,XL
0040FC  81AC    	LDD XL,Y+4
0040FD  27AE    	EOR XL,ZL
0040FE  E7EF    	LDI ZL,$7F
0040FF  23EA    	AND ZL,XL
004100  2F2E    	MOV R18,ZL
004101  EFEF    	LDI ZL,$FF
004102  93EA    	ST -Y,ZL
004103  940E    	CALL L864
004104  407D
004105  930A    	ST -Y,R16
004106  940E    	CALL L864
004107  407D
004108  931A    	ST -Y,R17
004109  940E    	CALL L864
00410A  407D
00410B  81EC    	LDD ZL,Y+4
00410C  93EA    	ST -Y,ZL
00410D  940E    	CALL L864
00410E  407D
00410F  81EB    	LDD ZL,Y+3
004110  93EA    	ST -Y,ZL
004111  940E    	CALL L864
004112  407D
004113  932A    	ST -Y,R18
004114  940E    	CALL L864
004115  407D
004116  940E    	CALL L605
004117  6E30
004118  9626    	ADIW YH:YL,6
004119  9508    	RET
00411A  940E    L982:	CALL L613
00411B  6E26
00411C  91E0    	LDS ZL,$078B
00411D  078B
00411E  95E2    	SWAP ZL
00411F  7FE0    	ANDI ZL,$F0
004120  0FEE    	LSL ZL
004121  61EF    	ORI ZL,$1F
004122  2F5E    	MOV R21,ZL
004123  91A0    	LDS XL,$05CC
004124  05CC
004125  E0B0    	LDI XH,$00
004126  5EAE    	SUBI XL,$EE
004127  4FBA    	SBCI XH,$FA
004128  EFEF    	LDI ZL,$FF
004129  93EC    	ST X,ZL
00412A  91E0    	LDS ZL,$05CC
00412B  05CC
00412C  5FEF    	SUBI ZL,$FF
00412D  93E0    	STS $05CC,ZL
00412E  05CC
00412F  91A0    	LDS XL,$05CC
004130  05CC
004131  E0B0    	LDI XH,$00
004132  5EAE    	SUBI XL,$EE
004133  4FBA    	SBCI XH,$FA
004134  935C    	ST X,R21
004135  5FEF    	SUBI ZL,$FF
004136  93E0    	STS $05CC,ZL
004137  05CC
004138  91A0    	LDS XL,$05CC
004139  05CC
00413A  E0B0    	LDI XH,$00
00413B  5EAE    	SUBI XL,$EE
00413C  4FBA    	SBCI XH,$FA
00413D  91E0    	LDS ZL,$0699
00413E  0699
00413F  5FEF    	SUBI ZL,$FF
004140  93EC    	ST X,ZL
004141  91E0    	LDS ZL,$05CC
004142  05CC
004143  5FEF    	SUBI ZL,$FF
004144  93E0    	STS $05CC,ZL
004145  05CC
004146  E020    	LDI R18,$00
004147  E030    	LDI R19,$00
004148  91E0    L882:	LDS ZL,$0699
004149  0699
00414A  5FEF    	SUBI ZL,$FF
00414B  173E    	CP R19,ZL
00414C  F010    	BRCS L866
00414D  940C    	JMP L867
00414E  41E6
00414F  E0E5    L866:	LDI ZL,$05
004150  9FE3    	MUL ZL,R19
004151  01F0    	MOVW R31:R30,R1:R0
004152  E8A8    	LDI XL,$88
004153  E0B7    	LDI XH,$07
004154  0FAE    	ADD XL,ZL
004155  1FBF    	ADC XH,ZH
004156  91EC    	LD ZL,X
004157  30E0    	CPI ZL,$00
004158  F411    	BRNE L868
004159  940C    	JMP L869
00415A  41D7
00415B  91A0    L868:	LDS XL,$06C1
00415C  06C1
00415D  30A4    	CPI XL,$04
00415E  F571    	BRNE L870
00415F  E0E5    	LDI ZL,$05
004160  9FE3    	MUL ZL,R19
004161  01F0    	MOVW R31:R30,R1:R0
004162  E8A9    	LDI XL,$89
004163  E0B7    	LDI XH,$07
004164  0FAE    	ADD XL,ZL
004165  1FBF    	ADC XH,ZH
004166  91EC    	LD ZL,X
004167  E0F0    	LDI ZH,$00
004168  93FF    	PUSH ZH
004169  93EF    	PUSH ZL
00416A  91E0    	LDS ZL,$0619
00416B  0619
00416C  91F0    	LDS ZH,$061A
00416D  061A
00416E  940E    	CALL L871
00416F  6BD6
004170  940E    	CALL L872
004171  6CFB
004172  937F    	PUSH R23
004173  936F    	PUSH R22
004174  93FF    	PUSH ZH
004175  93EF    	PUSH ZL
004176  2FE3    	MOV ZL,R19
004177  E1AD    	LDI XL,$1D
004178  E0B6    	LDI XH,$06
004179  E0F0    	LDI ZH,$00
00417A  940E    	CALL L873
00417B  6BC6
00417C  0FAE    	ADD XL,ZL
00417D  1FBF    	ADC XH,ZH
00417E  940E    	CALL L874
00417F  6C4F
004180  91AF    	POP XL
004181  91BF    	POP XH
004182  918F    	POP R24
004183  919F    	POP R25
004184  940E    	CALL L875
004185  6D87
004186  940E    	CALL L876
004187  6CC8
004188  91AF    	POP XL
004189  91BF    	POP XH
00418A  0FEA    	ADD ZL,XL
00418B  1FFB    	ADC ZH,XH
00418C  C03A    	RJMP L877
00418D  E0E5    L870:	LDI ZL,$05
00418E  9FE3    	MUL ZL,R19
00418F  01F0    	MOVW R31:R30,R1:R0
004190  E8A9    	LDI XL,$89
004191  E0B7    	LDI XH,$07
004192  0FAE    	ADD XL,ZL
004193  1FBF    	ADC XH,ZH
004194  91EC    	LD ZL,X
004195  E0F0    	LDI ZH,$00
004196  93FF    	PUSH ZH
004197  93EF    	PUSH ZL
004198  91E0    	LDS ZL,$0619
004199  0619
00419A  91F0    	LDS ZH,$061A
00419B  061A
00419C  940E    	CALL L871
00419D  6BD6
00419E  940E    	CALL L872
00419F  6CFB
0041A0  937F    	PUSH R23
0041A1  936F    	PUSH R22
0041A2  93FF    	PUSH ZH
0041A3  93EF    	PUSH ZL
0041A4  2FE3    	MOV ZL,R19
0041A5  E1AD    	LDI XL,$1D
0041A6  E0B6    	LDI XH,$06
0041A7  E0F0    	LDI ZH,$00
0041A8  940E    	CALL L873
0041A9  6BC6
0041AA  0FAE    	ADD XL,ZL
0041AB  1FBF    	ADC XH,ZH
0041AC  940E    	CALL L874
0041AD  6C4F
0041AE  91AF    	POP XL
0041AF  91BF    	POP XH
0041B0  918F    	POP R24
0041B1  919F    	POP R25
0041B2  940E    	CALL L875
0041B3  6D87
0041B4  940E    	CALL L876
0041B5  6CC8
0041B6  91AF    	POP XL
0041B7  91BF    	POP XH
0041B8  0FEA    	ADD ZL,XL
0041B9  1FFB    	ADC ZH,XH
0041BA  010F    	MOVW R1:R0,R31:R30
0041BB  2FE3    	MOV ZL,R19
0041BC  E3AB    	LDI XL,$3B
0041BD  E0B8    	LDI XH,$08
0041BE  E0F0    	LDI ZH,$00
0041BF  0FEE    	LSL ZL
0041C0  1FFF    	ROL ZH
0041C1  0FAE    	ADD XL,ZL
0041C2  1FBF    	ADC XH,ZH
0041C3  940E    	CALL L878
0041C4  6C4B
0041C5  0DE0    	ADD ZL,R0
0041C6  1DF1    	ADC ZH,R1
0041C7  018F    L877:	MOVW R17:R16,R31:R30
0041C8  3F0F    	CPI R16,$FF
0041C9  E0E0    	LDI ZL,$00
0041CA  071E    	CPC R17,ZL
0041CB  F018    	BRCS L879
0041CC  EF0E    	LDI R16,$FE
0041CD  E010    	LDI R17,$00
0041CE  C006    	RJMP L880
0041CF  3001    L879:	CPI R16,$01
0041D0  E0E0    	LDI ZL,$00
0041D1  071E    	CPC R17,ZL
0041D2  F410    	BRCC L880
0041D3  E001    	LDI R16,$01
0041D4  E010    	LDI R17,$00
0041D5  2F40    L880:	MOV R20,R16
0041D6  C001    	RJMP L881
0041D7  E040    L869:	LDI R20,$00
0041D8  91A0    L881:	LDS XL,$05CC
0041D9  05CC
0041DA  E0B0    	LDI XH,$00
0041DB  5EAE    	SUBI XL,$EE
0041DC  4FBA    	SBCI XH,$FA
0041DD  934C    	ST X,R20
0041DE  91E0    	LDS ZL,$05CC
0041DF  05CC
0041E0  5FEF    	SUBI ZL,$FF
0041E1  93E0    	STS $05CC,ZL
0041E2  05CC
0041E3  2724    	EOR R18,R20
0041E4  5F3F    	SUBI R19,$FF
0041E5  CF62    	RJMP L882
0041E6  772F    L867:	ANDI R18,$7F
0041E7  91A0    	LDS XL,$05CC
0041E8  05CC
0041E9  E0B0    	LDI XH,$00
0041EA  5EAE    	SUBI XL,$EE
0041EB  4FBA    	SBCI XH,$FA
0041EC  932C    	ST X,R18
0041ED  91E0    	LDS ZL,$05CC
0041EE  05CC
0041EF  5FEF    	SUBI ZL,$FF
0041F0  93E0    	STS $05CC,ZL
0041F1  05CC
0041F2  C099    	RJMP L883
0041F3  940E    L1017:	CALL L613
0041F4  6E26
0041F5  91E0    	LDS ZL,$078B
0041F6  078B
0041F7  95E2    	SWAP ZL
0041F8  7FE0    	ANDI ZL,$F0
0041F9  0FEE    	LSL ZL
0041FA  61EF    	ORI ZL,$1F
0041FB  2F5E    	MOV R21,ZL
0041FC  91A0    	LDS XL,$05CC
0041FD  05CC
0041FE  E0B0    	LDI XH,$00
0041FF  5EAE    	SUBI XL,$EE
004200  4FBA    	SBCI XH,$FA
004201  EFEF    	LDI ZL,$FF
004202  93EC    	ST X,ZL
004203  91E0    	LDS ZL,$05CC
004204  05CC
004205  5FEF    	SUBI ZL,$FF
004206  93E0    	STS $05CC,ZL
004207  05CC
004208  91A0    	LDS XL,$05CC
004209  05CC
00420A  E0B0    	LDI XH,$00
00420B  5EAE    	SUBI XL,$EE
00420C  4FBA    	SBCI XH,$FA
00420D  935C    	ST X,R21
00420E  5FEF    	SUBI ZL,$FF
00420F  93E0    	STS $05CC,ZL
004210  05CC
004211  91A0    	LDS XL,$05CC
004212  05CC
004213  E0B0    	LDI XH,$00
004214  5EAE    	SUBI XL,$EE
004215  4FBA    	SBCI XH,$FA
004216  91E0    	LDS ZL,$0699
004217  0699
004218  5FEF    	SUBI ZL,$FF
004219  93EC    	ST X,ZL
00421A  91E0    	LDS ZL,$05CC
00421B  05CC
00421C  5FEF    	SUBI ZL,$FF
00421D  93E0    	STS $05CC,ZL
00421E  05CC
00421F  E020    	LDI R18,$00
004220  E030    	LDI R19,$00
004221  91E0    L891:	LDS ZL,$0699
004222  0699
004223  5FEF    	SUBI ZL,$FF
004224  173E    	CP R19,ZL
004225  F010    	BRCS L884
004226  940C    	JMP L885
004227  4280
004228  E0E5    L884:	LDI ZL,$05
004229  9FE3    	MUL ZL,R19
00422A  01F0    	MOVW R31:R30,R1:R0
00422B  E8A8    	LDI XL,$88
00422C  E0B7    	LDI XH,$07
00422D  0FAE    	ADD XL,ZL
00422E  1FBF    	ADC XH,ZH
00422F  91EC    	LD ZL,X
004230  30E0    	CPI ZL,$00
004231  F411    	BRNE L886
004232  940C    	JMP L887
004233  4271
004234  E0E5    L886:	LDI ZL,$05
004235  9FE3    	MUL ZL,R19
004236  01F0    	MOVW R31:R30,R1:R0
004237  E8A9    	LDI XL,$89
004238  E0B7    	LDI XH,$07
004239  0FAE    	ADD XL,ZL
00423A  1FBF    	ADC XH,ZH
00423B  91EC    	LD ZL,X
00423C  E0F0    	LDI ZH,$00
00423D  93FF    	PUSH ZH
00423E  93EF    	PUSH ZL
00423F  91E0    	LDS ZL,$0619
004240  0619
004241  91F0    	LDS ZH,$061A
004242  061A
004243  940E    	CALL L871
004244  6BD6
004245  940E    	CALL L872
004246  6CFB
004247  937F    	PUSH R23
004248  936F    	PUSH R22
004249  93FF    	PUSH ZH
00424A  93EF    	PUSH ZL
00424B  2FE3    	MOV ZL,R19
00424C  E1AD    	LDI XL,$1D
00424D  E0B6    	LDI XH,$06
00424E  E0F0    	LDI ZH,$00
00424F  940E    	CALL L873
004250  6BC6
004251  0FAE    	ADD XL,ZL
004252  1FBF    	ADC XH,ZH
004253  940E    	CALL L874
004254  6C4F
004255  91AF    	POP XL
004256  91BF    	POP XH
004257  918F    	POP R24
004258  919F    	POP R25
004259  940E    	CALL L875
00425A  6D87
00425B  940E    	CALL L876
00425C  6CC8
00425D  91AF    	POP XL
00425E  91BF    	POP XH
00425F  0FEA    	ADD ZL,XL
004260  1FFB    	ADC ZH,XH
004261  018F    	MOVW R17:R16,R31:R30
004262  3F0F    	CPI R16,$FF
004263  E0E0    	LDI ZL,$00
004264  071E    	CPC R17,ZL
004265  F018    	BRCS L888
004266  EF0E    	LDI R16,$FE
004267  E010    	LDI R17,$00
004268  C006    	RJMP L889
004269  3001    L888:	CPI R16,$01
00426A  E0E0    	LDI ZL,$00
00426B  071E    	CPC R17,ZL
00426C  F410    	BRCC L889
00426D  E001    	LDI R16,$01
00426E  E010    	LDI R17,$00
00426F  2F40    L889:	MOV R20,R16
004270  C001    	RJMP L890
004271  E040    L887:	LDI R20,$00
004272  91A0    L890:	LDS XL,$05CC
004273  05CC
004274  E0B0    	LDI XH,$00
004275  5EAE    	SUBI XL,$EE
004276  4FBA    	SBCI XH,$FA
004277  934C    	ST X,R20
004278  91E0    	LDS ZL,$05CC
004279  05CC
00427A  5FEF    	SUBI ZL,$FF
00427B  93E0    	STS $05CC,ZL
00427C  05CC
00427D  2724    	EOR R18,R20
00427E  5F3F    	SUBI R19,$FF
00427F  CFA1    	RJMP L891
004280  772F    L885:	ANDI R18,$7F
004281  91A0    	LDS XL,$05CC
004282  05CC
004283  E0B0    	LDI XH,$00
004284  5EAE    	SUBI XL,$EE
004285  4FBA    	SBCI XH,$FA
004286  932C    	ST X,R18
004287  91E0    	LDS ZL,$05CC
004288  05CC
004289  5FEF    	SUBI ZL,$FF
00428A  93E0    	STS $05CC,ZL
00428B  05CC
00428C  940E    L883:	CALL L617
00428D  6E2D
00428E  9626    	ADIW YH:YL,6
00428F  9508    	RET


''''''''''''''''''''''''''''''
'''
'''ReadPos
'''
''''''''''''''''''''''''''''''


004290  9722    L1006:	SBIW YH:YL,2
004291  940E    	CALL L892
004292  6E27
004293  81EF    	LDD ZL,Y+7
004294  6AE0    	ORI ZL,$A0
004295  2F0E    	MOV R16,ZL
004296  E010    	LDI R17,$00
004297  E0E0    	LDI ZL,$00
004298  93E0    	STS $05CD,ZL   gRX0CNT=0;
004299  05CD
00429A  2FE1    	MOV ZL,R17
00429B  27E0    	EOR ZL,R16
00429C  77EF    	ANDI ZL,$7F
00429D  2F2E    	MOV R18,ZL
00429E  EFEF    	LDI ZL,$FF
00429F  93EA    	ST -Y,ZL
0042A0  940E    	CALL L864    SciTx0Data
0042A1  407D
0042A2  930A    	ST -Y,R16
0042A3  940E    	CALL L864     SciTx0Data
0042A4  407D
0042A5  931A    	ST -Y,R17
0042A6  940E    	CALL L864     SciTx0Data
0042A7  407D
0042A8  932A    	ST -Y,R18
0042A9  940E    	CALL L864      SciTx0Data
0042AA  407D
0042AB  91E0    	LDS ZL,$0503
0042AC  0503
0042AD  91F0    	LDS ZH,$0504
0042AE  0504
0042AF  83ED    	STD Y+5,ZL
0042B0  83FE    	STD Y+6,ZH
0042B1  91A0    L898:	LDS XL,$05CD        gRx0CNT == 2? (05CD)
0042B2  05CD
0042B3  30A2    	CPI XL,$02
0042B4  F548    	BRCC L893
0042B5  81ED    	LDD ZL,Y+5
0042B6  81FE    	LDD ZH,Y+6
0042B7  91A0    	LDS XL,$0503
0042B8  0503
0042B9  91B0    	LDS XH,$0504
0042BA  0504
0042BB  17AE    	CP XL,ZL
0042BC  07BF    	CPC XH,ZH
0042BD  F490    	BRCC L894
0042BE  81AD    	LDD XL,Y+5
0042BF  81BE    	LDD XH,Y+6
0042C0  EEE8    	LDI ZL,$E8
0042C1  E0F3    	LDI ZH,$03
0042C2  1BEA    	SUB ZL,XL
0042C3  0BFB    	SBC ZH,XH
0042C4  91A0    	LDS XL,$0503
0042C5  0503
0042C6  91B0    	LDS XH,$0504
0042C7  0504
0042C8  0FAE    	ADD XL,ZL
0042C9  1FBF    	ADC XH,ZH
0042CA  9755    	SBIW XH:XL,21
0042CB  F018    	BRCS L895
0042CC  EBEC    	LDI ZL,$BC
0042CD  E0F1    	LDI ZH,$01
0042CE  C012    	RJMP L896
0042CF  C00D    L895:	RJMP L897
0042D0  81ED    L894:	LDD ZL,Y+5
0042D1  81FE    	LDD ZH,Y+6
0042D2  91A0    	LDS XL,$0503
0042D3  0503
0042D4  91B0    	LDS XH,$0504
0042D5  0504
0042D6  1BAE    	SUB XL,ZL
0042D7  0BBF    	SBC XH,ZH
0042D8  9755    	SBIW XH:XL,21
0042D9  F018    	BRCS L897
0042DA  EBEC    	LDI ZL,$BC             444  (No reponse)
0042DB  E0F1    	LDI ZH,$01
0042DC  C004    	RJMP L896
0042DD  CFD3    L897:	RJMP L898
0042DE  91E0    L893:	LDS ZL,$05D6
0042DF  05D6
0042E0  E0F0    	LDI ZH,$00
0042E1  940E    L896:	CALL L899
0042E2  6E2E
0042E3  9628    	ADIW YH:YL,8
0042E4  9508    	RET


;;;;;;;;  END ReadPOS



0042E5  940E    L992:	CALL L892
0042E6  6E27
0042E7  E0E0    	LDI ZL,$00
0042E8  93E0    	STS $05CD,ZL
0042E9  05CD
0042EA  81ED    	LDD ZL,Y+5
0042EB  E1AD    	LDI XL,$1D
0042EC  27AE    	EOR XL,ZL
0042ED  E7EF    	LDI ZL,$7F
0042EE  23EA    	AND ZL,XL
0042EF  2F0E    	MOV R16,ZL
0042F0  EFEF    	LDI ZL,$FF
0042F1  93EA    	ST -Y,ZL
0042F2  940E    	CALL L864
0042F3  407D
0042F4  E0E1    	LDI ZL,$01
0042F5  E0F0    	LDI ZH,$00
0042F6  93FA    	ST -Y,ZH
0042F7  93EA    	ST -Y,ZL
0042F8  940E    	CALL L538
0042F9  6B57
0042FA  E1ED    	LDI ZL,$1D
0042FB  93EA    	ST -Y,ZL
0042FC  940E    	CALL L864
0042FD  407D
0042FE  E0E1    	LDI ZL,$01
0042FF  E0F0    	LDI ZH,$00
004300  93FA    	ST -Y,ZH
004301  93EA    	ST -Y,ZL
004302  940E    	CALL L538
004303  6B57
004304  81ED    	LDD ZL,Y+5
004305  93EA    	ST -Y,ZL
004306  940E    	CALL L864
004307  407D
004308  E0E1    	LDI ZL,$01
004309  E0F0    	LDI ZH,$00
00430A  93FA    	ST -Y,ZH
00430B  93EA    	ST -Y,ZL
00430C  940E    	CALL L538
00430D  6B57
00430E  930A    	ST -Y,R16
00430F  940E    	CALL L864
004310  407D
004311  940E    	CALL L899
004312  6E2E
004313  9626    	ADIW YH:YL,6
004314  9508    	RET
004315  EFEF    L570:	LDI ZL,$FF
004316  93EA    	ST -Y,ZL
004317  940E    	CALL L547
004318  4082
004319  EFEF    	LDI ZL,$FF
00431A  93EA    	ST -Y,ZL
00431B  940E    	CALL L547
00431C  4082
00431D  EAEA    	LDI ZL,$AA
00431E  93EA    	ST -Y,ZL
00431F  940E    	CALL L547
004320  4082
004321  E5E5    	LDI ZL,$55
004322  93EA    	ST -Y,ZL
004323  940E    	CALL L547
004324  4082
004325  EAEA    	LDI ZL,$AA
004326  93EA    	ST -Y,ZL
004327  940E    	CALL L547
004328  4082
004329  E5E5    	LDI ZL,$55
00432A  93EA    	ST -Y,ZL
00432B  940E    	CALL L547
00432C  4082
00432D  E3E7    	LDI ZL,$37
00432E  93EA    	ST -Y,ZL
00432F  940E    	CALL L547
004330  4082
004331  EBEA    	LDI ZL,$BA
004332  93EA    	ST -Y,ZL
004333  940E    	CALL L547
004334  4082
004335  81E9    	LDD ZL,Y+1
004336  93EA    	ST -Y,ZL
004337  940E    	CALL L547
004338  4082
004339  924A    	ST -Y,R4
00433A  940E    	CALL L547
00433B  4082
00433C  E0E0    	LDI ZL,$00
00433D  93EA    	ST -Y,ZL
00433E  940E    	CALL L547
00433F  4082
004340  E0E0    	LDI ZL,$00
004341  93EA    	ST -Y,ZL
004342  940E    	CALL L547
004343  4082
004344  E0E0    	LDI ZL,$00
004345  93EA    	ST -Y,ZL
004346  940E    	CALL L547
004347  4082
004348  81E8    	LD ZL,Y
004349  93EA    	ST -Y,ZL
00434A  940E    	CALL L547
00434B  4082
00434C  9622    	ADIW YH:YL,2
00434D  9508    	RET
00434E  931A    L1037:	ST -Y,R17
00434F  930A    	ST -Y,R16
004350  81EA    	LDD ZL,Y+2
004351  93E0    	STS $06BC,ZL
004352  06BC
004353  50E1    	SUBI ZL,$01
004354  E3A0    	LDI XL,$30
004355  E0B0    	LDI XH,$00
004356  E0F0    	LDI ZH,$00
004357  0FEE    	LSL ZL
004358  1FFF    	ROL ZH
004359  0FAE    	ADD XL,ZL
00435A  1FBF    	ADC XH,ZH
00435B  940E    	CALL L602
00435C  6C78
00435D  93E0    	STS $0879,ZL
00435E  0879
00435F  93F0    	STS $087A,ZH
004360  087A
004361  93FA    	ST -Y,ZH
004362  93EA    	ST -Y,ZL
004363  E0E9    	LDI ZL,$09
004364  E0F0    	LDI ZH,$00
004365  93FA    	ST -Y,ZH
004366  93EA    	ST -Y,ZL
004367  940E    	CALL L539
004368  64BF
004369  91E0    	LDS ZL,$0879
00436A  0879
00436B  91F0    	LDS ZH,$087A
00436C  087A
00436D  9639    	ADIW ZH:ZL,9
00436E  93E0    	STS $0879,ZL
00436F  0879
004370  93F0    	STS $087A,ZH
004371  087A
004372  E000    	LDI R16,$00
004373  E010    	LDI R17,$00
004374  3004    L904:	CPI R16,$04
004375  E0E0    	LDI ZL,$00
004376  071E    	CPC R17,ZL
004377  F590    	BRCC L900
004378  91A0    	LDS XL,$06BD
004379  06BD
00437A  91B0    	LDS XH,$06BE
00437B  06BE
00437C  9180    	LDS R24,$06BF
00437D  06BF
00437E  9190    	LDS R25,$06C0
00437F  06C0
004380  E0E8    	LDI ZL,$08
004381  940E    	CALL L901
004382  6BBA
004383  93E0    	STS $06BD,ZL
004384  06BD
004385  93F0    	STS $06BE,ZH
004386  06BE
004387  9360    	STS $06BF,R22
004388  06BF
004389  9370    	STS $06C0,R23
00438A  06C0
00438B  EBAD    	LDI XL,$BD
00438C  E0B6    	LDI XH,$06
00438D  93BF    	PUSH XH
00438E  93AF    	PUSH XL
00438F  940E    	CALL L874
004390  6C4F
004391  937F    	PUSH R23
004392  936F    	PUSH R22
004393  93FF    	PUSH ZH
004394  93EF    	PUSH ZL
004395  E7AD    	LDI XL,$7D
004396  E0B8    	LDI XH,$08
004397  0FA0    	ADD XL,R16
004398  1FB1    	ADC XH,R17
004399  91EC    	LD ZL,X
00439A  91AF    	POP XL
00439B  91BF    	POP XH
00439C  918F    	POP R24
00439D  919F    	POP R25
00439E  27FF    	CLR ZH
00439F  2766    	CLR R22
0043A0  2777    	CLR R23
0043A1  940E    	CALL L902
0043A2  6B9F
0043A3  91AF    	POP XL
0043A4  91BF    	POP XH
0043A5  940E    	CALL L903
0043A6  6C55
0043A7  5F0F    	SUBI R16,$FF
0043A8  4F1F    	SBCI R17,$FF
0043A9  CFCA    	RJMP L904
0043AA  91E0    L900:	LDS ZL,$0881
0043AB  0881
0043AC  93E0    	STS $06C1,ZL
0043AD  06C1
0043AE  E005    	LDI R16,$05
0043AF  E010    	LDI R17,$00
0043B0  3007    L906:	CPI R16,$07
0043B1  E0E0    	LDI ZL,$00
0043B2  071E    	CPC R17,ZL
0043B3  F4D0    	BRCC L905
0043B4  91F0    	LDS ZH,$06C2
0043B5  06C2
0043B6  E0E0    	LDI ZL,$00
0043B7  93E0    	STS $06C2,ZL
0043B8  06C2
0043B9  93F0    	STS $06C3,ZH
0043BA  06C3
0043BB  ECA2    	LDI XL,$C2
0043BC  E0B6    	LDI XH,$06
0043BD  01BD    	MOVW R23:R22,R27:R26
0043BE  900D    	LD R0,X+
0043BF  901C    	LD R1,X
0043C0  E7AD    	LDI XL,$7D
0043C1  E0B8    	LDI XH,$08
0043C2  0FA0    	ADD XL,R16
0043C3  1FB1    	ADC XH,R17
0043C4  91EC    	LD ZL,X
0043C5  E0F0    	LDI ZH,$00
0043C6  0DE0    	ADD ZL,R0
0043C7  1DF1    	ADC ZH,R1
0043C8  01DB    	MOVW R27:R26,R23:R22
0043C9  93ED    	ST X+,ZL
0043CA  93FC    	ST X,ZH
0043CB  5F0F    	SUBI R16,$FF
0043CC  4F1F    	SBCI R17,$FF
0043CD  CFE2    	RJMP L906
0043CE  E007    L905:	LDI R16,$07
0043CF  E010    	LDI R17,$00
0043D0  3009    L908:	CPI R16,$09
0043D1  E0E0    	LDI ZL,$00
0043D2  071E    	CPC R17,ZL
0043D3  F4D0    	BRCC L907
0043D4  91F0    	LDS ZH,$06C4
0043D5  06C4
0043D6  E0E0    	LDI ZL,$00
0043D7  93E0    	STS $06C4,ZL
0043D8  06C4
0043D9  93F0    	STS $06C5,ZH
0043DA  06C5
0043DB  ECA4    	LDI XL,$C4
0043DC  E0B6    	LDI XH,$06
0043DD  01BD    	MOVW R23:R22,R27:R26
0043DE  900D    	LD R0,X+
0043DF  901C    	LD R1,X
0043E0  E7AD    	LDI XL,$7D
0043E1  E0B8    	LDI XH,$08
0043E2  0FA0    	ADD XL,R16
0043E3  1FB1    	ADC XH,R17
0043E4  91EC    	LD ZL,X
0043E5  E0F0    	LDI ZH,$00
0043E6  0DE0    	ADD ZL,R0
0043E7  1DF1    	ADC ZH,R1
0043E8  01DB    	MOVW R27:R26,R23:R22
0043E9  93ED    	ST X+,ZL
0043EA  93FC    	ST X,ZH
0043EB  5F0F    	SUBI R16,$FF
0043EC  4F1F    	SBCI R17,$FF
0043ED  CFE2    	RJMP L908
0043EE  91E0    L907:	LDS ZL,$0879
0043EF  0879
0043F0  91F0    	LDS ZH,$087A
0043F1  087A
0043F2  93FA    	ST -Y,ZH
0043F3  93EA    	ST -Y,ZL
0043F4  91E0    	LDS ZL,$06C4
0043F5  06C4
0043F6  91F0    	LDS ZH,$06C5
0043F7  06C5
0043F8  E0A6    	LDI XL,$06
0043F9  E0B0    	LDI XH,$00
0043FA  940E    	CALL L909
0043FB  6BDB
0043FC  93FA    	ST -Y,ZH
0043FD  93EA    	ST -Y,ZL
0043FE  940E    	CALL L539
0043FF  64BF
004400  91E0    	LDS ZL,$06C4
004401  06C4
004402  91F0    	LDS ZH,$06C5
004403  06C5
004404  E0A6    	LDI XL,$06
004405  E0B0    	LDI XH,$00
004406  940E    	CALL L909
004407  6BDB
004408  91A0    	LDS XL,$0879
004409  0879
00440A  91B0    	LDS XH,$087A
00440B  087A
00440C  0FEA    	ADD ZL,XL
00440D  1FFB    	ADC ZH,XH
00440E  93E0    	STS $0879,ZL
00440F  0879
004410  93F0    	STS $087A,ZH
004411  087A
004412  91E0    	LDS ZL,$06C4
004413  06C4
004414  91F0    	LDS ZH,$06C5
004415  06C5
004416  9731    	SBIW ZH:ZL,1
004417  E0A6    	LDI XL,$06
004418  E0B0    	LDI XH,$00
004419  940E    	CALL L909
00441A  6BDB
00441B  58E3    	SUBI ZL,$83
00441C  4FF7    	SBCI ZH,$F7
00441D  81E0    	LD ZL,Z
00441E  93E0    	STS $0699,ZL
00441F  0699
004420  E000    	LDI R16,$00
004421  E010    	LDI R17,$00
004422  310F    L912:	CPI R16,$1F
004423  E0E0    	LDI ZL,$00
004424  071E    	CPC R17,ZL
004425  F010    	BRCS L910
004426  940C    	JMP L911
004427  4478
004428  E0A6    L910:	LDI XL,$06
004429  9FA0    	MUL XL,R16
00442A  01F0    	MOVW R31:R30,R1:R0
00442B  9FA1    	MUL XL,R17
00442C  0DF0    	ADD ZH,R0
00442D  ECA6    	LDI XL,$C6
00442E  E0B6    	LDI XH,$06
00442F  0FAE    	ADD XL,ZL
004430  1FBF    	ADC XH,ZH
004431  E0E0    	LDI ZL,$00
004432  93EC    	ST X,ZL
004433  E0A6    	LDI XL,$06
004434  9FA0    	MUL XL,R16
004435  01F0    	MOVW R31:R30,R1:R0
004436  9FA1    	MUL XL,R17
004437  0DF0    	ADD ZH,R0
004438  ECA7    	LDI XL,$C7
004439  E0B6    	LDI XH,$06
00443A  0FAE    	ADD XL,ZL
00443B  1FBF    	ADC XH,ZH
00443C  E0E0    	LDI ZL,$00
00443D  93EC    	ST X,ZL
00443E  E0A6    	LDI XL,$06
00443F  9FA0    	MUL XL,R16
004440  01F0    	MOVW R31:R30,R1:R0
004441  9FA1    	MUL XL,R17
004442  0DF0    	ADD ZH,R0
004443  ECA8    	LDI XL,$C8
004444  E0B6    	LDI XH,$06
004445  0FAE    	ADD XL,ZL
004446  1FBF    	ADC XH,ZH
004447  E0E0    	LDI ZL,$00
004448  93EC    	ST X,ZL
004449  E0A6    	LDI XL,$06
00444A  9FA0    	MUL XL,R16
00444B  01F0    	MOVW R31:R30,R1:R0
00444C  9FA1    	MUL XL,R17
00444D  0DF0    	ADD ZH,R0
00444E  ECA9    	LDI XL,$C9
00444F  E0B6    	LDI XH,$06
004450  0FAE    	ADD XL,ZL
004451  1FBF    	ADC XH,ZH
004452  E0E0    	LDI ZL,$00
004453  93EC    	ST X,ZL
004454  E0A6    	LDI XL,$06
004455  9FA0    	MUL XL,R16
004456  01F0    	MOVW R31:R30,R1:R0
004457  9FA1    	MUL XL,R17
004458  0DF0    	ADD ZH,R0
004459  ECAA    	LDI XL,$CA
00445A  E0B6    	LDI XH,$06
00445B  0FAE    	ADD XL,ZL
00445C  1FBF    	ADC XH,ZH
00445D  E0E0    	LDI ZL,$00
00445E  93EC    	ST X,ZL
00445F  E0A6    	LDI XL,$06
004460  9FA0    	MUL XL,R16
004461  01F0    	MOVW R31:R30,R1:R0
004462  9FA1    	MUL XL,R17
004463  0DF0    	ADD ZH,R0
004464  ECAB    	LDI XL,$CB
004465  E0B6    	LDI XH,$06
004466  0FAE    	ADD XL,ZL
004467  1FBF    	ADC XH,ZH
004468  E0E0    	LDI ZL,$00
004469  93EC    	ST X,ZL
00446A  01F8    	MOVW R31:R30,R17:R16
00446B  E3AB    	LDI XL,$3B
00446C  E0B8    	LDI XH,$08
00446D  0FEE    	LSL ZL
00446E  1FFF    	ROL ZH
00446F  0FAE    	ADD XL,ZL
004470  1FBF    	ADC XH,ZH
004471  E0E0    	LDI ZL,$00
004472  E0F0    	LDI ZH,$00
004473  93ED    	ST X+,ZL
004474  93FC    	ST X,ZH
004475  5F0F    	SUBI R16,$FF
004476  4F1F    	SBCI R17,$FF
004477  CFAA    	RJMP L912
004478  E000    L911:	LDI R16,$00
004479  E010    	LDI R17,$00
00447A  91E0    L915:	LDS ZL,$06C4
00447B  06C4
00447C  91F0    	LDS ZH,$06C5
00447D  06C5
00447E  170E    	CP R16,ZL
00447F  071F    	CPC R17,ZH
004480  F010    	BRCS L913
004481  940C    	JMP L914
004482  450F
004483  E0A6    L913:	LDI XL,$06
004484  9FA0    	MUL XL,R16
004485  01F0    	MOVW R31:R30,R1:R0
004486  9FA1    	MUL XL,R17
004487  0DF0    	ADD ZH,R0
004488  58E3    	SUBI ZL,$83
004489  4FF7    	SBCI ZH,$F7
00448A  81E0    	LD ZL,Z
00448B  E0A6    	LDI XL,$06
00448C  9FEA    	MUL ZL,XL
00448D  01F0    	MOVW R31:R30,R1:R0
00448E  ECA6    	LDI XL,$C6
00448F  E0B6    	LDI XH,$06
004490  0FAE    	ADD XL,ZL
004491  1FBF    	ADC XH,ZH
004492  E0E1    	LDI ZL,$01
004493  93EC    	ST X,ZL
004494  E0A6    	LDI XL,$06
004495  9FA0    	MUL XL,R16
004496  01F0    	MOVW R31:R30,R1:R0
004497  9FA1    	MUL XL,R17
004498  0DF0    	ADD ZH,R0
004499  58E3    	SUBI ZL,$83
00449A  4FF7    	SBCI ZH,$F7
00449B  81E0    	LD ZL,Z
00449C  E0A6    	LDI XL,$06
00449D  9FEA    	MUL ZL,XL
00449E  01F0    	MOVW R31:R30,R1:R0
00449F  53E9    	SUBI ZL,$39
0044A0  4FF9    	SBCI ZH,$F9
0044A1  01BF    	MOVW R23:R22,R31:R30
0044A2  E0A6    	LDI XL,$06
0044A3  9FA0    	MUL XL,R16
0044A4  01F0    	MOVW R31:R30,R1:R0
0044A5  9FA1    	MUL XL,R17
0044A6  0DF0    	ADD ZH,R0
0044A7  58E2    	SUBI ZL,$82
0044A8  4FF7    	SBCI ZH,$F7
0044A9  81E0    	LD ZL,Z
0044AA  01DB    	MOVW R27:R26,R23:R22
0044AB  93EC    	ST X,ZL
0044AC  E0A6    	LDI XL,$06
0044AD  9FA0    	MUL XL,R16
0044AE  01F0    	MOVW R31:R30,R1:R0
0044AF  9FA1    	MUL XL,R17
0044B0  0DF0    	ADD ZH,R0
0044B1  58E3    	SUBI ZL,$83
0044B2  4FF7    	SBCI ZH,$F7
0044B3  81E0    	LD ZL,Z
0044B4  E0A6    	LDI XL,$06
0044B5  9FEA    	MUL ZL,XL
0044B6  01F0    	MOVW R31:R30,R1:R0
0044B7  53E8    	SUBI ZL,$38
0044B8  4FF9    	SBCI ZH,$F9
0044B9  01BF    	MOVW R23:R22,R31:R30
0044BA  E0A6    	LDI XL,$06
0044BB  9FA0    	MUL XL,R16
0044BC  01F0    	MOVW R31:R30,R1:R0
0044BD  9FA1    	MUL XL,R17
0044BE  0DF0    	ADD ZH,R0
0044BF  58E1    	SUBI ZL,$81
0044C0  4FF7    	SBCI ZH,$F7
0044C1  81E0    	LD ZL,Z
0044C2  01DB    	MOVW R27:R26,R23:R22
0044C3  93EC    	ST X,ZL
0044C4  E0A6    	LDI XL,$06
0044C5  9FA0    	MUL XL,R16
0044C6  01F0    	MOVW R31:R30,R1:R0
0044C7  9FA1    	MUL XL,R17
0044C8  0DF0    	ADD ZH,R0
0044C9  58E3    	SUBI ZL,$83
0044CA  4FF7    	SBCI ZH,$F7
0044CB  81E0    	LD ZL,Z
0044CC  E0A6    	LDI XL,$06
0044CD  9FEA    	MUL ZL,XL
0044CE  01F0    	MOVW R31:R30,R1:R0
0044CF  53E7    	SUBI ZL,$37
0044D0  4FF9    	SBCI ZH,$F9
0044D1  01BF    	MOVW R23:R22,R31:R30
0044D2  E0A6    	LDI XL,$06
0044D3  9FA0    	MUL XL,R16
0044D4  01F0    	MOVW R31:R30,R1:R0
0044D5  9FA1    	MUL XL,R17
0044D6  0DF0    	ADD ZH,R0
0044D7  58E0    	SUBI ZL,$80
0044D8  4FF7    	SBCI ZH,$F7
0044D9  81E0    	LD ZL,Z
0044DA  01DB    	MOVW R27:R26,R23:R22
0044DB  93EC    	ST X,ZL
0044DC  E0A6    	LDI XL,$06
0044DD  9FA0    	MUL XL,R16
0044DE  01F0    	MOVW R31:R30,R1:R0
0044DF  9FA1    	MUL XL,R17
0044E0  0DF0    	ADD ZH,R0
0044E1  58E3    	SUBI ZL,$83
0044E2  4FF7    	SBCI ZH,$F7
0044E3  81E0    	LD ZL,Z
0044E4  E0A6    	LDI XL,$06
0044E5  9FEA    	MUL ZL,XL
0044E6  01F0    	MOVW R31:R30,R1:R0
0044E7  53E6    	SUBI ZL,$36
0044E8  4FF9    	SBCI ZH,$F9
0044E9  01BF    	MOVW R23:R22,R31:R30
0044EA  E0A6    	LDI XL,$06
0044EB  9FA0    	MUL XL,R16
0044EC  01F0    	MOVW R31:R30,R1:R0
0044ED  9FA1    	MUL XL,R17
0044EE  0DF0    	ADD ZH,R0
0044EF  57EF    	SUBI ZL,$7F
0044F0  4FF7    	SBCI ZH,$F7
0044F1  81E0    	LD ZL,Z
0044F2  01DB    	MOVW R27:R26,R23:R22
0044F3  93EC    	ST X,ZL
0044F4  E0A6    	LDI XL,$06
0044F5  9FA0    	MUL XL,R16
0044F6  01F0    	MOVW R31:R30,R1:R0
0044F7  9FA1    	MUL XL,R17
0044F8  0DF0    	ADD ZH,R0
0044F9  58E3    	SUBI ZL,$83
0044FA  4FF7    	SBCI ZH,$F7
0044FB  81E0    	LD ZL,Z
0044FC  E0A6    	LDI XL,$06
0044FD  9FEA    	MUL ZL,XL
0044FE  01F0    	MOVW R31:R30,R1:R0
0044FF  53E5    	SUBI ZL,$35
004500  4FF9    	SBCI ZH,$F9
004501  01BF    	MOVW R23:R22,R31:R30
004502  E0A6    	LDI XL,$06
004503  9FA0    	MUL XL,R16
004504  01F0    	MOVW R31:R30,R1:R0
004505  9FA1    	MUL XL,R17
004506  0DF0    	ADD ZH,R0
004507  57EE    	SUBI ZL,$7E
004508  4FF7    	SBCI ZH,$F7
004509  81E0    	LD ZL,Z
00450A  01DB    	MOVW R27:R26,R23:R22
00450B  93EC    	ST X,ZL
00450C  5F0F    	SUBI R16,$FF
00450D  4F1F    	SBCI R17,$FF
00450E  CF6B    	RJMP L915
00450F  91A0    L914:	LDS XL,$06C1
004510  06C1
004511  30A4    	CPI XL,$04
004512  F1B1    	BREQ L916
004513  E000    	LDI R16,$00
004514  E010    	LDI R17,$00
004515  310F    L918:	CPI R16,$1F
004516  E0E0    	LDI ZL,$00
004517  071E    	CPC R17,ZL
004518  F580    	BRCC L916
004519  E0A6    	LDI XL,$06
00451A  9FA0    	MUL XL,R16
00451B  01F0    	MOVW R31:R30,R1:R0
00451C  9FA1    	MUL XL,R17
00451D  0DF0    	ADD ZH,R0
00451E  ECA6    	LDI XL,$C6
00451F  E0B6    	LDI XH,$06
004520  0FAE    	ADD XL,ZL
004521  1FBF    	ADC XH,ZH
004522  91EC    	LD ZL,X
004523  30E0    	CPI ZL,$00
004524  F109    	BREQ L917
004525  01F8    	MOVW R31:R30,R17:R16
004526  E3AB    	LDI XL,$3B
004527  E0B8    	LDI XH,$08
004528  0FEE    	LSL ZL
004529  1FFF    	ROL ZH
00452A  0FEA    	ADD ZL,XL
00452B  1FFB    	ADC ZH,XH
00452C  01CF    	MOVW R25:R24,R31:R30
00452D  E1AD    	LDI XL,$1D
00452E  E0B0    	LDI XH,$00
00452F  0FA0    	ADD XL,R16
004530  1FB1    	ADC XH,R17
004531  940E    	CALL L545
004532  6C7C
004533  2F6E    	MOV R22,ZL
004534  2777    	CLR R23
004535  E0A6    	LDI XL,$06
004536  9FA0    	MUL XL,R16
004537  01F0    	MOVW R31:R30,R1:R0
004538  9FA1    	MUL XL,R17
004539  0DF0    	ADD ZH,R0
00453A  ECAB    	LDI XL,$CB
00453B  E0B6    	LDI XH,$06
00453C  0FAE    	ADD XL,ZL
00453D  1FBF    	ADC XH,ZH
00453E  91AC    	LD XL,X
00453F  27BB    	CLR XH
004540  01FB    	MOVW R31:R30,R23:R22
004541  1BEA    	SUB ZL,XL
004542  0BFB    	SBC ZH,XH
004543  01DC    	MOVW R27:R26,R25:R24
004544  93ED    	ST X+,ZL
004545  93FC    	ST X,ZH
004546  5F0F    L917:	SUBI R16,$FF
004547  4F1F    	SBCI R17,$FF
004548  CFCC    	RJMP L918
004549  8119    L916:	LDD R17,Y+1
00454A  8108    	LD R16,Y
00454B  9623    	ADIW YH:YL,3
00454C  9508    	RET
00454D  931A    L1047:	ST -Y,R17
00454E  930A    	ST -Y,R16
00454F  E000    	LDI R16,$00
004550  E010    	LDI R17,$00
004551  310F    L921:	CPI R16,$1F
004552  E0E0    	LDI ZL,$00
004553  071E    	CPC R17,ZL
004554  F010    	BRCS L919
004555  940C    	JMP L920
004556  45A7
004557  E0A6    L919:	LDI XL,$06
004558  9FA0    	MUL XL,R16
004559  01F0    	MOVW R31:R30,R1:R0
00455A  9FA1    	MUL XL,R17
00455B  0DF0    	ADD ZH,R0
00455C  ECA6    	LDI XL,$C6
00455D  E0B6    	LDI XH,$06
00455E  0FAE    	ADD XL,ZL
00455F  1FBF    	ADC XH,ZH
004560  E0E0    	LDI ZL,$00
004561  93EC    	ST X,ZL
004562  E0A6    	LDI XL,$06
004563  9FA0    	MUL XL,R16
004564  01F0    	MOVW R31:R30,R1:R0
004565  9FA1    	MUL XL,R17
004566  0DF0    	ADD ZH,R0
004567  ECA7    	LDI XL,$C7
004568  E0B6    	LDI XH,$06
004569  0FAE    	ADD XL,ZL
00456A  1FBF    	ADC XH,ZH
00456B  E0E0    	LDI ZL,$00
00456C  93EC    	ST X,ZL
00456D  E0A6    	LDI XL,$06
00456E  9FA0    	MUL XL,R16
00456F  01F0    	MOVW R31:R30,R1:R0
004570  9FA1    	MUL XL,R17
004571  0DF0    	ADD ZH,R0
004572  ECA8    	LDI XL,$C8
004573  E0B6    	LDI XH,$06
004574  0FAE    	ADD XL,ZL
004575  1FBF    	ADC XH,ZH
004576  E0E0    	LDI ZL,$00
004577  93EC    	ST X,ZL
004578  E0A6    	LDI XL,$06
004579  9FA0    	MUL XL,R16
00457A  01F0    	MOVW R31:R30,R1:R0
00457B  9FA1    	MUL XL,R17
00457C  0DF0    	ADD ZH,R0
00457D  ECA9    	LDI XL,$C9
00457E  E0B6    	LDI XH,$06
00457F  0FAE    	ADD XL,ZL
004580  1FBF    	ADC XH,ZH
004581  E0E0    	LDI ZL,$00
004582  93EC    	ST X,ZL
004583  E0A6    	LDI XL,$06
004584  9FA0    	MUL XL,R16
004585  01F0    	MOVW R31:R30,R1:R0
004586  9FA1    	MUL XL,R17
004587  0DF0    	ADD ZH,R0
004588  ECAA    	LDI XL,$CA
004589  E0B6    	LDI XH,$06
00458A  0FAE    	ADD XL,ZL
00458B  1FBF    	ADC XH,ZH
00458C  E0E0    	LDI ZL,$00
00458D  93EC    	ST X,ZL
00458E  E0A6    	LDI XL,$06
00458F  9FA0    	MUL XL,R16
004590  01F0    	MOVW R31:R30,R1:R0
004591  9FA1    	MUL XL,R17
004592  0DF0    	ADD ZH,R0
004593  ECAB    	LDI XL,$CB
004594  E0B6    	LDI XH,$06
004595  0FAE    	ADD XL,ZL
004596  1FBF    	ADC XH,ZH
004597  E0E0    	LDI ZL,$00
004598  93EC    	ST X,ZL
004599  01F8    	MOVW R31:R30,R17:R16
00459A  E3AB    	LDI XL,$3B
00459B  E0B8    	LDI XH,$08
00459C  0FEE    	LSL ZL
00459D  1FFF    	ROL ZH
00459E  0FAE    	ADD XL,ZL
00459F  1FBF    	ADC XH,ZH
0045A0  E0E0    	LDI ZL,$00
0045A1  E0F0    	LDI ZH,$00
0045A2  93ED    	ST X+,ZL
0045A3  93FC    	ST X,ZH
0045A4  5F0F    	SUBI R16,$FF
0045A5  4F1F    	SBCI R17,$FF
0045A6  CFAA    	RJMP L921
0045A7  91E0    L920:	LDS ZL,$06C4
0045A8  06C4
0045A9  91F0    	LDS ZH,$06C5
0045AA  06C5
0045AB  9731    	SBIW ZH:ZL,1
0045AC  2766    	CLR R22
0045AD  2777    	CLR R23
0045AE  50E4    	SUBI ZL,$04
0045AF  4FFF    	SBCI ZH,$FF
0045B0  4F6F    	SBCI R22,$FF
0045B1  BF6B    	OUT RAMPZ,R22
0045B2  91E6    	ELPM ZL,Z
0045B3  93E0    	STS $0699,ZL
0045B4  0699
0045B5  E000    	LDI R16,$00
0045B6  E010    	LDI R17,$00
0045B7  91E0    L924:	LDS ZL,$06C4
0045B8  06C4
0045B9  91F0    	LDS ZH,$06C5
0045BA  06C5
0045BB  170E    	CP R16,ZL
0045BC  071F    	CPC R17,ZH
0045BD  F010    	BRCS L922
0045BE  940C    	JMP L923
0045BF  465A
0045C0  01F8    L922:	MOVW R31:R30,R17:R16
0045C1  2766    	CLR R22
0045C2  2777    	CLR R23
0045C3  50E4    	SUBI ZL,$04
0045C4  4FFF    	SBCI ZH,$FF
0045C5  4F6F    	SBCI R22,$FF
0045C6  BF6B    	OUT RAMPZ,R22
0045C7  91E6    	ELPM ZL,Z
0045C8  E0A6    	LDI XL,$06
0045C9  9FEA    	MUL ZL,XL
0045CA  01F0    	MOVW R31:R30,R1:R0
0045CB  ECA6    	LDI XL,$C6
0045CC  E0B6    	LDI XH,$06
0045CD  0FAE    	ADD XL,ZL
0045CE  1FBF    	ADC XH,ZH
0045CF  E0E1    	LDI ZL,$01
0045D0  93EC    	ST X,ZL
0045D1  01F8    	MOVW R31:R30,R17:R16
0045D2  2766    	CLR R22
0045D3  2777    	CLR R23
0045D4  50E4    	SUBI ZL,$04
0045D5  4FFF    	SBCI ZH,$FF
0045D6  4F6F    	SBCI R22,$FF
0045D7  BF6B    	OUT RAMPZ,R22
0045D8  91E6    	ELPM ZL,Z
0045D9  E0A6    	LDI XL,$06
0045DA  9FEA    	MUL ZL,XL
0045DB  01F0    	MOVW R31:R30,R1:R0
0045DC  53E9    	SUBI ZL,$39
0045DD  4FF9    	SBCI ZH,$F9
0045DE  010F    	MOVW R1:R0,R31:R30
0045DF  01F8    	MOVW R31:R30,R17:R16
0045E0  91A0    	LDS XL,$06A2
0045E1  06A2
0045E2  91B0    	LDS XH,$06A3
0045E3  06A3
0045E4  9180    	LDS R24,$06A4
0045E5  06A4
0045E6  9190    	LDS R25,$06A5
0045E7  06A5
0045E8  2766    	CLR R22
0045E9  2777    	CLR R23
0045EA  940E    	CALL L902
0045EB  6B9F
0045EC  BF6B    	OUT RAMPZ,R22
0045ED  91E6    	ELPM ZL,Z
0045EE  01D0    	MOVW R27:R26,R1:R0
0045EF  93EC    	ST X,ZL
0045F0  01F8    	MOVW R31:R30,R17:R16
0045F1  2766    	CLR R22
0045F2  2777    	CLR R23
0045F3  50E4    	SUBI ZL,$04
0045F4  4FFF    	SBCI ZH,$FF
0045F5  4F6F    	SBCI R22,$FF
0045F6  BF6B    	OUT RAMPZ,R22
0045F7  91E6    	ELPM ZL,Z
0045F8  E0A6    	LDI XL,$06
0045F9  9FEA    	MUL ZL,XL
0045FA  01F0    	MOVW R31:R30,R1:R0
0045FB  53E8    	SUBI ZL,$38
0045FC  4FF9    	SBCI ZH,$F9
0045FD  010F    	MOVW R1:R0,R31:R30
0045FE  01F8    	MOVW R31:R30,R17:R16
0045FF  91A0    	LDS XL,$06A6
004600  06A6
004601  91B0    	LDS XH,$06A7
004602  06A7
004603  9180    	LDS R24,$06A8
004604  06A8
004605  9190    	LDS R25,$06A9
004606  06A9
004607  2766    	CLR R22
004608  2777    	CLR R23
004609  940E    	CALL L902
00460A  6B9F
00460B  BF6B    	OUT RAMPZ,R22
00460C  91E6    	ELPM ZL,Z
00460D  01D0    	MOVW R27:R26,R1:R0
00460E  93EC    	ST X,ZL
00460F  01F8    	MOVW R31:R30,R17:R16
004610  2766    	CLR R22
004611  2777    	CLR R23
004612  50E4    	SUBI ZL,$04
004613  4FFF    	SBCI ZH,$FF
004614  4F6F    	SBCI R22,$FF
004615  BF6B    	OUT RAMPZ,R22
004616  91E6    	ELPM ZL,Z
004617  E0A6    	LDI XL,$06
004618  9FEA    	MUL ZL,XL
004619  01F0    	MOVW R31:R30,R1:R0
00461A  53E7    	SUBI ZL,$37
00461B  4FF9    	SBCI ZH,$F9
00461C  010F    	MOVW R1:R0,R31:R30
00461D  01F8    	MOVW R31:R30,R17:R16
00461E  91A0    	LDS XL,$06AA
00461F  06AA
004620  91B0    	LDS XH,$06AB
004621  06AB
004622  9180    	LDS R24,$06AC
004623  06AC
004624  9190    	LDS R25,$06AD
004625  06AD
004626  2766    	CLR R22
004627  2777    	CLR R23
004628  940E    	CALL L902
004629  6B9F
00462A  BF6B    	OUT RAMPZ,R22
00462B  91E6    	ELPM ZL,Z
00462C  01D0    	MOVW R27:R26,R1:R0
00462D  93EC    	ST X,ZL
00462E  01F8    	MOVW R31:R30,R17:R16
00462F  2766    	CLR R22
004630  2777    	CLR R23
004631  50E4    	SUBI ZL,$04
004632  4FFF    	SBCI ZH,$FF
004633  4F6F    	SBCI R22,$FF
004634  BF6B    	OUT RAMPZ,R22
004635  91E6    	ELPM ZL,Z
004636  E0A6    	LDI XL,$06
004637  9FEA    	MUL ZL,XL
004638  01F0    	MOVW R31:R30,R1:R0
004639  ECAA    	LDI XL,$CA
00463A  E0B6    	LDI XH,$06
00463B  0FAE    	ADD XL,ZL
00463C  1FBF    	ADC XH,ZH
00463D  E0E1    	LDI ZL,$01
00463E  93EC    	ST X,ZL
00463F  01F8    	MOVW R31:R30,R17:R16
004640  2766    	CLR R22
004641  2777    	CLR R23
004642  50E4    	SUBI ZL,$04
004643  4FFF    	SBCI ZH,$FF
004644  4F6F    	SBCI R22,$FF
004645  BF6B    	OUT RAMPZ,R22
004646  91E6    	ELPM ZL,Z
004647  E0A6    	LDI XL,$06
004648  9FEA    	MUL ZL,XL
004649  01F0    	MOVW R31:R30,R1:R0
00464A  ECAB    	LDI XL,$CB
00464B  E0B6    	LDI XH,$06
00464C  0FAE    	ADD XL,ZL
00464D  1FBF    	ADC XH,ZH
00464E  01F8    	MOVW R31:R30,R17:R16
00464F  2766    	CLR R22
004650  2777    	CLR R23
004651  5FE4    	SUBI ZL,$F4
004652  4FFE    	SBCI ZH,$FE
004653  4F6F    	SBCI R22,$FF
004654  BF6B    	OUT RAMPZ,R22
004655  91E6    	ELPM ZL,Z
004656  93EC    	ST X,ZL
004657  5F0F    	SUBI R16,$FF
004658  4F1F    	SBCI R17,$FF
004659  CF5D    	RJMP L924
00465A  E000    L923:	LDI R16,$00
00465B  E010    	LDI R17,$00
00465C  91E0    L926:	LDS ZL,$06C4
00465D  06C4
00465E  91F0    	LDS ZH,$06C5
00465F  06C5
004660  170E    	CP R16,ZL
004661  071F    	CPC R17,ZH
004662  F520    	BRCC L925
004663  01F8    	MOVW R31:R30,R17:R16
004664  E3AB    	LDI XL,$3B
004665  E0B8    	LDI XH,$08
004666  0FEE    	LSL ZL
004667  1FFF    	ROL ZH
004668  0FEA    	ADD ZL,XL
004669  1FFB    	ADC ZH,XH
00466A  01CF    	MOVW R25:R24,R31:R30
00466B  E1AD    	LDI XL,$1D
00466C  E0B0    	LDI XH,$00
00466D  0FA0    	ADD XL,R16
00466E  1FB1    	ADC XH,R17
00466F  940E    	CALL L545
004670  6C7C
004671  2F6E    	MOV R22,ZL
004672  2777    	CLR R23
004673  E0A6    	LDI XL,$06
004674  9FA0    	MUL XL,R16
004675  01F0    	MOVW R31:R30,R1:R0
004676  9FA1    	MUL XL,R17
004677  0DF0    	ADD ZH,R0
004678  ECAB    	LDI XL,$CB
004679  E0B6    	LDI XH,$06
00467A  0FAE    	ADD XL,ZL
00467B  1FBF    	ADC XH,ZH
00467C  91AC    	LD XL,X
00467D  27BB    	CLR XH
00467E  01FB    	MOVW R31:R30,R23:R22
00467F  1BEA    	SUB ZL,XL
004680  0BFB    	SBC ZH,XH
004681  01DC    	MOVW R27:R26,R25:R24
004682  93ED    	ST X+,ZL
004683  93FC    	ST X,ZH
004684  5F0F    	SUBI R16,$FF
004685  4F1F    	SBCI R17,$FF
004686  CFD5    	RJMP L926
004687  C498    L925:	RJMP L927
004688  931A    L1039:	ST -Y,R17
004689  930A    	ST -Y,R16
00468A  9857    	CBI UCSR0B,RXCIE0
00468B  9A56    	SBI UCSR0B,TXCIE0
00468C  91E0    L928:	LDS ZL,$05CC
00468D  05CC
00468E  30E0    	CPI ZL,$00
00468F  F7E1    	BRNE L928
004690  E000    	LDI R16,$00
004691  E010    	LDI R17,$00
004692  310F    L932:	CPI R16,$1F
004693  E0E0    	LDI ZL,$00
004694  071E    	CPC R17,ZL
004695  F550    	BRCC L929
004696  E0A6    	LDI XL,$06
004697  9FA0    	MUL XL,R16
004698  01F0    	MOVW R31:R30,R1:R0
004699  9FA1    	MUL XL,R17
00469A  0DF0    	ADD ZH,R0
00469B  ECA6    	LDI XL,$C6
00469C  E0B6    	LDI XH,$06
00469D  0FAE    	ADD XL,ZL
00469E  1FBF    	ADC XH,ZH
00469F  91EC    	LD ZL,X
0046A0  30E0    	CPI ZL,$00
0046A1  F0D9    	BREQ L930
0046A2  930A    	ST -Y,R16
0046A3  E0EB    	LDI ZL,$0B
0046A4  93EA    	ST -Y,ZL
0046A5  E0A6    	LDI XL,$06
0046A6  9FA0    	MUL XL,R16
0046A7  01F0    	MOVW R31:R30,R1:R0
0046A8  9FA1    	MUL XL,R17
0046A9  0DF0    	ADD ZH,R0
0046AA  ECA7    	LDI XL,$C7
0046AB  E0B6    	LDI XH,$06
0046AC  0FAE    	ADD XL,ZL
0046AD  1FBF    	ADC XH,ZH
0046AE  91EC    	LD ZL,X
0046AF  93EA    	ST -Y,ZL
0046B0  E0A6    	LDI XL,$06
0046B1  9FA0    	MUL XL,R16
0046B2  01F0    	MOVW R31:R30,R1:R0
0046B3  9FA1    	MUL XL,R17
0046B4  0DF0    	ADD ZH,R0
0046B5  ECA8    	LDI XL,$C8
0046B6  E0B6    	LDI XH,$06
0046B7  0FAE    	ADD XL,ZL
0046B8  1FBF    	ADC XH,ZH
0046B9  91EC    	LD ZL,X
0046BA  93EA    	ST -Y,ZL
0046BB  940E    	CALL L931
0046BC  408B
0046BD  5F0F    L930:	SUBI R16,$FF
0046BE  4F1F    	SBCI R17,$FF
0046BF  CFD2    	RJMP L932
0046C0  91E0    L929:	LDS ZL,$05CE
0046C1  05CE
0046C2  5FEF    	SUBI ZL,$FF
0046C3  93E0    	STS $05CE,ZL
0046C4  05CE
0046C5  50E1    	SUBI ZL,$01
0046C6  E0F0    	LDI ZH,$00
0046C7  5EEE    	SUBI ZL,$EE
0046C8  4FFA    	SBCI ZH,$FA
0046C9  81E0    	LD ZL,Z
0046CA  93EA    	ST -Y,ZL
0046CB  940E    	CALL L864
0046CC  407D
0046CD  91E0    L933:	LDS ZL,$05CC
0046CE  05CC
0046CF  30E0    	CPI ZL,$00
0046D0  F7E1    	BRNE L933
0046D1  E000    	LDI R16,$00
0046D2  E010    	LDI R17,$00
0046D3  310F    L936:	CPI R16,$1F
0046D4  E0E0    	LDI ZL,$00
0046D5  071E    	CPC R17,ZL
0046D6  F550    	BRCC L934
0046D7  E0A6    	LDI XL,$06
0046D8  9FA0    	MUL XL,R16
0046D9  01F0    	MOVW R31:R30,R1:R0
0046DA  9FA1    	MUL XL,R17
0046DB  0DF0    	ADD ZH,R0
0046DC  ECA6    	LDI XL,$C6
0046DD  E0B6    	LDI XH,$06
0046DE  0FAE    	ADD XL,ZL
0046DF  1FBF    	ADC XH,ZH
0046E0  91EC    	LD ZL,X
0046E1  30E0    	CPI ZL,$00
0046E2  F0D9    	BREQ L935
0046E3  930A    	ST -Y,R16
0046E4  E1E8    	LDI ZL,$18
0046E5  93EA    	ST -Y,ZL
0046E6  E0A6    	LDI XL,$06
0046E7  9FA0    	MUL XL,R16
0046E8  01F0    	MOVW R31:R30,R1:R0
0046E9  9FA1    	MUL XL,R17
0046EA  0DF0    	ADD ZH,R0
0046EB  ECA9    	LDI XL,$C9
0046EC  E0B6    	LDI XH,$06
0046ED  0FAE    	ADD XL,ZL
0046EE  1FBF    	ADC XH,ZH
0046EF  91EC    	LD ZL,X
0046F0  93EA    	ST -Y,ZL
0046F1  E0A6    	LDI XL,$06
0046F2  9FA0    	MUL XL,R16
0046F3  01F0    	MOVW R31:R30,R1:R0
0046F4  9FA1    	MUL XL,R17
0046F5  0DF0    	ADD ZH,R0
0046F6  ECA9    	LDI XL,$C9
0046F7  E0B6    	LDI XH,$06
0046F8  0FAE    	ADD XL,ZL
0046F9  1FBF    	ADC XH,ZH
0046FA  91EC    	LD ZL,X
0046FB  93EA    	ST -Y,ZL
0046FC  940E    	CALL L931
0046FD  408B
0046FE  5F0F    L935:	SUBI R16,$FF
0046FF  4F1F    	SBCI R17,$FF
004700  CFD2    	RJMP L936
004701  91E0    L934:	LDS ZL,$05CE
004702  05CE
004703  5FEF    	SUBI ZL,$FF
004704  93E0    	STS $05CE,ZL
004705  05CE
004706  50E1    	SUBI ZL,$01
004707  E0F0    	LDI ZH,$00
004708  5EEE    	SUBI ZL,$EE
004709  4FFA    	SBCI ZH,$FA
00470A  81E0    	LD ZL,Z
00470B  93EA    	ST -Y,ZL
00470C  940E    	CALL L864
00470D  407D
00470E  C411    	RJMP L927
00470F  931A    L1042:	ST -Y,R17
004710  930A    	ST -Y,R16
004711  9857    	CBI UCSR0B,RXCIE0
004712  9A56    	SBI UCSR0B,TXCIE0
004713  91E0    L937:	LDS ZL,$05CC
004714  05CC
004715  30E0    	CPI ZL,$00
004716  F7E1    	BRNE L937
004717  E000    	LDI R16,$00
004718  E010    	LDI R17,$00
004719  310F    L940:	CPI R16,$1F
00471A  E0E0    	LDI ZL,$00
00471B  071E    	CPC R17,ZL
00471C  F550    	BRCC L938
00471D  E0A5    	LDI XL,$05
00471E  9FA0    	MUL XL,R16
00471F  01F0    	MOVW R31:R30,R1:R0
004720  9FA1    	MUL XL,R17
004721  0DF0    	ADD ZH,R0
004722  E8A8    	LDI XL,$88
004723  E0B7    	LDI XH,$07
004724  0FAE    	ADD XL,ZL
004725  1FBF    	ADC XH,ZH
004726  91EC    	LD ZL,X
004727  30E0    	CPI ZL,$00
004728  F0D9    	BREQ L939
004729  930A    	ST -Y,R16
00472A  E6E4    	LDI ZL,$64
00472B  93EA    	ST -Y,ZL
00472C  E0A5    	LDI XL,$05
00472D  9FA0    	MUL XL,R16
00472E  01F0    	MOVW R31:R30,R1:R0
00472F  9FA1    	MUL XL,R17
004730  0DF0    	ADD ZH,R0
004731  E8AC    	LDI XL,$8C
004732  E0B7    	LDI XH,$07
004733  0FAE    	ADD XL,ZL
004734  1FBF    	ADC XH,ZH
004735  91EC    	LD ZL,X
004736  93EA    	ST -Y,ZL
004737  E0A5    	LDI XL,$05
004738  9FA0    	MUL XL,R16
004739  01F0    	MOVW R31:R30,R1:R0
00473A  9FA1    	MUL XL,R17
00473B  0DF0    	ADD ZH,R0
00473C  E8AC    	LDI XL,$8C
00473D  E0B7    	LDI XH,$07
00473E  0FAE    	ADD XL,ZL
00473F  1FBF    	ADC XH,ZH
004740  91EC    	LD ZL,X
004741  93EA    	ST -Y,ZL
004742  940E    	CALL L931
004743  408B
004744  5F0F    L939:	SUBI R16,$FF
004745  4F1F    	SBCI R17,$FF
004746  CFD2    	RJMP L940
004747  91E0    L938:	LDS ZL,$05CE
004748  05CE
004749  5FEF    	SUBI ZL,$FF
00474A  93E0    	STS $05CE,ZL
00474B  05CE
00474C  50E1    	SUBI ZL,$01
00474D  E0F0    	LDI ZH,$00
00474E  5EEE    	SUBI ZL,$EE
00474F  4FFA    	SBCI ZH,$FA
004750  81E0    	LD ZL,Z
004751  93EA    	ST -Y,ZL
004752  940E    	CALL L864
004753  407D
004754  C3CB    	RJMP L927
004755  940E    L1041:	CALL L941
004756  6E28
004757  91E0    	LDS ZL,$06C4
004758  06C4
004759  91F0    	LDS ZH,$06C5
00475A  06C5
00475B  E0A5    	LDI XL,$05
00475C  E0B0    	LDI XH,$00
00475D  940E    	CALL L909
00475E  6BDB
00475F  9636    	ADIW ZH:ZL,6
004760  019F    	MOVW R19:R18,R31:R30
004761  91E0    	LDS ZL,$0879
004762  0879
004763  91F0    	LDS ZH,$087A
004764  087A
004765  93FA    	ST -Y,ZH
004766  93EA    	ST -Y,ZL
004767  933A    	ST -Y,R19
004768  932A    	ST -Y,R18
004769  940E    	CALL L539
00476A  64BF
00476B  01F9    	MOVW R31:R30,R19:R18
00476C  91A0    	LDS XL,$0879
00476D  0879
00476E  91B0    	LDS XH,$087A
00476F  087A
004770  0FEA    	ADD ZL,XL
004771  1FFB    	ADC ZH,XH
004772  93E0    	STS $0879,ZL
004773  0879
004774  93F0    	STS $087A,ZH
004775  087A
004776  E000    	LDI R16,$00
004777  E010    	LDI R17,$00
004778  3002    L943:	CPI R16,$02
004779  E0E0    	LDI ZL,$00
00477A  071E    	CPC R17,ZL
00477B  F4C0    	BRCC L942
00477C  E0E0    	LDI ZL,$00
00477D  93E0    	STS $0839,ZL
00477E  0839
00477F  93F0    	STS $083A,ZH
004780  083A
004781  E7AD    	LDI XL,$7D
004782  E0B8    	LDI XH,$08
004783  0FA0    	ADD XL,R16
004784  1FB1    	ADC XH,R17
004785  91EC    	LD ZL,X
004786  91A0    	LDS XL,$0839
004787  0839
004788  91B0    	LDS XH,$083A
004789  083A
00478A  E0F0    	LDI ZH,$00
00478B  0FEA    	ADD ZL,XL
00478C  1FFB    	ADC ZH,XH
00478D  93E0    	STS $0839,ZL
00478E  0839
00478F  93F0    	STS $083A,ZH
004790  083A
004791  5F0F    	SUBI R16,$FF
004792  4F1F    	SBCI R17,$FF
004793  CFE4    	RJMP L943
004794  E002    L942:	LDI R16,$02
004795  E010    	LDI R17,$00
004796  3004    L945:	CPI R16,$04
004797  E0E0    	LDI ZL,$00
004798  071E    	CPC R17,ZL
004799  F4D0    	BRCC L944
00479A  91F0    	LDS ZH,$0784
00479B  0784
00479C  E0E0    	LDI ZL,$00
00479D  93E0    	STS $0784,ZL
00479E  0784
00479F  93F0    	STS $0785,ZH
0047A0  0785
0047A1  E8A4    	LDI XL,$84
0047A2  E0B7    	LDI XH,$07
0047A3  01BD    	MOVW R23:R22,R27:R26
0047A4  900D    	LD R0,X+
0047A5  901C    	LD R1,X
0047A6  E7AD    	LDI XL,$7D
0047A7  E0B8    	LDI XH,$08
0047A8  0FA0    	ADD XL,R16
0047A9  1FB1    	ADC XH,R17
0047AA  91EC    	LD ZL,X
0047AB  E0F0    	LDI ZH,$00
0047AC  0DE0    	ADD ZL,R0
0047AD  1DF1    	ADC ZH,R1
0047AE  01DB    	MOVW R27:R26,R23:R22
0047AF  93ED    	ST X+,ZL
0047B0  93FC    	ST X,ZH
0047B1  5F0F    	SUBI R16,$FF
0047B2  4F1F    	SBCI R17,$FF
0047B3  CFE2    	RJMP L945
0047B4  E004    L944:	LDI R16,$04
0047B5  E010    	LDI R17,$00
0047B6  3006    L947:	CPI R16,$06
0047B7  E0E0    	LDI ZL,$00
0047B8  071E    	CPC R17,ZL
0047B9  F4D0    	BRCC L946
0047BA  91F0    	LDS ZH,$0786
0047BB  0786
0047BC  E0E0    	LDI ZL,$00
0047BD  93E0    	STS $0786,ZL
0047BE  0786
0047BF  93F0    	STS $0787,ZH
0047C0  0787
0047C1  E8A6    	LDI XL,$86
0047C2  E0B7    	LDI XH,$07
0047C3  01BD    	MOVW R23:R22,R27:R26
0047C4  900D    	LD R0,X+
0047C5  901C    	LD R1,X
0047C6  E7AD    	LDI XL,$7D
0047C7  E0B8    	LDI XH,$08
0047C8  0FA0    	ADD XL,R16
0047C9  1FB1    	ADC XH,R17
0047CA  91EC    	LD ZL,X
0047CB  E0F0    	LDI ZH,$00
0047CC  0DE0    	ADD ZL,R0
0047CD  1DF1    	ADC ZH,R1
0047CE  01DB    	MOVW R27:R26,R23:R22
0047CF  93ED    	ST X+,ZL
0047D0  93FC    	ST X,ZH
0047D1  5F0F    	SUBI R16,$FF
0047D2  4F1F    	SBCI R17,$FF
0047D3  CFE2    	RJMP L947
0047D4  E000    L946:	LDI R16,$00
0047D5  E010    	LDI R17,$00
0047D6  310F    L949:	CPI R16,$1F
0047D7  E0E0    	LDI ZL,$00
0047D8  071E    	CPC R17,ZL
0047D9  F5D0    	BRCC L948
0047DA  E0A5    	LDI XL,$05
0047DB  9FA0    	MUL XL,R16
0047DC  01F0    	MOVW R31:R30,R1:R0
0047DD  9FA1    	MUL XL,R17
0047DE  0DF0    	ADD ZH,R0
0047DF  E8A8    	LDI XL,$88
0047E0  E0B7    	LDI XH,$07
0047E1  0FAE    	ADD XL,ZL
0047E2  1FBF    	ADC XH,ZH
0047E3  E0E0    	LDI ZL,$00
0047E4  93EC    	ST X,ZL
0047E5  E0A5    	LDI XL,$05
0047E6  9FA0    	MUL XL,R16
0047E7  01F0    	MOVW R31:R30,R1:R0
0047E8  9FA1    	MUL XL,R17
0047E9  0DF0    	ADD ZH,R0
0047EA  E8A9    	LDI XL,$89
0047EB  E0B7    	LDI XH,$07
0047EC  0FAE    	ADD XL,ZL
0047ED  1FBF    	ADC XH,ZH
0047EE  E0E0    	LDI ZL,$00
0047EF  93EC    	ST X,ZL
0047F0  E0A5    	LDI XL,$05
0047F1  9FA0    	MUL XL,R16
0047F2  01F0    	MOVW R31:R30,R1:R0
0047F3  9FA1    	MUL XL,R17
0047F4  0DF0    	ADD ZH,R0
0047F5  E8AA    	LDI XL,$8A
0047F6  E0B7    	LDI XH,$07
0047F7  0FAE    	ADD XL,ZL
0047F8  1FBF    	ADC XH,ZH
0047F9  E0E0    	LDI ZL,$00
0047FA  93EC    	ST X,ZL
0047FB  E0A5    	LDI XL,$05
0047FC  9FA0    	MUL XL,R16
0047FD  01F0    	MOVW R31:R30,R1:R0
0047FE  9FA1    	MUL XL,R17
0047FF  0DF0    	ADD ZH,R0
004800  E8AB    	LDI XL,$8B
004801  E0B7    	LDI XH,$07
004802  0FAE    	ADD XL,ZL
004803  1FBF    	ADC XH,ZH
004804  E0E0    	LDI ZL,$00
004805  93EC    	ST X,ZL
004806  E0A5    	LDI XL,$05
004807  9FA0    	MUL XL,R16
004808  01F0    	MOVW R31:R30,R1:R0
004809  9FA1    	MUL XL,R17
00480A  0DF0    	ADD ZH,R0
00480B  E8AC    	LDI XL,$8C
00480C  E0B7    	LDI XH,$07
00480D  0FAE    	ADD XL,ZL
00480E  1FBF    	ADC XH,ZH
00480F  E0E0    	LDI ZL,$00
004810  93EC    	ST X,ZL
004811  5F0F    	SUBI R16,$FF
004812  4F1F    	SBCI R17,$FF
004813  CFC2    	RJMP L949
004814  E000    L948:	LDI R16,$00
004815  E010    	LDI R17,$00
004816  91E0    L952:	LDS ZL,$06C4
004817  06C4
004818  91F0    	LDS ZH,$06C5
004819  06C5
00481A  170E    	CP R16,ZL
00481B  071F    	CPC R17,ZH
00481C  F010    	BRCS L950
00481D  940C    	JMP L951
00481E  4893
00481F  E0A5    L950:	LDI XL,$05
004820  9FA0    	MUL XL,R16
004821  01F0    	MOVW R31:R30,R1:R0
004822  9FA1    	MUL XL,R17
004823  0DF0    	ADD ZH,R0
004824  57ED    	SUBI ZL,$7D
004825  4FF7    	SBCI ZH,$F7
004826  81E0    	LD ZL,Z
004827  E0A5    	LDI XL,$05
004828  9FEA    	MUL ZL,XL
004829  01F0    	MOVW R31:R30,R1:R0
00482A  E8A8    	LDI XL,$88
00482B  E0B7    	LDI XH,$07
00482C  0FAE    	ADD XL,ZL
00482D  1FBF    	ADC XH,ZH
00482E  E0E1    	LDI ZL,$01
00482F  93EC    	ST X,ZL
004830  E0A5    	LDI XL,$05
004831  9FA0    	MUL XL,R16
004832  01F0    	MOVW R31:R30,R1:R0
004833  9FA1    	MUL XL,R17
004834  0DF0    	ADD ZH,R0
004835  57ED    	SUBI ZL,$7D
004836  4FF7    	SBCI ZH,$F7
004837  81E0    	LD ZL,Z
004838  E0A5    	LDI XL,$05
004839  9FEA    	MUL ZL,XL
00483A  01F0    	MOVW R31:R30,R1:R0
00483B  57E7    	SUBI ZL,$77
00483C  4FF8    	SBCI ZH,$F8
00483D  01BF    	MOVW R23:R22,R31:R30
00483E  E0A5    	LDI XL,$05
00483F  9FA0    	MUL XL,R16
004840  01F0    	MOVW R31:R30,R1:R0
004841  9FA1    	MUL XL,R17
004842  0DF0    	ADD ZH,R0
004843  57EC    	SUBI ZL,$7C
004844  4FF7    	SBCI ZH,$F7
004845  81E0    	LD ZL,Z
004846  01DB    	MOVW R27:R26,R23:R22
004847  93EC    	ST X,ZL
004848  E0A5    	LDI XL,$05
004849  9FA0    	MUL XL,R16
00484A  01F0    	MOVW R31:R30,R1:R0
00484B  9FA1    	MUL XL,R17
00484C  0DF0    	ADD ZH,R0
00484D  57ED    	SUBI ZL,$7D
00484E  4FF7    	SBCI ZH,$F7
00484F  81E0    	LD ZL,Z
004850  E0A5    	LDI XL,$05
004851  9FEA    	MUL ZL,XL
004852  01F0    	MOVW R31:R30,R1:R0
004853  57E6    	SUBI ZL,$76
004854  4FF8    	SBCI ZH,$F8
004855  01BF    	MOVW R23:R22,R31:R30
004856  E0A5    	LDI XL,$05
004857  9FA0    	MUL XL,R16
004858  01F0    	MOVW R31:R30,R1:R0
004859  9FA1    	MUL XL,R17
00485A  0DF0    	ADD ZH,R0
00485B  57EB    	SUBI ZL,$7B
00485C  4FF7    	SBCI ZH,$F7
00485D  81E0    	LD ZL,Z
00485E  01DB    	MOVW R27:R26,R23:R22
00485F  93EC    	ST X,ZL
004860  E0A5    	LDI XL,$05
004861  9FA0    	MUL XL,R16
004862  01F0    	MOVW R31:R30,R1:R0
004863  9FA1    	MUL XL,R17
004864  0DF0    	ADD ZH,R0
004865  57ED    	SUBI ZL,$7D
004866  4FF7    	SBCI ZH,$F7
004867  81E0    	LD ZL,Z
004868  E0A5    	LDI XL,$05
004869  9FEA    	MUL ZL,XL
00486A  01F0    	MOVW R31:R30,R1:R0
00486B  57E5    	SUBI ZL,$75
00486C  4FF8    	SBCI ZH,$F8
00486D  01BF    	MOVW R23:R22,R31:R30
00486E  E0A5    	LDI XL,$05
00486F  9FA0    	MUL XL,R16
004870  01F0    	MOVW R31:R30,R1:R0
004871  9FA1    	MUL XL,R17
004872  0DF0    	ADD ZH,R0
004873  57EA    	SUBI ZL,$7A
004874  4FF7    	SBCI ZH,$F7
004875  81E0    	LD ZL,Z
004876  01DB    	MOVW R27:R26,R23:R22
004877  93EC    	ST X,ZL
004878  E0A5    	LDI XL,$05
004879  9FA0    	MUL XL,R16
00487A  01F0    	MOVW R31:R30,R1:R0
00487B  9FA1    	MUL XL,R17
00487C  0DF0    	ADD ZH,R0
00487D  57ED    	SUBI ZL,$7D
00487E  4FF7    	SBCI ZH,$F7
00487F  81E0    	LD ZL,Z
004880  E0A5    	LDI XL,$05
004881  9FEA    	MUL ZL,XL
004882  01F0    	MOVW R31:R30,R1:R0
004883  57E4    	SUBI ZL,$74
004884  4FF8    	SBCI ZH,$F8
004885  01BF    	MOVW R23:R22,R31:R30
004886  E0A5    	LDI XL,$05
004887  9FA0    	MUL XL,R16
004888  01F0    	MOVW R31:R30,R1:R0
004889  9FA1    	MUL XL,R17
00488A  0DF0    	ADD ZH,R0
00488B  57E9    	SUBI ZL,$79
00488C  4FF7    	SBCI ZH,$F7
00488D  81E0    	LD ZL,Z
00488E  01DB    	MOVW R27:R26,R23:R22
00488F  93EC    	ST X,ZL
004890  5F0F    	SUBI R16,$FF
004891  4F1F    	SBCI R17,$FF
004892  CF83    	RJMP L952
004893  940E    L951:	CALL L953
004894  6E2F
004895  C1A6    	RJMP L954
004896  931A    L1048:	ST -Y,R17
004897  930A    	ST -Y,R16
004898  91E0    	LDS ZL,$0839
004899  0839
00489A  91F0    	LDS ZH,$083A
00489B  083A
00489C  91A0    	LDS XL,$06AE
00489D  06AE
00489E  91B0    	LDS XH,$06AF
00489F  06AF
0048A0  9180    	LDS R24,$06B0
0048A1  06B0
0048A2  9190    	LDS R25,$06B1
0048A3  06B1
0048A4  2766    	CLR R22
0048A5  2777    	CLR R23
0048A6  940E    	CALL L955
0048A7  6BCB
0048A8  940E    	CALL L902
0048A9  6B9F
0048AA  940E    	CALL L956
0048AB  6C5A
0048AC  93E0    	STS $0784,ZL
0048AD  0784
0048AE  93F0    	STS $0785,ZH
0048AF  0785
0048B0  91E0    	LDS ZL,$0839
0048B1  0839
0048B2  91F0    	LDS ZH,$083A
0048B3  083A
0048B4  91A0    	LDS XL,$06B2
0048B5  06B2
0048B6  91B0    	LDS XH,$06B3
0048B7  06B3
0048B8  9180    	LDS R24,$06B4
0048B9  06B4
0048BA  9190    	LDS R25,$06B5
0048BB  06B5
0048BC  2766    	CLR R22
0048BD  2777    	CLR R23
0048BE  940E    	CALL L955
0048BF  6BCB
0048C0  940E    	CALL L902
0048C1  6B9F
0048C2  940E    	CALL L956
0048C3  6C5A
0048C4  93E0    	STS $0786,ZL
0048C5  0786
0048C6  93F0    	STS $0787,ZH
0048C7  0787
0048C8  E000    	LDI R16,$00
0048C9  E010    	LDI R17,$00
0048CA  91E0    L958:	LDS ZL,$06C4
0048CB  06C4
0048CC  91F0    	LDS ZH,$06C5
0048CD  06C5
0048CE  170E    	CP R16,ZL
0048CF  071F    	CPC R17,ZH
0048D0  F5D0    	BRCC L957
0048D1  E0A5    	LDI XL,$05
0048D2  9FA0    	MUL XL,R16
0048D3  01F0    	MOVW R31:R30,R1:R0
0048D4  9FA1    	MUL XL,R17
0048D5  0DF0    	ADD ZH,R0
0048D6  E8A8    	LDI XL,$88
0048D7  E0B7    	LDI XH,$07
0048D8  0FAE    	ADD XL,ZL
0048D9  1FBF    	ADC XH,ZH
0048DA  E0E0    	LDI ZL,$00
0048DB  93EC    	ST X,ZL
0048DC  E0A5    	LDI XL,$05
0048DD  9FA0    	MUL XL,R16
0048DE  01F0    	MOVW R31:R30,R1:R0
0048DF  9FA1    	MUL XL,R17
0048E0  0DF0    	ADD ZH,R0
0048E1  E8A9    	LDI XL,$89
0048E2  E0B7    	LDI XH,$07
0048E3  0FAE    	ADD XL,ZL
0048E4  1FBF    	ADC XH,ZH
0048E5  E0E0    	LDI ZL,$00
0048E6  93EC    	ST X,ZL
0048E7  E0A5    	LDI XL,$05
0048E8  9FA0    	MUL XL,R16
0048E9  01F0    	MOVW R31:R30,R1:R0
0048EA  9FA1    	MUL XL,R17
0048EB  0DF0    	ADD ZH,R0
0048EC  E8AA    	LDI XL,$8A
0048ED  E0B7    	LDI XH,$07
0048EE  0FAE    	ADD XL,ZL
0048EF  1FBF    	ADC XH,ZH
0048F0  E0E0    	LDI ZL,$00
0048F1  93EC    	ST X,ZL
0048F2  E0A5    	LDI XL,$05
0048F3  9FA0    	MUL XL,R16
0048F4  01F0    	MOVW R31:R30,R1:R0
0048F5  9FA1    	MUL XL,R17
0048F6  0DF0    	ADD ZH,R0
0048F7  E8AB    	LDI XL,$8B
0048F8  E0B7    	LDI XH,$07
0048F9  0FAE    	ADD XL,ZL
0048FA  1FBF    	ADC XH,ZH
0048FB  E0E0    	LDI ZL,$00
0048FC  93EC    	ST X,ZL
0048FD  E0A5    	LDI XL,$05
0048FE  9FA0    	MUL XL,R16
0048FF  01F0    	MOVW R31:R30,R1:R0
004900  9FA1    	MUL XL,R17
004901  0DF0    	ADD ZH,R0
004902  E8AC    	LDI XL,$8C
004903  E0B7    	LDI XH,$07
004904  0FAE    	ADD XL,ZL
004905  1FBF    	ADC XH,ZH
004906  E0E0    	LDI ZL,$00
004907  93EC    	ST X,ZL
004908  5F0F    	SUBI R16,$FF
004909  4F1F    	SBCI R17,$FF
00490A  CFBF    	RJMP L958
00490B  E000    L957:	LDI R16,$00
00490C  E010    	LDI R17,$00
00490D  91E0    L961:	LDS ZL,$06C4
00490E  06C4
00490F  91F0    	LDS ZH,$06C5
004910  06C5
004911  170E    	CP R16,ZL
004912  071F    	CPC R17,ZH
004913  F010    	BRCS L959
004914  940C    	JMP L960
004915  49DB
004916  01F8    L959:	MOVW R31:R30,R17:R16
004917  2766    	CLR R22
004918  2777    	CLR R23
004919  50E4    	SUBI ZL,$04
00491A  4FFF    	SBCI ZH,$FF
00491B  4F6F    	SBCI R22,$FF
00491C  BF6B    	OUT RAMPZ,R22
00491D  91E6    	ELPM ZL,Z
00491E  E0A5    	LDI XL,$05
00491F  9FEA    	MUL ZL,XL
004920  01F0    	MOVW R31:R30,R1:R0
004921  E8A8    	LDI XL,$88
004922  E0B7    	LDI XH,$07
004923  0FAE    	ADD XL,ZL
004924  1FBF    	ADC XH,ZH
004925  E0E1    	LDI ZL,$01
004926  93EC    	ST X,ZL
004927  01F8    	MOVW R31:R30,R17:R16
004928  2766    	CLR R22
004929  2777    	CLR R23
00492A  50E4    	SUBI ZL,$04
00492B  4FFF    	SBCI ZH,$FF
00492C  4F6F    	SBCI R22,$FF
00492D  BF6B    	OUT RAMPZ,R22
00492E  91E6    	ELPM ZL,Z
00492F  E0A5    	LDI XL,$05
004930  9FEA    	MUL ZL,XL
004931  01F0    	MOVW R31:R30,R1:R0
004932  57E7    	SUBI ZL,$77
004933  4FF8    	SBCI ZH,$F8
004934  93FF    	PUSH ZH
004935  93EF    	PUSH ZL
004936  91E0    	LDS ZL,$06C4
004937  06C4
004938  91F0    	LDS ZH,$06C5
004939  06C5
00493A  91A0    	LDS XL,$0839
00493B  0839
00493C  91B0    	LDS XH,$083A
00493D  083A
00493E  940E    	CALL L909
00493F  6BDB
004940  0FE0    	ADD ZL,R16
004941  1FF1    	ADC ZH,R17
004942  91A0    	LDS XL,$06B6
004943  06B6
004944  91B0    	LDS XH,$06B7
004945  06B7
004946  9180    	LDS R24,$06B8
004947  06B8
004948  9190    	LDS R25,$06B9
004949  06B9
00494A  2766    	CLR R22
00494B  2777    	CLR R23
00494C  940E    	CALL L902
00494D  6B9F
00494E  BF6B    	OUT RAMPZ,R22
00494F  91E6    	ELPM ZL,Z
004950  91AF    	POP XL
004951  91BF    	POP XH
004952  93EC    	ST X,ZL
004953  01F8    	MOVW R31:R30,R17:R16
004954  2766    	CLR R22
004955  2777    	CLR R23
004956  50E4    	SUBI ZL,$04
004957  4FFF    	SBCI ZH,$FF
004958  4F6F    	SBCI R22,$FF
004959  BF6B    	OUT RAMPZ,R22
00495A  91E6    	ELPM ZL,Z
00495B  E0A5    	LDI XL,$05
00495C  9FEA    	MUL ZL,XL
00495D  01F0    	MOVW R31:R30,R1:R0
00495E  57E6    	SUBI ZL,$76
00495F  4FF8    	SBCI ZH,$F8
004960  93FF    	PUSH ZH
004961  93EF    	PUSH ZL
004962  91A0    	LDS XL,$06C4
004963  06C4
004964  91B0    	LDS XH,$06C5
004965  06C5
004966  91E0    	LDS ZL,$0839
004967  0839
004968  91F0    	LDS ZH,$083A
004969  083A
00496A  9631    	ADIW ZH:ZL,1
00496B  940E    	CALL L909
00496C  6BDB
00496D  0FE0    	ADD ZL,R16
00496E  1FF1    	ADC ZH,R17
00496F  91A0    	LDS XL,$06B6
004970  06B6
004971  91B0    	LDS XH,$06B7
004972  06B7
004973  9180    	LDS R24,$06B8
004974  06B8
004975  9190    	LDS R25,$06B9
004976  06B9
004977  2766    	CLR R22
004978  2777    	CLR R23
004979  940E    	CALL L902
00497A  6B9F
00497B  BF6B    	OUT RAMPZ,R22
00497C  91E6    	ELPM ZL,Z
00497D  91AF    	POP XL
00497E  91BF    	POP XH
00497F  93EC    	ST X,ZL
004980  01F8    	MOVW R31:R30,R17:R16
004981  2766    	CLR R22
004982  2777    	CLR R23
004983  50E4    	SUBI ZL,$04
004984  4FFF    	SBCI ZH,$FF
004985  4F6F    	SBCI R22,$FF
004986  BF6B    	OUT RAMPZ,R22
004987  91E6    	ELPM ZL,Z
004988  E0A5    	LDI XL,$05
004989  9FEA    	MUL ZL,XL
00498A  01F0    	MOVW R31:R30,R1:R0
00498B  57E5    	SUBI ZL,$75
00498C  4FF8    	SBCI ZH,$F8
00498D  93FF    	PUSH ZH
00498E  93EF    	PUSH ZL
00498F  91E0    	LDS ZL,$06C4
004990  06C4
004991  91F0    	LDS ZH,$06C5
004992  06C5
004993  91A0    	LDS XL,$0839
004994  0839
004995  91B0    	LDS XH,$083A
004996  083A
004997  940E    	CALL L909
004998  6BDB
004999  0FE0    	ADD ZL,R16
00499A  1FF1    	ADC ZH,R17
00499B  91A0    	LDS XL,$069A
00499C  069A
00499D  91B0    	LDS XH,$069B
00499E  069B
00499F  9180    	LDS R24,$069C
0049A0  069C
0049A1  9190    	LDS R25,$069D
0049A2  069D
0049A3  2766    	CLR R22
0049A4  2777    	CLR R23
0049A5  940E    	CALL L902
0049A6  6B9F
0049A7  BF6B    	OUT RAMPZ,R22
0049A8  91E6    	ELPM ZL,Z
0049A9  91AF    	POP XL
0049AA  91BF    	POP XH
0049AB  93EC    	ST X,ZL
0049AC  01F8    	MOVW R31:R30,R17:R16
0049AD  2766    	CLR R22
0049AE  2777    	CLR R23
0049AF  50E4    	SUBI ZL,$04
0049B0  4FFF    	SBCI ZH,$FF
0049B1  4F6F    	SBCI R22,$FF
0049B2  BF6B    	OUT RAMPZ,R22
0049B3  91E6    	ELPM ZL,Z
0049B4  E0A5    	LDI XL,$05
0049B5  9FEA    	MUL ZL,XL
0049B6  01F0    	MOVW R31:R30,R1:R0
0049B7  57E4    	SUBI ZL,$74
0049B8  4FF8    	SBCI ZH,$F8
0049B9  93FF    	PUSH ZH
0049BA  93EF    	PUSH ZL
0049BB  91E0    	LDS ZL,$06C4
0049BC  06C4
0049BD  91F0    	LDS ZH,$06C5
0049BE  06C5
0049BF  91A0    	LDS XL,$0839
0049C0  0839
0049C1  91B0    	LDS XH,$083A
0049C2  083A
0049C3  940E    	CALL L909
0049C4  6BDB
0049C5  0FE0    	ADD ZL,R16
0049C6  1FF1    	ADC ZH,R17
0049C7  91A0    	LDS XL,$069E
0049C8  069E
0049C9  91B0    	LDS XH,$069F
0049CA  069F
0049CB  9180    	LDS R24,$06A0
0049CC  06A0
0049CD  9190    	LDS R25,$06A1
0049CE  06A1
0049CF  2766    	CLR R22
0049D0  2777    	CLR R23
0049D1  940E    	CALL L902
0049D2  6B9F
0049D3  BF6B    	OUT RAMPZ,R22
0049D4  91E6    	ELPM ZL,Z
0049D5  91AF    	POP XL
0049D6  91BF    	POP XH
0049D7  93EC    	ST X,ZL
0049D8  5F0F    	SUBI R16,$FF
0049D9  4F1F    	SBCI R17,$FF
0049DA  CF32    	RJMP L961
0049DB  9857    L960:	CBI UCSR0B,RXCIE0
0049DC  9A56    	SBI UCSR0B,TXCIE0
0049DD  EB88    	LDI R24,$B8
0049DE  E192    	LDI R25,$12
0049DF  9701    L962:	SBIW R25:R24,1
0049E0  F7F1    	BRNE L962
0049E1  C13E    	RJMP L927
0049E2  9724    L1043:	SBIW YH:YL,4
0049E3  91A0    	LDS XL,$0786
0049E4  0786
0049E5  91B0    	LDS XH,$0787
0049E6  0787
0049E7  91E0    	LDS ZL,$0784
0049E8  0784
0049E9  91F0    	LDS ZH,$0785
0049EA  0785
0049EB  940E    	CALL L963
0049EC  6BF6
0049ED  9774    	SBIW ZH:ZL,20
0049EE  F418    	BRCC L964
0049EF  E0E6    	LDI ZL,$06
0049F0  2E5E    	MOV R5,ZL
0049F1  C04A    	RJMP L954
0049F2  91E0    L964:	LDS ZL,$0786
0049F3  0786
0049F4  91F0    	LDS ZH,$0787
0049F5  0787
0049F6  2766    	CLR R22
0049F7  2777    	CLR R23
0049F8  940E    	CALL L872
0049F9  6CFB
0049FA  E6A6    	LDI XL,$66
0049FB  E6B6    	LDI XH,$66
0049FC  E686    	LDI R24,$66
0049FD  E491    	LDI R25,$41
0049FE  940E    	CALL L875
0049FF  6D87
004A00  83E8    	ST Y,ZL
004A01  83F9    	STD Y+1,ZH
004A02  836A    	STD Y+2,R22
004A03  837B    	STD Y+3,R23
004A04  91E0    	LDS ZL,$0784
004A05  0784
004A06  91F0    	LDS ZH,$0785
004A07  0785
004A08  2766    	CLR R22
004A09  2777    	CLR R23
004A0A  940E    	CALL L872
004A0B  6CFB
004A0C  81A8    	LD XL,Y
004A0D  81B9    	LDD XH,Y+1
004A0E  818A    	LDD R24,Y+2
004A0F  819B    	LDD R25,Y+3
004A10  940E    	CALL L965
004A11  6DB9
004A12  83E8    	ST Y,ZL
004A13  83F9    	STD Y+1,ZH
004A14  836A    	STD Y+2,R22
004A15  837B    	STD Y+3,R23
004A16  940E    	CALL L876
004A17  6CC8
004A18  EFAF    	LDI XL,$FF
004A19  EFBF    	LDI XH,$FF
004A1A  1BAE    	SUB XL,ZL
004A1B  0BBF    	SBC XH,ZH
004A1C  979B    	SBIW XH:XL,43
004A1D  93A0    	STS $061B,XL
004A1E  061B
004A1F  93B0    	STS $061C,XH
004A20  061C
004A21  98DD    	CBI PORTA,PA5
004A22  9468    	BSET 6
004A23  F820    	BLD R2,0
004A24  94E8    	BCLR 6
004A25  F823    	BLD R2,3
004A26  E0E5    	LDI ZL,$05
004A27  BDEE    	OUT TCCR1B,ZL
004A28  3EA6    	CPI XL,$E6
004A29  EFEF    	LDI ZL,$FF
004A2A  07BE    	CPC XH,ZL
004A2B  F430    	BRCC L966
004A2C  91E0    	LDS ZL,$061B
004A2D  061B
004A2E  91F0    	LDS ZH,$061C
004A2F  061C
004A30  967A    	ADIW ZH:ZL,26
004A31  C002    	RJMP L967
004A32  EFEF    L966:	LDI ZL,$FF
004A33  EFFF    	LDI ZH,$FF
004A34  BDFD    L967:	OUT TCNT1H,ZH
004A35  BDEC    	OUT TCNT1L,ZL
004A36  B7E6    	IN ZL,TIFR
004A37  60E4    	ORI ZL,$04
004A38  BFE6    	OUT TIFR,ZL
004A39  B7E7    	IN ZL,TIMSK
004A3A  60E4    	ORI ZL,$04
004A3B  BFE7    	OUT TIMSK,ZL
004A3C  9624    L954:	ADIW YH:YL,4
004A3D  9508    	RET
004A3E  931A    L1015:	ST -Y,R17
004A3F  930A    	ST -Y,R16
004A40  E000    	LDI R16,$00
004A41  E010    	LDI R17,$00
004A42  310F    L980:	CPI R16,$1F
004A43  E0E0    	LDI ZL,$00
004A44  071E    	CPC R17,ZL
004A45  F010    	BRCS L968
004A46  940C    	JMP L969
004A47  4B09
004A48  E0A5    L968:	LDI XL,$05
004A49  9FA0    	MUL XL,R16
004A4A  01F0    	MOVW R31:R30,R1:R0
004A4B  9FA1    	MUL XL,R17
004A4C  0DF0    	ADD ZH,R0
004A4D  E8A8    	LDI XL,$88
004A4E  E0B7    	LDI XH,$07
004A4F  0FAE    	ADD XL,ZL
004A50  1FBF    	ADC XH,ZH
004A51  91EC    	LD ZL,X
004A52  30E0    	CPI ZL,$00
004A53  F411    	BRNE L970
004A54  940C    	JMP L971
004A55  4B06
004A56  E0A5    L970:	LDI XL,$05
004A57  9FA0    	MUL XL,R16
004A58  01F0    	MOVW R31:R30,R1:R0
004A59  9FA1    	MUL XL,R17
004A5A  0DF0    	ADD ZH,R0
004A5B  E8A9    	LDI XL,$89
004A5C  E0B7    	LDI XH,$07
004A5D  0FAE    	ADD XL,ZL
004A5E  1FBF    	ADC XH,ZH
004A5F  916C    	LD R22,X
004A60  E0A5    	LDI XL,$05
004A61  9FA0    	MUL XL,R16
004A62  01F0    	MOVW R31:R30,R1:R0
004A63  9FA1    	MUL XL,R17
004A64  0DF0    	ADD ZH,R0
004A65  E8AA    	LDI XL,$8A
004A66  E0B7    	LDI XH,$07
004A67  0FAE    	ADD XL,ZL
004A68  1FBF    	ADC XH,ZH
004A69  91EC    	LD ZL,X
004A6A  17E6    	CP ZL,R22
004A6B  F411    	BRNE L972
004A6C  940C    	JMP L973
004A6D  4AF9
004A6E  01F8    L972:	MOVW R31:R30,R17:R16
004A6F  E1AD    	LDI XL,$1D
004A70  E0B6    	LDI XH,$06
004A71  940E    	CALL L873
004A72  6BC6
004A73  0FEA    	ADD ZL,XL
004A74  1FFB    	ADC ZH,XH
004A75  01CF    	MOVW R25:R24,R31:R30
004A76  E0A5    	LDI XL,$05
004A77  9FA0    	MUL XL,R16
004A78  01F0    	MOVW R31:R30,R1:R0
004A79  9FA1    	MUL XL,R17
004A7A  0DF0    	ADD ZH,R0
004A7B  E8AA    	LDI XL,$8A
004A7C  E0B7    	LDI XH,$07
004A7D  0FAE    	ADD XL,ZL
004A7E  1FBF    	ADC XH,ZH
004A7F  916C    	LD R22,X
004A80  2777    	CLR R23
004A81  E0A5    	LDI XL,$05
004A82  9FA0    	MUL XL,R16
004A83  01F0    	MOVW R31:R30,R1:R0
004A84  9FA1    	MUL XL,R17
004A85  0DF0    	ADD ZH,R0
004A86  E8A9    	LDI XL,$89
004A87  E0B7    	LDI XH,$07
004A88  0FAE    	ADD XL,ZL
004A89  1FBF    	ADC XH,ZH
004A8A  91AC    	LD XL,X
004A8B  27BB    	CLR XH
004A8C  01FB    	MOVW R31:R30,R23:R22
004A8D  1BEA    	SUB ZL,XL
004A8E  0BFB    	SBC ZH,XH
004A8F  940E    	CALL L871
004A90  6BD6
004A91  940E    	CALL L872
004A92  6CFB
004A93  01DC    	MOVW R27:R26,R25:R24
004A94  940E    	CALL L903
004A95  6C55
004A96  01F8    	MOVW R31:R30,R17:R16
004A97  E1AD    	LDI XL,$1D
004A98  E0B6    	LDI XH,$06
004A99  940E    	CALL L873
004A9A  6BC6
004A9B  0FEA    	ADD ZL,XL
004A9C  1FFB    	ADC ZH,XH
004A9D  93FF    	PUSH ZH
004A9E  93EF    	PUSH ZL
004A9F  01F8    	MOVW R31:R30,R17:R16
004AA0  E1AD    	LDI XL,$1D
004AA1  E0B6    	LDI XH,$06
004AA2  940E    	CALL L873
004AA3  6BC6
004AA4  0FAE    	ADD XL,ZL
004AA5  1FBF    	ADC XH,ZH
004AA6  940E    	CALL L874
004AA7  6C4F
004AA8  01DF    	MOVW R27:R26,R31:R30
004AA9  01CB    	MOVW R25:R24,R23:R22
004AAA  91E0    	LDS ZL,$0784
004AAB  0784
004AAC  91F0    	LDS ZH,$0785
004AAD  0785
004AAE  2766    	CLR R22
004AAF  2777    	CLR R23
004AB0  940E    	CALL L872
004AB1  6CFB
004AB2  940E    	CALL L965
004AB3  6DB9
004AB4  91AF    	POP XL
004AB5  91BF    	POP XH
004AB6  940E    	CALL L903
004AB7  6C55
004AB8  01F8    	MOVW R31:R30,R17:R16
004AB9  E1AD    	LDI XL,$1D
004ABA  E0B6    	LDI XH,$06
004ABB  940E    	CALL L873
004ABC  6BC6
004ABD  0FAE    	ADD XL,ZL
004ABE  1FBF    	ADC XH,ZH
004ABF  940E    	CALL L874
004AC0  6C4F
004AC1  01DF    	MOVW R27:R26,R31:R30
004AC2  01CB    	MOVW R25:R24,R23:R22
004AC3  E0E0    	LDI ZL,$00
004AC4  E0F0    	LDI ZH,$00
004AC5  E76D    	LDI R22,$7D
004AC6  E473    	LDI R23,$43
004AC7  940E    	CALL L974
004AC8  6DFA
004AC9  F009    	BREQ L975
004ACA  F410    	BRCC L976
004ACB  940C    L975:	JMP L977
004ACC  4AD9
004ACD  01F8    L976:	MOVW R31:R30,R17:R16
004ACE  E1AD    	LDI XL,$1D
004ACF  E0B6    	LDI XH,$06
004AD0  940E    	CALL L873
004AD1  6BC6
004AD2  0FAE    	ADD XL,ZL
004AD3  1FBF    	ADC XH,ZH
004AD4  E0E0    	LDI ZL,$00
004AD5  E0F0    	LDI ZH,$00
004AD6  E76E    	LDI R22,$7E
004AD7  E473    	LDI R23,$43
004AD8  C01D    	RJMP L978
004AD9  01F8    L977:	MOVW R31:R30,R17:R16
004ADA  E1AD    	LDI XL,$1D
004ADB  E0B6    	LDI XH,$06
004ADC  940E    	CALL L873
004ADD  6BC6
004ADE  0FAE    	ADD XL,ZL
004ADF  1FBF    	ADC XH,ZH
004AE0  940E    	CALL L874
004AE1  6C4F
004AE2  01DF    	MOVW R27:R26,R31:R30
004AE3  01CB    	MOVW R25:R24,R23:R22
004AE4  E0E0    	LDI ZL,$00
004AE5  E0F0    	LDI ZH,$00
004AE6  E76D    	LDI R22,$7D
004AE7  EC73    	LDI R23,$C3
004AE8  940E    	CALL L974
004AE9  6DFA
004AEA  F468    	BRCC L979
004AEB  01F8    	MOVW R31:R30,R17:R16
004AEC  E1AD    	LDI XL,$1D
004AED  E0B6    	LDI XH,$06
004AEE  940E    	CALL L873
004AEF  6BC6
004AF0  0FAE    	ADD XL,ZL
004AF1  1FBF    	ADC XH,ZH
004AF2  E0E0    	LDI ZL,$00
004AF3  E0F0    	LDI ZH,$00
004AF4  E76E    	LDI R22,$7E
004AF5  EC73    	LDI R23,$C3
004AF6  940E    L978:	CALL L903
004AF7  6C55
004AF8  C00D    L979:	RJMP L971
004AF9  01F8    L973:	MOVW R31:R30,R17:R16
004AFA  E1AD    	LDI XL,$1D
004AFB  E0B6    	LDI XH,$06
004AFC  940E    	CALL L873
004AFD  6BC6
004AFE  0FAE    	ADD XL,ZL
004AFF  1FBF    	ADC XH,ZH
004B00  E0E0    	LDI ZL,$00
004B01  E0F0    	LDI ZH,$00
004B02  E060    	LDI R22,$00
004B03  E070    	LDI R23,$00
004B04  940E    	CALL L903
004B05  6C55
004B06  5F0F    L971:	SUBI R16,$FF
004B07  4F1F    	SBCI R17,$FF
004B08  CF39    	RJMP L980
004B09  E0E0    L969:	LDI ZL,$00
004B0A  93E0    	STS $0619,ZL
004B0B  0619
004B0C  93E0    	STS $061A,ZL
004B0D  061A
004B0E  C011    	RJMP L927
004B0F  931A    L757:	ST -Y,R17
004B10  930A    	ST -Y,R16
004B11  91E0    L981:	LDS ZL,$05CC
004B12  05CC
004B13  30E0    	CPI ZL,$00
004B14  F7E1    	BRNE L981
004B15  91E0    	LDS ZL,$0619
004B16  0619
004B17  91F0    	LDS ZH,$061A
004B18  061A
004B19  9631    	ADIW ZH:ZL,1
004B1A  93E0    	STS $0619,ZL
004B1B  0619
004B1C  93F0    	STS $061A,ZH
004B1D  061A
004B1E  940E    	CALL L982
004B1F  411A
004B20  9109    L927:	LD R16,Y+
004B21  9119    	LD R17,Y+
004B22  9508    	RET
004B23  91E0    L758:	LDS ZL,$05CC
004B24  05CC
004B25  30E0    	CPI ZL,$00
004B26  F409    	BRNE L983
004B27  9508    	RET
004B28  91E0    L983:	LDS ZL,$05CE
004B29  05CE
004B2A  5FEF    	SUBI ZL,$FF
004B2B  93E0    	STS $05CE,ZL
004B2C  05CE
004B2D  50E1    	SUBI ZL,$01
004B2E  E0F0    	LDI ZH,$00
004B2F  5EEE    	SUBI ZL,$EE
004B30  4FFA    	SBCI ZH,$FA
004B31  81E0    	LD ZL,Z
004B32  93EA    	ST -Y,ZL
004B33  940E    	CALL L864
004B34  407D
004B35  9508    	RET

###################


##################


004B36  9760    L818:	SBIW YH:YL,16
004B37  940E    	CALL L613
004B38  6E26
004B39  FC26    	SBRC R2,6
004B3A  C23F    	RJMP L984
004B3B  E0E4    	LDI ZL,$04
004B3C  15E4    	CP ZL,R4
004B3D  F409    	BRNE L985
004B3E  C23B    	RJMP L984
004B3F  E0E1    L985:	LDI ZL,$01
004B40  15E4    	CP ZL,R4
004B41  F019    	BREQ L986
004B42  8DAB    	LDD XL,Y+27
004B43  30A0    	CPI XL,$00
004B44  F009    	BREQ L987
004B45  C003    L986:	RJMP L988
004B46  E0E5    L987:	LDI ZL,$05
004B47  2E5E    	MOV R5,ZL
004B48  C231    	RJMP L984
004B49  8DA9    L988:	LDD XL,Y+25
004B4A  8DBA    	LDD XH,Y+26
004B4B  9711    	SBIW XH:XL,1
004B4C  F061    	BREQ L989
004B4D  8DAB    	LDD XL,Y+27
004B4E  30A1    	CPI XL,$01
004B4F  F411    	BRNE L990
004B50  E0E1    	LDI ZL,$01
004B51  C004    	RJMP L991
004B52  8DAB    L990:	LDD XL,Y+27
004B53  30A3    	CPI XL,$03
004B54  F421    	BRNE L989
004B55  E0E9    	LDI ZL,$09
004B56  93EA    L991:	ST -Y,ZL
004B57  940E    	CALL L992
004B58  42E5
004B59  9857    L989:	CBI UCSR0B,RXCIE0
004B5A  9A56    	SBI UCSR0B,TXCIE0
004B5B  91E0    L993:	LDS ZL,$05CC
004B5C  05CC
004B5D  30E0    	CPI ZL,$00
004B5E  F7E1    	BRNE L993
004B5F  E000    	LDI R16,$00
004B60  E010    	LDI R17,$00
004B61  3100    L995:	CPI R16,$10
004B62  E0E0    	LDI ZL,$00
004B63  071E    	CPC R17,ZL
004B64  F460    	BRCC L994
004B65  930A    	ST -Y,R16
004B66  E0EB    	LDI ZL,$0B
004B67  93EA    	ST -Y,ZL
004B68  E1E4    	LDI ZL,$14
004B69  93EA    	ST -Y,ZL
004B6A  E1EE    	LDI ZL,$1E
004B6B  93EA    	ST -Y,ZL
004B6C  940E    	CALL L931
004B6D  408B
004B6E  5F0F    	SUBI R16,$FF
004B6F  4F1F    	SBCI R17,$FF
004B70  CFF0    	RJMP L995
004B71  91E0    L994:	LDS ZL,$05CE
004B72  05CE
004B73  5FEF    	SUBI ZL,$FF
004B74  93E0    	STS $05CE,ZL
004B75  05CE
004B76  50E1    	SUBI ZL,$01
004B77  E0F0    	LDI ZH,$00
004B78  5EEE    	SUBI ZL,$EE
004B79  4FFA    	SBCI ZH,$FA
004B7A  81E0    	LD ZL,Z
004B7B  93EA    	ST -Y,ZL
004B7C  940E    	CALL L864
004B7D  407D
004B7E  91E0    L996:	LDS ZL,$05CC
004B7F  05CC
004B80  30E0    	CPI ZL,$00
004B81  F7E1    	BRNE L996
004B82  E000    	LDI R16,$00
004B83  E010    	LDI R17,$00
004B84  3100    L998:	CPI R16,$10
004B85  E0E0    	LDI ZL,$00
004B86  071E    	CPC R17,ZL
004B87  F458    	BRCC L997
004B88  930A    	ST -Y,R16
004B89  E1E8    	LDI ZL,$18
004B8A  93EA    	ST -Y,ZL
004B8B  E0E0    	LDI ZL,$00
004B8C  93EA    	ST -Y,ZL
004B8D  93EA    	ST -Y,ZL
004B8E  940E    	CALL L931
004B8F  408B
004B90  5F0F    	SUBI R16,$FF
004B91  4F1F    	SBCI R17,$FF
004B92  CFF1    	RJMP L998
004B93  91E0    L997:	LDS ZL,$05CE
004B94  05CE
004B95  5FEF    	SUBI ZL,$FF
004B96  93E0    	STS $05CE,ZL
004B97  05CE
004B98  50E1    	SUBI ZL,$01
004B99  E0F0    	LDI ZH,$00
004B9A  5EEE    	SUBI ZL,$EE
004B9B  4FFA    	SBCI ZH,$FA
004B9C  81E0    	LD ZL,Z
004B9D  93EA    	ST -Y,ZL
004B9E  940E    	CALL L864
004B9F  407D
004BA0  E1E0    	LDI ZL,$10
004BA1  E0F0    	LDI ZH,$00
004BA2  93E0    	STS $06C4,ZL
004BA3  06C4
004BA4  93F0    	STS $06C5,ZH
004BA5  06C5
004BA6  E000    	LDI R16,$00
004BA7  E010    	LDI R17,$00
004BA8  91E0    L1001:	LDS ZL,$06C4
004BA9  06C4
004BAA  91F0    	LDS ZH,$06C5
004BAB  06C5
004BAC  170E    	CP R16,ZL
004BAD  071F    	CPC R17,ZH
004BAE  F518    	BRCC L999
004BAF  01F8    	MOVW R31:R30,R17:R16
004BB0  E3AB    	LDI XL,$3B
004BB1  E0B8    	LDI XH,$08
004BB2  0FEE    	LSL ZL
004BB3  1FFF    	ROL ZH
004BB4  0FEA    	ADD ZL,XL
004BB5  1FFB    	ADC ZH,XH
004BB6  01CF    	MOVW R25:R24,R31:R30
004BB7  E1AD    	LDI XL,$1D
004BB8  E0B0    	LDI XH,$00
004BB9  0FA0    	ADD XL,R16
004BBA  1FB1    	ADC XH,R17
004BBB  940E    	CALL L545
004BBC  6C7C
004BBD  E0F0    	LDI ZH,$00
004BBE  01DF    	MOVW R27:R26,R31:R30
004BBF  01F8    	MOVW R31:R30,R17:R16
004BC0  2766    	CLR R22
004BC1  2777    	CLR R23
004BC2  5FE4    	SUBI ZL,$F4
004BC3  4FFE    	SBCI ZH,$FE
004BC4  4F6F    	SBCI R22,$FF
004BC5  BF6B    	OUT RAMPZ,R22
004BC6  91E6    	ELPM ZL,Z
004BC7  E0F0    	LDI ZH,$00
004BC8  940E    	CALL L1000
004BC9  6C71
004BCA  1BEA    	SUB ZL,XL
004BCB  0BFB    	SBC ZH,XH
004BCC  01DC    	MOVW R27:R26,R25:R24
004BCD  93ED    	ST X+,ZL
004BCE  93FC    	ST X,ZH
004BCF  5F0F    	SUBI R16,$FF
004BD0  4F1F    	SBCI R17,$FF
004BD1  CFD6    	RJMP L1001
004BD2  E000    L999:	LDI R16,$00
004BD3  E010    	LDI R17,$00
004BD4  310F    L1003:	CPI R16,$1F  Loop 32 times (one per servo )
004BD5  E0E0    	LDI ZL,$00
004BD6  071E    	CPC R17,ZL
004BD7  F5D0    	BRCC L1002
004BD8  E0A5    	LDI XL,$05
004BD9  9FA0    	MUL XL,R16
004BDA  01F0    	MOVW R31:R30,R1:R0
004BDB  9FA1    	MUL XL,R17
004BDC  0DF0    	ADD ZH,R0
004BDD  E8A8    	LDI XL,$88
004BDE  E0B7    	LDI XH,$07
004BDF  0FAE    	ADD XL,ZL
004BE0  1FBF    	ADC XH,ZH
004BE1  E0E0    	LDI ZL,$00
004BE2  93EC    	ST X,ZL
004BE3  E0A5    	LDI XL,$05
004BE4  9FA0    	MUL XL,R16
004BE5  01F0    	MOVW R31:R30,R1:R0
004BE6  9FA1    	MUL XL,R17
004BE7  0DF0    	ADD ZH,R0
004BE8  E8A9    	LDI XL,$89
004BE9  E0B7    	LDI XH,$07
004BEA  0FAE    	ADD XL,ZL
004BEB  1FBF    	ADC XH,ZH
004BEC  E0E0    	LDI ZL,$00
004BED  93EC    	ST X,ZL
004BEE  E0A5    	LDI XL,$05
004BEF  9FA0    	MUL XL,R16
004BF0  01F0    	MOVW R31:R30,R1:R0
004BF1  9FA1    	MUL XL,R17
004BF2  0DF0    	ADD ZH,R0
004BF3  E8AA    	LDI XL,$8A
004BF4  E0B7    	LDI XH,$07
004BF5  0FAE    	ADD XL,ZL
004BF6  1FBF    	ADC XH,ZH
004BF7  E0E0    	LDI ZL,$00
004BF8  93EC    	ST X,ZL
004BF9  E0A5    	LDI XL,$05
004BFA  9FA0    	MUL XL,R16
004BFB  01F0    	MOVW R31:R30,R1:R0
004BFC  9FA1    	MUL XL,R17
004BFD  0DF0    	ADD ZH,R0
004BFE  E8AB    	LDI XL,$8B
004BFF  E0B7    	LDI XH,$07
004C00  0FAE    	ADD XL,ZL
004C01  1FBF    	ADC XH,ZH
004C02  E0E0    	LDI ZL,$00
004C03  93EC    	ST X,ZL
004C04  E0A5    	LDI XL,$05
004C05  9FA0    	MUL XL,R16
004C06  01F0    	MOVW R31:R30,R1:R0
004C07  9FA1    	MUL XL,R17
004C08  0DF0    	ADD ZH,R0
004C09  E8AC    	LDI XL,$8C
004C0A  E0B7    	LDI XH,$07
004C0B  0FAE    	ADD XL,ZL
004C0C  1FBF    	ADC XH,ZH
004C0D  E0E0    	LDI ZL,$00
004C0E  93EC    	ST X,ZL
004C0F  5F0F    	SUBI R16,$FF
004C10  4F1F    	SBCI R17,$FF
004C11  CFC2    	RJMP L1003




'''''''''''''''''''''''


   ???  Pos ?

------------------------
004C12  8DE9    L1002:	LDD ZL,Y+25
004C13  8DFA    	LDD ZH,Y+26
004C14  93E0    	STS $0784,ZL       
004C15  0784
004C16  93F0    	STS $0785,ZH
004C17  0785
004C18  89EF    	LDD ZL,Y+23
004C19  8DF8    	LDD ZH,Y+24
004C1A  93E0    	STS $0786,ZL
004C1B  0786
004C1C  93F0    	STS $0787,ZH
004C1D  0787
004C1E  9A57    	SBI UCSR0B,RXCIE0   'Set Receive
004C1F  9856    	CBI UCSR0B,TXCIE0
004C20  E000    	LDI R16,$00
004C21  E010    	LDI R17,$00
004C22  3100    L1014:	CPI R16,$10
004C23  E0E0    	LDI ZL,$00
004C24  071E    	CPC R17,ZL
004C25  F010    	BRCS L1004
004C26  940C    	JMP L1005
004C27  4CCA
004C28  E0A5    L1004:	LDI XL,$05
004C29  9FA0    	MUL XL,R16
004C2A  01F0    	MOVW R31:R30,R1:R0
004C2B  9FA1    	MUL XL,R17
004C2C  0DF0    	ADD ZH,R0
004C2D  E8A8    	LDI XL,$88
004C2E  E0B7    	LDI XH,$07
004C2F  0FAE    	ADD XL,ZL
004C30  1FBF    	ADC XH,ZH
004C31  E0E1    	LDI ZL,$01
004C32  93EC    	ST X,ZL
004C33  930A    	ST -Y,R16
004C34  940E    	CALL L1006       Call ReadPos(1)
004C35  4290
004C36  019F    	MOVW R19:R18,R31:R30
004C37  EBEC    	LDI ZL,$BC
004C38  E0F1    	LDI ZH,$01              '1BC = 444  (No response ?? )
004C39  17E2    	CP ZL,R18
004C3A  07F3    	CPC ZH,R19
004C3B  F4A9    	BRNE L1007
004C3C  930A    	ST -Y,R16
004C3D  940E    	CALL L1006
004C3E  4290
004C3F  019F    	MOVW R19:R18,R31:R30
004C40  EBEC    	LDI ZL,$BC
004C41  E0F1    	LDI ZH,$01 
004C42  17E2    	CP ZL,R18
004C43  07F3    	CPC ZH,R19                ' 1BC = 444  (No response ??)
004C44  F461    	BRNE L1007
004C45  930A    	ST -Y,R16
004C46  940E    	CALL L1006
004C47  4290
004C48  019F    	MOVW R19:R18,R31:R30
004C49  EBEC    	LDI ZL,$BC
004C4A  E0F1    	LDI ZH,$01
004C4B  17E2    	CP ZL,R18
004C4C  07F3    	CPC ZH,R19
004C4D  F419    	BRNE L1007
004C4E  E0EB    	LDI ZL,$0B
004C4F  2E5E    	MOV R5,ZL
004C50  C129    	RJMP L984

004C51  E0A5    L1007:	LDI XL,$05
004C52  9FA0    	MUL XL,R16
004C53  01F0    	MOVW R31:R30,R1:R0
004C54  9FA1    	MUL XL,R17
004C55  0DF0    	ADD ZH,R0
004C56  E8A9    	LDI XL,$89
004C57  E0B7    	LDI XH,$07
004C58  0FAE    	ADD XL,ZL
004C59  1FBF    	ADC XH,ZH
004C5A  932C    	ST X,R18
004C5B  8DEB    	LDD ZL,Y+27
004C5C  30E0    	CPI ZL,$00
004C5D  F481    	BRNE L1008
004C5E  E0A5    	LDI XL,$05
004C5F  9FA0    	MUL XL,R16
004C60  01F0    	MOVW R31:R30,R1:R0
004C61  9FA1    	MUL XL,R17
004C62  0DF0    	ADD ZH,R0
004C63  57E6    	SUBI ZL,$76
004C64  4FF8    	SBCI ZH,$F8
004C65  010F    	MOVW R1:R0,R31:R30
004C66  E1AD    	LDI XL,$1D
004C67  E0B0    	LDI XH,$00
004C68  0FA0    	ADD XL,R16
004C69  1FB1    	ADC XH,R17
004C6A  940E    	CALL L545
004C6B  6C7C
004C6C  01D0    	MOVW R27:R26,R1:R0
004C6D  C044    	RJMP L1009

004C6E  8DAB    L1008:	LDD XL,Y+27
004C6F  30A1    	CPI XL,$01
004C70  F479    	BRNE L1010
004C71  E0A5    	LDI XL,$05
004C72  9FA0    	MUL XL,R16
004C73  01F0    	MOVW R31:R30,R1:R0
004C74  9FA1    	MUL XL,R17
004C75  0DF0    	ADD ZH,R0
004C76  57E6    	SUBI ZL,$76
004C77  4FF8    	SBCI ZH,$F8
004C78  01CF    	MOVW R25:R24,R31:R30
004C79  01F8    	MOVW R31:R30,R17:R16
004C7A  2766    	CLR R22
004C7B  2777    	CLR R23
004C7C  58E0    	SUBI ZL,$80
004C7D  4AF3    	SBCI ZH,$A3
004C7E  4F6F    	SBCI R22,$FF
004C7F  C023    	RJMP L1011
004C80  8DAB    L1010:	LDD XL,Y+27
004C81  30A2    	CPI XL,$02
004C82  F479    	BRNE L1012
004C83  E0A5    	LDI XL,$05
004C84  9FA0    	MUL XL,R16
004C85  01F0    	MOVW R31:R30,R1:R0
004C86  9FA1    	MUL XL,R17
004C87  0DF0    	ADD ZH,R0
004C88  57E6    	SUBI ZL,$76
004C89  4FF8    	SBCI ZH,$F8
004C8A  01CF    	MOVW R25:R24,R31:R30
004C8B  01F8    	MOVW R31:R30,R17:R16
004C8C  2766    	CLR R22
004C8D  2777    	CLR R23
004C8E  57E0    	SUBI ZL,$70
004C8F  4AF3    	SBCI ZH,$A3
004C90  4F6F    	SBCI R22,$FF
004C91  C011    	RJMP L1011
004C92  8DAB    L1012:	LDD XL,Y+27
004C93  30A3    	CPI XL,$03
004C94  F4F1    	BRNE L1013
004C95  E0A5    	LDI XL,$05
004C96  9FA0    	MUL XL,R16
004C97  01F0    	MOVW R31:R30,R1:R0
004C98  9FA1    	MUL XL,R17
004C99  0DF0    	ADD ZH,R0
004C9A  57E6    	SUBI ZL,$76
004C9B  4FF8    	SBCI ZH,$F8
004C9C  01CF    	MOVW R25:R24,R31:R30
004C9D  01F8    	MOVW R31:R30,R17:R16
004C9E  2766    	CLR R22
004C9F  2777    	CLR R23
004CA0  56E0    	SUBI ZL,$60
004CA1  4AF3    	SBCI ZH,$A3
004CA2  4F6F    	SBCI R22,$FF
004CA3  BF6B    L1011:	OUT RAMPZ,R22
004CA4  9006    	ELPM R0,Z
004CA5  2411    	CLR R1
004CA6  01F8    	MOVW R31:R30,R17:R16
004CA7  E3AB    	LDI XL,$3B
004CA8  E0B8    	LDI XH,$08
004CA9  0FEE    	LSL ZL
004CAA  1FFF    	ROL ZH
004CAB  0FAE    	ADD XL,ZL
004CAC  1FBF    	ADC XH,ZH
004CAD  940E    	CALL L878
004CAE  6C4B
004CAF  0DE0    	ADD ZL,R0
004CB0  1DF1    	ADC ZH,R1
004CB1  01DC    	MOVW R27:R26,R25:R24
004CB2  93EC    L1009:	ST X,ZL
004CB3  E0A5    L1013:	LDI XL,$05
004CB4  9FA0    	MUL XL,R16
004CB5  01F0    	MOVW R31:R30,R1:R0
004CB6  9FA1    	MUL XL,R17
004CB7  0DF0    	ADD ZH,R0
004CB8  57E5    	SUBI ZL,$75
004CB9  4FF8    	SBCI ZH,$F8
004CBA  89AE    	LDD XL,Y+22
004CBB  83A0    	ST Z,XL
004CBC  E0A5    	LDI XL,$05
004CBD  9FA0    	MUL XL,R16
004CBE  01F0    	MOVW R31:R30,R1:R0
004CBF  9FA1    	MUL XL,R17
004CC0  0DF0    	ADD ZH,R0
004CC1  E8AC    	LDI XL,$8C
004CC2  E0B7    	LDI XH,$07
004CC3  0FAE    	ADD XL,ZL
004CC4  1FBF    	ADC XH,ZH
004CC5  E0E0    	LDI ZL,$00
004CC6  93EC    	ST X,ZL
004CC7  5F0F    	SUBI R16,$FF
004CC8  4F1F    	SBCI R17,$FF
004CC9  CF58    	RJMP L1014
004CCA  E0EF    L1005:	LDI ZL,$0F
004CCB  93E0    	STS $0699,ZL
004CCC  0699
004CCD  9857    	CBI UCSR0B,RXCIE0
004CCE  9A56    	SBI UCSR0B,TXCIE0
004CCF  98DD    	CBI PORTA,PA5
004CD0  EFEF    	LDI ZL,$FF
004CD1  2E5E    	MOV R5,ZL
004CD2  940E    	CALL L1015
004CD3  4A3E
004CD4  E0E0    	LDI ZL,$00
004CD5  93E0    	STS $0619,ZL
004CD6  0619
004CD7  93E0    	STS $061A,ZL
004CD8  061A
004CD9  91A0    	LDS XL,$0786
004CDA  0786
004CDB  91B0    	LDS XH,$0787
004CDC  0787
004CDD  91E0    	LDS ZL,$0784
004CDE  0784
004CDF  91F0    	LDS ZH,$0785
004CE0  0785
004CE1  940E    	CALL L963
004CE2  6BF6
004CE3  019F    	MOVW R19:R18,R31:R30
004CE4  E000    	LDI R16,$00
004CE5  E010    	LDI R17,$00
004CE6  91E0    L1019:	LDS ZL,$0784
004CE7  0784
004CE8  91F0    	LDS ZH,$0785
004CE9  0785
004CEA  170E    	CP R16,ZL
004CEB  071F    	CPC R17,ZH
004CEC  F538    	BRCC L1016
004CED  91E0    	LDS ZL,$0619
004CEE  0619
004CEF  91F0    	LDS ZH,$061A
004CF0  061A
004CF1  9631    	ADIW ZH:ZL,1
004CF2  93E0    	STS $0619,ZL
004CF3  0619
004CF4  93F0    	STS $061A,ZH
004CF5  061A
004CF6  9731    	SBIW ZH:ZL,1
004CF7  940E    	CALL L1017
004CF8  41F3
004CF9  91E0    	LDS ZL,$05CE
004CFA  05CE
004CFB  5FEF    	SUBI ZL,$FF
004CFC  93E0    	STS $05CE,ZL
004CFD  05CE
004CFE  50E1    	SUBI ZL,$01
004CFF  91E0    	LDS ZL,$05CE
004D00  05CE
004D01  50E1    	SUBI ZL,$01
004D02  E0F0    	LDI ZH,$00
004D03  5EEE    	SUBI ZL,$EE
004D04  4FFA    	SBCI ZH,$FA
004D05  81E0    	LD ZL,Z
004D06  93EA    	ST -Y,ZL
004D07  940E    	CALL L864
004D08  407D
004D09  91E0    L1018:	LDS ZL,$05CC
004D0A  05CC
004D0B  30E0    	CPI ZL,$00
004D0C  F7E1    	BRNE L1018
004D0D  933A    	ST -Y,R19
004D0E  932A    	ST -Y,R18
004D0F  940E    	CALL L538
004D10  6B57
004D11  5F0F    	SUBI R16,$FF
004D12  4F1F    	SBCI R17,$FF
004D13  CFD2    	RJMP L1019
004D14  E6E4    L1016:	LDI ZL,$64
004D15  E0F0    	LDI ZH,$00
004D16  93FA    	ST -Y,ZH
004D17  93EA    	ST -Y,ZL
004D18  940E    	CALL L538
004D19  6B57
004D1A  9ADD    	SBI PORTA,PA5
004D1B  8DA9    	LDD XL,Y+25
004D1C  8DBA    	LDD XH,Y+26
004D1D  9712    	SBIW XH:XL,2
004D1E  F410    	BRCC L1020
004D1F  940C    	JMP L984
004D20  4D7A
004D21  01FE    L1020:	MOVW R31:R30,R29:R28
004D22  9636    	ADIW ZH:ZL,6
004D23  93FA    	ST -Y,ZH
004D24  93EA    	ST -Y,ZL
004D25  D058    	RCALL L1021
004D26  E0EB    	LDI ZL,$0B
004D27  15E5    	CP ZL,R5
004D28  F409    	BRNE L1022
004D29  C050    	RJMP L984
004D2A  E000    L1022:	LDI R16,$00
004D2B  E010    	LDI R17,$00
004D2C  3100    L1030:	CPI R16,$10
004D2D  E0E0    	LDI ZL,$00
004D2E  071E    	CPC R17,ZL
004D2F  F010    	BRCS L1023
004D30  940C    	JMP L984
004D31  4D7A
004D32  E0A5    L1023:	LDI XL,$05
004D33  9FA0    	MUL XL,R16
004D34  01F0    	MOVW R31:R30,R1:R0
004D35  9FA1    	MUL XL,R17
004D36  0DF0    	ADD ZH,R0
004D37  E8AA    	LDI XL,$8A
004D38  E0B7    	LDI XH,$07
004D39  0FAE    	ADD XL,ZL
004D3A  1FBF    	ADC XH,ZH
004D3B  91AC    	LD XL,X
004D3C  30AB    	CPI XL,$0B
004D3D  F410    	BRCC L1024
004D3E  E041    	LDI R20,$01
004D3F  C00C    	RJMP L1025
004D40  E0A5    L1024:	LDI XL,$05
004D41  9FA0    	MUL XL,R16
004D42  01F0    	MOVW R31:R30,R1:R0
004D43  9FA1    	MUL XL,R17
004D44  0DF0    	ADD ZH,R0
004D45  E8AA    	LDI XL,$8A
004D46  E0B7    	LDI XH,$07
004D47  0FAE    	ADD XL,ZL
004D48  1FBF    	ADC XH,ZH
004D49  91EC    	LD ZL,X
004D4A  50EA    	SUBI ZL,$0A
004D4B  2F4E    	MOV R20,ZL
004D4C  E0A5    L1025:	LDI XL,$05
004D4D  9FA0    	MUL XL,R16
004D4E  01F0    	MOVW R31:R30,R1:R0
004D4F  9FA1    	MUL XL,R17
004D50  0DF0    	ADD ZH,R0
004D51  E8AA    	LDI XL,$8A
004D52  E0B7    	LDI XH,$07
004D53  0FAE    	ADD XL,ZL
004D54  1FBF    	ADC XH,ZH
004D55  91AC    	LD XL,X
004D56  3FA4    	CPI XL,$F4
004D57  F010    	BRCS L1026
004D58  EF5E    	LDI R21,$FE
004D59  C00C    	RJMP L1027
004D5A  E0A5    L1026:	LDI XL,$05
004D5B  9FA0    	MUL XL,R16
004D5C  01F0    	MOVW R31:R30,R1:R0
004D5D  9FA1    	MUL XL,R17
004D5E  0DF0    	ADD ZH,R0
004D5F  E8AA    	LDI XL,$8A
004D60  E0B7    	LDI XH,$07
004D61  0FAE    	ADD XL,ZL
004D62  1FBF    	ADC XH,ZH
004D63  91EC    	LD ZL,X
004D64  5FE6    	SUBI ZL,$F6
004D65  2F5E    	MOV R21,ZL
004D66  01DE    L1027:	MOVW R27:R26,R29:R28
004D67  9616    	ADIW XH:XL,6
004D68  0FA0    	ADD XL,R16
004D69  1FB1    	ADC XH,R17
004D6A  91AC    	LD XL,X
004D6B  17A4    	CP XL,R20
004D6C  F038    	BRCS L1028
004D6D  01DE    	MOVW R27:R26,R29:R28
004D6E  9616    	ADIW XH:XL,6
004D6F  0FA0    	ADD XL,R16
004D70  1FB1    	ADC XH,R17
004D71  91AC    	LD XL,X
004D72  175A    	CP R21,XL
004D73  F418    	BRCC L1029
004D74  E0EA    L1028:	LDI ZL,$0A
004D75  2E5E    	MOV R5,ZL
004D76  C003    	RJMP L984
004D77  5F0F    L1029:	SUBI R16,$FF
004D78  4F1F    	SBCI R17,$FF
004D79  CFB2    	RJMP L1030
004D7A  940E    L984:	CALL L617
004D7B  6E2D
004D7C  966C    	ADIW YH:YL,28
004D7D  9508    	RET
004D7E  940E    L1021:	CALL L941
004D7F  6E28
004D80  98DE    	CBI PORTA,PA6
004D81  9A57    	SBI UCSR0B,RXCIE0
004D82  9856    	CBI UCSR0B,TXCIE0
004D83  E000    	LDI R16,$00
004D84  E010    	LDI R17,$00
004D85  3100    L1034:	CPI R16,$10
004D86  E0E0    	LDI ZL,$00
004D87  071E    	CPC R17,ZL
004D88  F540    	BRCC L1031
004D89  930A    	ST -Y,R16
004D8A  940E    	CALL L1006
004D8B  4290
004D8C  019F    	MOVW R19:R18,R31:R30
004D8D  EBEC    	LDI ZL,$BC
004D8E  E0F1    	LDI ZH,$01
004D8F  17E2    	CP ZL,R18
004D90  07F3    	CPC ZH,R19
004D91  F4B1    	BRNE L1032
004D92  930A    	ST -Y,R16
004D93  940E    	CALL L1006
004D94  4290
004D95  019F    	MOVW R19:R18,R31:R30
004D96  EBEC    	LDI ZL,$BC
004D97  E0F1    	LDI ZH,$01
004D98  17E2    	CP ZL,R18
004D99  07F3    	CPC ZH,R19
004D9A  F469    	BRNE L1032
004D9B  930A    	ST -Y,R16
004D9C  940E    	CALL L1006
004D9D  4290
004D9E  019F    	MOVW R19:R18,R31:R30
004D9F  EBEC    	LDI ZL,$BC
004DA0  E0F1    	LDI ZH,$01
004DA1  17E2    	CP ZL,R18
004DA2  07F3    	CPC ZH,R19
004DA3  F421    	BRNE L1032
004DA4  E0EB    	LDI ZL,$0B
004DA5  2E5E    	MOV R5,ZL
004DA6  9ADE    	SBI PORTA,PA6
004DA7  C00C    	RJMP L1033
004DA8  01F8    L1032:	MOVW R31:R30,R17:R16
004DA9  81AC    	LDD XL,Y+4
004DAA  81BD    	LDD XH,Y+5
004DAB  0FAE    	ADD XL,ZL
004DAC  1FBF    	ADC XH,ZH
004DAD  932C    	ST X,R18
004DAE  5F0F    	SUBI R16,$FF
004DAF  4F1F    	SBCI R17,$FF
004DB0  CFD4    	RJMP L1034
004DB1  9857    L1031:	CBI UCSR0B,RXCIE0
004DB2  9A56    	SBI UCSR0B,TXCIE0
004DB3  9ADE    	SBI PORTA,PA6
004DB4  940E    L1033:	CALL L953
004DB5  6E2F
004DB6  9626    	ADIW YH:YL,6
004DB7  9508    	RET
004DB8  931A    L1151:	ST -Y,R17
004DB9  930A    	ST -Y,R16
004DBA  FC26    	SBRC R2,6
004DBB  C344    	RJMP L1035
004DBC  01DE    	MOVW R27:R26,R29:R28
004DBD  9612    	ADIW XH:XL,2
004DBE  900C    	LD R0,X
004DBF  E2AE    	LDI XL,$2E
004DC0  E0B0    	LDI XH,$00
004DC1  940E    	CALL L545
004DC2  6C7C
004DC3  15E0    	CP ZL,R0
004DC4  F408    	BRCC L1036
004DC5  C33A    	RJMP L1035
004DC6  81EA    L1036:	LDD ZL,Y+2
004DC7  93EA    	ST -Y,ZL
004DC8  940E    	CALL L1037
004DC9  434E
004DCA  91A0    	LDS XL,$06C1
004DCB  06C1
004DCC  164A    	CP R4,XL
004DCD  F019    	BREQ L1038
004DCE  E0E5    	LDI ZL,$05
004DCF  2E5E    	MOV R5,ZL
004DD0  C32F    	RJMP L1035
004DD1  940E    L1038:	CALL L1039
004DD2  4688
004DD3  EFEF    	LDI ZL,$FF
004DD4  2E5E    	MOV R5,ZL
004DD5  E000    	LDI R16,$00
004DD6  E010    	LDI R17,$00
004DD7  91E0    L1045:	LDS ZL,$06C2
004DD8  06C2
004DD9  91F0    	LDS ZH,$06C3
004DDA  06C3
004DDB  170E    	CP R16,ZL
004DDC  071F    	CPC R17,ZH
004DDD  F4B0    	BRCC L1040
004DDE  940E    	CALL L1041
004DDF  4755
004DE0  940E    	CALL L1042
004DE1  470F
004DE2  940E    	CALL L1043
004DE3  49E2
004DE4  EFEF    	LDI ZL,$FF
004DE5  15E5    	CP ZL,R5
004DE6  F469    	BRNE L1040
004DE7  940E    	CALL L1015
004DE8  4A3E
004DE9  940E    	CALL L757
004DEA  4B0F
004DEB  940E    	CALL L758
004DEC  4B23
004DED  FC20    L1044:	SBRC R2,0
004DEE  CFFE    	RJMP L1044
004DEF  FC23    	SBRC R2,3
004DF0  C003    	RJMP L1040
004DF1  5F0F    	SUBI R16,$FF
004DF2  4F1F    	SBCI R17,$FF
004DF3  CFE3    	RJMP L1045
004DF4  C30B    L1040:	RJMP L1035
004DF5  9724    L1201:	SBIW YH:YL,4
004DF6  931A    	ST -Y,R17
004DF7  930A    	ST -Y,R16
004DF8  FC26    	SBRC R2,6
004DF9  C029    	RJMP L1046
004DFA  940E    	CALL L1047
004DFB  454D
004DFC  940E    	CALL L1039
004DFD  4688
004DFE  EFEF    	LDI ZL,$FF
004DFF  2E5E    	MOV R5,ZL
004E00  E000    	LDI R16,$00
004E01  E010    	LDI R17,$00
004E02  91E0    L1050:	LDS ZL,$06C2
004E03  06C2
004E04  91F0    	LDS ZH,$06C3
004E05  06C3
004E06  170E    	CP R16,ZL
004E07  071F    	CPC R17,ZH
004E08  F4D0    	BRCC L1046
004E09  9300    	STS $0839,R16
004E0A  0839
004E0B  9310    	STS $083A,R17
004E0C  083A
004E0D  940E    	CALL L1048
004E0E  4896
004E0F  940E    	CALL L1042
004E10  470F
004E11  940E    	CALL L1043
004E12  49E2
004E13  EFEF    	LDI ZL,$FF
004E14  15E5    	CP ZL,R5
004E15  F469    	BRNE L1046
004E16  940E    	CALL L1015
004E17  4A3E
004E18  940E    	CALL L757
004E19  4B0F
004E1A  940E    	CALL L758
004E1B  4B23
004E1C  FC20    L1049:	SBRC R2,0
004E1D  CFFE    	RJMP L1049
004E1E  FC23    	SBRC R2,3
004E1F  C003    	RJMP L1046
004E20  5F0F    	SUBI R16,$FF
004E21  4F1F    	SBCI R17,$FF
004E22  CFDF    	RJMP L1050
004E23  8119    L1046:	LDD R17,Y+1
004E24  8108    	LD R16,Y
004E25  9626    	ADIW YH:YL,6
004E26  9508    	RET
004E27  931A    L1059:	ST -Y,R17
004E28  930A    	ST -Y,R16
004E29  81EA    	LDD ZL,Y+2
004E2A  93E0    	STS $082F,ZL
004E2B  082F
004E2C  50E1    	SUBI ZL,$01
004E2D  E8A0    	LDI XL,$80
004E2E  E0B0    	LDI XH,$00
004E2F  E0F0    	LDI ZH,$00
004E30  0FEE    	LSL ZL
004E31  1FFF    	ROL ZH
004E32  0FAE    	ADD XL,ZL
004E33  1FBF    	ADC XH,ZH
004E34  940E    	CALL L602
004E35  6C78
004E36  93FA    	ST -Y,ZH
004E37  93EA    	ST -Y,ZL
004E38  E0E7    	LDI ZL,$07
004E39  E0F0    	LDI ZH,$00
004E3A  93FA    	ST -Y,ZH
004E3B  93EA    	ST -Y,ZL
004E3C  940E    	CALL L539
004E3D  64BF
004E3E  E000    	LDI R16,$00
004E3F  E010    	LDI R17,$00
004E40  3004    L1052:	CPI R16,$04
004E41  E0E0    	LDI ZL,$00
004E42  071E    	CPC R17,ZL
004E43  F590    	BRCC L1051
004E44  91A0    	LDS XL,$0830
004E45  0830
004E46  91B0    	LDS XH,$0831
004E47  0831
004E48  9180    	LDS R24,$0832
004E49  0832
004E4A  9190    	LDS R25,$0833
004E4B  0833
004E4C  E0E8    	LDI ZL,$08
004E4D  940E    	CALL L901
004E4E  6BBA
004E4F  93E0    	STS $0830,ZL
004E50  0830
004E51  93F0    	STS $0831,ZH
004E52  0831
004E53  9360    	STS $0832,R22
004E54  0832
004E55  9370    	STS $0833,R23
004E56  0833
004E57  E3A0    	LDI XL,$30
004E58  E0B8    	LDI XH,$08
004E59  93BF    	PUSH XH
004E5A  93AF    	PUSH XL
004E5B  940E    	CALL L874
004E5C  6C4F
004E5D  937F    	PUSH R23
004E5E  936F    	PUSH R22
004E5F  93FF    	PUSH ZH
004E60  93EF    	PUSH ZL
004E61  E7AD    	LDI XL,$7D
004E62  E0B8    	LDI XH,$08
004E63  0FA0    	ADD XL,R16
004E64  1FB1    	ADC XH,R17
004E65  91EC    	LD ZL,X
004E66  91AF    	POP XL
004E67  91BF    	POP XH
004E68  918F    	POP R24
004E69  919F    	POP R25
004E6A  27FF    	CLR ZH
004E6B  2766    	CLR R22
004E6C  2777    	CLR R23
004E6D  940E    	CALL L902
004E6E  6B9F
004E6F  91AF    	POP XL
004E70  91BF    	POP XH
004E71  940E    	CALL L903
004E72  6C55
004E73  5F0F    	SUBI R16,$FF
004E74  4F1F    	SBCI R17,$FF
004E75  CFCA    	RJMP L1052
004E76  91E0    L1051:	LDS ZL,$0881
004E77  0881
004E78  93E0    	STS $0834,ZL
004E79  0834
004E7A  E005    	LDI R16,$05
004E7B  E010    	LDI R17,$00
004E7C  3007    L1054:	CPI R16,$07
004E7D  E0E0    	LDI ZL,$00
004E7E  071E    	CPC R17,ZL
004E7F  F4D0    	BRCC L1053
004E80  91F0    	LDS ZH,$0835
004E81  0835
004E82  E0E0    	LDI ZL,$00
004E83  93E0    	STS $0835,ZL
004E84  0835
004E85  93F0    	STS $0836,ZH
004E86  0836
004E87  E3A5    	LDI XL,$35
004E88  E0B8    	LDI XH,$08
004E89  01BD    	MOVW R23:R22,R27:R26
004E8A  900D    	LD R0,X+
004E8B  901C    	LD R1,X
004E8C  E7AD    	LDI XL,$7D
004E8D  E0B8    	LDI XH,$08
004E8E  0FA0    	ADD XL,R16
004E8F  1FB1    	ADC XH,R17
004E90  91EC    	LD ZL,X
004E91  E0F0    	LDI ZH,$00
004E92  0DE0    	ADD ZL,R0
004E93  1DF1    	ADC ZH,R1
004E94  01DB    	MOVW R27:R26,R23:R22
004E95  93ED    	ST X+,ZL
004E96  93FC    	ST X,ZH
004E97  5F0F    	SUBI R16,$FF
004E98  4F1F    	SBCI R17,$FF
004E99  CFE2    	RJMP L1054
004E9A  C265    L1053:	RJMP L1035
004E9B  931A    L1063:	ST -Y,R17
004E9C  930A    	ST -Y,R16
004E9D  81EC    	LDD ZL,Y+4
004E9E  50E1    	SUBI ZL,$01
004E9F  E8A0    	LDI XL,$80
004EA0  E0B0    	LDI XH,$00
004EA1  E0F0    	LDI ZH,$00
004EA2  0FEE    	LSL ZL
004EA3  1FFF    	ROL ZH
004EA4  0FAE    	ADD XL,ZL
004EA5  1FBF    	ADC XH,ZH
004EA6  940E    	CALL L602
004EA7  6C78
004EA8  9637    	ADIW ZH:ZL,7
004EA9  01BF    	MOVW R23:R22,R31:R30
004EAA  81EA    	LDD ZL,Y+2
004EAB  81FB    	LDD ZH,Y+3
004EAC  E0AC    	LDI XL,$0C
004EAD  E0B0    	LDI XH,$00
004EAE  940E    	CALL L909
004EAF  6BDB
004EB0  0FE6    	ADD ZL,R22
004EB1  1FF7    	ADC ZH,R23
004EB2  93FA    	ST -Y,ZH
004EB3  93EA    	ST -Y,ZL
004EB4  E0EC    	LDI ZL,$0C
004EB5  E0F0    	LDI ZH,$00
004EB6  93FA    	ST -Y,ZH
004EB7  93EA    	ST -Y,ZL
004EB8  940E    	CALL L539
004EB9  64BF
004EBA  E000    	LDI R16,$00
004EBB  E010    	LDI R17,$00
004EBC  3002    L1056:	CPI R16,$02
004EBD  E0E0    	LDI ZL,$00
004EBE  071E    	CPC R17,ZL
004EBF  F4C8    	BRCC L1055
004EC0  E0E0    	LDI ZL,$00
004EC1  93E0    	STS $0823,ZL
004EC2  0823
004EC3  93F0    	STS $0824,ZH
004EC4  0824
004EC5  E2A3    	LDI XL,$23
004EC6  E0B8    	LDI XH,$08
004EC7  01BD    	MOVW R23:R22,R27:R26
004EC8  900D    	LD R0,X+
004EC9  901C    	LD R1,X
004ECA  E7AD    	LDI XL,$7D
004ECB  E0B8    	LDI XH,$08
004ECC  0FA0    	ADD XL,R16
004ECD  1FB1    	ADC XH,R17
004ECE  91EC    	LD ZL,X
004ECF  E0F0    	LDI ZH,$00
004ED0  70F0    	ANDI ZH,$00
004ED1  0DE0    	ADD ZL,R0
004ED2  1DF1    	ADC ZH,R1
004ED3  01DB    	MOVW R27:R26,R23:R22
004ED4  93ED    	ST X+,ZL
004ED5  93FC    	ST X,ZH
004ED6  5F0F    	SUBI R16,$FF
004ED7  4F1F    	SBCI R17,$FF
004ED8  CFE3    	RJMP L1056
004ED9  91E0    L1055:	LDS ZL,$087F
004EDA  087F
004EDB  93E0    	STS $0825,ZL
004EDC  0825
004EDD  91E0    	LDS ZL,$0880
004EDE  0880
004EDF  93E0    	STS $0826,ZL
004EE0  0826
004EE1  91E0    	LDS ZL,$0881
004EE2  0881
004EE3  93E0    	STS $0827,ZL
004EE4  0827
004EE5  91E0    	LDS ZL,$0882
004EE6  0882
004EE7  93E0    	STS $0828,ZL
004EE8  0828
004EE9  91E0    	LDS ZL,$0883
004EEA  0883
004EEB  93E0    	STS $0829,ZL
004EEC  0829
004EED  91E0    	LDS ZL,$0884
004EEE  0884
004EEF  93E0    	STS $082A,ZL
004EF0  082A
004EF1  91E0    	LDS ZL,$0885
004EF2  0885
004EF3  93E0    	STS $082B,ZL
004EF4  082B
004EF5  91E0    	LDS ZL,$0886
004EF6  0886
004EF7  93E0    	STS $082C,ZL
004EF8  082C
004EF9  91E0    	LDS ZL,$0887
004EFA  0887
004EFB  93E0    	STS $082D,ZL
004EFC  082D
004EFD  91E0    	LDS ZL,$0888
004EFE  0888
004EFF  93E0    	STS $082E,ZL
004F00  082E
004F01  8119    	LDD R17,Y+1
004F02  8108    	LD R16,Y
004F03  9625    	ADIW YH:YL,5
004F04  9508    	RET
004F05  940E    L1309:	CALL L594
004F06  6E29
004F07  FC26    	SBRC R2,6
004F08  C1B4    	RJMP L1057
004F09  01DE    	MOVW R27:R26,R29:R28
004F0A  9613    	ADIW XH:XL,3
004F0B  900C    	LD R0,X
004F0C  E2AF    	LDI XL,$2F
004F0D  E0B0    	LDI XH,$00
004F0E  940E    	CALL L545
004F0F  6C7C
004F10  15E0    	CP ZL,R0
004F11  F408    	BRCC L1058
004F12  C1AA    	RJMP L1057
004F13  81EB    L1058:	LDD ZL,Y+3
004F14  93EA    	ST -Y,ZL
004F15  940E    	CALL L1059
004F16  4E27
004F17  91A0    	LDS XL,$0834
004F18  0834
004F19  164A    	CP R4,XL
004F1A  F019    	BREQ L1060
004F1B  E0E5    	LDI ZL,$05
004F1C  2E5E    	MOV R5,ZL
004F1D  C19F    	RJMP L1057
004F1E  EFEF    L1060:	LDI ZL,$FF
004F1F  2E5E    	MOV R5,ZL
004F20  9468    	BSET 6
004F21  F821    	BLD R2,1
004F22  E0E0    	LDI ZL,$00
004F23  93E0    	STS $06BA,ZL
004F24  06BA
004F25  93E0    	STS $06BB,ZL
004F26  06BB
004F27  91E0    L1107:	LDS ZL,$0835
004F28  0835
004F29  91F0    	LDS ZH,$0836
004F2A  0836
004F2B  91A0    	LDS XL,$06BA
004F2C  06BA
004F2D  91B0    	LDS XH,$06BB
004F2E  06BB
004F2F  17EA    	CP ZL,XL
004F30  07FB    	CPC ZH,XH
004F31  F411    	BRNE L1061
004F32  940C    	JMP L1062
004F33  50BC
004F34  98DD    L1061:	CBI PORTA,PA5
004F35  81EB    	LDD ZL,Y+3
004F36  93EA    	ST -Y,ZL
004F37  91E0    	LDS ZL,$06BA
004F38  06BA
004F39  91F0    	LDS ZH,$06BB
004F3A  06BB
004F3B  93FA    	ST -Y,ZH
004F3C  93EA    	ST -Y,ZL
004F3D  940E    	CALL L1063
004F3E  4E9B
004F3F  91E0    	LDS ZL,$06BA
004F40  06BA
004F41  91F0    	LDS ZH,$06BB
004F42  06BB
004F43  9631    	ADIW ZH:ZL,1
004F44  93E0    	STS $06BA,ZL
004F45  06BA
004F46  93F0    	STS $06BB,ZH
004F47  06BB
004F48  91E0    	LDS ZL,$0825
004F49  0825
004F4A  30E0    	CPI ZL,$00
004F4B  F429    	BRNE L1064
004F4C  91E0    	LDS ZL,$082A
004F4D  082A
004F4E  93EA    	ST -Y,ZL
004F4F  D171    	RCALL L1065
004F50  C165    	RJMP L1066
004F51  30E1    L1064:	CPI ZL,$01
004F52  F011    	BREQ L1067
004F53  940C    	JMP L1068
004F54  4F98
004F55  940E    L1067:	CALL L1069
004F56  6550
004F57  91A0    	LDS XL,$0826
004F58  0826
004F59  30A1    	CPI XL,$01
004F5A  F459    	BRNE L1070
004F5B  91E0    	LDS ZL,$0827
004F5C  0827
004F5D  91A0    	LDS XL,$0613
004F5E  0613
004F5F  17EA    	CP ZL,XL
004F60  F421    	BRNE L1071
004F61  91E0    	LDS ZL,$082A
004F62  082A
004F63  93EA    	ST -Y,ZL
004F64  D15C    	RCALL L1065
004F65  C031    L1071:	RJMP L1072
004F66  91A0    L1070:	LDS XL,$0826
004F67  0826
004F68  30A2    	CPI XL,$02
004F69  F459    	BRNE L1073
004F6A  91E0    	LDS ZL,$0827
004F6B  0827
004F6C  91A0    	LDS XL,$0613
004F6D  0613
004F6E  17EA    	CP ZL,XL
004F6F  F420    	BRCC L1074
004F70  91E0    	LDS ZL,$082A
004F71  082A
004F72  93EA    	ST -Y,ZL
004F73  D14D    	RCALL L1065
004F74  C022    L1074:	RJMP L1072
004F75  91A0    L1073:	LDS XL,$0826
004F76  0826
004F77  30A3    	CPI XL,$03
004F78  F459    	BRNE L1075
004F79  91E0    	LDS ZL,$0828
004F7A  0828
004F7B  91A0    	LDS XL,$0613
004F7C  0613
004F7D  17AE    	CP XL,ZL
004F7E  F420    	BRCC L1076
004F7F  91E0    	LDS ZL,$082A
004F80  082A
004F81  93EA    	ST -Y,ZL
004F82  D13E    	RCALL L1065
004F83  C013    L1076:	RJMP L1072
004F84  91A0    L1075:	LDS XL,$0826
004F85  0826
004F86  30A4    	CPI XL,$04
004F87  F479    	BRNE L1072
004F88  91E0    	LDS ZL,$0827
004F89  0827
004F8A  91A0    	LDS XL,$0613
004F8B  0613
004F8C  17EA    	CP ZL,XL
004F8D  F420    	BRCC L1077
004F8E  91E0    	LDS ZL,$0828
004F8F  0828
004F90  17AE    	CP XL,ZL
004F91  F008    	BRCS L1078
004F92  C004    L1077:	RJMP L1072
004F93  91E0    L1078:	LDS ZL,$082A
004F94  082A
004F95  93EA    	ST -Y,ZL
004F96  D12A    	RCALL L1065
004F97  C11E    L1072:	RJMP L1066
004F98  30E2    L1068:	CPI ZL,$02
004F99  F011    	BREQ L1079
004F9A  940C    	JMP L1080
004F9B  4FDF
004F9C  940E    L1079:	CALL L1081
004F9D  65D1
004F9E  91A0    	LDS XL,$0826
004F9F  0826
004FA0  30A1    	CPI XL,$01
004FA1  F459    	BRNE L1082
004FA2  91E0    	LDS ZL,$0827
004FA3  0827
004FA4  91A0    	LDS XL,$0614
004FA5  0614
004FA6  17EA    	CP ZL,XL
004FA7  F421    	BRNE L1083
004FA8  91E0    	LDS ZL,$082A
004FA9  082A
004FAA  93EA    	ST -Y,ZL
004FAB  D115    	RCALL L1065
004FAC  C031    L1083:	RJMP L1084
004FAD  91A0    L1082:	LDS XL,$0826
004FAE  0826
004FAF  30A2    	CPI XL,$02
004FB0  F459    	BRNE L1085
004FB1  91E0    	LDS ZL,$0827
004FB2  0827
004FB3  91A0    	LDS XL,$0614
004FB4  0614
004FB5  17EA    	CP ZL,XL
004FB6  F420    	BRCC L1086
004FB7  91E0    	LDS ZL,$082A
004FB8  082A
004FB9  93EA    	ST -Y,ZL
004FBA  D106    	RCALL L1065
004FBB  C022    L1086:	RJMP L1084
004FBC  91A0    L1085:	LDS XL,$0826
004FBD  0826
004FBE  30A3    	CPI XL,$03
004FBF  F459    	BRNE L1087
004FC0  91E0    	LDS ZL,$0828
004FC1  0828
004FC2  91A0    	LDS XL,$0614
004FC3  0614
004FC4  17AE    	CP XL,ZL
004FC5  F420    	BRCC L1088
004FC6  91E0    	LDS ZL,$082A
004FC7  082A
004FC8  93EA    	ST -Y,ZL
004FC9  D0F7    	RCALL L1065
004FCA  C013    L1088:	RJMP L1084
004FCB  91A0    L1087:	LDS XL,$0826
004FCC  0826
004FCD  30A4    	CPI XL,$04
004FCE  F479    	BRNE L1084
004FCF  91E0    	LDS ZL,$0827
004FD0  0827
004FD1  91A0    	LDS XL,$0614
004FD2  0614
004FD3  17EA    	CP ZL,XL
004FD4  F420    	BRCC L1089
004FD5  91E0    	LDS ZL,$0828
004FD6  0828
004FD7  17AE    	CP XL,ZL
004FD8  F008    	BRCS L1090
004FD9  C004    L1089:	RJMP L1084
004FDA  91E0    L1090:	LDS ZL,$082A
004FDB  082A
004FDC  93EA    	ST -Y,ZL
004FDD  D0E3    	RCALL L1065
004FDE  C0D7    L1084:	RJMP L1066
004FDF  30E3    L1080:	CPI ZL,$03
004FE0  F549    	BRNE L1091
004FE1  B3E9    	IN ZL,PINA
004FE2  70E3    	ANDI ZL,$03
004FE3  2F2E    	MOV R18,ZL
004FE4  91A0    	LDS XL,$0826
004FE5  0826
004FE6  30A1    	CPI XL,$01
004FE7  F479    	BRNE L1092
004FE8  3022    	CPI R18,$02
004FE9  F461    	BRNE L1093
004FEA  E1EE    	LDI ZL,$1E
004FEB  E0F0    	LDI ZH,$00
004FEC  93FA    	ST -Y,ZH
004FED  93EA    	ST -Y,ZL
004FEE  940E    	CALL L538
004FEF  6B57
004FF0  3022    	CPI R18,$02
004FF1  F421    	BRNE L1093
004FF2  91E0    	LDS ZL,$082A
004FF3  082A
004FF4  93EA    	ST -Y,ZL
004FF5  D0CB    	RCALL L1065
004FF6  C012    L1093:	RJMP L1094
004FF7  91A0    L1092:	LDS XL,$0826
004FF8  0826
004FF9  30A2    	CPI XL,$02
004FFA  F471    	BRNE L1094
004FFB  3021    	CPI R18,$01
004FFC  F461    	BRNE L1094
004FFD  E1EE    	LDI ZL,$1E
004FFE  E0F0    	LDI ZH,$00
004FFF  93FA    	ST -Y,ZH
005000  93EA    	ST -Y,ZL
005001  940E    	CALL L538
005002  6B57
005003  3021    	CPI R18,$01
005004  F421    	BRNE L1094
005005  91E0    	LDS ZL,$082A
005006  082A
005007  93EA    	ST -Y,ZL
005008  D0B8    	RCALL L1065
005009  C0AC    L1094:	RJMP L1066
00500A  30E4    L1091:	CPI ZL,$04
00500B  F011    	BREQ L1095
00500C  940C    	JMP L1096
00500D  50B0
00500E  E000    L1095:	LDI R16,$00
00500F  E010    	LDI R17,$00
005010  3004    L1098:	CPI R16,$04
005011  E0E0    	LDI ZL,$00
005012  071E    	CPC R17,ZL
005013  F448    	BRCC L1097
005014  EFA9    	LDI XL,$F9
005015  E0B5    	LDI XH,$05
005016  0FA0    	ADD XL,R16
005017  1FB1    	ADC XH,R17
005018  E0E0    	LDI ZL,$00
005019  93EC    	ST X,ZL
00501A  5F0F    	SUBI R16,$FF
00501B  4F1F    	SBCI R17,$FF
00501C  CFF3    	RJMP L1098
00501D  B7E9    L1097:	IN ZL,EIMSK
00501E  64E0    	ORI ZL,$40
00501F  BFE9    	OUT EIMSK,ZL
005020  FE32    	SBRS R3,2
005021  C08D    	RJMP L1099
005022  B7E9    	IN ZL,EIMSK
005023  7BEF    	ANDI ZL,$BF
005024  BFE9    	OUT EIMSK,ZL
005025  94E8    	BCLR 6
005026  F832    	BLD R3,2
005027  E0AE    	LDI XL,$0E
005028  E0B0    	LDI XH,$00
005029  940E    	CALL L545
00502A  6C7C
00502B  91A0    	LDS XL,$05F9
00502C  05F9
00502D  17EA    	CP ZL,XL
00502E  F489    	BRNE L1100
00502F  E1A3    	LDI XL,$13
005030  E0B0    	LDI XH,$00
005031  940E    	CALL L545
005032  6C7C
005033  91A0    	LDS XL,$05FA
005034  05FA
005035  17EA    	CP ZL,XL
005036  F449    	BRNE L1100
005037  E1A8    	LDI XL,$18
005038  E0B0    	LDI XH,$00
005039  940E    	CALL L545
00503A  6C7C
00503B  91A0    	LDS XL,$05FB
00503C  05FB
00503D  17EA    	CP ZL,XL
00503E  F409    	BRNE L1100
00503F  C062    	RJMP L1101
005040  E0AF    L1100:	LDI XL,$0F
005041  E0B0    	LDI XH,$00
005042  940E    	CALL L545
005043  6C7C
005044  91A0    	LDS XL,$05F9
005045  05F9
005046  17EA    	CP ZL,XL
005047  F489    	BRNE L1102
005048  E1A4    	LDI XL,$14
005049  E0B0    	LDI XH,$00
00504A  940E    	CALL L545
00504B  6C7C
00504C  91A0    	LDS XL,$05FA
00504D  05FA
00504E  17EA    	CP ZL,XL
00504F  F449    	BRNE L1102
005050  E1A9    	LDI XL,$19
005051  E0B0    	LDI XH,$00
005052  940E    	CALL L545
005053  6C7C
005054  91A0    	LDS XL,$05FB
005055  05FB
005056  17EA    	CP ZL,XL
005057  F409    	BRNE L1102
005058  C049    	RJMP L1101
005059  E1A0    L1102:	LDI XL,$10
00505A  E0B0    	LDI XH,$00
00505B  940E    	CALL L545
00505C  6C7C
00505D  91A0    	LDS XL,$05F9
00505E  05F9
00505F  17EA    	CP ZL,XL
005060  F481    	BRNE L1103
005061  E1A5    	LDI XL,$15
005062  E0B0    	LDI XH,$00
005063  940E    	CALL L545
005064  6C7C
005065  91A0    	LDS XL,$05FA
005066  05FA
005067  17EA    	CP ZL,XL
005068  F441    	BRNE L1103
005069  E1AA    	LDI XL,$1A
00506A  E0B0    	LDI XH,$00
00506B  940E    	CALL L545
00506C  6C7C
00506D  91A0    	LDS XL,$05FB
00506E  05FB
00506F  17EA    	CP ZL,XL
005070  F189    	BREQ L1101
005071  E1A1    L1103:	LDI XL,$11
005072  E0B0    	LDI XH,$00
005073  940E    	CALL L545
005074  6C7C
005075  91A0    	LDS XL,$05F9
005076  05F9
005077  17EA    	CP ZL,XL
005078  F481    	BRNE L1104
005079  E1A6    	LDI XL,$16
00507A  E0B0    	LDI XH,$00
00507B  940E    	CALL L545
00507C  6C7C
00507D  91A0    	LDS XL,$05FA
00507E  05FA
00507F  17EA    	CP ZL,XL
005080  F441    	BRNE L1104
005081  E1AB    	LDI XL,$1B
005082  E0B0    	LDI XH,$00
005083  940E    	CALL L545
005084  6C7C
005085  91A0    	LDS XL,$05FB
005086  05FB
005087  17EA    	CP ZL,XL
005088  F0C9    	BREQ L1101
005089  E1A2    L1104:	LDI XL,$12
00508A  E0B0    	LDI XH,$00
00508B  940E    	CALL L545
00508C  6C7C
00508D  91A0    	LDS XL,$05F9
00508E  05F9
00508F  17EA    	CP ZL,XL
005090  F481    	BRNE L1105
005091  E1A7    	LDI XL,$17
005092  E0B0    	LDI XH,$00
005093  940E    	CALL L545
005094  6C7C
005095  91A0    	LDS XL,$05FA
005096  05FA
005097  17EA    	CP ZL,XL
005098  F441    	BRNE L1105
005099  E1AC    	LDI XL,$1C
00509A  E0B0    	LDI XH,$00
00509B  940E    	CALL L545
00509C  6C7C
00509D  91A0    	LDS XL,$05FB
00509E  05FB
00509F  17EA    	CP ZL,XL
0050A0  F009    	BREQ L1101
0050A1  C00A    L1105:	RJMP L1106
0050A2  91A0    L1101:	LDS XL,$05FC
0050A3  05FC
0050A4  91E0    	LDS ZL,$0826
0050A5  0826
0050A6  17EA    	CP ZL,XL
0050A7  F421    	BRNE L1106
0050A8  91E0    	LDS ZL,$082A
0050A9  082A
0050AA  93EA    	ST -Y,ZL
0050AB  D015    	RCALL L1065
0050AC  B7E9    L1106:	IN ZL,EIMSK
0050AD  64E0    	ORI ZL,$40
0050AE  BFE9    	OUT EIMSK,ZL
0050AF  C006    L1099:	RJMP L1066
0050B0  30E5    L1096:	CPI ZL,$05
0050B1  F021    	BREQ L1066
0050B2  30E6    	CPI ZL,$06
0050B3  F011    	BREQ L1066
0050B4  30E7    	CPI ZL,$07
0050B5  F401    	BRNE L1066
0050B6  FE21    L1066:	SBRS R2,1
0050B7  C004    	RJMP L1062
0050B8  EFEF    	LDI ZL,$FF
0050B9  15E5    	CP ZL,R5
0050BA  F409    	BRNE L1062
0050BB  CE6B    	RJMP L1107
0050BC  9ADD    L1062:	SBI PORTA,PA5
0050BD  940E    L1057:	CALL L605
0050BE  6E30
0050BF  9624    	ADIW YH:YL,4
0050C0  9508    	RET
0050C1  931A    L1065:	ST -Y,R17
0050C2  930A    	ST -Y,R16
0050C3  81EA    	LDD ZL,Y+2
0050C4  30E0    	CPI ZL,$00
0050C5  F409    	BRNE L1108
0050C6  C039    	RJMP L1035
0050C7  30E1    L1108:	CPI ZL,$01
0050C8  F429    	BRNE L1109
0050C9  91E0    	LDS ZL,$082B
0050CA  082B
0050CB  93EA    	ST -Y,ZL
0050CC  D037    	RCALL L1110
0050CD  C032    	RJMP L1035
0050CE  30E2    L1109:	CPI ZL,$02
0050CF  F431    	BRNE L1111
0050D0  91E0    	LDS ZL,$082B
0050D1  082B
0050D2  93EA    	ST -Y,ZL
0050D3  940E    	CALL L992
0050D4  42E5
0050D5  C02A    	RJMP L1035
0050D6  30E3    L1111:	CPI ZL,$03
0050D7  F491    	BRNE L1112
0050D8  9100    	LDS R16,$082B
0050D9  082B
0050DA  2711    	CLR R17
0050DB  91F0    	LDS ZH,$06BA
0050DC  06BA
0050DD  E0E0    	LDI ZL,$00
0050DE  01DF    	MOVW R27:R26,R31:R30
0050DF  91E0    	LDS ZL,$082C
0050E0  082C
0050E1  E0F0    	LDI ZH,$00
0050E2  2BEA    	OR ZL,XL
0050E3  2BFB    	OR ZH,XH
0050E4  018F    	MOVW R17:R16,R31:R30
0050E5  931A    	ST -Y,R17
0050E6  930A    	ST -Y,R16
0050E7  940E    	CALL L538
0050E8  6B57
0050E9  C016    	RJMP L1035
0050EA  30E4    L1112:	CPI ZL,$04
0050EB  F4A1    	BRNE L1035
0050EC  91E0    	LDS ZL,$082B
0050ED  082B
0050EE  E0F0    	LDI ZH,$00
0050EF  93E0    	STS $06BA,ZL
0050F0  06BA
0050F1  93F0    	STS $06BB,ZH
0050F2  06BB
0050F3  91F0    	LDS ZH,$06BA
0050F4  06BA
0050F5  E0E0    	LDI ZL,$00
0050F6  01DF    	MOVW R27:R26,R31:R30
0050F7  91E0    	LDS ZL,$082C
0050F8  082C
0050F9  E0F0    	LDI ZH,$00
0050FA  2BEA    	OR ZL,XL
0050FB  2BFB    	OR ZH,XH
0050FC  93E0    	STS $06BA,ZL
0050FD  06BA
0050FE  93F0    	STS $06BB,ZH
0050FF  06BB
005100  8119    L1035:	LDD R17,Y+1
005101  8108    	LD R16,Y
005102  9623    	ADIW YH:YL,3
005103  9508    	RET

#####################

? do_Action(x)

#####################


005104  81A8    L1110:	LD XL,Y
005105  30A7    	CPI XL,$07           IF x == 7   (Square pressed on Remote control)
005106  F011    	BREQ L1113
005107  940C    	JMP L1114
005108  5184
005109  98C6    L1113:	CBI PORTB,PB6
00510A  E1E4    	LDI ZL,$14
00510B  E0F0    	LDI ZH,$00
00510C  93FA    	ST -Y,ZH
00510D  93EA    	ST -Y,ZL
00510E  940E    	CALL L538                ' call F538(20)  delay
00510F  6B57
005110  9AC6    	SBI PORTB,PB6            'sound
005111  E1E4    	LDI ZL,$14
005112  E0F0    	LDI ZH,$00
005113  93FA    	ST -Y,ZH
005114  93EA    	ST -Y,ZL
005115  940E    	CALL L538                 call F538(20)
005116  6B57
005117  924A    	ST -Y,R4
005118  E3E2    	LDI ZL,$32
005119  E0F0    	LDI ZH,$00
00511A  93FA    	ST -Y,ZH
00511B  93EA    	ST -Y,ZL
00511C  EEE8    	LDI ZL,$E8
00511D  E0F3    	LDI ZH,$03
00511E  93FA    	ST -Y,ZH
00511F  93EA    	ST -Y,ZL
005120  E0E4    	LDI ZL,$04
005121  93EA    	ST -Y,ZL
005122  940E    	CALL L818                'call F818(50,3E8,4)
005123  4B36
005124  EFEF    	LDI ZL,$FF               if result = -1
005125  15E5    	CP ZL,R5
005126  F411    	BRNE L1115
005127  940C    	JMP L1116
005128  5176
005129  E1EE    L1115:	LDI ZL,$1E
00512A  E0F0    	LDI ZH,$00
00512B  93E0    	STS $0508,ZL
00512C  0508
00512D  93F0    	STS $0509,ZH
00512E  0509
00512F  B7E9    	IN ZL,EIMSK
005130  7BEF    	ANDI ZL,$BF
005131  BFE9    	OUT EIMSK,ZL
005132  91E0    L1125:	LDS ZL,$0508
005133  0508
005134  91F0    	LDS ZH,$0509
005135  0509
005136  9730    	SBIW ZH:ZL,0
005137  F1C1    	BREQ L1117
005138  91A0    	LDS XL,$0503
005139  0503
00513A  91B0    	LDS XH,$0504
00513B  0504
00513C  940E    	CALL L753
00513D  6E1E
00513E  F021    	BREQ L1118
00513F  3FA4    	CPI XL,$F4
005140  E0E1    	LDI ZL,$01
005141  07BE    	CPC XH,ZL
005142  F431    	BRNE L1119
005143  940E    L1118:	CALL L793
005144  6617
005145  940E    	CALL L794
005146  3CF9
005147  940E    	CALL L855
005148  5FB4
005149  91A0    L1119:	LDS XL,$0503
00514A  0503
00514B  91B0    	LDS XH,$0504
00514C  0504
00514D  3FAA    	CPI XL,$FA
00514E  E0E0    	LDI ZL,$00
00514F  07BE    	CPC XH,ZL
005150  F410    	BRCC L1120
005151  98DF    	CBI PORTA,PA7
005152  C01C    	RJMP L1121
005153  91A0    L1120:	LDS XL,$0503
005154  0503
005155  91B0    	LDS XH,$0504
005156  0504
005157  3FA4    	CPI XL,$F4
005158  E0E1    	LDI ZL,$01
005159  07BE    	CPC XH,ZL
00515A  F408    	BRCC L1122
00515B  C012    	RJMP L1123
00515C  91A0    L1122:	LDS XL,$0503
00515D  0503
00515E  91B0    	LDS XH,$0504
00515F  0504
005160  3EAE    	CPI XL,$EE
005161  E0E2    	LDI ZL,$02
005162  07BE    	CPC XH,ZL
005163  F410    	BRCC L1124
005164  98DF    	CBI PORTA,PA7
005165  C009    	RJMP L1121
005166  91A0    L1124:	LDS XL,$0503
005167  0503
005168  91B0    	LDS XH,$0504
005169  0504
00516A  3EA8    	CPI XL,$E8
00516B  E0E3    	LDI ZL,$03
00516C  07BE    	CPC XH,ZL
00516D  F408    	BRCC L1121
00516E  9ADF    L1123:	SBI PORTA,PA7
00516F  CFC2    L1121:	RJMP L1125
005170  EFEF    L1117:	LDI ZL,$FF
005171  2E5E    	MOV R5,ZL
005172  B7E9    	IN ZL,EIMSK
005173  64E0    	ORI ZL,$40
005174  BFE9    	OUT EIMSK,ZL
005175  C00D    	RJMP L1126
005176  924A    L1116:	ST -Y,R4
005177  E0E1    	LDI ZL,$01
005178  E0F0    	LDI ZH,$00
005179  93FA    	ST -Y,ZH
00517A  93EA    	ST -Y,ZL
00517B  E6E4    	LDI ZL,$64
00517C  E0F0    	LDI ZH,$00
00517D  93FA    	ST -Y,ZH
00517E  93EA    	ST -Y,ZL
00517F  E0E2    	LDI ZL,$02
005180  93EA    	ST -Y,ZL
005181  940E    	CALL L818
005182  4B36
005183  C44D    L1126:	RJMP L1127
005184  E0E1    L1114:	LDI ZL,$01
005185  15E4    	CP ZL,R4
005186  F011    	BREQ L1128
005187  940C    	JMP L1129
005188  55D5
005189  81E8    L1128:	LD ZL,Y
00518A  30E1    	CPI ZL,$01
00518B  F011    	BREQ L1130
00518C  940C    	JMP L1131
00518D  51F7
00518E  E0E7    L1130:	LDI ZL,$07
00518F  93EA    	ST -Y,ZL
005190  940E    	CALL L992
005191  42E5
005192  ECE0    	LDI ZL,$C0
005193  E0FC    	LDI ZH,$0C
005194  E060    	LDI R22,$00
005195  93E0    	STS $069A,ZL
005196  069A
005197  93F0    	STS $069B,ZH
005198  069B
005199  9360    	STS $069C,R22
00519A  069C
00519B  9370    	STS $069D,R23
00519C  069D
00519D  E5E0    	LDI ZL,$50
00519E  E0FD    	LDI ZH,$0D
00519F  E060    	LDI R22,$00
0051A0  93E0    	STS $069E,ZL
0051A1  069E
0051A2  93F0    	STS $069F,ZH
0051A3  069F
0051A4  9360    	STS $06A0,R22
0051A5  06A0
0051A6  9370    	STS $06A1,R23
0051A7  06A1
0051A8  ECEC    	LDI ZL,$CC
0051A9  E0FB    	LDI ZH,$0B
0051AA  E060    	LDI R22,$00
0051AB  93E0    	STS $06A2,ZL
0051AC  06A2
0051AD  93F0    	STS $06A3,ZH
0051AE  06A3
0051AF  9360    	STS $06A4,R22
0051B0  06A4
0051B1  9370    	STS $06A5,R23
0051B2  06A5
0051B3  EDEC    	LDI ZL,$DC
0051B4  E0FB    	LDI ZH,$0B
0051B5  E060    	LDI R22,$00
0051B6  93E0    	STS $06A6,ZL
0051B7  06A6
0051B8  93F0    	STS $06A7,ZH
0051B9  06A7
0051BA  9360    	STS $06A8,R22
0051BB  06A8
0051BC  9370    	STS $06A9,R23
0051BD  06A9
0051BE  EEEC    	LDI ZL,$EC
0051BF  E0FB    	LDI ZH,$0B
0051C0  E060    	LDI R22,$00
0051C1  93E0    	STS $06AA,ZL
0051C2  06AA
0051C3  93F0    	STS $06AB,ZH
0051C4  06AB
0051C5  9360    	STS $06AC,R22
0051C6  06AC
0051C7  9370    	STS $06AD,R23
0051C8  06AD
0051C9  EFEC    	LDI ZL,$FC
0051CA  E0FB    	LDI ZH,$0B
0051CB  E060    	LDI R22,$00
0051CC  93E0    	STS $06AE,ZL
0051CD  06AE
0051CE  93F0    	STS $06AF,ZH
0051CF  06AF
0051D0  9360    	STS $06B0,R22
0051D1  06B0
0051D2  9370    	STS $06B1,R23
0051D3  06B1
0051D4  E0EE    	LDI ZL,$0E
0051D5  E0FC    	LDI ZH,$0C
0051D6  E060    	LDI R22,$00
0051D7  93E0    	STS $06B2,ZL
0051D8  06B2
0051D9  93F0    	STS $06B3,ZH
0051DA  06B3
0051DB  9360    	STS $06B4,R22
0051DC  06B4
0051DD  9370    	STS $06B5,R23
0051DE  06B5
0051DF  E2E0    	LDI ZL,$20
0051E0  E0FC    	LDI ZH,$0C
0051E1  E060    	LDI R22,$00
0051E2  93E0    	STS $06B6,ZL
0051E3  06B6
0051E4  93F0    	STS $06B7,ZH
0051E5  06B7
0051E6  9360    	STS $06B8,R22
0051E7  06B8
0051E8  9370    	STS $06B9,R23
0051E9  06B9
0051EA  E0E9    	LDI ZL,$09
0051EB  E0F0    	LDI ZH,$00
0051EC  93E0    	STS $06C2,ZL
0051ED  06C2
0051EE  93F0    	STS $06C3,ZH
0051EF  06C3
0051F0  E1E0    	LDI ZL,$10
0051F1  E0F0    	LDI ZH,$00
0051F2  93E0    	STS $06C4,ZL
0051F3  06C4
0051F4  93F0    	STS $06C5,ZH
0051F5  06C5
0051F6  C3DC    	RJMP L1132
0051F7  30E2    L1131:	CPI ZL,$02
0051F8  F011    	BREQ L1133
0051F9  940C    	JMP L1134
0051FA  5264
0051FB  E0E8    L1133:	LDI ZL,$08
0051FC  93EA    	ST -Y,ZL
0051FD  940E    	CALL L992
0051FE  42E5
0051FF  E8EC    	LDI ZL,$8C
005200  E0FA    	LDI ZH,$0A
005201  E060    	LDI R22,$00
005202  93E0    	STS $069A,ZL
005203  069A
005204  93F0    	STS $069B,ZH
005205  069B
005206  9360    	STS $069C,R22
005207  069C
005208  9370    	STS $069D,R23
005209  069D
00520A  E2EC    	LDI ZL,$2C
00520B  E0FB    	LDI ZH,$0B
00520C  E060    	LDI R22,$00
00520D  93E0    	STS $069E,ZL
00520E  069E
00520F  93F0    	STS $069F,ZH
005210  069F
005211  9360    	STS $06A0,R22
005212  06A0
005213  9370    	STS $06A1,R23
005214  06A1
005215  E8E4    	LDI ZL,$84
005216  E0F9    	LDI ZH,$09
005217  E060    	LDI R22,$00
005218  93E0    	STS $06A2,ZL
005219  06A2
00521A  93F0    	STS $06A3,ZH
00521B  06A3
00521C  9360    	STS $06A4,R22
00521D  06A4
00521E  9370    	STS $06A5,R23
00521F  06A5
005220  E9E4    	LDI ZL,$94
005221  E0F9    	LDI ZH,$09
005222  E060    	LDI R22,$00
005223  93E0    	STS $06A6,ZL
005224  06A6
005225  93F0    	STS $06A7,ZH
005226  06A7
005227  9360    	STS $06A8,R22
005228  06A8
005229  9370    	STS $06A9,R23
00522A  06A9
00522B  EAE4    	LDI ZL,$A4
00522C  E0F9    	LDI ZH,$09
00522D  E060    	LDI R22,$00
00522E  93E0    	STS $06AA,ZL
00522F  06AA
005230  93F0    	STS $06AB,ZH
005231  06AB
005232  9360    	STS $06AC,R22
005233  06AC
005234  9370    	STS $06AD,R23
005235  06AD
005236  EBE4    	LDI ZL,$B4
005237  E0F9    	LDI ZH,$09
005238  E060    	LDI R22,$00
005239  93E0    	STS $06AE,ZL
00523A  06AE
00523B  93F0    	STS $06AF,ZH
00523C  06AF
00523D  9360    	STS $06B0,R22
00523E  06B0
00523F  9370    	STS $06B1,R23
005240  06B1
005241  ECE8    	LDI ZL,$C8
005242  E0F9    	LDI ZH,$09
005243  E060    	LDI R22,$00
005244  93E0    	STS $06B2,ZL
005245  06B2
005246  93F0    	STS $06B3,ZH
005247  06B3
005248  9360    	STS $06B4,R22
005249  06B4
00524A  9370    	STS $06B5,R23
00524B  06B5
00524C  EDEC    	LDI ZL,$DC
00524D  E0F9    	LDI ZH,$09
00524E  E060    	LDI R22,$00
00524F  93E0    	STS $06B6,ZL
005250  06B6
005251  93F0    	STS $06B7,ZH
005252  06B7
005253  9360    	STS $06B8,R22
005254  06B8
005255  9370    	STS $06B9,R23
005256  06B9
005257  E0EA    	LDI ZL,$0A
005258  E0F0    	LDI ZH,$00
005259  93E0    	STS $06C2,ZL
00525A  06C2
00525B  93F0    	STS $06C3,ZH
00525C  06C3
00525D  E1E0    	LDI ZL,$10
00525E  E0F0    	LDI ZH,$00
00525F  93E0    	STS $06C4,ZL
005260  06C4
005261  93F0    	STS $06C5,ZH
005262  06C5
005263  C36F    	RJMP L1132
005264  30E3    L1134:	CPI ZL,$03
005265  F011    	BREQ L1135
005266  940C    	JMP L1136
005267  52D1
005268  E0E4    L1135:	LDI ZL,$04
005269  93EA    	ST -Y,ZL
00526A  940E    	CALL L992
00526B  42E5
00526C  E4EC    	LDI ZL,$4C
00526D  E0F7    	LDI ZH,$07
00526E  E060    	LDI R22,$00
00526F  93E0    	STS $069A,ZL
005270  069A
005271  93F0    	STS $069B,ZH
005272  069B
005273  9360    	STS $069C,R22
005274  069C
005275  9370    	STS $069D,R23
005276  069D
005277  EAEC    	LDI ZL,$AC
005278  E0F7    	LDI ZH,$07
005279  E060    	LDI R22,$00
00527A  93E0    	STS $069E,ZL
00527B  069E
00527C  93F0    	STS $069F,ZH
00527D  069F
00527E  9360    	STS $06A0,R22
00527F  06A0
005280  9370    	STS $06A1,R23
005281  06A1
005282  E9E4    	LDI ZL,$94
005283  E0F6    	LDI ZH,$06
005284  E060    	LDI R22,$00
005285  93E0    	STS $06A2,ZL
005286  06A2
005287  93F0    	STS $06A3,ZH
005288  06A3
005289  9360    	STS $06A4,R22
00528A  06A4
00528B  9370    	STS $06A5,R23
00528C  06A5
00528D  EAE4    	LDI ZL,$A4
00528E  E0F6    	LDI ZH,$06
00528F  E060    	LDI R22,$00
005290  93E0    	STS $06A6,ZL
005291  06A6
005292  93F0    	STS $06A7,ZH
005293  06A7
005294  9360    	STS $06A8,R22
005295  06A8
005296  9370    	STS $06A9,R23
005297  06A9
005298  EBE4    	LDI ZL,$B4
005299  E0F6    	LDI ZH,$06
00529A  E060    	LDI R22,$00
00529B  93E0    	STS $06AA,ZL
00529C  06AA
00529D  93F0    	STS $06AB,ZH
00529E  06AB
00529F  9360    	STS $06AC,R22
0052A0  06AC
0052A1  9370    	STS $06AD,R23
0052A2  06AD
0052A3  ECE4    	LDI ZL,$C4
0052A4  E0F6    	LDI ZH,$06
0052A5  E060    	LDI R22,$00
0052A6  93E0    	STS $06AE,ZL
0052A7  06AE
0052A8  93F0    	STS $06AF,ZH
0052A9  06AF
0052AA  9360    	STS $06B0,R22
0052AB  06B0
0052AC  9370    	STS $06B1,R23
0052AD  06B1
0052AE  EDE0    	LDI ZL,$D0
0052AF  E0F6    	LDI ZH,$06
0052B0  E060    	LDI R22,$00
0052B1  93E0    	STS $06B2,ZL
0052B2  06B2
0052B3  93F0    	STS $06B3,ZH
0052B4  06B3
0052B5  9360    	STS $06B4,R22
0052B6  06B4
0052B7  9370    	STS $06B5,R23
0052B8  06B5
0052B9  EDEC    	LDI ZL,$DC
0052BA  E0F6    	LDI ZH,$06
0052BB  E060    	LDI R22,$00
0052BC  93E0    	STS $06B6,ZL
0052BD  06B6
0052BE  93F0    	STS $06B7,ZH
0052BF  06B7
0052C0  9360    	STS $06B8,R22
0052C1  06B8
0052C2  9370    	STS $06B9,R23
0052C3  06B9
0052C4  E0E6    	LDI ZL,$06
0052C5  E0F0    	LDI ZH,$00
0052C6  93E0    	STS $06C2,ZL
0052C7  06C2
0052C8  93F0    	STS $06C3,ZH
0052C9  06C3
0052CA  E1E0    	LDI ZL,$10
0052CB  E0F0    	LDI ZH,$00
0052CC  93E0    	STS $06C4,ZL
0052CD  06C4
0052CE  93F0    	STS $06C5,ZH
0052CF  06C5
0052D0  C302    	RJMP L1132
0052D1  30E4    L1136:	CPI ZL,$04
0052D2  F011    	BREQ L1137
0052D3  940C    	JMP L1138
0052D4  533E
0052D5  E0E2    L1137:	LDI ZL,$02
0052D6  93EA    	ST -Y,ZL
0052D7  940E    	CALL L992
0052D8  42E5
0052D9  E4E0    	LDI ZL,$40
0052DA  E1F1    	LDI ZH,$11
0052DB  E060    	LDI R22,$00
0052DC  93E0    	STS $069A,ZL
0052DD  069A
0052DE  93F0    	STS $069B,ZH
0052DF  069B
0052E0  9360    	STS $069C,R22
0052E1  069C
0052E2  9370    	STS $069D,R23
0052E3  069D
0052E4  ECE0    	LDI ZL,$C0
0052E5  E1F3    	LDI ZH,$13
0052E6  E060    	LDI R22,$00
0052E7  93E0    	STS $069E,ZL
0052E8  069E
0052E9  93F0    	STS $069F,ZH
0052EA  069F
0052EB  9360    	STS $06A0,R22
0052EC  06A0
0052ED  9370    	STS $06A1,R23
0052EE  06A1
0052EF  EEE0    	LDI ZL,$E0
0052F0  E0FD    	LDI ZH,$0D
0052F1  E060    	LDI R22,$00
0052F2  93E0    	STS $06A2,ZL
0052F3  06A2
0052F4  93F0    	STS $06A3,ZH
0052F5  06A3
0052F6  9360    	STS $06A4,R22
0052F7  06A4
0052F8  9370    	STS $06A5,R23
0052F9  06A5
0052FA  EFE0    	LDI ZL,$F0
0052FB  E0FD    	LDI ZH,$0D
0052FC  E060    	LDI R22,$00
0052FD  93E0    	STS $06A6,ZL
0052FE  06A6
0052FF  93F0    	STS $06A7,ZH
005300  06A7
005301  9360    	STS $06A8,R22
005302  06A8
005303  9370    	STS $06A9,R23
005304  06A9
005305  E0E0    	LDI ZL,$00
005306  E0FE    	LDI ZH,$0E
005307  E060    	LDI R22,$00
005308  93E0    	STS $06AA,ZL
005309  06AA
00530A  93F0    	STS $06AB,ZH
00530B  06AB
00530C  9360    	STS $06AC,R22
00530D  06AC
00530E  9370    	STS $06AD,R23
00530F  06AD
005310  E1E0    	LDI ZL,$10
005311  E0FE    	LDI ZH,$0E
005312  E060    	LDI R22,$00
005313  93E0    	STS $06AE,ZL
005314  06AE
005315  93F0    	STS $06AF,ZH
005316  06AF
005317  9360    	STS $06B0,R22
005318  06B0
005319  9370    	STS $06B1,R23
00531A  06B1
00531B  E6E0    	LDI ZL,$60
00531C  E0FE    	LDI ZH,$0E
00531D  E060    	LDI R22,$00
00531E  93E0    	STS $06B2,ZL
00531F  06B2
005320  93F0    	STS $06B3,ZH
005321  06B3
005322  9360    	STS $06B4,R22
005323  06B4
005324  9370    	STS $06B5,R23
005325  06B5
005326  EBE0    	LDI ZL,$B0
005327  E0FE    	LDI ZH,$0E
005328  E060    	LDI R22,$00
005329  93E0    	STS $06B6,ZL
00532A  06B6
00532B  93F0    	STS $06B7,ZH
00532C  06B7
00532D  9360    	STS $06B8,R22
00532E  06B8
00532F  9370    	STS $06B9,R23
005330  06B9
005331  E2E8    	LDI ZL,$28
005332  E0F0    	LDI ZH,$00
005333  93E0    	STS $06C2,ZL
005334  06C2
005335  93F0    	STS $06C3,ZH
005336  06C3
005337  E1E0    	LDI ZL,$10
005338  E0F0    	LDI ZH,$00
005339  93E0    	STS $06C4,ZL
00533A  06C4
00533B  93F0    	STS $06C5,ZH
00533C  06C5
00533D  C295    	RJMP L1132
00533E  30E5    L1138:	CPI ZL,$05
00533F  F011    	BREQ L1139
005340  940C    	JMP L1140
005341  53AB
005342  E0E4    L1139:	LDI ZL,$04
005343  93EA    	ST -Y,ZL
005344  940E    	CALL L992
005345  42E5
005346  ECE4    	LDI ZL,$C4
005347  E0F8    	LDI ZH,$08
005348  E060    	LDI R22,$00
005349  93E0    	STS $069A,ZL
00534A  069A
00534B  93F0    	STS $069B,ZH
00534C  069B
00534D  9360    	STS $069C,R22
00534E  069C
00534F  9370    	STS $069D,R23
005350  069D
005351  E2E4    	LDI ZL,$24
005352  E0F9    	LDI ZH,$09
005353  E060    	LDI R22,$00
005354  93E0    	STS $069E,ZL
005355  069E
005356  93F0    	STS $069F,ZH
005357  069F
005358  9360    	STS $06A0,R22
005359  06A0
00535A  9370    	STS $06A1,R23
00535B  06A1
00535C  E0EC    	LDI ZL,$0C
00535D  E0F8    	LDI ZH,$08
00535E  E060    	LDI R22,$00
00535F  93E0    	STS $06A2,ZL
005360  06A2
005361  93F0    	STS $06A3,ZH
005362  06A3
005363  9360    	STS $06A4,R22
005364  06A4
005365  9370    	STS $06A5,R23
005366  06A5
005367  E1EC    	LDI ZL,$1C
005368  E0F8    	LDI ZH,$08
005369  E060    	LDI R22,$00
00536A  93E0    	STS $06A6,ZL
00536B  06A6
00536C  93F0    	STS $06A7,ZH
00536D  06A7
00536E  9360    	STS $06A8,R22
00536F  06A8
005370  9370    	STS $06A9,R23
005371  06A9
005372  E2EC    	LDI ZL,$2C
005373  E0F8    	LDI ZH,$08
005374  E060    	LDI R22,$00
005375  93E0    	STS $06AA,ZL
005376  06AA
005377  93F0    	STS $06AB,ZH
005378  06AB
005379  9360    	STS $06AC,R22
00537A  06AC
00537B  9370    	STS $06AD,R23
00537C  06AD
00537D  E3EC    	LDI ZL,$3C
00537E  E0F8    	LDI ZH,$08
00537F  E060    	LDI R22,$00
005380  93E0    	STS $06AE,ZL
005381  06AE
005382  93F0    	STS $06AF,ZH
005383  06AF
005384  9360    	STS $06B0,R22
005385  06B0
005386  9370    	STS $06B1,R23
005387  06B1
005388  E4E8    	LDI ZL,$48
005389  E0F8    	LDI ZH,$08
00538A  E060    	LDI R22,$00
00538B  93E0    	STS $06B2,ZL
00538C  06B2
00538D  93F0    	STS $06B3,ZH
00538E  06B3
00538F  9360    	STS $06B4,R22
005390  06B4
005391  9370    	STS $06B5,R23
005392  06B5
005393  E5E4    	LDI ZL,$54
005394  E0F8    	LDI ZH,$08
005395  E060    	LDI R22,$00
005396  93E0    	STS $06B6,ZL
005397  06B6
005398  93F0    	STS $06B7,ZH
005399  06B7
00539A  9360    	STS $06B8,R22
00539B  06B8
00539C  9370    	STS $06B9,R23
00539D  06B9
00539E  E0E6    	LDI ZL,$06
00539F  E0F0    	LDI ZH,$00
0053A0  93E0    	STS $06C2,ZL
0053A1  06C2
0053A2  93F0    	STS $06C3,ZH
0053A3  06C3
0053A4  E1E0    	LDI ZL,$10
0053A5  E0F0    	LDI ZH,$00
0053A6  93E0    	STS $06C4,ZL
0053A7  06C4
0053A8  93F0    	STS $06C5,ZH
0053A9  06C5
0053AA  C228    	RJMP L1132
0053AB  30E6    L1140:	CPI ZL,$06
0053AC  F011    	BREQ L1141
0053AD  940C    	JMP L1142
0053AE  5418
0053AF  E0E5    L1141:	LDI ZL,$05
0053B0  93EA    	ST -Y,ZL
0053B1  940E    	CALL L992
0053B2  42E5
0053B3  E5EC    	LDI ZL,$5C
0053B4  E0F4    	LDI ZH,$04
0053B5  E060    	LDI R22,$00
0053B6  93E0    	STS $069A,ZL
0053B7  069A
0053B8  93F0    	STS $069B,ZH
0053B9  069B
0053BA  9360    	STS $069C,R22
0053BB  069C
0053BC  9370    	STS $069D,R23
0053BD  069D
0053BE  EBEC    	LDI ZL,$BC
0053BF  E0F4    	LDI ZH,$04
0053C0  E060    	LDI R22,$00
0053C1  93E0    	STS $069E,ZL
0053C2  069E
0053C3  93F0    	STS $069F,ZH
0053C4  069F
0053C5  9360    	STS $06A0,R22
0053C6  06A0
0053C7  9370    	STS $06A1,R23
0053C8  06A1
0053C9  EAE4    	LDI ZL,$A4
0053CA  E0F3    	LDI ZH,$03
0053CB  E060    	LDI R22,$00
0053CC  93E0    	STS $06A2,ZL
0053CD  06A2
0053CE  93F0    	STS $06A3,ZH
0053CF  06A3
0053D0  9360    	STS $06A4,R22
0053D1  06A4
0053D2  9370    	STS $06A5,R23
0053D3  06A5
0053D4  EBE4    	LDI ZL,$B4
0053D5  E0F3    	LDI ZH,$03
0053D6  E060    	LDI R22,$00
0053D7  93E0    	STS $06A6,ZL
0053D8  06A6
0053D9  93F0    	STS $06A7,ZH
0053DA  06A7
0053DB  9360    	STS $06A8,R22
0053DC  06A8
0053DD  9370    	STS $06A9,R23
0053DE  06A9
0053DF  ECE4    	LDI ZL,$C4
0053E0  E0F3    	LDI ZH,$03
0053E1  E060    	LDI R22,$00
0053E2  93E0    	STS $06AA,ZL
0053E3  06AA
0053E4  93F0    	STS $06AB,ZH
0053E5  06AB
0053E6  9360    	STS $06AC,R22
0053E7  06AC
0053E8  9370    	STS $06AD,R23
0053E9  06AD
0053EA  EDE4    	LDI ZL,$D4
0053EB  E0F3    	LDI ZH,$03
0053EC  E060    	LDI R22,$00
0053ED  93E0    	STS $06AE,ZL
0053EE  06AE
0053EF  93F0    	STS $06AF,ZH
0053F0  06AF
0053F1  9360    	STS $06B0,R22
0053F2  06B0
0053F3  9370    	STS $06B1,R23
0053F4  06B1
0053F5  EEE0    	LDI ZL,$E0
0053F6  E0F3    	LDI ZH,$03
0053F7  E060    	LDI R22,$00
0053F8  93E0    	STS $06B2,ZL
0053F9  06B2
0053FA  93F0    	STS $06B3,ZH
0053FB  06B3
0053FC  9360    	STS $06B4,R22
0053FD  06B4
0053FE  9370    	STS $06B5,R23
0053FF  06B5
005400  EEEC    	LDI ZL,$EC
005401  E0F3    	LDI ZH,$03
005402  E060    	LDI R22,$00
005403  93E0    	STS $06B6,ZL
005404  06B6
005405  93F0    	STS $06B7,ZH
005406  06B7
005407  9360    	STS $06B8,R22
005408  06B8
005409  9370    	STS $06B9,R23
00540A  06B9
00540B  E0E6    	LDI ZL,$06
00540C  E0F0    	LDI ZH,$00
00540D  93E0    	STS $06C2,ZL
00540E  06C2
00540F  93F0    	STS $06C3,ZH
005410  06C3
005411  E1E0    	LDI ZL,$10
005412  E0F0    	LDI ZH,$00
005413  93E0    	STS $06C4,ZL
005414  06C4
005415  93F0    	STS $06C5,ZH
005416  06C5
005417  C1BB    	RJMP L1132
005418  30E8    L1142:	CPI ZL,$08
005419  F011    	BREQ L1143
00541A  940C    	JMP L1144
00541B  5485
00541C  E0E5    L1143:	LDI ZL,$05
00541D  93EA    	ST -Y,ZL
00541E  940E    	CALL L992
00541F  42E5
005420  EDE4    	LDI ZL,$D4
005421  E0F5    	LDI ZH,$05
005422  E060    	LDI R22,$00
005423  93E0    	STS $069A,ZL
005424  069A
005425  93F0    	STS $069B,ZH
005426  069B
005427  9360    	STS $069C,R22
005428  069C
005429  9370    	STS $069D,R23
00542A  069D
00542B  E3E4    	LDI ZL,$34
00542C  E0F6    	LDI ZH,$06
00542D  E060    	LDI R22,$00
00542E  93E0    	STS $069E,ZL
00542F  069E
005430  93F0    	STS $069F,ZH
005431  069F
005432  9360    	STS $06A0,R22
005433  06A0
005434  9370    	STS $06A1,R23
005435  06A1
005436  E1EC    	LDI ZL,$1C
005437  E0F5    	LDI ZH,$05
005438  E060    	LDI R22,$00
005439  93E0    	STS $06A2,ZL
00543A  06A2
00543B  93F0    	STS $06A3,ZH
00543C  06A3
00543D  9360    	STS $06A4,R22
00543E  06A4
00543F  9370    	STS $06A5,R23
005440  06A5
005441  E2EC    	LDI ZL,$2C
005442  E0F5    	LDI ZH,$05
005443  E060    	LDI R22,$00
005444  93E0    	STS $06A6,ZL
005445  06A6
005446  93F0    	STS $06A7,ZH
005447  06A7
005448  9360    	STS $06A8,R22
005449  06A8
00544A  9370    	STS $06A9,R23
00544B  06A9
00544C  E3EC    	LDI ZL,$3C
00544D  E0F5    	LDI ZH,$05
00544E  E060    	LDI R22,$00
00544F  93E0    	STS $06AA,ZL
005450  06AA
005451  93F0    	STS $06AB,ZH
005452  06AB
005453  9360    	STS $06AC,R22
005454  06AC
005455  9370    	STS $06AD,R23
005456  06AD
005457  E4EC    	LDI ZL,$4C
005458  E0F5    	LDI ZH,$05
005459  E060    	LDI R22,$00
00545A  93E0    	STS $06AE,ZL
00545B  06AE
00545C  93F0    	STS $06AF,ZH
00545D  06AF
00545E  9360    	STS $06B0,R22
00545F  06B0
005460  9370    	STS $06B1,R23
005461  06B1
005462  E5E8    	LDI ZL,$58
005463  E0F5    	LDI ZH,$05
005464  E060    	LDI R22,$00
005465  93E0    	STS $06B2,ZL
005466  06B2
005467  93F0    	STS $06B3,ZH
005468  06B3
005469  9360    	STS $06B4,R22
00546A  06B4
00546B  9370    	STS $06B5,R23
00546C  06B5
00546D  E6E4    	LDI ZL,$64
00546E  E0F5    	LDI ZH,$05
00546F  E060    	LDI R22,$00
005470  93E0    	STS $06B6,ZL
005471  06B6
005472  93F0    	STS $06B7,ZH
005473  06B7
005474  9360    	STS $06B8,R22
005475  06B8
005476  9370    	STS $06B9,R23
005477  06B9
005478  E0E6    	LDI ZL,$06
005479  E0F0    	LDI ZH,$00
00547A  93E0    	STS $06C2,ZL
00547B  06C2
00547C  93F0    	STS $06C3,ZH
00547D  06C3
00547E  E1E0    	LDI ZL,$10
00547F  E0F0    	LDI ZH,$00
005480  93E0    	STS $06C4,ZL
005481  06C4
005482  93F0    	STS $06C5,ZH
005483  06C5
005484  C14E    	RJMP L1132
005485  30E9    L1144:	CPI ZL,$09
005486  F011    	BREQ L1145
005487  940C    	JMP L1146
005488  54F2
005489  E0E6    L1145:	LDI ZL,$06
00548A  93EA    	ST -Y,ZL
00548B  940E    	CALL L992
00548C  42E5
00548D  ECE0    	LDI ZL,$C0
00548E  E0F1    	LDI ZH,$01
00548F  E060    	LDI R22,$00
005490  93E0    	STS $069A,ZL
005491  069A
005492  93F0    	STS $069B,ZH
005493  069B
005494  9360    	STS $069C,R22
005495  069C
005496  9370    	STS $069D,R23
005497  069D
005498  E1E0    	LDI ZL,$10
005499  E0F2    	LDI ZH,$02
00549A  E060    	LDI R22,$00
00549B  93E0    	STS $069E,ZL
00549C  069E
00549D  93F0    	STS $069F,ZH
00549E  069F
00549F  9360    	STS $06A0,R22
0054A0  06A0
0054A1  9370    	STS $06A1,R23
0054A2  06A1
0054A3  E1EC    	LDI ZL,$1C
0054A4  E0F1    	LDI ZH,$01
0054A5  E060    	LDI R22,$00
0054A6  93E0    	STS $06A2,ZL
0054A7  06A2
0054A8  93F0    	STS $06A3,ZH
0054A9  06A3
0054AA  9360    	STS $06A4,R22
0054AB  06A4
0054AC  9370    	STS $06A5,R23
0054AD  06A5
0054AE  E2EC    	LDI ZL,$2C
0054AF  E0F1    	LDI ZH,$01
0054B0  E060    	LDI R22,$00
0054B1  93E0    	STS $06A6,ZL
0054B2  06A6
0054B3  93F0    	STS $06A7,ZH
0054B4  06A7
0054B5  9360    	STS $06A8,R22
0054B6  06A8
0054B7  9370    	STS $06A9,R23
0054B8  06A9
0054B9  E3EC    	LDI ZL,$3C
0054BA  E0F1    	LDI ZH,$01
0054BB  E060    	LDI R22,$00
0054BC  93E0    	STS $06AA,ZL
0054BD  06AA
0054BE  93F0    	STS $06AB,ZH
0054BF  06AB
0054C0  9360    	STS $06AC,R22
0054C1  06AC
0054C2  9370    	STS $06AD,R23
0054C3  06AD
0054C4  E4EC    	LDI ZL,$4C
0054C5  E0F1    	LDI ZH,$01
0054C6  E060    	LDI R22,$00
0054C7  93E0    	STS $06AE,ZL
0054C8  06AE
0054C9  93F0    	STS $06AF,ZH
0054CA  06AF
0054CB  9360    	STS $06B0,R22
0054CC  06B0
0054CD  9370    	STS $06B1,R23
0054CE  06B1
0054CF  E5E6    	LDI ZL,$56
0054D0  E0F1    	LDI ZH,$01
0054D1  E060    	LDI R22,$00
0054D2  93E0    	STS $06B2,ZL
0054D3  06B2
0054D4  93F0    	STS $06B3,ZH
0054D5  06B3
0054D6  9360    	STS $06B4,R22
0054D7  06B4
0054D8  9370    	STS $06B5,R23
0054D9  06B5
0054DA  E6E0    	LDI ZL,$60
0054DB  E0F1    	LDI ZH,$01
0054DC  E060    	LDI R22,$00
0054DD  93E0    	STS $06B6,ZL
0054DE  06B6
0054DF  93F0    	STS $06B7,ZH
0054E0  06B7
0054E1  9360    	STS $06B8,R22
0054E2  06B8
0054E3  9370    	STS $06B9,R23
0054E4  06B9
0054E5  E0E5    	LDI ZL,$05
0054E6  E0F0    	LDI ZH,$00
0054E7  93E0    	STS $06C2,ZL
0054E8  06C2
0054E9  93F0    	STS $06C3,ZH
0054EA  06C3
0054EB  E1E0    	LDI ZL,$10
0054EC  E0F0    	LDI ZH,$00
0054ED  93E0    	STS $06C4,ZL
0054EE  06C4
0054EF  93F0    	STS $06C5,ZH
0054F0  06C5
0054F1  C0E1    	RJMP L1132
0054F2  30EA    L1146:	CPI ZL,$0A
0054F3  F011    	BREQ L1147
0054F4  940C    	JMP L1148
0054F5  555F
0054F6  E0E3    L1147:	LDI ZL,$03
0054F7  93EA    	ST -Y,ZL
0054F8  940E    	CALL L992
0054F9  42E5
0054FA  ECE8    	LDI ZL,$C8
0054FB  E1F9    	LDI ZH,$19
0054FC  E060    	LDI R22,$00
0054FD  93E0    	STS $069A,ZL
0054FE  069A
0054FF  93F0    	STS $069B,ZH
005500  069B
005501  9360    	STS $069C,R22
005502  069C
005503  9370    	STS $069D,R23
005504  069D
005505  E6E8    	LDI ZL,$68
005506  E1FC    	LDI ZH,$1C
005507  E060    	LDI R22,$00
005508  93E0    	STS $069E,ZL
005509  069E
00550A  93F0    	STS $069F,ZH
00550B  069F
00550C  9360    	STS $06A0,R22
00550D  06A0
00550E  9370    	STS $06A1,R23
00550F  06A1
005510  E4E0    	LDI ZL,$40
005511  E1F6    	LDI ZH,$16
005512  E060    	LDI R22,$00
005513  93E0    	STS $06A2,ZL
005514  06A2
005515  93F0    	STS $06A3,ZH
005516  06A3
005517  9360    	STS $06A4,R22
005518  06A4
005519  9370    	STS $06A5,R23
00551A  06A5
00551B  E5E0    	LDI ZL,$50
00551C  E1F6    	LDI ZH,$16
00551D  E060    	LDI R22,$00
00551E  93E0    	STS $06A6,ZL
00551F  06A6
005520  93F0    	STS $06A7,ZH
005521  06A7
005522  9360    	STS $06A8,R22
005523  06A8
005524  9370    	STS $06A9,R23
005525  06A9
005526  E6E0    	LDI ZL,$60
005527  E1F6    	LDI ZH,$16
005528  E060    	LDI R22,$00
005529  93E0    	STS $06AA,ZL
00552A  06AA
00552B  93F0    	STS $06AB,ZH
00552C  06AB
00552D  9360    	STS $06AC,R22
00552E  06AC
00552F  9370    	STS $06AD,R23
005530  06AD
005531  E7E0    	LDI ZL,$70
005532  E1F6    	LDI ZH,$16
005533  E060    	LDI R22,$00
005534  93E0    	STS $06AE,ZL
005535  06AE
005536  93F0    	STS $06AF,ZH
005537  06AF
005538  9360    	STS $06B0,R22
005539  06B0
00553A  9370    	STS $06B1,R23
00553B  06B1
00553C  ECE4    	LDI ZL,$C4
00553D  E1F6    	LDI ZH,$16
00553E  E060    	LDI R22,$00
00553F  93E0    	STS $06B2,ZL
005540  06B2
005541  93F0    	STS $06B3,ZH
005542  06B3
005543  9360    	STS $06B4,R22
005544  06B4
005545  9370    	STS $06B5,R23
005546  06B5
005547  E1E8    	LDI ZL,$18
005548  E1F7    	LDI ZH,$17
005549  E060    	LDI R22,$00
00554A  93E0    	STS $06B6,ZL
00554B  06B6
00554C  93F0    	STS $06B7,ZH
00554D  06B7
00554E  9360    	STS $06B8,R22
00554F  06B8
005550  9370    	STS $06B9,R23
005551  06B9
005552  E2EA    	LDI ZL,$2A
005553  E0F0    	LDI ZH,$00
005554  93E0    	STS $06C2,ZL
005555  06C2
005556  93F0    	STS $06C3,ZH
005557  06C3
005558  E1E0    	LDI ZL,$10
005559  E0F0    	LDI ZH,$00
00555A  93E0    	STS $06C4,ZL
00555B  06C4
00555C  93F0    	STS $06C5,ZH
00555D  06C5
00555E  C074    	RJMP L1132
00555F  30EB    L1148:	CPI ZL,$0B
005560  F011    	BREQ L1149
005561  940C    	JMP L1150
005562  55CC
005563  E0E6    L1149:	LDI ZL,$06
005564  93EA    	ST -Y,ZL
005565  940E    	CALL L992
005566  42E5
005567  E0E4    	LDI ZL,$04
005568  E0F3    	LDI ZH,$03
005569  E060    	LDI R22,$00
00556A  93E0    	STS $069A,ZL
00556B  069A
00556C  93F0    	STS $069B,ZH
00556D  069B
00556E  9360    	STS $069C,R22
00556F  069C
005570  9370    	STS $069D,R23
005571  069D
005572  E5E4    	LDI ZL,$54
005573  E0F3    	LDI ZH,$03
005574  E060    	LDI R22,$00
005575  93E0    	STS $069E,ZL
005576  069E
005577  93F0    	STS $069F,ZH
005578  069F
005579  9360    	STS $06A0,R22
00557A  06A0
00557B  9370    	STS $06A1,R23
00557C  06A1
00557D  E6E0    	LDI ZL,$60
00557E  E0F2    	LDI ZH,$02
00557F  E060    	LDI R22,$00
005580  93E0    	STS $06A2,ZL
005581  06A2
005582  93F0    	STS $06A3,ZH
005583  06A3
005584  9360    	STS $06A4,R22
005585  06A4
005586  9370    	STS $06A5,R23
005587  06A5
005588  E7E0    	LDI ZL,$70
005589  E0F2    	LDI ZH,$02
00558A  E060    	LDI R22,$00
00558B  93E0    	STS $06A6,ZL
00558C  06A6
00558D  93F0    	STS $06A7,ZH
00558E  06A7
00558F  9360    	STS $06A8,R22
005590  06A8
005591  9370    	STS $06A9,R23
005592  06A9
005593  E8E0    	LDI ZL,$80
005594  E0F2    	LDI ZH,$02
005595  E060    	LDI R22,$00
005596  93E0    	STS $06AA,ZL
005597  06AA
005598  93F0    	STS $06AB,ZH
005599  06AB
00559A  9360    	STS $06AC,R22
00559B  06AC
00559C  9370    	STS $06AD,R23
00559D  06AD
00559E  E9E0    	LDI ZL,$90
00559F  E0F2    	LDI ZH,$02
0055A0  E060    	LDI R22,$00
0055A1  93E0    	STS $06AE,ZL
0055A2  06AE
0055A3  93F0    	STS $06AF,ZH
0055A4  06AF
0055A5  9360    	STS $06B0,R22
0055A6  06B0
0055A7  9370    	STS $06B1,R23
0055A8  06B1
0055A9  E9EA    	LDI ZL,$9A
0055AA  E0F2    	LDI ZH,$02
0055AB  E060    	LDI R22,$00
0055AC  93E0    	STS $06B2,ZL
0055AD  06B2
0055AE  93F0    	STS $06B3,ZH
0055AF  06B3
0055B0  9360    	STS $06B4,R22
0055B1  06B4
0055B2  9370    	STS $06B5,R23
0055B3  06B5
0055B4  EAE4    	LDI ZL,$A4
0055B5  E0F2    	LDI ZH,$02
0055B6  E060    	LDI R22,$00
0055B7  93E0    	STS $06B6,ZL
0055B8  06B6
0055B9  93F0    	STS $06B7,ZH
0055BA  06B7
0055BB  9360    	STS $06B8,R22
0055BC  06B8
0055BD  9370    	STS $06B9,R23
0055BE  06B9
0055BF  E0E5    	LDI ZL,$05
0055C0  E0F0    	LDI ZH,$00
0055C1  93E0    	STS $06C2,ZL
0055C2  06C2
0055C3  93F0    	STS $06C3,ZH
0055C4  06C3
0055C5  E1E0    	LDI ZL,$10
0055C6  E0F0    	LDI ZH,$00
0055C7  93E0    	STS $06C4,ZL
0055C8  06C4
0055C9  93F0    	STS $06C5,ZH
0055CA  06C5
0055CB  C007    	RJMP L1132
0055CC  81E8    L1150:	LD ZL,Y
0055CD  50EB    	SUBI ZL,$0B
0055CE  93EA    	ST -Y,ZL
0055CF  940E    	CALL L1151
0055D0  4DB8
0055D1  9621    L1127:	ADIW YH:YL,1
0055D2  9508    	RET
0055D3  940C    L1132:	JMP L1152
0055D4  5E7F
0055D5  E0E2    L1129:	LDI ZL,$02
0055D6  15E4    	CP ZL,R4
0055D7  F011    	BREQ L1153
0055D8  940C    	JMP L1154
0055D9  5A24
0055DA  81E8    L1153:	LD ZL,Y
0055DB  30E1    	CPI ZL,$01
0055DC  F011    	BREQ L1155
0055DD  940C    	JMP L1156
0055DE  5648
0055DF  E0ED    L1155:	LDI ZL,$0D
0055E0  93EA    	ST -Y,ZL
0055E1  940E    	CALL L992
0055E2  42E5
0055E3  E8E4    	LDI ZL,$84
0055E4  E3F9    	LDI ZH,$39
0055E5  E060    	LDI R22,$00
0055E6  93E0    	STS $069A,ZL
0055E7  069A
0055E8  93F0    	STS $069B,ZH
0055E9  069B
0055EA  9360    	STS $069C,R22
0055EB  069C
0055EC  9370    	STS $069D,R23
0055ED  069D
0055EE  EEE4    	LDI ZL,$E4
0055EF  E3F9    	LDI ZH,$39
0055F0  E060    	LDI R22,$00
0055F1  93E0    	STS $069E,ZL
0055F2  069E
0055F3  93F0    	STS $069F,ZH
0055F4  069F
0055F5  9360    	STS $06A0,R22
0055F6  06A0
0055F7  9370    	STS $06A1,R23
0055F8  06A1
0055F9  ECEC    	LDI ZL,$CC
0055FA  E3F8    	LDI ZH,$38
0055FB  E060    	LDI R22,$00
0055FC  93E0    	STS $06A2,ZL
0055FD  06A2
0055FE  93F0    	STS $06A3,ZH
0055FF  06A3
005600  9360    	STS $06A4,R22
005601  06A4
005602  9370    	STS $06A5,R23
005603  06A5
005604  EDEC    	LDI ZL,$DC
005605  E3F8    	LDI ZH,$38
005606  E060    	LDI R22,$00
005607  93E0    	STS $06A6,ZL
005608  06A6
005609  93F0    	STS $06A7,ZH
00560A  06A7
00560B  9360    	STS $06A8,R22
00560C  06A8
00560D  9370    	STS $06A9,R23
00560E  06A9
00560F  EEEC    	LDI ZL,$EC
005610  E3F8    	LDI ZH,$38
005611  E060    	LDI R22,$00
005612  93E0    	STS $06AA,ZL
005613  06AA
005614  93F0    	STS $06AB,ZH
005615  06AB
005616  9360    	STS $06AC,R22
005617  06AC
005618  9370    	STS $06AD,R23
005619  06AD
00561A  EFEC    	LDI ZL,$FC
00561B  E3F8    	LDI ZH,$38
00561C  E060    	LDI R22,$00
00561D  93E0    	STS $06AE,ZL
00561E  06AE
00561F  93F0    	STS $06AF,ZH
005620  06AF
005621  9360    	STS $06B0,R22
005622  06B0
005623  9370    	STS $06B1,R23
005624  06B1
005625  E0E8    	LDI ZL,$08
005626  E3F9    	LDI ZH,$39
005627  E060    	LDI R22,$00
005628  93E0    	STS $06B2,ZL
005629  06B2
00562A  93F0    	STS $06B3,ZH
00562B  06B3
00562C  9360    	STS $06B4,R22
00562D  06B4
00562E  9370    	STS $06B5,R23
00562F  06B5
005630  E1E4    	LDI ZL,$14
005631  E3F9    	LDI ZH,$39
005632  E060    	LDI R22,$00
005633  93E0    	STS $06B6,ZL
005634  06B6
005635  93F0    	STS $06B7,ZH
005636  06B7
005637  9360    	STS $06B8,R22
005638  06B8
005639  9370    	STS $06B9,R23
00563A  06B9
00563B  E0E6    	LDI ZL,$06
00563C  E0F0    	LDI ZH,$00
00563D  93E0    	STS $06C2,ZL
00563E  06C2
00563F  93F0    	STS $06C3,ZH
005640  06C3
005641  E1E0    	LDI ZL,$10
005642  E0F0    	LDI ZH,$00
005643  93E0    	STS $06C4,ZL
005644  06C4
005645  93F0    	STS $06C5,ZH
005646  06C5
005647  C3DB    	RJMP L1157
005648  30E2    L1156:	CPI ZL,$02
005649  F011    	BREQ L1158
00564A  940C    	JMP L1159
00564B  56B5
00564C  E0ED    L1158:	LDI ZL,$0D
00564D  93EA    	ST -Y,ZL
00564E  940E    	CALL L992
00564F  42E5
005650  EFEC    	LDI ZL,$FC
005651  E3FA    	LDI ZH,$3A
005652  E060    	LDI R22,$00
005653  93E0    	STS $069A,ZL
005654  069A
005655  93F0    	STS $069B,ZH
005656  069B
005657  9360    	STS $069C,R22
005658  069C
005659  9370    	STS $069D,R23
00565A  069D
00565B  E5EC    	LDI ZL,$5C
00565C  E3FB    	LDI ZH,$3B
00565D  E060    	LDI R22,$00
00565E  93E0    	STS $069E,ZL
00565F  069E
005660  93F0    	STS $069F,ZH
005661  069F
005662  9360    	STS $06A0,R22
005663  06A0
005664  9370    	STS $06A1,R23
005665  06A1
005666  E4E4    	LDI ZL,$44
005667  E3FA    	LDI ZH,$3A
005668  E060    	LDI R22,$00
005669  93E0    	STS $06A2,ZL
00566A  06A2
00566B  93F0    	STS $06A3,ZH
00566C  06A3
00566D  9360    	STS $06A4,R22
00566E  06A4
00566F  9370    	STS $06A5,R23
005670  06A5
005671  E5E4    	LDI ZL,$54
005672  E3FA    	LDI ZH,$3A
005673  E060    	LDI R22,$00
005674  93E0    	STS $06A6,ZL
005675  06A6
005676  93F0    	STS $06A7,ZH
005677  06A7
005678  9360    	STS $06A8,R22
005679  06A8
00567A  9370    	STS $06A9,R23
00567B  06A9
00567C  E6E4    	LDI ZL,$64
00567D  E3FA    	LDI ZH,$3A
00567E  E060    	LDI R22,$00
00567F  93E0    	STS $06AA,ZL
005680  06AA
005681  93F0    	STS $06AB,ZH
005682  06AB
005683  9360    	STS $06AC,R22
005684  06AC
005685  9370    	STS $06AD,R23
005686  06AD
005687  E7E4    	LDI ZL,$74
005688  E3FA    	LDI ZH,$3A
005689  E060    	LDI R22,$00
00568A  93E0    	STS $06AE,ZL
00568B  06AE
00568C  93F0    	STS $06AF,ZH
00568D  06AF
00568E  9360    	STS $06B0,R22
00568F  06B0
005690  9370    	STS $06B1,R23
005691  06B1
005692  E8E0    	LDI ZL,$80
005693  E3FA    	LDI ZH,$3A
005694  E060    	LDI R22,$00
005695  93E0    	STS $06B2,ZL
005696  06B2
005697  93F0    	STS $06B3,ZH
005698  06B3
005699  9360    	STS $06B4,R22
00569A  06B4
00569B  9370    	STS $06B5,R23
00569C  06B5
00569D  E8EC    	LDI ZL,$8C
00569E  E3FA    	LDI ZH,$3A
00569F  E060    	LDI R22,$00
0056A0  93E0    	STS $06B6,ZL
0056A1  06B6
0056A2  93F0    	STS $06B7,ZH
0056A3  06B7
0056A4  9360    	STS $06B8,R22
0056A5  06B8
0056A6  9370    	STS $06B9,R23
0056A7  06B9
0056A8  E0E6    	LDI ZL,$06
0056A9  E0F0    	LDI ZH,$00
0056AA  93E0    	STS $06C2,ZL
0056AB  06C2
0056AC  93F0    	STS $06C3,ZH
0056AD  06C3
0056AE  E1E0    	LDI ZL,$10
0056AF  E0F0    	LDI ZH,$00
0056B0  93E0    	STS $06C4,ZL
0056B1  06C4
0056B2  93F0    	STS $06C5,ZH
0056B3  06C5
0056B4  C36E    	RJMP L1157
0056B5  30E3    L1159:	CPI ZL,$03
0056B6  F011    	BREQ L1160
0056B7  940C    	JMP L1161
0056B8  5722
0056B9  E0ED    L1160:	LDI ZL,$0D
0056BA  93EA    	ST -Y,ZL
0056BB  940E    	CALL L992
0056BC  42E5
0056BD  E4E0    	LDI ZL,$40
0056BE  E3F4    	LDI ZH,$34
0056BF  E060    	LDI R22,$00
0056C0  93E0    	STS $069A,ZL
0056C1  069A
0056C2  93F0    	STS $069B,ZH
0056C3  069B
0056C4  9360    	STS $069C,R22
0056C5  069C
0056C6  9370    	STS $069D,R23
0056C7  069D
0056C8  EAE0    	LDI ZL,$A0
0056C9  E3F4    	LDI ZH,$34
0056CA  E060    	LDI R22,$00
0056CB  93E0    	STS $069E,ZL
0056CC  069E
0056CD  93F0    	STS $069F,ZH
0056CE  069F
0056CF  9360    	STS $06A0,R22
0056D0  06A0
0056D1  9370    	STS $06A1,R23
0056D2  06A1
0056D3  E8E8    	LDI ZL,$88
0056D4  E3F3    	LDI ZH,$33
0056D5  E060    	LDI R22,$00
0056D6  93E0    	STS $06A2,ZL
0056D7  06A2
0056D8  93F0    	STS $06A3,ZH
0056D9  06A3
0056DA  9360    	STS $06A4,R22
0056DB  06A4
0056DC  9370    	STS $06A5,R23
0056DD  06A5
0056DE  E9E8    	LDI ZL,$98
0056DF  E3F3    	LDI ZH,$33
0056E0  E060    	LDI R22,$00
0056E1  93E0    	STS $06A6,ZL
0056E2  06A6
0056E3  93F0    	STS $06A7,ZH
0056E4  06A7
0056E5  9360    	STS $06A8,R22
0056E6  06A8
0056E7  9370    	STS $06A9,R23
0056E8  06A9
0056E9  EAE8    	LDI ZL,$A8
0056EA  E3F3    	LDI ZH,$33
0056EB  E060    	LDI R22,$00
0056EC  93E0    	STS $06AA,ZL
0056ED  06AA
0056EE  93F0    	STS $06AB,ZH
0056EF  06AB
0056F0  9360    	STS $06AC,R22
0056F1  06AC
0056F2  9370    	STS $06AD,R23
0056F3  06AD
0056F4  EBE8    	LDI ZL,$B8
0056F5  E3F3    	LDI ZH,$33
0056F6  E060    	LDI R22,$00
0056F7  93E0    	STS $06AE,ZL
0056F8  06AE
0056F9  93F0    	STS $06AF,ZH
0056FA  06AF
0056FB  9360    	STS $06B0,R22
0056FC  06B0
0056FD  9370    	STS $06B1,R23
0056FE  06B1
0056FF  ECE4    	LDI ZL,$C4
005700  E3F3    	LDI ZH,$33
005701  E060    	LDI R22,$00
005702  93E0    	STS $06B2,ZL
005703  06B2
005704  93F0    	STS $06B3,ZH
005705  06B3
005706  9360    	STS $06B4,R22
005707  06B4
005708  9370    	STS $06B5,R23
005709  06B5
00570A  EDE0    	LDI ZL,$D0
00570B  E3F3    	LDI ZH,$33
00570C  E060    	LDI R22,$00
00570D  93E0    	STS $06B6,ZL
00570E  06B6
00570F  93F0    	STS $06B7,ZH
005710  06B7
005711  9360    	STS $06B8,R22
005712  06B8
005713  9370    	STS $06B9,R23
005714  06B9
005715  E0E6    	LDI ZL,$06
005716  E0F0    	LDI ZH,$00
005717  93E0    	STS $06C2,ZL
005718  06C2
005719  93F0    	STS $06C3,ZH
00571A  06C3
00571B  E1E0    	LDI ZL,$10
00571C  E0F0    	LDI ZH,$00
00571D  93E0    	STS $06C4,ZL
00571E  06C4
00571F  93F0    	STS $06C5,ZH
005720  06C5
005721  C301    	RJMP L1157
005722  30E4    L1161:	CPI ZL,$04
005723  F011    	BREQ L1162
005724  940C    	JMP L1163
005725  578F
005726  E0EE    L1162:	LDI ZL,$0E
005727  93EA    	ST -Y,ZL
005728  940E    	CALL L992
005729  42E5
00572A  E9E0    	LDI ZL,$90
00572B  E2F2    	LDI ZH,$22
00572C  E060    	LDI R22,$00
00572D  93E0    	STS $069A,ZL
00572E  069A
00572F  93F0    	STS $069B,ZH
005730  069B
005731  9360    	STS $069C,R22
005732  069C
005733  9370    	STS $069D,R23
005734  069D
005735  E3E0    	LDI ZL,$30
005736  E2F5    	LDI ZH,$25
005737  E060    	LDI R22,$00
005738  93E0    	STS $069E,ZL
005739  069E
00573A  93F0    	STS $069F,ZH
00573B  069F
00573C  9360    	STS $06A0,R22
00573D  06A0
00573E  9370    	STS $06A1,R23
00573F  06A1
005740  E0E8    	LDI ZL,$08
005741  E1FF    	LDI ZH,$1F
005742  E060    	LDI R22,$00
005743  93E0    	STS $06A2,ZL
005744  06A2
005745  93F0    	STS $06A3,ZH
005746  06A3
005747  9360    	STS $06A4,R22
005748  06A4
005749  9370    	STS $06A5,R23
00574A  06A5
00574B  E1E8    	LDI ZL,$18
00574C  E1FF    	LDI ZH,$1F
00574D  E060    	LDI R22,$00
00574E  93E0    	STS $06A6,ZL
00574F  06A6
005750  93F0    	STS $06A7,ZH
005751  06A7
005752  9360    	STS $06A8,R22
005753  06A8
005754  9370    	STS $06A9,R23
005755  06A9
005756  E2E8    	LDI ZL,$28
005757  E1FF    	LDI ZH,$1F
005758  E060    	LDI R22,$00
005759  93E0    	STS $06AA,ZL
00575A  06AA
00575B  93F0    	STS $06AB,ZH
00575C  06AB
00575D  9360    	STS $06AC,R22
00575E  06AC
00575F  9370    	STS $06AD,R23
005760  06AD
005761  E3E8    	LDI ZL,$38
005762  E1FF    	LDI ZH,$1F
005763  E060    	LDI R22,$00
005764  93E0    	STS $06AE,ZL
005765  06AE
005766  93F0    	STS $06AF,ZH
005767  06AF
005768  9360    	STS $06B0,R22
005769  06B0
00576A  9370    	STS $06B1,R23
00576B  06B1
00576C  E8EC    	LDI ZL,$8C
00576D  E1FF    	LDI ZH,$1F
00576E  E060    	LDI R22,$00
00576F  93E0    	STS $06B2,ZL
005770  06B2
005771  93F0    	STS $06B3,ZH
005772  06B3
005773  9360    	STS $06B4,R22
005774  06B4
005775  9370    	STS $06B5,R23
005776  06B5
005777  EEE0    	LDI ZL,$E0
005778  E1FF    	LDI ZH,$1F
005779  E060    	LDI R22,$00
00577A  93E0    	STS $06B6,ZL
00577B  06B6
00577C  93F0    	STS $06B7,ZH
00577D  06B7
00577E  9360    	STS $06B8,R22
00577F  06B8
005780  9370    	STS $06B9,R23
005781  06B9
005782  E2EA    	LDI ZL,$2A
005783  E0F0    	LDI ZH,$00
005784  93E0    	STS $06C2,ZL
005785  06C2
005786  93F0    	STS $06C3,ZH
005787  06C3
005788  E1E0    	LDI ZL,$10
005789  E0F0    	LDI ZH,$00
00578A  93E0    	STS $06C4,ZL
00578B  06C4
00578C  93F0    	STS $06C5,ZH
00578D  06C5
00578E  C294    	RJMP L1157
00578F  30E5    L1163:	CPI ZL,$05
005790  F011    	BREQ L1164
005791  940C    	JMP L1165
005792  57FC
005793  E0ED    L1164:	LDI ZL,$0D
005794  93EA    	ST -Y,ZL
005795  940E    	CALL L992
005796  42E5
005797  ECEC    	LDI ZL,$CC
005798  E3F5    	LDI ZH,$35
005799  E060    	LDI R22,$00
00579A  93E0    	STS $069A,ZL
00579B  069A
00579C  93F0    	STS $069B,ZH
00579D  069B
00579E  9360    	STS $069C,R22
00579F  069C
0057A0  9370    	STS $069D,R23
0057A1  069D
0057A2  E3EC    	LDI ZL,$3C
0057A3  E3F6    	LDI ZH,$36
0057A4  E060    	LDI R22,$00
0057A5  93E0    	STS $069E,ZL
0057A6  069E
0057A7  93F0    	STS $069F,ZH
0057A8  069F
0057A9  9360    	STS $06A0,R22
0057AA  06A0
0057AB  9370    	STS $06A1,R23
0057AC  06A1
0057AD  E0E0    	LDI ZL,$00
0057AE  E3F5    	LDI ZH,$35
0057AF  E060    	LDI R22,$00
0057B0  93E0    	STS $06A2,ZL
0057B1  06A2
0057B2  93F0    	STS $06A3,ZH
0057B3  06A3
0057B4  9360    	STS $06A4,R22
0057B5  06A4
0057B6  9370    	STS $06A5,R23
0057B7  06A5
0057B8  E1E0    	LDI ZL,$10
0057B9  E3F5    	LDI ZH,$35
0057BA  E060    	LDI R22,$00
0057BB  93E0    	STS $06A6,ZL
0057BC  06A6
0057BD  93F0    	STS $06A7,ZH
0057BE  06A7
0057BF  9360    	STS $06A8,R22
0057C0  06A8
0057C1  9370    	STS $06A9,R23
0057C2  06A9
0057C3  E2E0    	LDI ZL,$20
0057C4  E3F5    	LDI ZH,$35
0057C5  E060    	LDI R22,$00
0057C6  93E0    	STS $06AA,ZL
0057C7  06AA
0057C8  93F0    	STS $06AB,ZH
0057C9  06AB
0057CA  9360    	STS $06AC,R22
0057CB  06AC
0057CC  9370    	STS $06AD,R23
0057CD  06AD
0057CE  E3E0    	LDI ZL,$30
0057CF  E3F5    	LDI ZH,$35
0057D0  E060    	LDI R22,$00
0057D1  93E0    	STS $06AE,ZL
0057D2  06AE
0057D3  93F0    	STS $06AF,ZH
0057D4  06AF
0057D5  9360    	STS $06B0,R22
0057D6  06B0
0057D7  9370    	STS $06B1,R23
0057D8  06B1
0057D9  E3EE    	LDI ZL,$3E
0057DA  E3F5    	LDI ZH,$35
0057DB  E060    	LDI R22,$00
0057DC  93E0    	STS $06B2,ZL
0057DD  06B2
0057DE  93F0    	STS $06B3,ZH
0057DF  06B3
0057E0  9360    	STS $06B4,R22
0057E1  06B4
0057E2  9370    	STS $06B5,R23
0057E3  06B5
0057E4  E4EC    	LDI ZL,$4C
0057E5  E3F5    	LDI ZH,$35
0057E6  E060    	LDI R22,$00
0057E7  93E0    	STS $06B6,ZL
0057E8  06B6
0057E9  93F0    	STS $06B7,ZH
0057EA  06B7
0057EB  9360    	STS $06B8,R22
0057EC  06B8
0057ED  9370    	STS $06B9,R23
0057EE  06B9
0057EF  E0E7    	LDI ZL,$07
0057F0  E0F0    	LDI ZH,$00
0057F1  93E0    	STS $06C2,ZL
0057F2  06C2
0057F3  93F0    	STS $06C3,ZH
0057F4  06C3
0057F5  E1E0    	LDI ZL,$10
0057F6  E0F0    	LDI ZH,$00
0057F7  93E0    	STS $06C4,ZL
0057F8  06C4
0057F9  93F0    	STS $06C5,ZH
0057FA  06C5
0057FB  C227    	RJMP L1157
0057FC  30E6    L1165:	CPI ZL,$06
0057FD  F011    	BREQ L1166
0057FE  940C    	JMP L1167
0057FF  5869
005800  E0ED    L1166:	LDI ZL,$0D
005801  93EA    	ST -Y,ZL
005802  940E    	CALL L992
005803  42E5
005804  E5E0    	LDI ZL,$50
005805  E3F1    	LDI ZH,$31
005806  E060    	LDI R22,$00
005807  93E0    	STS $069A,ZL
005808  069A
005809  93F0    	STS $069B,ZH
00580A  069B
00580B  9360    	STS $069C,R22
00580C  069C
00580D  9370    	STS $069D,R23
00580E  069D
00580F  EBE0    	LDI ZL,$B0
005810  E3F1    	LDI ZH,$31
005811  E060    	LDI R22,$00
005812  93E0    	STS $069E,ZL
005813  069E
005814  93F0    	STS $069F,ZH
005815  069F
005816  9360    	STS $06A0,R22
005817  06A0
005818  9370    	STS $06A1,R23
005819  06A1
00581A  E9E8    	LDI ZL,$98
00581B  E3F0    	LDI ZH,$30
00581C  E060    	LDI R22,$00
00581D  93E0    	STS $06A2,ZL
00581E  06A2
00581F  93F0    	STS $06A3,ZH
005820  06A3
005821  9360    	STS $06A4,R22
005822  06A4
005823  9370    	STS $06A5,R23
005824  06A5
005825  EAE8    	LDI ZL,$A8
005826  E3F0    	LDI ZH,$30
005827  E060    	LDI R22,$00
005828  93E0    	STS $06A6,ZL
005829  06A6
00582A  93F0    	STS $06A7,ZH
00582B  06A7
00582C  9360    	STS $06A8,R22
00582D  06A8
00582E  9370    	STS $06A9,R23
00582F  06A9
005830  EBE8    	LDI ZL,$B8
005831  E3F0    	LDI ZH,$30
005832  E060    	LDI R22,$00
005833  93E0    	STS $06AA,ZL
005834  06AA
005835  93F0    	STS $06AB,ZH
005836  06AB
005837  9360    	STS $06AC,R22
005838  06AC
005839  9370    	STS $06AD,R23
00583A  06AD
00583B  ECE8    	LDI ZL,$C8
00583C  E3F0    	LDI ZH,$30
00583D  E060    	LDI R22,$00
00583E  93E0    	STS $06AE,ZL
00583F  06AE
005840  93F0    	STS $06AF,ZH
005841  06AF
005842  9360    	STS $06B0,R22
005843  06B0
005844  9370    	STS $06B1,R23
005845  06B1
005846  EDE4    	LDI ZL,$D4
005847  E3F0    	LDI ZH,$30
005848  E060    	LDI R22,$00
005849  93E0    	STS $06B2,ZL
00584A  06B2
00584B  93F0    	STS $06B3,ZH
00584C  06B3
00584D  9360    	STS $06B4,R22
00584E  06B4
00584F  9370    	STS $06B5,R23
005850  06B5
005851  EEE0    	LDI ZL,$E0
005852  E3F0    	LDI ZH,$30
005853  E060    	LDI R22,$00
005854  93E0    	STS $06B6,ZL
005855  06B6
005856  93F0    	STS $06B7,ZH
005857  06B7
005858  9360    	STS $06B8,R22
005859  06B8
00585A  9370    	STS $06B9,R23
00585B  06B9
00585C  E0E6    	LDI ZL,$06
00585D  E0F0    	LDI ZH,$00
00585E  93E0    	STS $06C2,ZL
00585F  06C2
005860  93F0    	STS $06C3,ZH
005861  06C3
005862  E1E0    	LDI ZL,$10
005863  E0F0    	LDI ZH,$00
005864  93E0    	STS $06C4,ZL
005865  06C4
005866  93F0    	STS $06C5,ZH
005867  06C5
005868  C1BA    	RJMP L1157
005869  30E8    L1167:	CPI ZL,$08
00586A  F011    	BREQ L1168
00586B  940C    	JMP L1169
00586C  58D6
00586D  E0ED    L1168:	LDI ZL,$0D
00586E  93EA    	ST -Y,ZL
00586F  940E    	CALL L992
005870  42E5
005871  ECE8    	LDI ZL,$C8
005872  E3F2    	LDI ZH,$32
005873  E060    	LDI R22,$00
005874  93E0    	STS $069A,ZL
005875  069A
005876  93F0    	STS $069B,ZH
005877  069B
005878  9360    	STS $069C,R22
005879  069C
00587A  9370    	STS $069D,R23
00587B  069D
00587C  E2E8    	LDI ZL,$28
00587D  E3F3    	LDI ZH,$33
00587E  E060    	LDI R22,$00
00587F  93E0    	STS $069E,ZL
005880  069E
005881  93F0    	STS $069F,ZH
005882  069F
005883  9360    	STS $06A0,R22
005884  06A0
005885  9370    	STS $06A1,R23
005886  06A1
005887  E1E0    	LDI ZL,$10
005888  E3F2    	LDI ZH,$32
005889  E060    	LDI R22,$00
00588A  93E0    	STS $06A2,ZL
00588B  06A2
00588C  93F0    	STS $06A3,ZH
00588D  06A3
00588E  9360    	STS $06A4,R22
00588F  06A4
005890  9370    	STS $06A5,R23
005891  06A5
005892  E2E0    	LDI ZL,$20
005893  E3F2    	LDI ZH,$32
005894  E060    	LDI R22,$00
005895  93E0    	STS $06A6,ZL
005896  06A6
005897  93F0    	STS $06A7,ZH
005898  06A7
005899  9360    	STS $06A8,R22
00589A  06A8
00589B  9370    	STS $06A9,R23
00589C  06A9
00589D  E3E0    	LDI ZL,$30
00589E  E3F2    	LDI ZH,$32
00589F  E060    	LDI R22,$00
0058A0  93E0    	STS $06AA,ZL
0058A1  06AA
0058A2  93F0    	STS $06AB,ZH
0058A3  06AB
0058A4  9360    	STS $06AC,R22
0058A5  06AC
0058A6  9370    	STS $06AD,R23
0058A7  06AD
0058A8  E4E0    	LDI ZL,$40
0058A9  E3F2    	LDI ZH,$32
0058AA  E060    	LDI R22,$00
0058AB  93E0    	STS $06AE,ZL
0058AC  06AE
0058AD  93F0    	STS $06AF,ZH
0058AE  06AF
0058AF  9360    	STS $06B0,R22
0058B0  06B0
0058B1  9370    	STS $06B1,R23
0058B2  06B1
0058B3  E4EC    	LDI ZL,$4C
0058B4  E3F2    	LDI ZH,$32
0058B5  E060    	LDI R22,$00
0058B6  93E0    	STS $06B2,ZL
0058B7  06B2
0058B8  93F0    	STS $06B3,ZH
0058B9  06B3
0058BA  9360    	STS $06B4,R22
0058BB  06B4
0058BC  9370    	STS $06B5,R23
0058BD  06B5
0058BE  E5E8    	LDI ZL,$58
0058BF  E3F2    	LDI ZH,$32
0058C0  E060    	LDI R22,$00
0058C1  93E0    	STS $06B6,ZL
0058C2  06B6
0058C3  93F0    	STS $06B7,ZH
0058C4  06B7
0058C5  9360    	STS $06B8,R22
0058C6  06B8
0058C7  9370    	STS $06B9,R23
0058C8  06B9
0058C9  E0E6    	LDI ZL,$06
0058CA  E0F0    	LDI ZH,$00
0058CB  93E0    	STS $06C2,ZL
0058CC  06C2
0058CD  93F0    	STS $06C3,ZH
0058CE  06C3
0058CF  E1E0    	LDI ZL,$10
0058D0  E0F0    	LDI ZH,$00
0058D1  93E0    	STS $06C4,ZL
0058D2  06C4
0058D3  93F0    	STS $06C5,ZH
0058D4  06C5
0058D5  C14D    	RJMP L1157
0058D6  30E9    L1169:	CPI ZL,$09
0058D7  F011    	BREQ L1170
0058D8  940C    	JMP L1171
0058D9  5943
0058DA  E0ED    L1170:	LDI ZL,$0D
0058DB  93EA    	ST -Y,ZL
0058DC  940E    	CALL L992
0058DD  42E5
0058DE  E3EC    	LDI ZL,$3C
0058DF  E3F7    	LDI ZH,$37
0058E0  E060    	LDI R22,$00
0058E1  93E0    	STS $069A,ZL
0058E2  069A
0058E3  93F0    	STS $069B,ZH
0058E4  069B
0058E5  9360    	STS $069C,R22
0058E6  069C
0058E7  9370    	STS $069D,R23
0058E8  069D
0058E9  E7EC    	LDI ZL,$7C
0058EA  E3F7    	LDI ZH,$37
0058EB  E060    	LDI R22,$00
0058EC  93E0    	STS $069E,ZL
0058ED  069E
0058EE  93F0    	STS $069F,ZH
0058EF  069F
0058F0  9360    	STS $06A0,R22
0058F1  06A0
0058F2  9370    	STS $06A1,R23
0058F3  06A1
0058F4  EAEC    	LDI ZL,$AC
0058F5  E3F6    	LDI ZH,$36
0058F6  E060    	LDI R22,$00
0058F7  93E0    	STS $06A2,ZL
0058F8  06A2
0058F9  93F0    	STS $06A3,ZH
0058FA  06A3
0058FB  9360    	STS $06A4,R22
0058FC  06A4
0058FD  9370    	STS $06A5,R23
0058FE  06A5
0058FF  EBEC    	LDI ZL,$BC
005900  E3F6    	LDI ZH,$36
005901  E060    	LDI R22,$00
005902  93E0    	STS $06A6,ZL
005903  06A6
005904  93F0    	STS $06A7,ZH
005905  06A7
005906  9360    	STS $06A8,R22
005907  06A8
005908  9370    	STS $06A9,R23
005909  06A9
00590A  ECEC    	LDI ZL,$CC
00590B  E3F6    	LDI ZH,$36
00590C  E060    	LDI R22,$00
00590D  93E0    	STS $06AA,ZL
00590E  06AA
00590F  93F0    	STS $06AB,ZH
005910  06AB
005911  9360    	STS $06AC,R22
005912  06AC
005913  9370    	STS $06AD,R23
005914  06AD
005915  EDEC    	LDI ZL,$DC
005916  E3F6    	LDI ZH,$36
005917  E060    	LDI R22,$00
005918  93E0    	STS $06AE,ZL
005919  06AE
00591A  93F0    	STS $06AF,ZH
00591B  06AF
00591C  9360    	STS $06B0,R22
00591D  06B0
00591E  9370    	STS $06B1,R23
00591F  06B1
005920  EEE4    	LDI ZL,$E4
005921  E3F6    	LDI ZH,$36
005922  E060    	LDI R22,$00
005923  93E0    	STS $06B2,ZL
005924  06B2
005925  93F0    	STS $06B3,ZH
005926  06B3
005927  9360    	STS $06B4,R22
005928  06B4
005929  9370    	STS $06B5,R23
00592A  06B5
00592B  EEEC    	LDI ZL,$EC
00592C  E3F6    	LDI ZH,$36
00592D  E060    	LDI R22,$00
00592E  93E0    	STS $06B6,ZL
00592F  06B6
005930  93F0    	STS $06B7,ZH
005931  06B7
005932  9360    	STS $06B8,R22
005933  06B8
005934  9370    	STS $06B9,R23
005935  06B9
005936  E0E4    	LDI ZL,$04
005937  E0F0    	LDI ZH,$00
005938  93E0    	STS $06C2,ZL
005939  06C2
00593A  93F0    	STS $06C3,ZH
00593B  06C3
00593C  E1E0    	LDI ZL,$10
00593D  E0F0    	LDI ZH,$00
00593E  93E0    	STS $06C4,ZL
00593F  06C4
005940  93F0    	STS $06C5,ZH
005941  06C5
005942  C0E0    	RJMP L1157
005943  30EA    L1171:	CPI ZL,$0A
005944  F011    	BREQ L1172
005945  940C    	JMP L1173
005946  59B0
005947  E0ED    L1172:	LDI ZL,$0D
005948  93EA    	ST -Y,ZL
005949  940E    	CALL L992
00594A  42E5
00594B  E5E8    	LDI ZL,$58
00594C  E2FB    	LDI ZH,$2B
00594D  E060    	LDI R22,$00
00594E  93E0    	STS $069A,ZL
00594F  069A
005950  93F0    	STS $069B,ZH
005951  069B
005952  9360    	STS $069C,R22
005953  069C
005954  9370    	STS $069D,R23
005955  069D
005956  EFE8    	LDI ZL,$F8
005957  E2FD    	LDI ZH,$2D
005958  E060    	LDI R22,$00
005959  93E0    	STS $069E,ZL
00595A  069E
00595B  93F0    	STS $069F,ZH
00595C  069F
00595D  9360    	STS $06A0,R22
00595E  06A0
00595F  9370    	STS $06A1,R23
005960  06A1
005961  EDE0    	LDI ZL,$D0
005962  E2F7    	LDI ZH,$27
005963  E060    	LDI R22,$00
005964  93E0    	STS $06A2,ZL
005965  06A2
005966  93F0    	STS $06A3,ZH
005967  06A3
005968  9360    	STS $06A4,R22
005969  06A4
00596A  9370    	STS $06A5,R23
00596B  06A5
00596C  EEE0    	LDI ZL,$E0
00596D  E2F7    	LDI ZH,$27
00596E  E060    	LDI R22,$00
00596F  93E0    	STS $06A6,ZL
005970  06A6
005971  93F0    	STS $06A7,ZH
005972  06A7
005973  9360    	STS $06A8,R22
005974  06A8
005975  9370    	STS $06A9,R23
005976  06A9
005977  EFE0    	LDI ZL,$F0
005978  E2F7    	LDI ZH,$27
005979  E060    	LDI R22,$00
00597A  93E0    	STS $06AA,ZL
00597B  06AA
00597C  93F0    	STS $06AB,ZH
00597D  06AB
00597E  9360    	STS $06AC,R22
00597F  06AC
005980  9370    	STS $06AD,R23
005981  06AD
005982  E0E0    	LDI ZL,$00
005983  E2F8    	LDI ZH,$28
005984  E060    	LDI R22,$00
005985  93E0    	STS $06AE,ZL
005986  06AE
005987  93F0    	STS $06AF,ZH
005988  06AF
005989  9360    	STS $06B0,R22
00598A  06B0
00598B  9370    	STS $06B1,R23
00598C  06B1
00598D  E5E4    	LDI ZL,$54
00598E  E2F8    	LDI ZH,$28
00598F  E060    	LDI R22,$00
005990  93E0    	STS $06B2,ZL
005991  06B2
005992  93F0    	STS $06B3,ZH
005993  06B3
005994  9360    	STS $06B4,R22
005995  06B4
005996  9370    	STS $06B5,R23
005997  06B5
005998  EAE8    	LDI ZL,$A8
005999  E2F8    	LDI ZH,$28
00599A  E060    	LDI R22,$00
00599B  93E0    	STS $06B6,ZL
00599C  06B6
00599D  93F0    	STS $06B7,ZH
00599E  06B7
00599F  9360    	STS $06B8,R22
0059A0  06B8
0059A1  9370    	STS $06B9,R23
0059A2  06B9
0059A3  E2EA    	LDI ZL,$2A
0059A4  E0F0    	LDI ZH,$00
0059A5  93E0    	STS $06C2,ZL
0059A6  06C2
0059A7  93F0    	STS $06C3,ZH
0059A8  06C3
0059A9  E1E0    	LDI ZL,$10
0059AA  E0F0    	LDI ZH,$00
0059AB  93E0    	STS $06C4,ZL
0059AC  06C4
0059AD  93F0    	STS $06C5,ZH
0059AE  06C5
0059AF  C073    	RJMP L1157
0059B0  30EB    L1173:	CPI ZL,$0B
0059B1  F011    	BREQ L1174
0059B2  940C    	JMP L1175
0059B3  5A1D
0059B4  E0ED    L1174:	LDI ZL,$0D
0059B5  93EA    	ST -Y,ZL
0059B6  940E    	CALL L992
0059B7  42E5
0059B8  E4EC    	LDI ZL,$4C
0059B9  E3F8    	LDI ZH,$38
0059BA  E060    	LDI R22,$00
0059BB  93E0    	STS $069A,ZL
0059BC  069A
0059BD  93F0    	STS $069B,ZH
0059BE  069B
0059BF  9360    	STS $069C,R22
0059C0  069C
0059C1  9370    	STS $069D,R23
0059C2  069D
0059C3  E8EC    	LDI ZL,$8C
0059C4  E3F8    	LDI ZH,$38
0059C5  E060    	LDI R22,$00
0059C6  93E0    	STS $069E,ZL
0059C7  069E
0059C8  93F0    	STS $069F,ZH
0059C9  069F
0059CA  9360    	STS $06A0,R22
0059CB  06A0
0059CC  9370    	STS $06A1,R23
0059CD  06A1
0059CE  EBEC    	LDI ZL,$BC
0059CF  E3F7    	LDI ZH,$37
0059D0  E060    	LDI R22,$00
0059D1  93E0    	STS $06A2,ZL
0059D2  06A2
0059D3  93F0    	STS $06A3,ZH
0059D4  06A3
0059D5  9360    	STS $06A4,R22
0059D6  06A4
0059D7  9370    	STS $06A5,R23
0059D8  06A5
0059D9  ECEC    	LDI ZL,$CC
0059DA  E3F7    	LDI ZH,$37
0059DB  E060    	LDI R22,$00
0059DC  93E0    	STS $06A6,ZL
0059DD  06A6
0059DE  93F0    	STS $06A7,ZH
0059DF  06A7
0059E0  9360    	STS $06A8,R22
0059E1  06A8
0059E2  9370    	STS $06A9,R23
0059E3  06A9
0059E4  EDEC    	LDI ZL,$DC
0059E5  E3F7    	LDI ZH,$37
0059E6  E060    	LDI R22,$00
0059E7  93E0    	STS $06AA,ZL
0059E8  06AA
0059E9  93F0    	STS $06AB,ZH
0059EA  06AB
0059EB  9360    	STS $06AC,R22
0059EC  06AC
0059ED  9370    	STS $06AD,R23
0059EE  06AD
0059EF  EEEC    	LDI ZL,$EC
0059F0  E3F7    	LDI ZH,$37
0059F1  E060    	LDI R22,$00
0059F2  93E0    	STS $06AE,ZL
0059F3  06AE
0059F4  93F0    	STS $06AF,ZH
0059F5  06AF
0059F6  9360    	STS $06B0,R22
0059F7  06B0
0059F8  9370    	STS $06B1,R23
0059F9  06B1
0059FA  EFE4    	LDI ZL,$F4
0059FB  E3F7    	LDI ZH,$37
0059FC  E060    	LDI R22,$00
0059FD  93E0    	STS $06B2,ZL
0059FE  06B2
0059FF  93F0    	STS $06B3,ZH
005A00  06B3
005A01  9360    	STS $06B4,R22
005A02  06B4
005A03  9370    	STS $06B5,R23
005A04  06B5
005A05  EFEC    	LDI ZL,$FC
005A06  E3F7    	LDI ZH,$37
005A07  E060    	LDI R22,$00
005A08  93E0    	STS $06B6,ZL
005A09  06B6
005A0A  93F0    	STS $06B7,ZH
005A0B  06B7
005A0C  9360    	STS $06B8,R22
005A0D  06B8
005A0E  9370    	STS $06B9,R23
005A0F  06B9
005A10  E0E4    	LDI ZL,$04
005A11  E0F0    	LDI ZH,$00
005A12  93E0    	STS $06C2,ZL
005A13  06C2
005A14  93F0    	STS $06C3,ZH
005A15  06C3
005A16  E1E0    	LDI ZL,$10
005A17  E0F0    	LDI ZH,$00
005A18  93E0    	STS $06C4,ZL
005A19  06C4
005A1A  93F0    	STS $06C5,ZH
005A1B  06C5
005A1C  C006    	RJMP L1157
005A1D  81E8    L1175:	LD ZL,Y
005A1E  50EB    	SUBI ZL,$0B
005A1F  93EA    	ST -Y,ZL
005A20  940E    	CALL L1151
005A21  4DB8
005A22  C460    	RJMP L1176
005A23  C45B    L1157:	RJMP L1152
005A24  E0E3    L1154:	LDI ZL,$03
005A25  15E4    	CP ZL,R4
005A26  F011    	BREQ L1177
005A27  940C    	JMP L1178
005A28  5E73
005A29  81E8    L1177:	LD ZL,Y
005A2A  30E1    	CPI ZL,$01
005A2B  F011    	BREQ L1179
005A2C  940C    	JMP L1180
005A2D  5A97
005A2E  E0EC    L1179:	LDI ZL,$0C
005A2F  93EA    	ST -Y,ZL
005A30  940E    	CALL L992
005A31  42E5
005A32  E7E0    	LDI ZL,$70
005A33  E5F5    	LDI ZH,$55
005A34  E060    	LDI R22,$00
005A35  93E0    	STS $069A,ZL
005A36  069A
005A37  93F0    	STS $069B,ZH
005A38  069B
005A39  9360    	STS $069C,R22
005A3A  069C
005A3B  9370    	STS $069D,R23
005A3C  069D
005A3D  ECE0    	LDI ZL,$C0
005A3E  E5F5    	LDI ZH,$55
005A3F  E060    	LDI R22,$00
005A40  93E0    	STS $069E,ZL
005A41  069E
005A42  93F0    	STS $069F,ZH
005A43  069F
005A44  9360    	STS $06A0,R22
005A45  06A0
005A46  9370    	STS $06A1,R23
005A47  06A1
005A48  ECEC    	LDI ZL,$CC
005A49  E5F4    	LDI ZH,$54
005A4A  E060    	LDI R22,$00
005A4B  93E0    	STS $06A2,ZL
005A4C  06A2
005A4D  93F0    	STS $06A3,ZH
005A4E  06A3
005A4F  9360    	STS $06A4,R22
005A50  06A4
005A51  9370    	STS $06A5,R23
005A52  06A5
005A53  EDEC    	LDI ZL,$DC
005A54  E5F4    	LDI ZH,$54
005A55  E060    	LDI R22,$00
005A56  93E0    	STS $06A6,ZL
005A57  06A6
005A58  93F0    	STS $06A7,ZH
005A59  06A7
005A5A  9360    	STS $06A8,R22
005A5B  06A8
005A5C  9370    	STS $06A9,R23
005A5D  06A9
005A5E  EEEC    	LDI ZL,$EC
005A5F  E5F4    	LDI ZH,$54
005A60  E060    	LDI R22,$00
005A61  93E0    	STS $06AA,ZL
005A62  06AA
005A63  93F0    	STS $06AB,ZH
005A64  06AB
005A65  9360    	STS $06AC,R22
005A66  06AC
005A67  9370    	STS $06AD,R23
005A68  06AD
005A69  EFEC    	LDI ZL,$FC
005A6A  E5F4    	LDI ZH,$54
005A6B  E060    	LDI R22,$00
005A6C  93E0    	STS $06AE,ZL
005A6D  06AE
005A6E  93F0    	STS $06AF,ZH
005A6F  06AF
005A70  9360    	STS $06B0,R22
005A71  06B0
005A72  9370    	STS $06B1,R23
005A73  06B1
005A74  E0E6    	LDI ZL,$06
005A75  E5F5    	LDI ZH,$55
005A76  E060    	LDI R22,$00
005A77  93E0    	STS $06B2,ZL
005A78  06B2
005A79  93F0    	STS $06B3,ZH
005A7A  06B3
005A7B  9360    	STS $06B4,R22
005A7C  06B4
005A7D  9370    	STS $06B5,R23
005A7E  06B5
005A7F  E1E0    	LDI ZL,$10
005A80  E5F5    	LDI ZH,$55
005A81  E060    	LDI R22,$00
005A82  93E0    	STS $06B6,ZL
005A83  06B6
005A84  93F0    	STS $06B7,ZH
005A85  06B7
005A86  9360    	STS $06B8,R22
005A87  06B8
005A88  9370    	STS $06B9,R23
005A89  06B9
005A8A  E0E5    	LDI ZL,$05
005A8B  E0F0    	LDI ZH,$00
005A8C  93E0    	STS $06C2,ZL
005A8D  06C2
005A8E  93F0    	STS $06C3,ZH
005A8F  06C3
005A90  E1E0    	LDI ZL,$10
005A91  E0F0    	LDI ZH,$00
005A92  93E0    	STS $06C4,ZL
005A93  06C4
005A94  93F0    	STS $06C5,ZH
005A95  06C5
005A96  C3DB    	RJMP L1181
005A97  30E2    L1180:	CPI ZL,$02
005A98  F011    	BREQ L1182
005A99  940C    	JMP L1183
005A9A  5B04
005A9B  E0EC    L1182:	LDI ZL,$0C
005A9C  93EA    	ST -Y,ZL
005A9D  940E    	CALL L992
005A9E  42E5
005A9F  E2EC    	LDI ZL,$2C
005AA0  E5F4    	LDI ZH,$54
005AA1  E060    	LDI R22,$00
005AA2  93E0    	STS $069A,ZL
005AA3  069A
005AA4  93F0    	STS $069B,ZH
005AA5  069B
005AA6  9360    	STS $069C,R22
005AA7  069C
005AA8  9370    	STS $069D,R23
005AA9  069D
005AAA  E7EC    	LDI ZL,$7C
005AAB  E5F4    	LDI ZH,$54
005AAC  E060    	LDI R22,$00
005AAD  93E0    	STS $069E,ZL
005AAE  069E
005AAF  93F0    	STS $069F,ZH
005AB0  069F
005AB1  9360    	STS $06A0,R22
005AB2  06A0
005AB3  9370    	STS $06A1,R23
005AB4  06A1
005AB5  E8E8    	LDI ZL,$88
005AB6  E5F3    	LDI ZH,$53
005AB7  E060    	LDI R22,$00
005AB8  93E0    	STS $06A2,ZL
005AB9  06A2
005ABA  93F0    	STS $06A3,ZH
005ABB  06A3
005ABC  9360    	STS $06A4,R22
005ABD  06A4
005ABE  9370    	STS $06A5,R23
005ABF  06A5
005AC0  E9E8    	LDI ZL,$98
005AC1  E5F3    	LDI ZH,$53
005AC2  E060    	LDI R22,$00
005AC3  93E0    	STS $06A6,ZL
005AC4  06A6
005AC5  93F0    	STS $06A7,ZH
005AC6  06A7
005AC7  9360    	STS $06A8,R22
005AC8  06A8
005AC9  9370    	STS $06A9,R23
005ACA  06A9
005ACB  EAE8    	LDI ZL,$A8
005ACC  E5F3    	LDI ZH,$53
005ACD  E060    	LDI R22,$00
005ACE  93E0    	STS $06AA,ZL
005ACF  06AA
005AD0  93F0    	STS $06AB,ZH
005AD1  06AB
005AD2  9360    	STS $06AC,R22
005AD3  06AC
005AD4  9370    	STS $06AD,R23
005AD5  06AD
005AD6  EBE8    	LDI ZL,$B8
005AD7  E5F3    	LDI ZH,$53
005AD8  E060    	LDI R22,$00
005AD9  93E0    	STS $06AE,ZL
005ADA  06AE
005ADB  93F0    	STS $06AF,ZH
005ADC  06AF
005ADD  9360    	STS $06B0,R22
005ADE  06B0
005ADF  9370    	STS $06B1,R23
005AE0  06B1
005AE1  ECE2    	LDI ZL,$C2
005AE2  E5F3    	LDI ZH,$53
005AE3  E060    	LDI R22,$00
005AE4  93E0    	STS $06B2,ZL
005AE5  06B2
005AE6  93F0    	STS $06B3,ZH
005AE7  06B3
005AE8  9360    	STS $06B4,R22
005AE9  06B4
005AEA  9370    	STS $06B5,R23
005AEB  06B5
005AEC  ECEC    	LDI ZL,$CC
005AED  E5F3    	LDI ZH,$53
005AEE  E060    	LDI R22,$00
005AEF  93E0    	STS $06B6,ZL
005AF0  06B6
005AF1  93F0    	STS $06B7,ZH
005AF2  06B7
005AF3  9360    	STS $06B8,R22
005AF4  06B8
005AF5  9370    	STS $06B9,R23
005AF6  06B9
005AF7  E0E5    	LDI ZL,$05
005AF8  E0F0    	LDI ZH,$00
005AF9  93E0    	STS $06C2,ZL
005AFA  06C2
005AFB  93F0    	STS $06C3,ZH
005AFC  06C3
005AFD  E1E0    	LDI ZL,$10
005AFE  E0F0    	LDI ZH,$00
005AFF  93E0    	STS $06C4,ZL
005B00  06C4
005B01  93F0    	STS $06C5,ZH
005B02  06C5
005B03  C36E    	RJMP L1181
005B04  30E3    L1183:	CPI ZL,$03
005B05  F011    	BREQ L1184
005B06  940C    	JMP L1185
005B07  5B71
005B08  E0EB    L1184:	LDI ZL,$0B
005B09  93EA    	ST -Y,ZL
005B0A  940E    	CALL L992
005B0B  42E5
005B0C  E0E0    	LDI ZL,$00
005B0D  E5F0    	LDI ZH,$50
005B0E  E060    	LDI R22,$00
005B0F  93E0    	STS $069A,ZL
005B10  069A
005B11  93F0    	STS $069B,ZH
005B12  069B
005B13  9360    	STS $069C,R22
005B14  069C
005B15  9370    	STS $069D,R23
005B16  069D
005B17  EAE0    	LDI ZL,$A0
005B18  E5F0    	LDI ZH,$50
005B19  E060    	LDI R22,$00
005B1A  93E0    	STS $069E,ZL
005B1B  069E
005B1C  93F0    	STS $069F,ZH
005B1D  069F
005B1E  9360    	STS $06A0,R22
005B1F  06A0
005B20  9370    	STS $06A1,R23
005B21  06A1
005B22  EFE8    	LDI ZL,$F8
005B23  E4FE    	LDI ZH,$4E
005B24  E060    	LDI R22,$00
005B25  93E0    	STS $06A2,ZL
005B26  06A2
005B27  93F0    	STS $06A3,ZH
005B28  06A3
005B29  9360    	STS $06A4,R22
005B2A  06A4
005B2B  9370    	STS $06A5,R23
005B2C  06A5
005B2D  E0E8    	LDI ZL,$08
005B2E  E4FF    	LDI ZH,$4F
005B2F  E060    	LDI R22,$00
005B30  93E0    	STS $06A6,ZL
005B31  06A6
005B32  93F0    	STS $06A7,ZH
005B33  06A7
005B34  9360    	STS $06A8,R22
005B35  06A8
005B36  9370    	STS $06A9,R23
005B37  06A9
005B38  E1E8    	LDI ZL,$18
005B39  E4FF    	LDI ZH,$4F
005B3A  E060    	LDI R22,$00
005B3B  93E0    	STS $06AA,ZL
005B3C  06AA
005B3D  93F0    	STS $06AB,ZH
005B3E  06AB
005B3F  9360    	STS $06AC,R22
005B40  06AC
005B41  9370    	STS $06AD,R23
005B42  06AD
005B43  E2E8    	LDI ZL,$28
005B44  E4FF    	LDI ZH,$4F
005B45  E060    	LDI R22,$00
005B46  93E0    	STS $06AE,ZL
005B47  06AE
005B48  93F0    	STS $06AF,ZH
005B49  06AF
005B4A  9360    	STS $06B0,R22
005B4B  06B0
005B4C  9370    	STS $06B1,R23
005B4D  06B1
005B4E  E3EC    	LDI ZL,$3C
005B4F  E4FF    	LDI ZH,$4F
005B50  E060    	LDI R22,$00
005B51  93E0    	STS $06B2,ZL
005B52  06B2
005B53  93F0    	STS $06B3,ZH
005B54  06B3
005B55  9360    	STS $06B4,R22
005B56  06B4
005B57  9370    	STS $06B5,R23
005B58  06B5
005B59  E5E0    	LDI ZL,$50
005B5A  E4FF    	LDI ZH,$4F
005B5B  E060    	LDI R22,$00
005B5C  93E0    	STS $06B6,ZL
005B5D  06B6
005B5E  93F0    	STS $06B7,ZH
005B5F  06B7
005B60  9360    	STS $06B8,R22
005B61  06B8
005B62  9370    	STS $06B9,R23
005B63  06B9
005B64  E0EA    	LDI ZL,$0A
005B65  E0F0    	LDI ZH,$00
005B66  93E0    	STS $06C2,ZL
005B67  06C2
005B68  93F0    	STS $06C3,ZH
005B69  06C3
005B6A  E1E0    	LDI ZL,$10
005B6B  E0F0    	LDI ZH,$00
005B6C  93E0    	STS $06C4,ZL
005B6D  06C4
005B6E  93F0    	STS $06C5,ZH
005B6F  06C5
005B70  C301    	RJMP L1181
005B71  30E4    L1185:	CPI ZL,$04
005B72  F011    	BREQ L1186
005B73  940C    	JMP L1187
005B74  5BDE
005B75  E0EA    L1186:	LDI ZL,$0A
005B76  93EA    	ST -Y,ZL
005B77  940E    	CALL L992
005B78  42E5
005B79  EFE8    	LDI ZL,$F8
005B7A  E3FF    	LDI ZH,$3F
005B7B  E060    	LDI R22,$00
005B7C  93E0    	STS $069A,ZL
005B7D  069A
005B7E  93F0    	STS $069B,ZH
005B7F  069B
005B80  9360    	STS $069C,R22
005B81  069C
005B82  9370    	STS $069D,R23
005B83  069D
005B84  E2E8    	LDI ZL,$28
005B85  E4F3    	LDI ZH,$43
005B86  E060    	LDI R22,$00
005B87  93E0    	STS $069E,ZL
005B88  069E
005B89  93F0    	STS $069F,ZH
005B8A  069F
005B8B  9360    	STS $06A0,R22
005B8C  06A0
005B8D  9370    	STS $06A1,R23
005B8E  06A1
005B8F  EBEC    	LDI ZL,$BC
005B90  E3FB    	LDI ZH,$3B
005B91  E060    	LDI R22,$00
005B92  93E0    	STS $06A2,ZL
005B93  06A2
005B94  93F0    	STS $06A3,ZH
005B95  06A3
005B96  9360    	STS $06A4,R22
005B97  06A4
005B98  9370    	STS $06A5,R23
005B99  06A5
005B9A  ECEC    	LDI ZL,$CC
005B9B  E3FB    	LDI ZH,$3B
005B9C  E060    	LDI R22,$00
005B9D  93E0    	STS $06A6,ZL
005B9E  06A6
005B9F  93F0    	STS $06A7,ZH
005BA0  06A7
005BA1  9360    	STS $06A8,R22
005BA2  06A8
005BA3  9370    	STS $06A9,R23
005BA4  06A9
005BA5  EDEC    	LDI ZL,$DC
005BA6  E3FB    	LDI ZH,$3B
005BA7  E060    	LDI R22,$00
005BA8  93E0    	STS $06AA,ZL
005BA9  06AA
005BAA  93F0    	STS $06AB,ZH
005BAB  06AB
005BAC  9360    	STS $06AC,R22
005BAD  06AC
005BAE  9370    	STS $06AD,R23
005BAF  06AD
005BB0  EEEC    	LDI ZL,$EC
005BB1  E3FB    	LDI ZH,$3B
005BB2  E060    	LDI R22,$00
005BB3  93E0    	STS $06AE,ZL
005BB4  06AE
005BB5  93F0    	STS $06AF,ZH
005BB6  06AF
005BB7  9360    	STS $06B0,R22
005BB8  06B0
005BB9  9370    	STS $06B1,R23
005BBA  06B1
005BBB  E5E2    	LDI ZL,$52
005BBC  E3FC    	LDI ZH,$3C
005BBD  E060    	LDI R22,$00
005BBE  93E0    	STS $06B2,ZL
005BBF  06B2
005BC0  93F0    	STS $06B3,ZH
005BC1  06B3
005BC2  9360    	STS $06B4,R22
005BC3  06B4
005BC4  9370    	STS $06B5,R23
005BC5  06B5
005BC6  EBE8    	LDI ZL,$B8
005BC7  E3FC    	LDI ZH,$3C
005BC8  E060    	LDI R22,$00
005BC9  93E0    	STS $06B6,ZL
005BCA  06B6
005BCB  93F0    	STS $06B7,ZH
005BCC  06B7
005BCD  9360    	STS $06B8,R22
005BCE  06B8
005BCF  9370    	STS $06B9,R23
005BD0  06B9
005BD1  E3E3    	LDI ZL,$33
005BD2  E0F0    	LDI ZH,$00
005BD3  93E0    	STS $06C2,ZL
005BD4  06C2
005BD5  93F0    	STS $06C3,ZH
005BD6  06C3
005BD7  E1E0    	LDI ZL,$10
005BD8  E0F0    	LDI ZH,$00
005BD9  93E0    	STS $06C4,ZL
005BDA  06C4
005BDB  93F0    	STS $06C5,ZH
005BDC  06C5
005BDD  C294    	RJMP L1181
005BDE  30E5    L1187:	CPI ZL,$05
005BDF  F011    	BREQ L1188
005BE0  940C    	JMP L1189
005BE1  5C4B
005BE2  E0EB    L1188:	LDI ZL,$0B
005BE3  93EA    	ST -Y,ZL
005BE4  940E    	CALL L992
005BE5  42E5
005BE6  E4E8    	LDI ZL,$48
005BE7  E5F2    	LDI ZH,$52
005BE8  E060    	LDI R22,$00
005BE9  93E0    	STS $069A,ZL
005BEA  069A
005BEB  93F0    	STS $069B,ZH
005BEC  069B
005BED  9360    	STS $069C,R22
005BEE  069C
005BEF  9370    	STS $069D,R23
005BF0  069D
005BF1  EEE8    	LDI ZL,$E8
005BF2  E5F2    	LDI ZH,$52
005BF3  E060    	LDI R22,$00
005BF4  93E0    	STS $069E,ZL
005BF5  069E
005BF6  93F0    	STS $069F,ZH
005BF7  069F
005BF8  9360    	STS $06A0,R22
005BF9  06A0
005BFA  9370    	STS $06A1,R23
005BFB  06A1
005BFC  E4E0    	LDI ZL,$40
005BFD  E5F1    	LDI ZH,$51
005BFE  E060    	LDI R22,$00
005BFF  93E0    	STS $06A2,ZL
005C00  06A2
005C01  93F0    	STS $06A3,ZH
005C02  06A3
005C03  9360    	STS $06A4,R22
005C04  06A4
005C05  9370    	STS $06A5,R23
005C06  06A5
005C07  E5E0    	LDI ZL,$50
005C08  E5F1    	LDI ZH,$51
005C09  E060    	LDI R22,$00
005C0A  93E0    	STS $06A6,ZL
005C0B  06A6
005C0C  93F0    	STS $06A7,ZH
005C0D  06A7
005C0E  9360    	STS $06A8,R22
005C0F  06A8
005C10  9370    	STS $06A9,R23
005C11  06A9
005C12  E6E0    	LDI ZL,$60
005C13  E5F1    	LDI ZH,$51
005C14  E060    	LDI R22,$00
005C15  93E0    	STS $06AA,ZL
005C16  06AA
005C17  93F0    	STS $06AB,ZH
005C18  06AB
005C19  9360    	STS $06AC,R22
005C1A  06AC
005C1B  9370    	STS $06AD,R23
005C1C  06AD
005C1D  E7E0    	LDI ZL,$70
005C1E  E5F1    	LDI ZH,$51
005C1F  E060    	LDI R22,$00
005C20  93E0    	STS $06AE,ZL
005C21  06AE
005C22  93F0    	STS $06AF,ZH
005C23  06AF
005C24  9360    	STS $06B0,R22
005C25  06B0
005C26  9370    	STS $06B1,R23
005C27  06B1
005C28  E8E4    	LDI ZL,$84
005C29  E5F1    	LDI ZH,$51
005C2A  E060    	LDI R22,$00
005C2B  93E0    	STS $06B2,ZL
005C2C  06B2
005C2D  93F0    	STS $06B3,ZH
005C2E  06B3
005C2F  9360    	STS $06B4,R22
005C30  06B4
005C31  9370    	STS $06B5,R23
005C32  06B5
005C33  E9E8    	LDI ZL,$98
005C34  E5F1    	LDI ZH,$51
005C35  E060    	LDI R22,$00
005C36  93E0    	STS $06B6,ZL
005C37  06B6
005C38  93F0    	STS $06B7,ZH
005C39  06B7
005C3A  9360    	STS $06B8,R22
005C3B  06B8
005C3C  9370    	STS $06B9,R23
005C3D  06B9
005C3E  E0EA    	LDI ZL,$0A
005C3F  E0F0    	LDI ZH,$00
005C40  93E0    	STS $06C2,ZL
005C41  06C2
005C42  93F0    	STS $06C3,ZH
005C43  06C3
005C44  E1E0    	LDI ZL,$10
005C45  E0F0    	LDI ZH,$00
005C46  93E0    	STS $06C4,ZL
005C47  06C4
005C48  93F0    	STS $06C5,ZH
005C49  06C5
005C4A  C227    	RJMP L1181
005C4B  30E6    L1189:	CPI ZL,$06
005C4C  F011    	BREQ L1190
005C4D  940C    	JMP L1191
005C4E  5CB8
005C4F  E0EB    L1190:	LDI ZL,$0B
005C50  93EA    	ST -Y,ZL
005C51  940E    	CALL L992
005C52  42E5
005C53  E2E8    	LDI ZL,$28
005C54  E4F8    	LDI ZH,$48
005C55  E060    	LDI R22,$00
005C56  93E0    	STS $069A,ZL
005C57  069A
005C58  93F0    	STS $069B,ZH
005C59  069B
005C5A  9360    	STS $069C,R22
005C5B  069C
005C5C  9370    	STS $069D,R23
005C5D  069D
005C5E  E6E8    	LDI ZL,$68
005C5F  E4F9    	LDI ZH,$49
005C60  E060    	LDI R22,$00
005C61  93E0    	STS $069E,ZL
005C62  069E
005C63  93F0    	STS $069F,ZH
005C64  069F
005C65  9360    	STS $06A0,R22
005C66  06A0
005C67  9370    	STS $06A1,R23
005C68  06A1
005C69  E5E8    	LDI ZL,$58
005C6A  E4F6    	LDI ZH,$46
005C6B  E060    	LDI R22,$00
005C6C  93E0    	STS $06A2,ZL
005C6D  06A2
005C6E  93F0    	STS $06A3,ZH
005C6F  06A3
005C70  9360    	STS $06A4,R22
005C71  06A4
005C72  9370    	STS $06A5,R23
005C73  06A5
005C74  E6E8    	LDI ZL,$68
005C75  E4F6    	LDI ZH,$46
005C76  E060    	LDI R22,$00
005C77  93E0    	STS $06A6,ZL
005C78  06A6
005C79  93F0    	STS $06A7,ZH
005C7A  06A7
005C7B  9360    	STS $06A8,R22
005C7C  06A8
005C7D  9370    	STS $06A9,R23
005C7E  06A9
005C7F  E7E8    	LDI ZL,$78
005C80  E4F6    	LDI ZH,$46
005C81  E060    	LDI R22,$00
005C82  93E0    	STS $06AA,ZL
005C83  06AA
005C84  93F0    	STS $06AB,ZH
005C85  06AB
005C86  9360    	STS $06AC,R22
005C87  06AC
005C88  9370    	STS $06AD,R23
005C89  06AD
005C8A  E8E8    	LDI ZL,$88
005C8B  E4F6    	LDI ZH,$46
005C8C  E060    	LDI R22,$00
005C8D  93E0    	STS $06AE,ZL
005C8E  06AE
005C8F  93F0    	STS $06AF,ZH
005C90  06AF
005C91  9360    	STS $06B0,R22
005C92  06B0
005C93  9370    	STS $06B1,R23
005C94  06B1
005C95  EBE0    	LDI ZL,$B0
005C96  E4F6    	LDI ZH,$46
005C97  E060    	LDI R22,$00
005C98  93E0    	STS $06B2,ZL
005C99  06B2
005C9A  93F0    	STS $06B3,ZH
005C9B  06B3
005C9C  9360    	STS $06B4,R22
005C9D  06B4
005C9E  9370    	STS $06B5,R23
005C9F  06B5
005CA0  EDE8    	LDI ZL,$D8
005CA1  E4F6    	LDI ZH,$46
005CA2  E060    	LDI R22,$00
005CA3  93E0    	STS $06B6,ZL
005CA4  06B6
005CA5  93F0    	STS $06B7,ZH
005CA6  06B7
005CA7  9360    	STS $06B8,R22
005CA8  06B8
005CA9  9370    	STS $06B9,R23
005CAA  06B9
005CAB  E1E4    	LDI ZL,$14
005CAC  E0F0    	LDI ZH,$00
005CAD  93E0    	STS $06C2,ZL
005CAE  06C2
005CAF  93F0    	STS $06C3,ZH
005CB0  06C3
005CB1  E1E0    	LDI ZL,$10
005CB2  E0F0    	LDI ZH,$00
005CB3  93E0    	STS $06C4,ZL
005CB4  06C4
005CB5  93F0    	STS $06C5,ZH
005CB6  06C5
005CB7  C1BA    	RJMP L1181
005CB8  30E8    L1191:	CPI ZL,$08
005CB9  F011    	BREQ L1192
005CBA  940C    	JMP L1193
005CBB  5D25
005CBC  E0EB    L1192:	LDI ZL,$0B
005CBD  93EA    	ST -Y,ZL
005CBE  940E    	CALL L992
005CBF  42E5
005CC0  E7E8    	LDI ZL,$78
005CC1  E4FC    	LDI ZH,$4C
005CC2  E060    	LDI R22,$00
005CC3  93E0    	STS $069A,ZL
005CC4  069A
005CC5  93F0    	STS $069B,ZH
005CC6  069B
005CC7  9360    	STS $069C,R22
005CC8  069C
005CC9  9370    	STS $069D,R23
005CCA  069D
005CCB  EBE8    	LDI ZL,$B8
005CCC  E4FD    	LDI ZH,$4D
005CCD  E060    	LDI R22,$00
005CCE  93E0    	STS $069E,ZL
005CCF  069E
005CD0  93F0    	STS $069F,ZH
005CD1  069F
005CD2  9360    	STS $06A0,R22
005CD3  06A0
005CD4  9370    	STS $06A1,R23
005CD5  06A1
005CD6  EAE8    	LDI ZL,$A8
005CD7  E4FA    	LDI ZH,$4A
005CD8  E060    	LDI R22,$00
005CD9  93E0    	STS $06A2,ZL
005CDA  06A2
005CDB  93F0    	STS $06A3,ZH
005CDC  06A3
005CDD  9360    	STS $06A4,R22
005CDE  06A4
005CDF  9370    	STS $06A5,R23
005CE0  06A5
005CE1  EBE8    	LDI ZL,$B8
005CE2  E4FA    	LDI ZH,$4A
005CE3  E060    	LDI R22,$00
005CE4  93E0    	STS $06A6,ZL
005CE5  06A6
005CE6  93F0    	STS $06A7,ZH
005CE7  06A7
005CE8  9360    	STS $06A8,R22
005CE9  06A8
005CEA  9370    	STS $06A9,R23
005CEB  06A9
005CEC  ECE8    	LDI ZL,$C8
005CED  E4FA    	LDI ZH,$4A
005CEE  E060    	LDI R22,$00
005CEF  93E0    	STS $06AA,ZL
005CF0  06AA
005CF1  93F0    	STS $06AB,ZH
005CF2  06AB
005CF3  9360    	STS $06AC,R22
005CF4  06AC
005CF5  9370    	STS $06AD,R23
005CF6  06AD
005CF7  EDE8    	LDI ZL,$D8
005CF8  E4FA    	LDI ZH,$4A
005CF9  E060    	LDI R22,$00
005CFA  93E0    	STS $06AE,ZL
005CFB  06AE
005CFC  93F0    	STS $06AF,ZH
005CFD  06AF
005CFE  9360    	STS $06B0,R22
005CFF  06B0
005D00  9370    	STS $06B1,R23
005D01  06B1
005D02  E0E0    	LDI ZL,$00
005D03  E4FB    	LDI ZH,$4B
005D04  E060    	LDI R22,$00
005D05  93E0    	STS $06B2,ZL
005D06  06B2
005D07  93F0    	STS $06B3,ZH
005D08  06B3
005D09  9360    	STS $06B4,R22
005D0A  06B4
005D0B  9370    	STS $06B5,R23
005D0C  06B5
005D0D  E2E8    	LDI ZL,$28
005D0E  E4FB    	LDI ZH,$4B
005D0F  E060    	LDI R22,$00
005D10  93E0    	STS $06B6,ZL
005D11  06B6
005D12  93F0    	STS $06B7,ZH
005D13  06B7
005D14  9360    	STS $06B8,R22
005D15  06B8
005D16  9370    	STS $06B9,R23
005D17  06B9
005D18  E1E4    	LDI ZL,$14
005D19  E0F0    	LDI ZH,$00
005D1A  93E0    	STS $06C2,ZL
005D1B  06C2
005D1C  93F0    	STS $06C3,ZH
005D1D  06C3
005D1E  E1E0    	LDI ZL,$10
005D1F  E0F0    	LDI ZH,$00
005D20  93E0    	STS $06C4,ZL
005D21  06C4
005D22  93F0    	STS $06C5,ZH
005D23  06C5
005D24  C14D    	RJMP L1181
005D25  30E9    L1193:	CPI ZL,$09
005D26  F011    	BREQ L1194
005D27  940C    	JMP L1195
005D28  5D92
005D29  E0EB    L1194:	LDI ZL,$0B
005D2A  93EA    	ST -Y,ZL
005D2B  940E    	CALL L992
005D2C  42E5
005D2D  EFE0    	LDI ZL,$F0
005D2E  E5FA    	LDI ZH,$5A
005D2F  E060    	LDI R22,$00
005D30  93E0    	STS $069A,ZL
005D31  069A
005D32  93F0    	STS $069B,ZH
005D33  069B
005D34  9360    	STS $069C,R22
005D35  069C
005D36  9370    	STS $069D,R23
005D37  069D
005D38  E3E0    	LDI ZL,$30
005D39  E5FB    	LDI ZH,$5B
005D3A  E060    	LDI R22,$00
005D3B  93E0    	STS $069E,ZL
005D3C  069E
005D3D  93F0    	STS $069F,ZH
005D3E  069F
005D3F  9360    	STS $06A0,R22
005D40  06A0
005D41  9370    	STS $06A1,R23
005D42  06A1
005D43  E6E0    	LDI ZL,$60
005D44  E5FA    	LDI ZH,$5A
005D45  E060    	LDI R22,$00
005D46  93E0    	STS $06A2,ZL
005D47  06A2
005D48  93F0    	STS $06A3,ZH
005D49  06A3
005D4A  9360    	STS $06A4,R22
005D4B  06A4
005D4C  9370    	STS $06A5,R23
005D4D  06A5
005D4E  E7E0    	LDI ZL,$70
005D4F  E5FA    	LDI ZH,$5A
005D50  E060    	LDI R22,$00
005D51  93E0    	STS $06A6,ZL
005D52  06A6
005D53  93F0    	STS $06A7,ZH
005D54  06A7
005D55  9360    	STS $06A8,R22
005D56  06A8
005D57  9370    	STS $06A9,R23
005D58  06A9
005D59  E8E0    	LDI ZL,$80
005D5A  E5FA    	LDI ZH,$5A
005D5B  E060    	LDI R22,$00
005D5C  93E0    	STS $06AA,ZL
005D5D  06AA
005D5E  93F0    	STS $06AB,ZH
005D5F  06AB
005D60  9360    	STS $06AC,R22
005D61  06AC
005D62  9370    	STS $06AD,R23
005D63  06AD
005D64  E9E0    	LDI ZL,$90
005D65  E5FA    	LDI ZH,$5A
005D66  E060    	LDI R22,$00
005D67  93E0    	STS $06AE,ZL
005D68  06AE
005D69  93F0    	STS $06AF,ZH
005D6A  06AF
005D6B  9360    	STS $06B0,R22
005D6C  06B0
005D6D  9370    	STS $06B1,R23
005D6E  06B1
005D6F  E9E8    	LDI ZL,$98
005D70  E5FA    	LDI ZH,$5A
005D71  E060    	LDI R22,$00
005D72  93E0    	STS $06B2,ZL
005D73  06B2
005D74  93F0    	STS $06B3,ZH
005D75  06B3
005D76  9360    	STS $06B4,R22
005D77  06B4
005D78  9370    	STS $06B5,R23
005D79  06B5
005D7A  EAE0    	LDI ZL,$A0
005D7B  E5FA    	LDI ZH,$5A
005D7C  E060    	LDI R22,$00
005D7D  93E0    	STS $06B6,ZL
005D7E  06B6
005D7F  93F0    	STS $06B7,ZH
005D80  06B7
005D81  9360    	STS $06B8,R22
005D82  06B8
005D83  9370    	STS $06B9,R23
005D84  06B9
005D85  E0E4    	LDI ZL,$04
005D86  E0F0    	LDI ZH,$00
005D87  93E0    	STS $06C2,ZL
005D88  06C2
005D89  93F0    	STS $06C3,ZH
005D8A  06C3
005D8B  E1E0    	LDI ZL,$10
005D8C  E0F0    	LDI ZH,$00
005D8D  93E0    	STS $06C4,ZL
005D8E  06C4
005D8F  93F0    	STS $06C5,ZH
005D90  06C5
005D91  C0E0    	RJMP L1181
005D92  30EA    L1195:	CPI ZL,$0A
005D93  F011    	BREQ L1196
005D94  940C    	JMP L1197
005D95  5DFF
005D96  E0EB    L1196:	LDI ZL,$0B
005D97  93EA    	ST -Y,ZL
005D98  940E    	CALL L992
005D99  42E5
005D9A  EEE0    	LDI ZL,$E0
005D9B  E5F7    	LDI ZH,$57
005D9C  E060    	LDI R22,$00
005D9D  93E0    	STS $069A,ZL
005D9E  069A
005D9F  93F0    	STS $069B,ZH
005DA0  069B
005DA1  9360    	STS $069C,R22
005DA2  069C
005DA3  9370    	STS $069D,R23
005DA4  069D
005DA5  E2E0    	LDI ZL,$20
005DA6  E5F9    	LDI ZH,$59
005DA7  E060    	LDI R22,$00
005DA8  93E0    	STS $069E,ZL
005DA9  069E
005DAA  93F0    	STS $069F,ZH
005DAB  069F
005DAC  9360    	STS $06A0,R22
005DAD  06A0
005DAE  9370    	STS $06A1,R23
005DAF  06A1
005DB0  E1E0    	LDI ZL,$10
005DB1  E5F6    	LDI ZH,$56
005DB2  E060    	LDI R22,$00
005DB3  93E0    	STS $06A2,ZL
005DB4  06A2
005DB5  93F0    	STS $06A3,ZH
005DB6  06A3
005DB7  9360    	STS $06A4,R22
005DB8  06A4
005DB9  9370    	STS $06A5,R23
005DBA  06A5
005DBB  E2E0    	LDI ZL,$20
005DBC  E5F6    	LDI ZH,$56
005DBD  E060    	LDI R22,$00
005DBE  93E0    	STS $06A6,ZL
005DBF  06A6
005DC0  93F0    	STS $06A7,ZH
005DC1  06A7
005DC2  9360    	STS $06A8,R22
005DC3  06A8
005DC4  9370    	STS $06A9,R23
005DC5  06A9
005DC6  E3E0    	LDI ZL,$30
005DC7  E5F6    	LDI ZH,$56
005DC8  E060    	LDI R22,$00
005DC9  93E0    	STS $06AA,ZL
005DCA  06AA
005DCB  93F0    	STS $06AB,ZH
005DCC  06AB
005DCD  9360    	STS $06AC,R22
005DCE  06AC
005DCF  9370    	STS $06AD,R23
005DD0  06AD
005DD1  E4E0    	LDI ZL,$40
005DD2  E5F6    	LDI ZH,$56
005DD3  E060    	LDI R22,$00
005DD4  93E0    	STS $06AE,ZL
005DD5  06AE
005DD6  93F0    	STS $06AF,ZH
005DD7  06AF
005DD8  9360    	STS $06B0,R22
005DD9  06B0
005DDA  9370    	STS $06B1,R23
005DDB  06B1
005DDC  E6E8    	LDI ZL,$68
005DDD  E5F6    	LDI ZH,$56
005DDE  E060    	LDI R22,$00
005DDF  93E0    	STS $06B2,ZL
005DE0  06B2
005DE1  93F0    	STS $06B3,ZH
005DE2  06B3
005DE3  9360    	STS $06B4,R22
005DE4  06B4
005DE5  9370    	STS $06B5,R23
005DE6  06B5
005DE7  E9E0    	LDI ZL,$90
005DE8  E5F6    	LDI ZH,$56
005DE9  E060    	LDI R22,$00
005DEA  93E0    	STS $06B6,ZL
005DEB  06B6
005DEC  93F0    	STS $06B7,ZH
005DED  06B7
005DEE  9360    	STS $06B8,R22
005DEF  06B8
005DF0  9370    	STS $06B9,R23
005DF1  06B9
005DF2  E1E4    	LDI ZL,$14
005DF3  E0F0    	LDI ZH,$00
005DF4  93E0    	STS $06C2,ZL
005DF5  06C2
005DF6  93F0    	STS $06C3,ZH
005DF7  06C3
005DF8  E1E0    	LDI ZL,$10
005DF9  E0F0    	LDI ZH,$00
005DFA  93E0    	STS $06C4,ZL
005DFB  06C4
005DFC  93F0    	STS $06C5,ZH
005DFD  06C5
005DFE  C073    	RJMP L1181
005DFF  30EB    L1197:	CPI ZL,$0B
005E00  F011    	BREQ L1198
005E01  940C    	JMP L1199
005E02  5E6C
005E03  E0EB    L1198:	LDI ZL,$0B
005E04  93EA    	ST -Y,ZL
005E05  940E    	CALL L992
005E06  42E5
005E07  E0E0    	LDI ZL,$00
005E08  E5FC    	LDI ZH,$5C
005E09  E060    	LDI R22,$00
005E0A  93E0    	STS $069A,ZL
005E0B  069A
005E0C  93F0    	STS $069B,ZH
005E0D  069B
005E0E  9360    	STS $069C,R22
005E0F  069C
005E10  9370    	STS $069D,R23
005E11  069D
005E12  E4E0    	LDI ZL,$40
005E13  E5FC    	LDI ZH,$5C
005E14  E060    	LDI R22,$00
005E15  93E0    	STS $069E,ZL
005E16  069E
005E17  93F0    	STS $069F,ZH
005E18  069F
005E19  9360    	STS $06A0,R22
005E1A  06A0
005E1B  9370    	STS $06A1,R23
005E1C  06A1
005E1D  E7E0    	LDI ZL,$70
005E1E  E5FB    	LDI ZH,$5B
005E1F  E060    	LDI R22,$00
005E20  93E0    	STS $06A2,ZL
005E21  06A2
005E22  93F0    	STS $06A3,ZH
005E23  06A3
005E24  9360    	STS $06A4,R22
005E25  06A4
005E26  9370    	STS $06A5,R23
005E27  06A5
005E28  E8E0    	LDI ZL,$80
005E29  E5FB    	LDI ZH,$5B
005E2A  E060    	LDI R22,$00
005E2B  93E0    	STS $06A6,ZL
005E2C  06A6
005E2D  93F0    	STS $06A7,ZH
005E2E  06A7
005E2F  9360    	STS $06A8,R22
005E30  06A8
005E31  9370    	STS $06A9,R23
005E32  06A9
005E33  E9E0    	LDI ZL,$90
005E34  E5FB    	LDI ZH,$5B
005E35  E060    	LDI R22,$00
005E36  93E0    	STS $06AA,ZL
005E37  06AA
005E38  93F0    	STS $06AB,ZH
005E39  06AB
005E3A  9360    	STS $06AC,R22
005E3B  06AC
005E3C  9370    	STS $06AD,R23
005E3D  06AD
005E3E  EAE0    	LDI ZL,$A0
005E3F  E5FB    	LDI ZH,$5B
005E40  E060    	LDI R22,$00
005E41  93E0    	STS $06AE,ZL
005E42  06AE
005E43  93F0    	STS $06AF,ZH
005E44  06AF
005E45  9360    	STS $06B0,R22
005E46  06B0
005E47  9370    	STS $06B1,R23
005E48  06B1
005E49  EAE8    	LDI ZL,$A8
005E4A  E5FB    	LDI ZH,$5B
005E4B  E060    	LDI R22,$00
005E4C  93E0    	STS $06B2,ZL
005E4D  06B2
005E4E  93F0    	STS $06B3,ZH
005E4F  06B3
005E50  9360    	STS $06B4,R22
005E51  06B4
005E52  9370    	STS $06B5,R23
005E53  06B5
005E54  EBE0    	LDI ZL,$B0
005E55  E5FB    	LDI ZH,$5B
005E56  E060    	LDI R22,$00
005E57  93E0    	STS $06B6,ZL
005E58  06B6
005E59  93F0    	STS $06B7,ZH
005E5A  06B7
005E5B  9360    	STS $06B8,R22
005E5C  06B8
005E5D  9370    	STS $06B9,R23
005E5E  06B9
005E5F  E0E4    	LDI ZL,$04
005E60  E0F0    	LDI ZH,$00
005E61  93E0    	STS $06C2,ZL
005E62  06C2
005E63  93F0    	STS $06C3,ZH
005E64  06C3
005E65  E1E0    	LDI ZL,$10
005E66  E0F0    	LDI ZH,$00
005E67  93E0    	STS $06C4,ZL
005E68  06C4
005E69  93F0    	STS $06C5,ZH
005E6A  06C5
005E6B  C006    	RJMP L1181
005E6C  81E8    L1199:	LD ZL,Y
005E6D  50EB    	SUBI ZL,$0B
005E6E  93EA    	ST -Y,ZL
005E6F  940E    	CALL L1151
005E70  4DB8
005E71  C011    	RJMP L1176
005E72  C00C    L1181:	RJMP L1152
005E73  E0E4    L1178:	LDI ZL,$04
005E74  15E4    	CP ZL,R4
005E75  F449    	BRNE L1152
005E76  81A8    	LD XL,Y
005E77  30AC    	CPI XL,$0C
005E78  F028    	BRCS L1200
005E79  81E8    	LD ZL,Y
005E7A  50EB    	SUBI ZL,$0B
005E7B  93EA    	ST -Y,ZL
005E7C  940E    	CALL L1151
005E7D  4DB8
005E7E  C004    L1200:	RJMP L1176
005E7F  9240    L1152:	STS $06C1,R4
005E80  06C1
005E81  940E    	CALL L1201
005E82  4DF5
005E83  9621    L1176:	ADIW YH:YL,1
005E84  9508    	RET

####################


###################

005E85  940E    L853:	CALL L594
005E86  6E29
005E87  B3E9    	IN ZL,PINA
005E88  70E3    	ANDI ZL,$03
005E89  2F2E    	MOV R18,ZL
005E8A  FC24    	SBRC R2,4
005E8B  C089    	RJMP L1202
005E8C  3022    	CPI R18,$02
005E8D  F4B1    	BRNE L1203
005E8E  E0E1    	LDI ZL,$01
005E8F  E0F0    	LDI ZH,$00
005E90  0EBE    	ADD R11,ZL
005E91  1ECF    	ADC R12,ZH
005E92  24DD    	CLR R13
005E93  24EE    	CLR R14
005E94  E0E0    	LDI ZL,$00
005E95  93E0    	STS $0500,ZL
005E96  0500
005E97  93E0    	STS $0501,ZL
005E98  0501
005E99  EBE8    	LDI ZL,$B8
005E9A  E0FB    	LDI ZH,$0B
005E9B  15EB    	CP ZL,R11
005E9C  05FC    	CPC ZH,R12
005E9D  F428    	BRCC L1204
005E9E  E0E4    	LDI ZL,$04
005E9F  93E0    	STS $0502,ZL
005EA0  0502
005EA1  24BB    	CLR R11
005EA2  24CC    	CLR R12
005EA3  C071    L1204:	RJMP L1202
005EA4  3021    L1203:	CPI R18,$01
005EA5  F4B1    	BRNE L1205
005EA6  24BB    	CLR R11
005EA7  24CC    	CLR R12
005EA8  E0E1    	LDI ZL,$01
005EA9  E0F0    	LDI ZH,$00
005EAA  0EDE    	ADD R13,ZL
005EAB  1EEF    	ADC R14,ZH
005EAC  E0E0    	LDI ZL,$00
005EAD  93E0    	STS $0500,ZL
005EAE  0500
005EAF  93E0    	STS $0501,ZL
005EB0  0501
005EB1  EBE8    	LDI ZL,$B8
005EB2  E0FB    	LDI ZH,$0B
005EB3  15ED    	CP ZL,R13
005EB4  05FE    	CPC ZH,R14
005EB5  F428    	BRCC L1206
005EB6  E0E5    	LDI ZL,$05
005EB7  93E0    	STS $0502,ZL
005EB8  0502
005EB9  24DD    	CLR R13
005EBA  24EE    	CLR R14
005EBB  C059    L1206:	RJMP L1202
005EBC  3020    L1205:	CPI R18,$00
005EBD  F501    	BRNE L1207
005EBE  24BB    	CLR R11
005EBF  24CC    	CLR R12
005EC0  24DD    	CLR R13
005EC1  24EE    	CLR R14
005EC2  91E0    	LDS ZL,$0500
005EC3  0500
005EC4  91F0    	LDS ZH,$0501
005EC5  0501
005EC6  9631    	ADIW ZH:ZL,1
005EC7  93E0    	STS $0500,ZL
005EC8  0500
005EC9  93F0    	STS $0501,ZH
005ECA  0501
005ECB  91A0    	LDS XL,$0500
005ECC  0500
005ECD  91B0    	LDS XH,$0501
005ECE  0501
005ECF  3DA1    	CPI XL,$D1
005ED0  E0E7    	LDI ZL,$07
005ED1  07BE    	CPC XH,ZL
005ED2  F050    	BRCS L1208
005ED3  FC31    	SBRC R3,1
005ED4  C008    	RJMP L1208
005ED5  E0E6    	LDI ZL,$06
005ED6  93E0    	STS $0502,ZL
005ED7  0502
005ED8  E0E0    	LDI ZL,$00
005ED9  93E0    	STS $0500,ZL
005EDA  0500
005EDB  93E0    	STS $0501,ZL
005EDC  0501
005EDD  C037    L1208:	RJMP L1202
005EDE  E2E8    L1207:	LDI ZL,$28
005EDF  E0F0    	LDI ZH,$00
005EE0  15EB    	CP ZL,R11
005EE1  05FC    	CPC ZH,R12
005EE2  F428    	BRCC L1209
005EE3  EFE4    	LDI ZL,$F4
005EE4  E0F1    	LDI ZH,$01
005EE5  16BE    	CP R11,ZL
005EE6  06CF    	CPC R12,ZH
005EE7  F008    	BRCS L1210
005EE8  C002    L1209:	RJMP L1211
005EE9  E0E1    L1210:	LDI ZL,$01
005EEA  C01D    	RJMP L1212
005EEB  E2E8    L1211:	LDI ZL,$28
005EEC  E0F0    	LDI ZH,$00
005EED  15ED    	CP ZL,R13
005EEE  05FE    	CPC ZH,R14
005EEF  F428    	BRCC L1213
005EF0  EFE4    	LDI ZL,$F4
005EF1  E0F1    	LDI ZH,$01
005EF2  16DE    	CP R13,ZL
005EF3  06EF    	CPC R14,ZH
005EF4  F008    	BRCS L1214
005EF5  C002    L1213:	RJMP L1215
005EF6  E0E2    L1214:	LDI ZL,$02
005EF7  C010    	RJMP L1212
005EF8  91A0    L1215:	LDS XL,$0500
005EF9  0500
005EFA  91B0    	LDS XH,$0501
005EFB  0501
005EFC  9799    	SBIW XH:XL,41
005EFD  F040    	BRCS L1216
005EFE  91A0    	LDS XL,$0500
005EFF  0500
005F00  91B0    	LDS XH,$0501
005F01  0501
005F02  3FA4    	CPI XL,$F4
005F03  E0E1    	LDI ZL,$01
005F04  07BE    	CPC XH,ZL
005F05  F008    	BRCS L1217
005F06  C003    L1216:	RJMP L1218
005F07  E0E3    L1217:	LDI ZL,$03
005F08  93E0    L1212:	STS $0502,ZL
005F09  0502
005F0A  24BB    L1218:	CLR R11
005F0B  24CC    	CLR R12
005F0C  24DD    	CLR R13
005F0D  24EE    	CLR R14
005F0E  E0E0    	LDI ZL,$00
005F0F  93E0    	STS $0500,ZL
005F10  0500
005F11  93E0    	STS $0501,ZL
005F12  0501
005F13  94E8    	BCLR 6
005F14  F831    	BLD R3,1
005F15  940E    L1202:	CALL L605
005F16  6E30
005F17  9623    	ADIW YH:YL,3
005F18  9508    	RET

####################


####################

005F19  931A    L854:	ST -Y,R17
005F1A  930A    	ST -Y,R16
005F1B  91A0    	LDS XL,$0502
005F1C  0502
005F1D  30A6    	CPI XL,$06
005F1E  F451    	BRNE L1219
005F1F  E0E0    	LDI ZL,$00
005F20  93E0    	STS $0502,ZL
005F21  0502
005F22  FE25    	SBRS R2,5
005F23  C004    	RJMP L1220
005F24  940E    	CALL L814
005F25  40D9
005F26  940E    	CALL L1221
005F27  3D4C
005F28  C08A    L1220:	RJMP L1222
005F29  91A0    L1219:	LDS XL,$0502
005F2A  0502
005F2B  30A4    	CPI XL,$04
005F2C  F011    	BREQ L1223
005F2D  940C    	JMP L1224
005F2E  5F9B
005F2F  E0E0    L1223:	LDI ZL,$00
005F30  93E0    	STS $0502,ZL
005F31  0502
005F32  E0E1    	LDI ZL,$01
005F33  15E4    	CP ZL,R4
005F34  F509    	BRNE L1225
005F35  E0E2    	LDI ZL,$02
005F36  2E4E    	MOV R4,ZL
005F37  E000    	LDI R16,$00
005F38  E010    	LDI R17,$00
005F39  3100    L1227:	CPI R16,$10
005F3A  E0E0    	LDI ZL,$00
005F3B  071E    	CPC R17,ZL
005F3C  F4C0    	BRCC L1226
005F3D  930A    	ST -Y,R16
005F3E  01F8    	MOVW R31:R30,R17:R16
005F3F  2766    	CLR R22
005F40  2777    	CLR R23
005F41  53E4    	SUBI ZL,$34
005F42  4FFF    	SBCI ZH,$FF
005F43  4F6F    	SBCI R22,$FF
005F44  BF6B    	OUT RAMPZ,R22
005F45  91E6    	ELPM ZL,Z
005F46  93EA    	ST -Y,ZL
005F47  01F8    	MOVW R31:R30,R17:R16
005F48  2766    	CLR R22
005F49  2777    	CLR R23
005F4A  54E4    	SUBI ZL,$44
005F4B  4FFF    	SBCI ZH,$FF
005F4C  4F6F    	SBCI R22,$FF
005F4D  BF6B    	OUT RAMPZ,R22
005F4E  91E6    	ELPM ZL,Z
005F4F  93EA    	ST -Y,ZL
005F50  940E    	CALL L804
005F51  40F2
005F52  5F0F    	SUBI R16,$FF
005F53  4F1F    	SBCI R17,$FF
005F54  CFE4    	RJMP L1227
005F55  C044    L1226:	RJMP L1228
005F56  E0E2    L1225:	LDI ZL,$02
005F57  15E4    	CP ZL,R4
005F58  F509    	BRNE L1229
005F59  E0E3    	LDI ZL,$03
005F5A  2E4E    	MOV R4,ZL
005F5B  E000    	LDI R16,$00
005F5C  E010    	LDI R17,$00
005F5D  3100    L1231:	CPI R16,$10
005F5E  E0E0    	LDI ZL,$00
005F5F  071E    	CPC R17,ZL
005F60  F4C0    	BRCC L1230
005F61  930A    	ST -Y,R16
005F62  01F8    	MOVW R31:R30,R17:R16
005F63  2766    	CLR R22
005F64  2777    	CLR R23
005F65  51E4    	SUBI ZL,$14
005F66  4FFF    	SBCI ZH,$FF
005F67  4F6F    	SBCI R22,$FF
005F68  BF6B    	OUT RAMPZ,R22
005F69  91E6    	ELPM ZL,Z
005F6A  93EA    	ST -Y,ZL
005F6B  01F8    	MOVW R31:R30,R17:R16
005F6C  2766    	CLR R22
005F6D  2777    	CLR R23
005F6E  52E4    	SUBI ZL,$24
005F6F  4FFF    	SBCI ZH,$FF
005F70  4F6F    	SBCI R22,$FF
005F71  BF6B    	OUT RAMPZ,R22
005F72  91E6    	ELPM ZL,Z
005F73  93EA    	ST -Y,ZL
005F74  940E    	CALL L804
005F75  40F2
005F76  5F0F    	SUBI R16,$FF
005F77  4F1F    	SBCI R17,$FF
005F78  CFE4    	RJMP L1231
005F79  C020    L1230:	RJMP L1228
005F7A  E0E1    L1229:	LDI ZL,$01
005F7B  2E4E    	MOV R4,ZL
005F7C  E000    	LDI R16,$00
005F7D  E010    	LDI R17,$00
005F7E  3100    L1232:	CPI R16,$10
005F7F  E0E0    	LDI ZL,$00
005F80  071E    	CPC R17,ZL
005F81  F4C0    	BRCC L1228
005F82  930A    	ST -Y,R16
005F83  01F8    	MOVW R31:R30,R17:R16
005F84  2766    	CLR R22
005F85  2777    	CLR R23
005F86  55E4    	SUBI ZL,$54
005F87  4FFF    	SBCI ZH,$FF
005F88  4F6F    	SBCI R22,$FF
005F89  BF6B    	OUT RAMPZ,R22
005F8A  91E6    	ELPM ZL,Z
005F8B  93EA    	ST -Y,ZL
005F8C  01F8    	MOVW R31:R30,R17:R16
005F8D  2766    	CLR R22
005F8E  2777    	CLR R23
005F8F  56E4    	SUBI ZL,$64
005F90  4FFF    	SBCI ZH,$FF
005F91  4F6F    	SBCI R22,$FF
005F92  BF6B    	OUT RAMPZ,R22
005F93  91E6    	ELPM ZL,Z
005F94  93EA    	ST -Y,ZL
005F95  940E    	CALL L804
005F96  40F2
005F97  5F0F    	SUBI R16,$FF
005F98  4F1F    	SBCI R17,$FF
005F99  CFE4    	RJMP L1232
005F9A  C009    L1228:	RJMP L1233
005F9B  91A0    L1224:	LDS XL,$0502
005F9C  0502
005F9D  30A5    	CPI XL,$05
005F9E  F4A1    	BRNE L1222
005F9F  E0E0    	LDI ZL,$00
005FA0  93E0    	STS $0502,ZL
005FA1  0502
005FA2  E0E4    	LDI ZL,$04
005FA3  2E4E    	MOV R4,ZL
005FA4  940E    L1233:	CALL L814
005FA5  40D9
005FA6  E0EA    	LDI ZL,$0A
005FA7  E0F0    	LDI ZH,$00
005FA8  93FA    	ST -Y,ZH
005FA9  93EA    	ST -Y,ZL
005FAA  940E    	CALL L538
005FAB  6B57
005FAC  9468    	BSET 6
005FAD  F831    	BLD R3,1
005FAE  2DE4    	MOV ZL,R4
005FAF  E2AD    	LDI XL,$2D
005FB0  E0B0    	LDI XH,$00
005FB1  940E    	CALL L546
005FB2  6C90
005FB3  C4AD    L1222:	RJMP L1234

005FB4  FC24    L855:	SBRC R2,4
005FB5  9508    	RET

005FB6  FE22    	SBRS R2,2
005FB7  C004    	RJMP L1235
005FB8  98DA    	CBI PORTA,PA2
005FB9  9ADB    	SBI PORTA,PA3
005FBA  98DC    	CBI PORTA,PA4
005FBB  9508    	RET


005FBC  2DE4    L1235:	MOV ZL,R4
005FBD  30E1    	CPI ZL,$01
005FBE  F421    	BRNE L1236
005FBF  98DA    	CBI PORTA,PA2
005FC0  9ADB    	SBI PORTA,PA3
005FC1  9ADC    	SBI PORTA,PA4
005FC2  C014    	RJMP L1237
005FC3  30E2    L1236:	CPI ZL,$02
005FC4  F421    	BRNE L1238
005FC5  98DA    	CBI PORTA,PA2
005FC6  98DB    	CBI PORTA,PA3
005FC7  9ADC    	SBI PORTA,PA4
005FC8  C00E    	RJMP L1237
005FC9  30E3    L1238:	CPI ZL,$03
005FCA  F421    	BRNE L1239
005FCB  9ADA    	SBI PORTA,PA2
005FCC  98DB    	CBI PORTA,PA3
005FCD  9ADC    	SBI PORTA,PA4
005FCE  C008    	RJMP L1237
005FCF  30E4    L1239:	CPI ZL,$04
005FD0  F421    	BRNE L1240
005FD1  9ADA    	SBI PORTA,PA2
005FD2  9ADB    	SBI PORTA,PA3
005FD3  98DC    	CBI PORTA,PA4
005FD4  C002    	RJMP L1237
005FD5  E0E4    L1240:	LDI ZL,$04
005FD6  2E4E    	MOV R4,ZL
005FD7  91A0    L1237:	LDS XL,$0611
005FD8  0611
005FD9  91B0    	LDS XH,$0612
005FDA  0612
005FDB  39A9    	CPI XL,$99
005FDC  E2E1    	LDI ZL,$21
005FDD  07BE    	CPC XH,ZL
005FDE  F060    	BRCS L1241
005FDF  91E0    	LDS ZL,$0065
005FE0  0065
005FE1  7FEB    	ANDI ZL,$FB
005FE2  93E0    	STS $0065,ZL
005FE3  0065
005FE4  9AAF    	SBI PORTC,PC7
005FE5  E0E0    	LDI ZL,$00
005FE6  93E0    	STS $0510,ZL
005FE7  0510
005FE8  93E0    	STS $0511,ZL
005FE9  0511
005FEA  C06A    	RJMP L1242
005FEB  91A0    L1241:	LDS XL,$0611
005FEC  0611
005FED  91B0    	LDS XH,$0612
005FEE  0612
005FEF  3AA5    	CPI XL,$A5
005FF0  E1EF    	LDI ZL,$1F
005FF1  07BE    	CPC XH,ZL
005FF2  F0F8    	BRCS L1243
005FF3  91E0    	LDS ZL,$0065
005FF4  0065
005FF5  60E4    	ORI ZL,$04
005FF6  93E0    	STS $0065,ZL
005FF7  0065
005FF8  98AF    	CBI PORTC,PC7
005FF9  91E0    	LDS ZL,$0510
005FFA  0510
005FFB  91F0    	LDS ZH,$0511
005FFC  0511
005FFD  9631    	ADIW ZH:ZL,1
005FFE  93E0    	STS $0510,ZL
005FFF  0510
006000  93F0    	STS $0511,ZH
006001  0511
006002  91A0    	LDS XL,$0510
006003  0510
006004  91B0    	LDS XH,$0511
006005  0511
006006  38A9    	CPI XL,$89
006007  E1E3    	LDI ZL,$13
006008  07BE    	CPC XH,ZL
006009  F038    	BRCS L1244
00600A  E0E0    	LDI ZL,$00
00600B  93E0    	STS $0510,ZL
00600C  0510
00600D  93E0    	STS $0511,ZL
00600E  0511
00600F  940E    	CALL L814
006010  40D9
006011  C043    L1244:	RJMP L1242
006012  91E0    L1243:	LDS ZL,$0065
006013  0065
006014  60E4    	ORI ZL,$04
006015  93E0    	STS $0065,ZL
006016  0065
006017  91A0    	LDS XL,$0503
006018  0503
006019  91B0    	LDS XH,$0504
00601A  0504
00601B  3FAA    	CPI XL,$FA
00601C  E0E0    	LDI ZL,$00
00601D  07BE    	CPC XH,ZL
00601E  F410    	BRCC L1245
00601F  98AF    	CBI PORTC,PC7
006020  C01C    	RJMP L1246
006021  91A0    L1245:	LDS XL,$0503
006022  0503
006023  91B0    	LDS XH,$0504
006024  0504
006025  3FA4    	CPI XL,$F4
006026  E0E1    	LDI ZL,$01
006027  07BE    	CPC XH,ZL
006028  F408    	BRCC L1247
006029  C012    	RJMP L1248
00602A  91A0    L1247:	LDS XL,$0503
00602B  0503
00602C  91B0    	LDS XH,$0504
00602D  0504
00602E  3EAE    	CPI XL,$EE
00602F  E0E2    	LDI ZL,$02
006030  07BE    	CPC XH,ZL
006031  F410    	BRCC L1249
006032  98AF    	CBI PORTC,PC7
006033  C009    	RJMP L1246
006034  91A0    L1249:	LDS XL,$0503
006035  0503
006036  91B0    	LDS XH,$0504
006037  0504
006038  3EA8    	CPI XL,$E8
006039  E0E3    	LDI ZL,$03
00603A  07BE    	CPC XH,ZL
00603B  F408    	BRCC L1246
00603C  9AAF    L1248:	SBI PORTC,PC7
00603D  91E0    L1246:	LDS ZL,$0510
00603E  0510
00603F  91F0    	LDS ZH,$0511
006040  0511
006041  9631    	ADIW ZH:ZL,1
006042  93E0    	STS $0510,ZL
006043  0510
006044  93F0    	STS $0511,ZH
006045  0511
006046  91A0    	LDS XL,$0510
006047  0510
006048  91B0    	LDS XH,$0511
006049  0511
00604A  3BA9    	CPI XL,$B9
00604B  E0EB    	LDI ZL,$0B
00604C  07BE    	CPC XH,ZL
00604D  F038    	BRCS L1242
00604E  E0E0    	LDI ZL,$00
00604F  93E0    	STS $0510,ZL
006050  0510
006051  93E0    	STS $0511,ZL
006052  0511
006053  940E    	CALL L814
006054  40D9
006055  E0EB    L1242:	LDI ZL,$0B
006056  15E5    	CP ZL,R5
006057  F409    	BRNE L1250
006058  9508    	RET
006059  E0EA    L1250:	LDI ZL,$0A
00605A  15E5    	CP ZL,R5
00605B  F409    	BRNE L1251
00605C  9508    	RET
00605D  EFEF    L1251:	LDI ZL,$FF
00605E  15E5    	CP ZL,R5
00605F  F411    	BRNE L1252
006060  9ADF    	SBI PORTA,PA7
006061  C001    	RJMP L1253
006062  98DF    L1252:	CBI PORTA,PA7
006063  9508    L1253:	RET
006064  931A    L852:	ST -Y,R17
006065  930A    	ST -Y,R16
006066  FC22    	SBRC R2,2
006067  C3F9    	RJMP L1234
006068  E000    	LDI R16,$00
006069  E010    	LDI R17,$00
00606A  3100    L1257:	CPI R16,$10
00606B  E0E0    	LDI ZL,$00
00606C  071E    	CPC R17,ZL
00606D  F520    	BRCC L1254
00606E  01F8    	MOVW R31:R30,R17:R16
00606F  2766    	CLR R22
006070  2777    	CLR R23
006071  57E4    	SUBI ZL,$74
006072  4FFF    	SBCI ZH,$FF
006073  4F6F    	SBCI R22,$FF
006074  BF6B    	OUT RAMPZ,R22
006075  91E6    	ELPM ZL,Z
006076  2E1E    	MOV R1,ZL
006077  5FE7    	SUBI ZL,$F7
006078  2E0E    	MOV R0,ZL
006079  E1AD    	LDI XL,$1D
00607A  E0B0    	LDI XH,$00
00607B  0FA0    	ADD XL,R16
00607C  1FB1    	ADC XH,R17
00607D  940E    	CALL L545
00607E  6C7C
00607F  160E    	CP R0,ZL
006080  F058    	BRCS L1255
006081  2DE1    	MOV ZL,R1
006082  50E9    	SUBI ZL,$09
006083  2E0E    	MOV R0,ZL
006084  E1AD    	LDI XL,$1D
006085  E0B0    	LDI XH,$00
006086  0FA0    	ADD XL,R16
006087  1FB1    	ADC XH,R17
006088  940E    	CALL L545
006089  6C7C
00608A  15E0    	CP ZL,R0
00608B  F418    	BRCC L1256
00608C  E0E8    L1255:	LDI ZL,$08
00608D  2E5E    	MOV R5,ZL
00608E  C3D2    	RJMP L1234
00608F  5F0F    L1256:	SUBI R16,$FF
006090  4F1F    	SBCI R17,$FF
006091  CFD8    	RJMP L1257
006092  91E0    L1254:	LDS ZL,$0065
006093  0065
006094  7FEB    	ANDI ZL,$FB
006095  93E0    	STS $0065,ZL
006096  0065
006097  E3EC    	LDI ZL,$3C
006098  E0F0    	LDI ZH,$00
006099  93FA    	ST -Y,ZH
00609A  93EA    	ST -Y,ZL
00609B  940E    	CALL L538
00609C  6B57
00609D  91E0    	LDS ZL,$0065
00609E  0065
00609F  60E4    	ORI ZL,$04
0060A0  93E0    	STS $0065,ZL
0060A1  0065
0060A2  98AF    	CBI PORTC,PC7
0060A3  E3EC    	LDI ZL,$3C
0060A4  E0F0    	LDI ZH,$00
0060A5  93FA    	ST -Y,ZH
0060A6  93EA    	ST -Y,ZL
0060A7  940E    	CALL L538
0060A8  6B57
0060A9  9AAF    	SBI PORTC,PC7
0060AA  98DD    	CBI PORTA,PA5
0060AB  E3EC    	LDI ZL,$3C
0060AC  E0F0    	LDI ZH,$00
0060AD  93FA    	ST -Y,ZH
0060AE  93EA    	ST -Y,ZL
0060AF  940E    	CALL L538
0060B0  6B57
0060B1  9ADD    	SBI PORTA,PA5
0060B2  98DE    	CBI PORTA,PA6
0060B3  E3EC    	LDI ZL,$3C
0060B4  E0F0    	LDI ZH,$00
0060B5  93FA    	ST -Y,ZH
0060B6  93EA    	ST -Y,ZL
0060B7  940E    	CALL L538
0060B8  6B57
0060B9  9ADE    	SBI PORTA,PA6
0060BA  98DF    	CBI PORTA,PA7
0060BB  E3EC    	LDI ZL,$3C
0060BC  E0F0    	LDI ZH,$00
0060BD  93FA    	ST -Y,ZH
0060BE  93EA    	ST -Y,ZL
0060BF  940E    	CALL L538
0060C0  6B57
0060C1  9ADF    	SBI PORTA,PA7
0060C2  98DC    	CBI PORTA,PA4
0060C3  E3EC    	LDI ZL,$3C
0060C4  E0F0    	LDI ZH,$00
0060C5  93FA    	ST -Y,ZH
0060C6  93EA    	ST -Y,ZL
0060C7  940E    	CALL L538
0060C8  6B57
0060C9  9ADC    	SBI PORTA,PA4
0060CA  98DB    	CBI PORTA,PA3
0060CB  E3EC    	LDI ZL,$3C
0060CC  E0F0    	LDI ZH,$00
0060CD  93FA    	ST -Y,ZH
0060CE  93EA    	ST -Y,ZL
0060CF  940E    	CALL L538
0060D0  6B57
0060D1  9ADB    	SBI PORTA,PA3
0060D2  98DA    	CBI PORTA,PA2
0060D3  E3EC    	LDI ZL,$3C
0060D4  E0F0    	LDI ZH,$00
0060D5  93FA    	ST -Y,ZH
0060D6  93EA    	ST -Y,ZL
0060D7  940E    	CALL L538
0060D8  6B57
0060D9  9ADA    	SBI PORTA,PA2
0060DA  C386    	RJMP L1234
0060DB  931A    L861:	ST -Y,R17
0060DC  930A    	ST -Y,R16
0060DD  94E8    	BCLR 6
0060DE  F834    	BLD R3,4
0060DF  B7E7    	IN ZL,TIMSK
0060E0  7FEE    	ANDI ZL,$FE
0060E1  BFE7    	OUT TIMSK,ZL
0060E2  B7E9    	IN ZL,EIMSK
0060E3  7BEF    	ANDI ZL,$BF
0060E4  BFE9    	OUT EIMSK,ZL
0060E5  9856    	CBI UCSR0B,TXCIE0
0060E6  E0E0    	LDI ZL,$00
0060E7  93EA    	ST -Y,ZL
0060E8  940E    	CALL L1258               'start conversion(0)
0060E9  3CF1
0060EA  E0E1    	LDI ZL,$01                 channel 1  (voltage)
0060EB  93E0    	STS $0606,ZL
0060EC  0606
0060ED  EEED    	LDI ZL,$ED
0060EE  93EA    	ST -Y,ZL
0060EF  940E    	CALL L1258                 'start conversion(ED)
0060F0  3CF1
0060F1  9468    	BSET 6
0060F2  F827    	BLD R2,7
0060F3  FC27    L1259:	SBRC R2,7
0060F4  CFFE    	RJMP L1259
0060F5  E0E0    	LDI ZL,$00
0060F6  93EA    	ST -Y,ZL
0060F7  940E    	CALL L1258                startconversion(0)
0060F8  3CF1
0060F9  9070    	LDS R7,$0618
0060FA  0618
0060FB  E0E0    	LDI ZL,$00
0060FC  93EA    	ST -Y,ZL
0060FD  940E    	CALL L1258
0060FE  3CF1
0060FF  E0E0    	LDI ZL,$00
006100  93E0    	STS $0606,ZL
006101  0606
006102  EEED    	LDI ZL,$ED
006103  93EA    	ST -Y,ZL
006104  940E    	CALL L1258
006105  3CF1
006106  9468    	BSET 6
006107  F827    	BLD R2,7
006108  FC27    L1260:	SBRC R2,7
006109  CFFE    	RJMP L1260
00610A  E0E0    	LDI ZL,$00
00610B  93EA    	ST -Y,ZL
00610C  940E    	CALL L1258
00610D  3CF1
00610E  9080    	LDS R8,$0618
00610F  0618
006110  E0E0    	LDI ZL,$00
006111  93EA    	ST -Y,ZL
006112  940E    	CALL L1258
006113  3CF1
006114  E0EF    	LDI ZL,$0F
006115  93E0    	STS $0606,ZL
006116  0606
006117  EEED    	LDI ZL,$ED
006118  93EA    	ST -Y,ZL
006119  940E    	CALL L1258
00611A  3CF1
00611B  9468    	BSET 6
00611C  F827    	BLD R2,7
00611D  FC27    L1261:	SBRC R2,7
00611E  CFFE    	RJMP L1261
00611F  E0E0    	LDI ZL,$00
006120  93EA    	ST -Y,ZL
006121  940E    	CALL L1258
006122  3CF1
006123  9090    	LDS R9,$0618
006124  0618
006125  9A57    	SBI UCSR0B,RXCIE0
006126  B7E7    	IN ZL,TIMSK
006127  60E1    	ORI ZL,$01
006128  BFE7    	OUT TIMSK,ZL
006129  E0E0    	LDI ZL,$00
00612A  93EA    	ST -Y,ZL
00612B  940E    	CALL L1006
00612C  4290
00612D  018F    	MOVW R17:R16,R31:R30
00612E  EBEC    	LDI ZL,$BC
00612F  E0F1    	LDI ZH,$01
006130  17E0    	CP ZL,R16
006131  07F1    	CPC ZH,R17
006132  F419    	BRNE L1262
006133  EFEF    	LDI ZL,$FF
006134  2EAE    	MOV R10,ZL
006135  C001    	RJMP L1263
006136  2EA0    L1262:	MOV R10,R16
006137  B7E7    L1263:	IN ZL,TIMSK
006138  7FEE    	ANDI ZL,$FE
006139  BFE7    	OUT TIMSK,ZL
00613A  9857    	CBI UCSR0B,RXCIE0
00613B  E1E3    	LDI ZL,$13
00613C  93EA    	ST -Y,ZL
00613D  E0E4    	LDI ZL,$04
00613E  93EA    	ST -Y,ZL
00613F  940E    	CALL L570
006140  4315
006141  E0E0    	LDI ZL,$00
006142  93E0    	STS $05F7,ZL
006143  05F7
006144  927A    	ST -Y,R7
006145  940E    	CALL L547
006146  4082
006147  2DE7    	MOV ZL,R7
006148  91A0    	LDS XL,$05F7
006149  05F7
00614A  27EA    	EOR ZL,XL
00614B  93E0    	STS $05F7,ZL
00614C  05F7
00614D  928A    	ST -Y,R8
00614E  940E    	CALL L547
00614F  4082
006150  2DE8    	MOV ZL,R8
006151  91A0    	LDS XL,$05F7
006152  05F7
006153  27EA    	EOR ZL,XL
006154  93E0    	STS $05F7,ZL
006155  05F7
006156  929A    	ST -Y,R9
006157  940E    	CALL L547
006158  4082
006159  2DE9    	MOV ZL,R9
00615A  91A0    	LDS XL,$05F7
00615B  05F7
00615C  27EA    	EOR ZL,XL
00615D  93E0    	STS $05F7,ZL
00615E  05F7
00615F  92AA    	ST -Y,R10
006160  940E    	CALL L547
006161  4082
006162  2DEA    	MOV ZL,R10
006163  91A0    	LDS XL,$05F7
006164  05F7
006165  27EA    	EOR ZL,XL
006166  93E0    	STS $05F7,ZL
006167  05F7
006168  93EA    	ST -Y,ZL
006169  940E    	CALL L547
00616A  4082
00616B  E0E2    	LDI ZL,$02
00616C  93EA    	ST -Y,ZL
00616D  940E    	CALL L992
00616E  42E5
00616F  9ADA    	SBI PORTA,PA2
006170  9ADB    	SBI PORTA,PA3
006171  9ADC    	SBI PORTA,PA4
006172  9ADD    	SBI PORTA,PA5
006173  9ADE    	SBI PORTA,PA6
006174  9ADF    	SBI PORTA,PA7
006175  91E0    	LDS ZL,$0065
006176  0065
006177  60E4    	ORI ZL,$04
006178  93E0    	STS $0065,ZL
006179  0065
00617A  9AAF    	SBI PORTC,PC7
00617B  EEE8    	LDI ZL,$E8
00617C  E0F3    	LDI ZH,$03
00617D  93FA    	ST -Y,ZH
00617E  93EA    	ST -Y,ZL
00617F  940E    	CALL L538
006180  6B57
006181  91E0    	LDS ZL,$0065
006182  0065
006183  7FEB    	ANDI ZL,$FB
006184  93E0    	STS $0065,ZL
006185  0065
006186  EFE4    	LDI ZL,$F4
006187  E0F1    	LDI ZH,$01
006188  93FA    	ST -Y,ZH
006189  93EA    	ST -Y,ZL
00618A  940E    	CALL L538
00618B  6B57
00618C  9ADA    	SBI PORTA,PA2
00618D  9ADB    	SBI PORTA,PA3
00618E  9ADC    	SBI PORTA,PA4
00618F  9ADD    	SBI PORTA,PA5
006190  9ADE    	SBI PORTA,PA6
006191  9ADF    	SBI PORTA,PA7
006192  91E0    	LDS ZL,$0065
006193  0065
006194  60E4    	ORI ZL,$04
006195  93E0    	STS $0065,ZL
006196  0065
006197  9AAF    	SBI PORTC,PC7
006198  E2EC    	LDI ZL,$2C
006199  E0F1    	LDI ZH,$01
00619A  93FA    	ST -Y,ZH
00619B  93EA    	ST -Y,ZL
00619C  940E    	CALL L538
00619D  6B57
00619E  98AF    	CBI PORTC,PC7
00619F  EFE4    	LDI ZL,$F4
0061A0  E0F1    	LDI ZH,$01
0061A1  93FA    	ST -Y,ZH
0061A2  93EA    	ST -Y,ZL
0061A3  940E    	CALL L538
0061A4  6B57
0061A5  9ADA    	SBI PORTA,PA2
0061A6  9ADB    	SBI PORTA,PA3
0061A7  9ADC    	SBI PORTA,PA4
0061A8  9ADD    	SBI PORTA,PA5
0061A9  9ADE    	SBI PORTA,PA6
0061AA  9ADF    	SBI PORTA,PA7
0061AB  91E0    	LDS ZL,$0065
0061AC  0065
0061AD  60E4    	ORI ZL,$04
0061AE  93E0    	STS $0065,ZL
0061AF  0065
0061B0  9AAF    	SBI PORTC,PC7
0061B1  E2EC    	LDI ZL,$2C
0061B2  E0F1    	LDI ZH,$01
0061B3  93FA    	ST -Y,ZH
0061B4  93EA    	ST -Y,ZL
0061B5  940E    	CALL L538
0061B6  6B57
0061B7  98DD    	CBI PORTA,PA5
0061B8  EFE4    	LDI ZL,$F4
0061B9  E0F1    	LDI ZH,$01
0061BA  93FA    	ST -Y,ZH
0061BB  93EA    	ST -Y,ZL
0061BC  940E    	CALL L538
0061BD  6B57
0061BE  9ADA    	SBI PORTA,PA2
0061BF  9ADB    	SBI PORTA,PA3
0061C0  9ADC    	SBI PORTA,PA4
0061C1  9ADD    	SBI PORTA,PA5
0061C2  9ADE    	SBI PORTA,PA6
0061C3  9ADF    	SBI PORTA,PA7
0061C4  91E0    	LDS ZL,$0065
0061C5  0065
0061C6  60E4    	ORI ZL,$04
0061C7  93E0    	STS $0065,ZL
0061C8  0065
0061C9  9AAF    	SBI PORTC,PC7
0061CA  E2EC    	LDI ZL,$2C
0061CB  E0F1    	LDI ZH,$01
0061CC  93FA    	ST -Y,ZH
0061CD  93EA    	ST -Y,ZL
0061CE  940E    	CALL L538
0061CF  6B57
0061D0  98DE    	CBI PORTA,PA6
0061D1  EFE4    	LDI ZL,$F4
0061D2  E0F1    	LDI ZH,$01
0061D3  93FA    	ST -Y,ZH
0061D4  93EA    	ST -Y,ZL
0061D5  940E    	CALL L538
0061D6  6B57
0061D7  9ADA    	SBI PORTA,PA2
0061D8  9ADB    	SBI PORTA,PA3
0061D9  9ADC    	SBI PORTA,PA4
0061DA  9ADD    	SBI PORTA,PA5
0061DB  9ADE    	SBI PORTA,PA6
0061DC  9ADF    	SBI PORTA,PA7
0061DD  91E0    	LDS ZL,$0065
0061DE  0065
0061DF  60E4    	ORI ZL,$04
0061E0  93E0    	STS $0065,ZL
0061E1  0065
0061E2  9AAF    	SBI PORTC,PC7
0061E3  E2EC    	LDI ZL,$2C
0061E4  E0F1    	LDI ZH,$01
0061E5  93FA    	ST -Y,ZH
0061E6  93EA    	ST -Y,ZL
0061E7  940E    	CALL L538
0061E8  6B57
0061E9  98DF    	CBI PORTA,PA7
0061EA  EFE4    	LDI ZL,$F4
0061EB  E0F1    	LDI ZH,$01
0061EC  93FA    	ST -Y,ZH
0061ED  93EA    	ST -Y,ZL
0061EE  940E    	CALL L538
0061EF  6B57
0061F0  9ADA    	SBI PORTA,PA2
0061F1  9ADB    	SBI PORTA,PA3
0061F2  9ADC    	SBI PORTA,PA4
0061F3  9ADD    	SBI PORTA,PA5
0061F4  9ADE    	SBI PORTA,PA6
0061F5  9ADF    	SBI PORTA,PA7
0061F6  91E0    	LDS ZL,$0065
0061F7  0065
0061F8  60E4    	ORI ZL,$04
0061F9  93E0    	STS $0065,ZL
0061FA  0065
0061FB  9AAF    	SBI PORTC,PC7
0061FC  E2EC    	LDI ZL,$2C
0061FD  E0F1    	LDI ZH,$01
0061FE  93FA    	ST -Y,ZH
0061FF  93EA    	ST -Y,ZL
006200  940E    	CALL L538
006201  6B57
006202  98DC    	CBI PORTA,PA4
006203  EFE4    	LDI ZL,$F4
006204  E0F1    	LDI ZH,$01
006205  93FA    	ST -Y,ZH
006206  93EA    	ST -Y,ZL
006207  940E    	CALL L538
006208  6B57
006209  9ADA    	SBI PORTA,PA2
00620A  9ADB    	SBI PORTA,PA3
00620B  9ADC    	SBI PORTA,PA4
00620C  9ADD    	SBI PORTA,PA5
00620D  9ADE    	SBI PORTA,PA6
00620E  9ADF    	SBI PORTA,PA7
00620F  91E0    	LDS ZL,$0065
006210  0065
006211  60E4    	ORI ZL,$04
006212  93E0    	STS $0065,ZL
006213  0065
006214  9AAF    	SBI PORTC,PC7
006215  E2EC    	LDI ZL,$2C
006216  E0F1    	LDI ZH,$01
006217  93FA    	ST -Y,ZH
006218  93EA    	ST -Y,ZL
006219  940E    	CALL L538
00621A  6B57
00621B  98DA    	CBI PORTA,PA2
00621C  EFE4    	LDI ZL,$F4
00621D  E0F1    	LDI ZH,$01
00621E  93FA    	ST -Y,ZH
00621F  93EA    	ST -Y,ZL
006220  940E    	CALL L538
006221  6B57
006222  9ADA    	SBI PORTA,PA2
006223  9ADB    	SBI PORTA,PA3
006224  9ADC    	SBI PORTA,PA4
006225  9ADD    	SBI PORTA,PA5
006226  9ADE    	SBI PORTA,PA6
006227  9ADF    	SBI PORTA,PA7
006228  91E0    	LDS ZL,$0065
006229  0065
00622A  60E4    	ORI ZL,$04
00622B  93E0    	STS $0065,ZL
00622C  0065
00622D  9AAF    	SBI PORTC,PC7
00622E  E2EC    	LDI ZL,$2C
00622F  E0F1    	LDI ZH,$01
006230  93FA    	ST -Y,ZH
006231  93EA    	ST -Y,ZL
006232  940E    	CALL L538
006233  6B57
006234  98DB    	CBI PORTA,PA3
006235  EFE4    	LDI ZL,$F4
006236  E0F1    	LDI ZH,$01
006237  93FA    	ST -Y,ZH
006238  93EA    	ST -Y,ZL
006239  940E    	CALL L538
00623A  6B57
00623B  E0E5    	LDI ZL,$05
00623C  93EA    	ST -Y,ZL
00623D  940E    	CALL L992
00623E  42E5
00623F  9ADA    	SBI PORTA,PA2
006240  9ADB    	SBI PORTA,PA3
006241  9ADC    	SBI PORTA,PA4
006242  9ADD    	SBI PORTA,PA5
006243  9ADE    	SBI PORTA,PA6
006244  9ADF    	SBI PORTA,PA7
006245  91E0    	LDS ZL,$0065
006246  0065
006247  60E4    	ORI ZL,$04
006248  93E0    	STS $0065,ZL
006249  0065
00624A  9AAF    	SBI PORTC,PC7
00624B  EEE8    	LDI ZL,$E8
00624C  E0F3    	LDI ZH,$03
00624D  93FA    	ST -Y,ZH
00624E  93EA    	ST -Y,ZL
00624F  940E    	CALL L538
006250  6B57
006251  9A56    	SBI UCSR0B,TXCIE0
006252  B7E9    	IN ZL,EIMSK
006253  64E0    	ORI ZL,$40
006254  BFE9    	OUT EIMSK,ZL
006255  B7E7    	IN ZL,TIMSK
006256  60E1    	ORI ZL,$01
006257  BFE7    	OUT TIMSK,ZL
006258  C208    	RJMP L1234
006259  931A    L858:	ST -Y,R17
00625A  930A    	ST -Y,R16
00625B  FC24    	SBRC R2,4
00625C  C204    	RJMP L1234
00625D  FE33    	SBRS R3,3
00625E  C00B    	RJMP L1264
00625F  91E0    	LDS ZL,$05FC
006260  05FC
006261  30E7    	CPI ZL,$07
006262  F039    	BREQ L1264
006263  91E0    	LDS ZL,$05FC
006264  05FC
006265  32EB    	CPI ZL,$2B
006266  F019    	BREQ L1264
006267  E0E4    	LDI ZL,$04
006268  15E4    	CP ZL,R4
006269  F409    	BRNE L1265
00626A  C001    L1264:	RJMP L1266
00626B  C1F5    L1265:	RJMP L1234
00626C  FE32    L1266:	SBRS R3,2
00626D  C1F3    	RJMP L1234
00626E  B7E9    	IN ZL,EIMSK
00626F  7BEF    	ANDI ZL,$BF
006270  BFE9    	OUT EIMSK,ZL
006271  94E8    	BCLR 6
006272  F832    	BLD R3,2
006273  E0AE    	LDI XL,$0E
006274  E0B0    	LDI XH,$00
006275  940E    	CALL L545
006276  6C7C
006277  91A0    	LDS XL,$05F9
006278  05F9
006279  17EA    	CP ZL,XL
00627A  F489    	BRNE L1267
00627B  E1A3    	LDI XL,$13
00627C  E0B0    	LDI XH,$00
00627D  940E    	CALL L545
00627E  6C7C
00627F  91A0    	LDS XL,$05FA
006280  05FA
006281  17EA    	CP ZL,XL
006282  F449    	BRNE L1267
006283  E1A8    	LDI XL,$18
006284  E0B0    	LDI XH,$00
006285  940E    	CALL L545
006286  6C7C
006287  91A0    	LDS XL,$05FB
006288  05FB
006289  17EA    	CP ZL,XL
00628A  F409    	BRNE L1267
00628B  C062    	RJMP L1268
00628C  E0AF    L1267:	LDI XL,$0F
00628D  E0B0    	LDI XH,$00
00628E  940E    	CALL L545
00628F  6C7C
006290  91A0    	LDS XL,$05F9
006291  05F9
006292  17EA    	CP ZL,XL
006293  F489    	BRNE L1269
006294  E1A4    	LDI XL,$14
006295  E0B0    	LDI XH,$00
006296  940E    	CALL L545
006297  6C7C
006298  91A0    	LDS XL,$05FA
006299  05FA
00629A  17EA    	CP ZL,XL
00629B  F449    	BRNE L1269
00629C  E1A9    	LDI XL,$19
00629D  E0B0    	LDI XH,$00
00629E  940E    	CALL L545
00629F  6C7C
0062A0  91A0    	LDS XL,$05FB
0062A1  05FB
0062A2  17EA    	CP ZL,XL
0062A3  F409    	BRNE L1269
0062A4  C049    	RJMP L1268
0062A5  E1A0    L1269:	LDI XL,$10
0062A6  E0B0    	LDI XH,$00
0062A7  940E    	CALL L545
0062A8  6C7C
0062A9  91A0    	LDS XL,$05F9
0062AA  05F9
0062AB  17EA    	CP ZL,XL
0062AC  F481    	BRNE L1270
0062AD  E1A5    	LDI XL,$15
0062AE  E0B0    	LDI XH,$00
0062AF  940E    	CALL L545
0062B0  6C7C
0062B1  91A0    	LDS XL,$05FA
0062B2  05FA
0062B3  17EA    	CP ZL,XL
0062B4  F441    	BRNE L1270
0062B5  E1AA    	LDI XL,$1A
0062B6  E0B0    	LDI XH,$00
0062B7  940E    	CALL L545
0062B8  6C7C
0062B9  91A0    	LDS XL,$05FB
0062BA  05FB
0062BB  17EA    	CP ZL,XL
0062BC  F189    	BREQ L1268
0062BD  E1A1    L1270:	LDI XL,$11
0062BE  E0B0    	LDI XH,$00
0062BF  940E    	CALL L545
0062C0  6C7C
0062C1  91A0    	LDS XL,$05F9
0062C2  05F9
0062C3  17EA    	CP ZL,XL
0062C4  F481    	BRNE L1271
0062C5  E1A6    	LDI XL,$16
0062C6  E0B0    	LDI XH,$00
0062C7  940E    	CALL L545
0062C8  6C7C
0062C9  91A0    	LDS XL,$05FA
0062CA  05FA
0062CB  17EA    	CP ZL,XL
0062CC  F441    	BRNE L1271
0062CD  E1AB    	LDI XL,$1B
0062CE  E0B0    	LDI XH,$00
0062CF  940E    	CALL L545
0062D0  6C7C
0062D1  91A0    	LDS XL,$05FB
0062D2  05FB
0062D3  17EA    	CP ZL,XL
0062D4  F0C9    	BREQ L1268
0062D5  E1A2    L1271:	LDI XL,$12
0062D6  E0B0    	LDI XH,$00
0062D7  940E    	CALL L545
0062D8  6C7C
0062D9  91A0    	LDS XL,$05F9
0062DA  05F9
0062DB  17EA    	CP ZL,XL
0062DC  F481    	BRNE L1272
0062DD  E1A7    	LDI XL,$17
0062DE  E0B0    	LDI XH,$00
0062DF  940E    	CALL L545
0062E0  6C7C
0062E1  91A0    	LDS XL,$05FA
0062E2  05FA
0062E3  17EA    	CP ZL,XL
0062E4  F441    	BRNE L1272
0062E5  E1AC    	LDI XL,$1C
0062E6  E0B0    	LDI XH,$00
0062E7  940E    	CALL L545
0062E8  6C7C
0062E9  91A0    	LDS XL,$05FB
0062EA  05FB
0062EB  17EA    	CP ZL,XL
0062EC  F009    	BREQ L1268
0062ED  C161    L1272:	RJMP L1273
0062EE  91E0    L1268:	LDS ZL,$05FC
0062EF  05FC
0062F0  30E1    	CPI ZL,$01                   'Switch case stamement
0062F1  F429    	BRNE L1274
0062F2  E0E1    	LDI ZL,$01
0062F3  93EA    	ST -Y,ZL
0062F4  940E    	CALL L1110                   'call F1110(1)
0062F5  5104
0062F6  C158    	RJMP L1273
0062F7  30E2    L1274:	CPI ZL,$02
0062F8  F429    	BRNE L1275
0062F9  E0E2    	LDI ZL,$02
0062FA  93EA    	ST -Y,ZL
0062FB  940E    	CALL L1110                   'call F1110(2)
0062FC  5104
0062FD  C151    	RJMP L1273
0062FE  30E3    L1275:	CPI ZL,$03
0062FF  F429    	BRNE L1276
006300  E0E3    	LDI ZL,$03
006301  93EA    	ST -Y,ZL
006302  940E    	CALL L1110
006303  5104
006304  C14A    	RJMP L1273
006305  30E4    L1276:	CPI ZL,$04
006306  F429    	BRNE L1277
006307  E0E4    	LDI ZL,$04
006308  93EA    	ST -Y,ZL
006309  940E    	CALL L1110
00630A  5104
00630B  C143    	RJMP L1273
00630C  30E5    L1277:	CPI ZL,$05
00630D  F429    	BRNE L1278
00630E  E0E5    	LDI ZL,$05
00630F  93EA    	ST -Y,ZL
006310  940E    	CALL L1110
006311  5104
006312  C13C    	RJMP L1273
006313  30E6    L1278:	CPI ZL,$06
006314  F429    	BRNE L1279
006315  E0E6    	LDI ZL,$06
006316  93EA    	ST -Y,ZL
006317  940E    	CALL L1110
006318  5104
006319  C135    	RJMP L1273
00631A  30E8    L1279:	CPI ZL,$08
00631B  F429    	BRNE L1280
00631C  E0E8    	LDI ZL,$08
00631D  93EA    	ST -Y,ZL
00631E  940E    	CALL L1110
00631F  5104
006320  C12E    	RJMP L1273
006321  30E9    L1280:	CPI ZL,$09
006322  F429    	BRNE L1281
006323  E0E9    	LDI ZL,$09
006324  93EA    	ST -Y,ZL
006325  940E    	CALL L1110
006326  5104
006327  C127    	RJMP L1273
006328  30EA    L1281:	CPI ZL,$0A
006329  F429    	BRNE L1282
00632A  E0EA    	LDI ZL,$0A
00632B  93EA    	ST -Y,ZL
00632C  940E    	CALL L1110
00632D  5104
00632E  C120    	RJMP L1273
00632F  30EB    L1282:	CPI ZL,$0B
006330  F429    	BRNE L1283
006331  E0EB    	LDI ZL,$0B
006332  93EA    	ST -Y,ZL
006333  940E    	CALL L1110
006334  5104
006335  C119    	RJMP L1273
006336  30E7    L1283:	CPI ZL,$07
006337  F439    	BRNE L1284
006338  94E8    	BCLR 6
006339  F833    	BLD R3,3
00633A  E0E7    	LDI ZL,$07
00633B  93EA    	ST -Y,ZL
00633C  940E    	CALL L1110
00633D  5104
00633E  C110    	RJMP L1273
00633F  30EC    L1284:	CPI ZL,$0C
006340  F429    	BRNE L1285
006341  E0EC    	LDI ZL,$0C
006342  93EA    	ST -Y,ZL
006343  940E    	CALL L1110
006344  5104
006345  C109    	RJMP L1273
006346  30ED    L1285:	CPI ZL,$0D
006347  F429    	BRNE L1286
006348  E0ED    	LDI ZL,$0D
006349  93EA    	ST -Y,ZL
00634A  940E    	CALL L1110
00634B  5104
00634C  C102    	RJMP L1273
00634D  30EE    L1286:	CPI ZL,$0E
00634E  F429    	BRNE L1287
00634F  E0EE    	LDI ZL,$0E
006350  93EA    	ST -Y,ZL
006351  940E    	CALL L1110
006352  5104
006353  C0FB    	RJMP L1273
006354  30EF    L1287:	CPI ZL,$0F
006355  F429    	BRNE L1288
006356  E0EF    	LDI ZL,$0F
006357  93EA    	ST -Y,ZL
006358  940E    	CALL L1110
006359  5104
00635A  C0F4    	RJMP L1273
00635B  31E0    L1288:	CPI ZL,$10
00635C  F429    	BRNE L1289
00635D  E1E0    	LDI ZL,$10
00635E  93EA    	ST -Y,ZL
00635F  940E    	CALL L1110
006360  5104
006361  C0ED    	RJMP L1273
006362  31E1    L1289:	CPI ZL,$11
006363  F429    	BRNE L1290
006364  E1E1    	LDI ZL,$11
006365  93EA    	ST -Y,ZL
006366  940E    	CALL L1110
006367  5104
006368  C0E6    	RJMP L1273
006369  31E2    L1290:	CPI ZL,$12
00636A  F429    	BRNE L1291
00636B  E1E2    	LDI ZL,$12
00636C  93EA    	ST -Y,ZL
00636D  940E    	CALL L1110
00636E  5104
00636F  C0DF    	RJMP L1273
006370  31E3    L1291:	CPI ZL,$13
006371  F429    	BRNE L1292
006372  E1E3    	LDI ZL,$13
006373  93EA    	ST -Y,ZL
006374  940E    	CALL L1110
006375  5104
006376  C0D8    	RJMP L1273
006377  31E4    L1292:	CPI ZL,$14
006378  F429    	BRNE L1293
006379  E1E4    	LDI ZL,$14
00637A  93EA    	ST -Y,ZL
00637B  940E    	CALL L1110
00637C  5104
00637D  C0D1    	RJMP L1273
00637E  31E5    L1293:	CPI ZL,$15
00637F  F429    	BRNE L1294
006380  E1E5    	LDI ZL,$15
006381  93EA    	ST -Y,ZL
006382  940E    	CALL L1110
006383  5104
006384  C0CA    	RJMP L1273
006385  31E6    L1294:	CPI ZL,$16
006386  F429    	BRNE L1295
006387  E1E6    	LDI ZL,$16
006388  93EA    	ST -Y,ZL
006389  940E    	CALL L1110
00638A  5104
00638B  C0C3    	RJMP L1273
00638C  31E7    L1295:	CPI ZL,$17
00638D  F429    	BRNE L1296
00638E  E1E7    	LDI ZL,$17
00638F  93EA    	ST -Y,ZL
006390  940E    	CALL L1110
006391  5104
006392  C0BC    	RJMP L1273
006393  31EC    L1296:	CPI ZL,$1C
006394  F429    	BRNE L1297
006395  E1EC    	LDI ZL,$1C
006396  93EA    	ST -Y,ZL
006397  940E    	CALL L1110
006398  5104
006399  C0B5    	RJMP L1273
00639A  32E1    L1297:	CPI ZL,$21
00639B  F429    	BRNE L1298
00639C  E2E1    	LDI ZL,$21
00639D  93EA    	ST -Y,ZL
00639E  940E    	CALL L1110
00639F  5104
0063A0  C0AE    	RJMP L1273
0063A1  32E2    L1298:	CPI ZL,$22
0063A2  F429    	BRNE L1299
0063A3  E2E2    	LDI ZL,$22
0063A4  93EA    	ST -Y,ZL
0063A5  940E    	CALL L1110
0063A6  5104
0063A7  C0A7    	RJMP L1273
0063A8  32E3    L1299:	CPI ZL,$23
0063A9  F429    	BRNE L1300
0063AA  E2E3    	LDI ZL,$23
0063AB  93EA    	ST -Y,ZL
0063AC  940E    	CALL L1110
0063AD  5104
0063AE  C0A0    	RJMP L1273
0063AF  32E4    L1300:	CPI ZL,$24
0063B0  F429    	BRNE L1301
0063B1  E2E4    	LDI ZL,$24
0063B2  93EA    	ST -Y,ZL
0063B3  940E    	CALL L1110
0063B4  5104
0063B5  C099    	RJMP L1273
0063B6  32E5    L1301:	CPI ZL,$25
0063B7  F429    	BRNE L1302
0063B8  E2E5    	LDI ZL,$25
0063B9  93EA    	ST -Y,ZL
0063BA  940E    	CALL L1110
0063BB  5104
0063BC  C092    	RJMP L1273
0063BD  32E6    L1302:	CPI ZL,$26
0063BE  F429    	BRNE L1303
0063BF  E2E6    	LDI ZL,$26
0063C0  93EA    	ST -Y,ZL
0063C1  940E    	CALL L1110
0063C2  5104
0063C3  C08B    	RJMP L1273
0063C4  32E7    L1303:	CPI ZL,$27
0063C5  F429    	BRNE L1304
0063C6  E2E7    	LDI ZL,$27
0063C7  93EA    	ST -Y,ZL
0063C8  940E    	CALL L1110
0063C9  5104
0063CA  C084    	RJMP L1273
0063CB  32E8    L1304:	CPI ZL,$28
0063CC  F429    	BRNE L1305
0063CD  E2E8    	LDI ZL,$28
0063CE  93EA    	ST -Y,ZL
0063CF  940E    	CALL L1110
0063D0  5104
0063D1  C07D    	RJMP L1273
0063D2  32E9    L1305:	CPI ZL,$29
0063D3  F429    	BRNE L1306
0063D4  E2E9    	LDI ZL,$29
0063D5  93EA    	ST -Y,ZL
0063D6  940E    	CALL L1110
0063D7  5104
0063D8  C076    	RJMP L1273
0063D9  32EA    L1306:	CPI ZL,$2A
0063DA  F429    	BRNE L1307
0063DB  E2EA    	LDI ZL,$2A
0063DC  93EA    	ST -Y,ZL
0063DD  940E    	CALL L1110
0063DE  5104
0063DF  C06F    	RJMP L1273
0063E0  33E6    L1307:	CPI ZL,$36
0063E1  F429    	BRNE L1308
0063E2  E0E1    	LDI ZL,$01
0063E3  93EA    	ST -Y,ZL
0063E4  940E    	CALL L1309
0063E5  4F05
0063E6  C068    	RJMP L1273
0063E7  33E7    L1308:	CPI ZL,$37
0063E8  F429    	BRNE L1310
0063E9  E0E2    	LDI ZL,$02
0063EA  93EA    	ST -Y,ZL
0063EB  940E    	CALL L1309
0063EC  4F05
0063ED  C061    	RJMP L1273
0063EE  33E8    L1310:	CPI ZL,$38
0063EF  F429    	BRNE L1311
0063F0  E0E3    	LDI ZL,$03
0063F1  93EA    	ST -Y,ZL
0063F2  940E    	CALL L1309
0063F3  4F05
0063F4  C05A    	RJMP L1273
0063F5  33E9    L1311:	CPI ZL,$39
0063F6  F429    	BRNE L1312
0063F7  E0E4    	LDI ZL,$04
0063F8  93EA    	ST -Y,ZL
0063F9  940E    	CALL L1309
0063FA  4F05
0063FB  C053    	RJMP L1273
0063FC  33EA    L1312:	CPI ZL,$3A
0063FD  F429    	BRNE L1313
0063FE  E0E5    	LDI ZL,$05
0063FF  93EA    	ST -Y,ZL
006400  940E    	CALL L1309
006401  4F05
006402  C04C    	RJMP L1273
006403  33EB    L1313:	CPI ZL,$3B
006404  F429    	BRNE L1314
006405  E0E6    	LDI ZL,$06
006406  93EA    	ST -Y,ZL
006407  940E    	CALL L1309
006408  4F05
006409  C045    	RJMP L1273
00640A  33EC    L1314:	CPI ZL,$3C
00640B  F429    	BRNE L1315
00640C  E0E7    	LDI ZL,$07
00640D  93EA    	ST -Y,ZL
00640E  940E    	CALL L1309
00640F  4F05
006410  C03E    	RJMP L1273
006411  33ED    L1315:	CPI ZL,$3D
006412  F429    	BRNE L1316
006413  E0E8    	LDI ZL,$08
006414  93EA    	ST -Y,ZL
006415  940E    	CALL L1309
006416  4F05
006417  C037    	RJMP L1273
006418  33EE    L1316:	CPI ZL,$3E
006419  F429    	BRNE L1317
00641A  E0E9    	LDI ZL,$09
00641B  93EA    	ST -Y,ZL
00641C  940E    	CALL L1309
00641D  4F05
00641E  C030    	RJMP L1273
00641F  33EF    L1317:	CPI ZL,$3F
006420  F429    	BRNE L1318
006421  E0E0    	LDI ZL,$00
006422  93EA    	ST -Y,ZL
006423  940E    	CALL L1309
006424  4F05
006425  C029    	RJMP L1273
006426  32EB    L1318:	CPI ZL,$2B
006427  F439    	BRNE L1319
006428  FE25    	SBRS R2,5
006429  C004    	RJMP L1320
00642A  940E    	CALL L814
00642B  40D9
00642C  940E    	CALL L1221
00642D  3D4C
00642E  C020    L1320:	RJMP L1273
00642F  32EC    L1319:	CPI ZL,$2C
006430  F0F1    	BREQ L1273
006431  33E1    	CPI ZL,$31
006432  F4E1    	BRNE L1273
006433  E0E0    	LDI ZL,$00
006434  93EA    	ST -Y,ZL
006435  E3E2    	LDI ZL,$32
006436  E0F0    	LDI ZH,$00
006437  93FA    	ST -Y,ZH
006438  93EA    	ST -Y,ZL
006439  EEE8    	LDI ZL,$E8
00643A  E0F3    	LDI ZH,$03
00643B  93FA    	ST -Y,ZH
00643C  93EA    	ST -Y,ZL
00643D  E0E4    	LDI ZL,$04
00643E  93EA    	ST -Y,ZL
00643F  940E    	CALL L818
006440  4B36
006441  E0E0    	LDI ZL,$00
006442  93EA    	ST -Y,ZL
006443  E0E1    	LDI ZL,$01
006444  E0F0    	LDI ZH,$00
006445  93FA    	ST -Y,ZH
006446  93EA    	ST -Y,ZL
006447  E6E4    	LDI ZL,$64
006448  E0F0    	LDI ZH,$00
006449  93FA    	ST -Y,ZH
00644A  93EA    	ST -Y,ZL
00644B  E0E1    	LDI ZL,$01
00644C  93EA    	ST -Y,ZL
00644D  940E    	CALL L818
00644E  4B36
00644F  E000    L1273:	LDI R16,$00
006450  E010    	LDI R17,$00
006451  3004    L1322:	CPI R16,$04
006452  E0E0    	LDI ZL,$00
006453  071E    	CPC R17,ZL
006454  F448    	BRCC L1321
006455  EFA9    	LDI XL,$F9
006456  E0B5    	LDI XH,$05
006457  0FA0    	ADD XL,R16
006458  1FB1    	ADC XH,R17
006459  E0E0    	LDI ZL,$00
00645A  93EC    	ST X,ZL
00645B  5F0F    	SUBI R16,$FF
00645C  4F1F    	SBCI R17,$FF
00645D  CFF3    	RJMP L1322
00645E  B7E9    L1321:	IN ZL,EIMSK
00645F  64E0    	ORI ZL,$40
006460  BFE9    	OUT EIMSK,ZL
006461  9109    L1234:	LD R16,Y+
006462  9119    	LD R17,Y+
006463  9508    	RET
006464  9891    L1339:	CBI PORTD,PD1
006465  9A90    	SBI PORTD,PD0
006466  0000    	NOP
006467  0000    	NOP
006468  9890    	CBI PORTD,PD0
006469  9A91    	SBI PORTD,PD1
00646A  9508    	RET
00646B  9A88    L1335:	SBI DDRD,DDD0
00646C  9889    	CBI DDRD,DDD1
00646D  9A90    	SBI PORTD,PD0
00646E  0000    	NOP
00646F  0000    	NOP
006470  9890    	CBI PORTD,PD0
006471  9A89    	SBI DDRD,DDD1
006472  9A88    	SBI DDRD,DDD0
006473  9508    	RET
006474  931A    L1337:	ST -Y,R17
006475  930A    	ST -Y,R16
006476  E010    	LDI R17,$00
006477  9A88    	SBI DDRD,DDD0
006478  9889    	CBI DDRD,DDD1
006479  E000    	LDI R16,$00
00647A  3008    L1324:	CPI R16,$08
00647B  F470    	BRCC L1323
00647C  0F11    	LSL R17
00647D  9A90    	SBI PORTD,PD0
00647E  0000    	NOP
00647F  0000    	NOP
006480  9981    	SBIC PIND,PIND1
006481  6011    	ORI R17,$01
006482  0000    	NOP
006483  0000    	NOP
006484  9890    	CBI PORTD,PD0
006485  0000    	NOP
006486  0000    	NOP
006487  5F0F    	SUBI R16,$FF
006488  940C    	JMP L1324
006489  647A
00648A  9A89    L1323:	SBI DDRD,DDD1
00648B  9A88    	SBI DDRD,DDD0
00648C  2FE1    	MOV ZL,R17
00648D  9109    	LD R16,Y+
00648E  9119    	LD R17,Y+
00648F  9508    	RET
006490  931A    L1334:	ST -Y,R17
006491  930A    	ST -Y,R16
006492  E000    	LDI R16,$00
006493  3008    L1328:	CPI R16,$08
006494  F490    	BRCC L1325
006495  81EA    	LDD ZL,Y+2
006496  78E0    	ANDI ZL,$80
006497  2F1E    	MOV R17,ZL
006498  3010    	CPI R17,$00
006499  F011    	BREQ L1326
00649A  9A91    	SBI PORTD,PD1
00649B  C001    	RJMP L1327
00649C  9891    L1326:	CBI PORTD,PD1
00649D  9A90    L1327:	SBI PORTD,PD0
00649E  0000    	NOP
00649F  0000    	NOP
0064A0  9890    	CBI PORTD,PD0
0064A1  81EA    	LDD ZL,Y+2
0064A2  0FEE    	LSL ZL
0064A3  83EA    	STD Y+2,ZL
0064A4  5F0F    	SUBI R16,$FF
0064A5  940C    	JMP L1328
0064A6  6493
0064A7  8119    L1325:	LDD R17,Y+1
0064A8  8108    	LD R16,Y
0064A9  9623    	ADIW YH:YL,3
0064AA  9508    	RET
0064AB  9A89    L1333:	SBI DDRD,DDD1
0064AC  9A88    	SBI DDRD,DDD0
0064AD  9A91    	SBI PORTD,PD1
0064AE  9A90    	SBI PORTD,PD0
0064AF  0000    	NOP
0064B0  0000    	NOP
0064B1  9891    	CBI PORTD,PD1
0064B2  0000    	NOP
0064B3  0000    	NOP
0064B4  9890    	CBI PORTD,PD0
0064B5  9508    	RET
0064B6  9890    L1341:	CBI PORTD,PD0
0064B7  9891    	CBI PORTD,PD1
0064B8  0000    	NOP
0064B9  0000    	NOP
0064BA  9A90    	SBI PORTD,PD0
0064BB  0000    	NOP
0064BC  0000    	NOP
0064BD  9A91    	SBI PORTD,PD1
0064BE  9508    	RET
0064BF  940E    L539:	CALL L892
0064C0  6E27
0064C1  E020    	LDI R18,$00
0064C2  81AF    	LDD XL,Y+7
0064C3  85B8    	LDD XH,Y+8
0064C4  30A0    	CPI XL,$00
0064C5  E8E0    	LDI ZL,$80
0064C6  07BE    	CPC XH,ZL
0064C7  F010    	BRCS L1329
0064C8  940C    	JMP L1330
0064C9  6512
0064CA  E000    L1329:	LDI R16,$00
0064CB  E010    	LDI R17,$00
0064CC  81ED    L1332:	LDD ZL,Y+5
0064CD  81FE    	LDD ZH,Y+6
0064CE  170E    	CP R16,ZL
0064CF  071F    	CPC R17,ZH
0064D0  F448    	BRCC L1331
0064D1  E7AD    	LDI XL,$7D
0064D2  E0B8    	LDI XH,$08
0064D3  0FA0    	ADD XL,R16
0064D4  1FB1    	ADC XH,R17
0064D5  E0E0    	LDI ZL,$00
0064D6  93EC    	ST X,ZL
0064D7  5F0F    	SUBI R16,$FF
0064D8  4F1F    	SBCI R17,$FF
0064D9  CFF2    	RJMP L1332
0064DA  8538    L1331:	LDD R19,Y+8
0064DB  814F    	LDD R20,Y+7
0064DC  9890    	CBI PORTD,PD0
0064DD  940E    	CALL L1333
0064DE  64AB
0064DF  EAE0    	LDI ZL,$A0
0064E0  93EA    	ST -Y,ZL
0064E1  940E    	CALL L1334
0064E2  6490
0064E3  940E    	CALL L1335
0064E4  646B
0064E5  933A    	ST -Y,R19
0064E6  940E    	CALL L1334
0064E7  6490
0064E8  940E    	CALL L1335
0064E9  646B
0064EA  934A    	ST -Y,R20
0064EB  940E    	CALL L1334
0064EC  6490
0064ED  940E    	CALL L1335
0064EE  646B
0064EF  940E    	CALL L1333
0064F0  64AB
0064F1  EAE1    	LDI ZL,$A1
0064F2  93EA    	ST -Y,ZL
0064F3  940E    	CALL L1334
0064F4  6490
0064F5  940E    	CALL L1335
0064F6  646B
0064F7  E000    	LDI R16,$00
0064F8  E010    	LDI R17,$00
0064F9  81ED    L1340:	LDD ZL,Y+5
0064FA  81FE    	LDD ZH,Y+6
0064FB  9731    	SBIW ZH:ZL,1
0064FC  83ED    	STD Y+5,ZL
0064FD  83FE    	STD Y+6,ZH
0064FE  9631    	ADIW ZH:ZL,1
0064FF  F081    	BREQ L1336
006500  940E    	CALL L1337
006501  6474
006502  2F2E    	MOV R18,ZL
006503  81ED    	LDD ZL,Y+5
006504  81FE    	LDD ZH,Y+6
006505  9730    	SBIW ZH:ZL,0
006506  F011    	BREQ L1338
006507  940E    	CALL L1339
006508  6464
006509  01D8    L1338:	MOVW R27:R26,R17:R16
00650A  58A3    	SUBI XL,$83
00650B  4FB7    	SBCI XH,$F7
00650C  932C    	ST X,R18
00650D  5F0F    	SUBI R16,$FF
00650E  4F1F    	SBCI R17,$FF
00650F  CFE9    	RJMP L1340
006510  940E    L1336:	CALL L1341
006511  64B6
006512  940E    L1330:	CALL L899
006513  6E2E
006514  9629    	ADIW YH:YL,9
006515  9508    	RET
006516  940E    L537:	CALL L941
006517  6E28
006518  98DD    	CBI PORTA,PA5
006519  81AE    	LDD XL,Y+6
00651A  81BF    	LDD XH,Y+7
00651B  30A0    	CPI XL,$00
00651C  E8E0    	LDI ZL,$80
00651D  07BE    	CPC XH,ZL
00651E  F560    	BRCC L1342
00651F  812F    	LDD R18,Y+7
006520  813E    	LDD R19,Y+6
006521  9890    	CBI PORTD,PD0
006522  940E    	CALL L1333
006523  64AB
006524  EAE0    	LDI ZL,$A0
006525  93EA    	ST -Y,ZL
006526  940E    	CALL L1334
006527  6490
006528  940E    	CALL L1335
006529  646B
00652A  932A    	ST -Y,R18
00652B  940E    	CALL L1334
00652C  6490
00652D  940E    	CALL L1335
00652E  646B
00652F  933A    	ST -Y,R19
006530  940E    	CALL L1334
006531  6490
006532  940E    	CALL L1335
006533  646B
006534  E000    	LDI R16,$00
006535  E010    	LDI R17,$00
006536  81EC    L1344:	LDD ZL,Y+4
006537  81FD    	LDD ZH,Y+5
006538  170E    	CP R16,ZL
006539  071F    	CPC R17,ZH
00653A  F470    	BRCC L1343
00653B  01F8    	MOVW R31:R30,R17:R16
00653C  85A8    	LDD XL,Y+8
00653D  85B9    	LDD XH,Y+9
00653E  0FAE    	ADD XL,ZL
00653F  1FBF    	ADC XH,ZH
006540  91EC    	LD ZL,X
006541  93EA    	ST -Y,ZL
006542  940E    	CALL L1334
006543  6490
006544  940E    	CALL L1335
006545  646B
006546  5F0F    	SUBI R16,$FF
006547  4F1F    	SBCI R17,$FF
006548  CFED    	RJMP L1344
006549  940E    L1343:	CALL L1341
00654A  64B6
00654B  9ADD    L1342:	SBI PORTA,PA5
00654C  940E    	CALL L953
00654D  6E2F
00654E  962A    	ADIW YH:YL,10
00654F  9508    	RET


006550  9728    L1069:	SBIW YH:YL,8
006551  E084    	LDI R24,$04
006552  E0A4    	LDI XL,$04
006553  E0B0    	LDI XH,$00
006554  EBE0    	LDI ZL,$B0
006555  E5FC    	LDI ZH,$5C
006556  E060    	LDI R22,$00
006557  940E    	CALL L1345
006558  6E34
006559  931A    	ST -Y,R17
00655A  930A    	ST -Y,R16
00655B  B7E9    	IN ZL,EIMSK
00655C  7BEF    	ANDI ZL,$BF           EXT IN ON
00655D  BFE9    	OUT EIMSK,ZL
00655E  9AC5    	SBI PORTB,PB5        'PSD On
00655F  E3E2    	LDI ZL,$32
006560  E0F0    	LDI ZH,$00
006561  93FA    	ST -Y,ZH
006562  93EA    	ST -Y,ZL
006563  940E    	CALL L538            Delay 50ms
006564  6B57
006565  E0E0    	LDI ZL,$00
006566  93E0    	STS $0606,ZL        Set channel to zero
006567  0606
006568  9468    	BSET 6
006569  F827    	BLD R2,7             set bit 7
00656A  EDEC    	LDI ZL,$DC
00656B  93EA    	ST -Y,ZL
00656C  940E    	CALL L1258           start conversion (DC)
00656D  3CF1
00656E  FC27    L1346:	SBRC R2,7        wait for bit 7
00656F  CFFE    	RJMP L1346
006570  91E0    	LDS ZL,$0616         get ADC value
006571  0616
006572  81AE    	LDD XL,Y+6
006573  81BF    	LDD XH,Y+7
006574  8588    	LDD R24,Y+8
006575  8599    	LDD R25,Y+9
006576  27FF    	CLR ZH
006577  2766    	CLR R22
006578  2777    	CLR R23
006579  940E    	CALL L872
00657A  6CFB
00657B  940E    	CALL L1347
00657C  6D39
00657D  83EE    	STD Y+6,ZL
00657E  83FF    	STD Y+7,ZH
00657F  8768    	STD Y+8,R22
006580  8779    	STD Y+9,R23
006581  98C5    	CBI PORTB,PB5           PSD OFF
006582  B7E9    	IN ZL,EIMSK
006583  64E0    	ORI ZL,$40
006584  BFE9    	OUT EIMSK,ZL            EXT INT OFF
006585  81AE    	LDD XL,Y+6
006586  81BF    	LDD XH,Y+7
006587  8588    	LDD R24,Y+8
006588  8599    	LDD R25,Y+9
006589  EEE1    	LDI ZL,$E1
00658A  E7FA    	LDI ZH,$7A
00658B  ED6C    	LDI R22,$DC
00658C  E470    	LDI R23,$40
00658D  940E    	CALL L1348
00658E  6C6B
00658F  940E    	CALL L1349
006590  6D32
006591  E6A6    	LDI XL,$66
006592  EAB6    	LDI XH,$A6
006593  E88B    	LDI R24,$8B
006594  E494    	LDI R25,$44
006595  940E    	CALL L965
006596  6DB9
006597  83EA    	STD Y+2,ZL
006598  83FB    	STD Y+3,ZH
006599  836C    	STD Y+4,R22
00659A  837D    	STD Y+5,R23
00659B  81AA    	LDD XL,Y+2
00659C  81BB    	LDD XH,Y+3
00659D  818C    	LDD R24,Y+4
00659E  819D    	LDD R25,Y+5
00659F  940E    	CALL L1350
0065A0  6E22
0065A1  F40C    	BRGE L1351
0065A2  C01A    	RJMP L1352
0065A3  81AA    L1351:	LDD XL,Y+2
0065A4  81BB    	LDD XH,Y+3
0065A5  818C    	LDD R24,Y+4
0065A6  819D    	LDD R25,Y+5
0065A7  E0E0    	LDI ZL,$00
0065A8  E0F0    	LDI ZH,$00
0065A9  E260    	LDI R22,$20
0065AA  E471    	LDI R23,$41
0065AB  940E    	CALL L974
0065AC  6DFA
0065AD  F408    	BRCC L1353
0065AE  C012    	RJMP L1354
0065AF  81AA    L1353:	LDD XL,Y+2
0065B0  81BB    	LDD XH,Y+3
0065B1  818C    	LDD R24,Y+4
0065B2  819D    	LDD R25,Y+5
0065B3  E0E0    	LDI ZL,$00
0065B4  E0F0    	LDI ZH,$00
0065B5  E468    	LDI R22,$48
0065B6  E472    	LDI R23,$42
0065B7  940E    	CALL L974
0065B8  6DFA
0065B9  F009    	BREQ L1355
0065BA  F410    	BRCC L1352
0065BB  940C    L1355:	JMP L1356
0065BC  65C5
0065BD  E0E0    L1352:	LDI ZL,$00
0065BE  E0F0    	LDI ZH,$00
0065BF  E468    	LDI R22,$48
0065C0  E472    	LDI R23,$42
0065C1  83EA    L1354:	STD Y+2,ZL
0065C2  83FB    	STD Y+3,ZH
0065C3  836C    	STD Y+4,R22
0065C4  837D    	STD Y+5,R23
0065C5  81EA    L1356:	LDD ZL,Y+2
0065C6  81FB    	LDD ZH,Y+3
0065C7  816C    	LDD R22,Y+4
0065C8  817D    	LDD R23,Y+5
0065C9  940E    	CALL L876
0065CA  6CC8
0065CB  93E0    	STS $0613,ZL
0065CC  0613
0065CD  8119    	LDD R17,Y+1
0065CE  8108    	LD R16,Y
0065CF  962A    	ADIW YH:YL,10
0065D0  9508    	RET

#################


#################

0065D1  9724    L1081:	SBIW YH:YL,4
0065D2  E084    	LDI R24,$04
0065D3  E0A0    	LDI XL,$00
0065D4  E0B0    	LDI XH,$00
0065D5  EBE4    	LDI ZL,$B4
0065D6  E5FC    	LDI ZH,$5C
0065D7  E060    	LDI R22,$00
0065D8  940E    	CALL L1345
0065D9  6E34
0065DA  931A    	ST -Y,R17
0065DB  930A    	ST -Y,R16
0065DC  E0EF    	LDI ZL,$0F                 'Mic ?
0065DD  93E0    	STS $0606,ZL           channel=F
0065DE  0606
0065DF  E000    	LDI R16,$00
0065E0  E010    	LDI R17,$00
0065E1  3302    L1359:	CPI R16,$32   for i = 0 to 12800
0065E2  E0E0    	LDI ZL,$00
0065E3  071E    	CPC R17,ZL
0065E4  F4E0    	BRCC L1357
0065E5  9468    	BSET 6                 set T flag
0065E6  F827    	BLD R2,7               set bit 7
0065E7  EDEC    	LDI ZL,$DC
0065E8  93EA    	ST -Y,ZL
0065E9  940E    	CALL L1258             start conversion(DC)
0065EA  3CF1 
0065EB  FC27    L1358:	SBRC R2,7            test bit 7
0065EC  CFFE    	RJMP L1358
0065ED  91E0    	LDS ZL,$0617           load Mic
0065EE  0617
0065EF  81AA    	LDD XL,Y+2
0065F0  81BB    	LDD XH,Y+3
0065F1  818C    	LDD R24,Y+4
0065F2  819D    	LDD R25,Y+5
0065F3  27FF    	CLR ZH
0065F4  2766    	CLR R22
0065F5  2777    	CLR R23
0065F6  940E    	CALL L872
0065F7  6CFB
0065F8  940E    	CALL L1347
0065F9  6D39
0065FA  83EA    	STD Y+2,ZL
0065FB  83FB    	STD Y+3,ZH
0065FC  836C    	STD Y+4,R22
0065FD  837D    	STD Y+5,R23
0065FE  5F0F    	SUBI R16,$FF             i=i-1
0065FF  4F1F    	SBCI R17,$FF
006600  CFE0    	RJMP L1359               next i
006601  81AA    L1357:	LDD XL,Y+2
006602  81BB    	LDD XH,Y+3
006603  818C    	LDD R24,Y+4
006604  819D    	LDD R25,Y+5
006605  E0E0    	LDI ZL,$00
006606  E0F0    	LDI ZH,$00
006607  E468    	LDI R22,$48
006608  E472    	LDI R23,$42
006609  940E    	CALL L965
00660A  6DB9
00660B  83EA    	STD Y+2,ZL
00660C  83FB    	STD Y+3,ZH
00660D  836C    	STD Y+4,R22
00660E  837D    	STD Y+5,R23
00660F  940E    	CALL L876
006610  6CC8
006611  93E0    	STS $0614,ZL
006612  0614
006613  8119    	LDD R17,Y+1
006614  8108    	LD R16,Y
006615  9626    	ADIW YH:YL,6
006616  9508    	RET
006617  FC24    L793:	SBRC R2,4
006618  9508    	RET

006619  E0E1    	LDI ZL,$01           channel = Voltage
00661A  93E0    	STS $0606,ZL
00661B  0606
00661C  9468    	BSET 6
00661D  F827    	BLD R2,7
00661E  EDEC    	LDI ZL,$DC
00661F  93EA    	ST -Y,ZL
006620  940E    	CALL L1258
006621  3CF1
006622  FC27    L1360:	SBRC R2,7
006623  CFFE    	RJMP L1360
006624  E0E2    	LDI ZL,$02
006625  E5FD    	LDI ZH,$5D
006626  E060    	LDI R22,$00
006627  940E    	CALL L761
006628  6C66
006629  91E0    	LDS ZL,$0611
00662A  0611
00662B  91F0    	LDS ZH,$0612
00662C  0612
00662D  2766    	CLR R22
00662E  2777    	CLR R23
00662F  940E    	CALL L761
006630  6C66
006631  E084    	LDI R24,$04
006632  940E    	CALL L762
006633  6B1E
006634  9628    	ADIW YH:YL,8
006635  9508    	RET
006636  9B5F    L1361:	SBIS UCSR0A,RXC0
006637  CFFE    	RJMP L1361
006638  B1EC    	IN ZL,UDR0
006639  9508    	RET
00663A  9B5D    L1362:	SBIS UCSR0A,UDRE0
00663B  CFFE    	RJMP L1362
00663C  81E8    	LD ZL,Y
00663D  B9EC    	OUT UDR0,ZL
00663E  9621    	ADIW YH:YL,1
00663F  9508    	RET
006640  81A8    L1403:	LD XL,Y
006641  81B9    	LDD XH,Y+1
006642  940E    	CALL L878
006643  6C4B
006644  9730    	SBIW ZH:ZL,0
006645  F049    	BREQ L1363
006646  91ED    	LD ZL,X+
006647  91FD    	LD ZH,X+
006648  9631    	ADIW ZH:ZL,1
006649  93FE    	ST -X,ZH
00664A  93EE    	ST -X,ZL
00664B  9731    	SBIW ZH:ZL,1
00664C  81AA    	LDD XL,Y+2
00664D  83A0    	ST Z,XL
00664E  C004    	RJMP L1364
00664F  81EA    L1363:	LDD ZL,Y+2
006650  93EA    	ST -Y,ZL
006651  940E    	CALL L1362
006652  663A
006653  9623    L1364:	ADIW YH:YL,3
006654  9508    	RET
006655  9724    L1437:	SBIW YH:YL,4
006656  931A    	ST -Y,R17
006657  930A    	ST -Y,R16
006658  85A8    	LDD XL,Y+8
006659  30A6    	CPI XL,$06
00665A  F010    	BRCS L1365
00665B  E0E5    	LDI ZL,$05
00665C  87E8    	STD Y+8,ZL
00665D  85E8    L1365:	LDD ZL,Y+8
00665E  EBA8    	LDI XL,$B8
00665F  E5BC    	LDI XH,$5C
006660  E080    	LDI R24,$00
006661  27FF    	CLR ZH
006662  2766    	CLR R22
006663  2777    	CLR R23
006664  940E    	CALL L955
006665  6BCB
006666  940E    	CALL L955
006667  6BCB
006668  940E    	CALL L902
006669  6B9F
00666A  940E    	CALL L1366
00666B  6C5F
00666C  85A9    	LDD XL,Y+9
00666D  85BA    	LDD XH,Y+10
00666E  858B    	LDD R24,Y+11
00666F  859C    	LDD R25,Y+12
006670  940E    	CALL L1347
006671  6D39
006672  87E9    	STD Y+9,ZL
006673  87FA    	STD Y+10,ZH
006674  876B    	STD Y+11,R22
006675  877C    	STD Y+12,R23
006676  E000    	LDI R16,$00
006677  E0E0    	LDI ZL,$00
006678  E0F0    	LDI ZH,$00
006679  E860    	LDI R22,$80
00667A  E37F    	LDI R23,$3F
00667B  83EA    	STD Y+2,ZL
00667C  83FB    	STD Y+3,ZH
00667D  836C    	STD Y+4,R22
00667E  837D    	STD Y+5,R23
00667F  81EA    L1368:	LDD ZL,Y+2
006680  81FB    	LDD ZH,Y+3
006681  816C    	LDD R22,Y+4
006682  817D    	LDD R23,Y+5
006683  85A9    	LDD XL,Y+9
006684  85BA    	LDD XH,Y+10
006685  858B    	LDD R24,Y+11
006686  859C    	LDD R25,Y+12
006687  940E    	CALL L974
006688  6DFA
006689  F080    	BRCS L1367
00668A  81AA    	LDD XL,Y+2
00668B  81BB    	LDD XH,Y+3
00668C  818C    	LDD R24,Y+4
00668D  819D    	LDD R25,Y+5
00668E  E0E0    	LDI ZL,$00
00668F  E0F0    	LDI ZH,$00
006690  E260    	LDI R22,$20
006691  E471    	LDI R23,$41
006692  940E    	CALL L875
006693  6D87
006694  83EA    	STD Y+2,ZL
006695  83FB    	STD Y+3,ZH
006696  836C    	STD Y+4,R22
006697  837D    	STD Y+5,R23
006698  5F0F    	SUBI R16,$FF
006699  CFE5    	RJMP L1368
00669A  3000    L1367:	CPI R16,$00
00669B  F449    	BRNE L1369
00669C  81AE    	LDD XL,Y+6
00669D  81BF    	LDD XH,Y+7
00669E  9611    	ADIW XH:XL,1
00669F  83AE    	STD Y+6,XL
0066A0  83BF    	STD Y+7,XH
0066A1  9711    	SBIW XH:XL,1
0066A2  E3E0    	LDI ZL,$30
0066A3  93EC    	ST X,ZL
0066A4  C049    	RJMP L1370
0066A5  2FE0    L1369:	MOV ZL,R16
0066A6  5001    	SUBI R16,$01
0066A7  30E0    	CPI ZL,$00
0066A8  F411    	BRNE L1371
0066A9  940C    	JMP L1370
0066AA  66EE
0066AB  81AA    L1371:	LDD XL,Y+2
0066AC  81BB    	LDD XH,Y+3
0066AD  818C    	LDD R24,Y+4
0066AE  819D    	LDD R25,Y+5
0066AF  E0E0    	LDI ZL,$00
0066B0  E0F0    	LDI ZH,$00
0066B1  E260    	LDI R22,$20
0066B2  E471    	LDI R23,$41
0066B3  940E    	CALL L965
0066B4  6DB9
0066B5  E0A0    	LDI XL,$00
0066B6  E0B0    	LDI XH,$00
0066B7  E080    	LDI R24,$00
0066B8  E39F    	LDI R25,$3F
0066B9  940E    	CALL L1347
0066BA  6D39
0066BB  940E    	CALL L761
0066BC  6C66
0066BD  940E    	CALL L1372
0066BE  6B92
0066BF  83EA    	STD Y+2,ZL
0066C0  83FB    	STD Y+3,ZH
0066C1  836C    	STD Y+4,R22
0066C2  837D    	STD Y+5,R23
0066C3  85A9    	LDD XL,Y+9
0066C4  85BA    	LDD XH,Y+10
0066C5  858B    	LDD R24,Y+11
0066C6  859C    	LDD R25,Y+12
0066C7  940E    	CALL L965
0066C8  6DB9
0066C9  940E    	CALL L876
0066CA  6CC8
0066CB  2F1E    	MOV R17,ZL
0066CC  81AE    	LDD XL,Y+6
0066CD  81BF    	LDD XH,Y+7
0066CE  9611    	ADIW XH:XL,1
0066CF  83AE    	STD Y+6,XL
0066D0  83BF    	STD Y+7,XH
0066D1  9711    	SBIW XH:XL,1
0066D2  2FE1    	MOV ZL,R17
0066D3  5DE0    	SUBI ZL,$D0
0066D4  93EC    	ST X,ZL
0066D5  2FE1    	MOV ZL,R17
0066D6  81AA    	LDD XL,Y+2
0066D7  81BB    	LDD XH,Y+3
0066D8  818C    	LDD R24,Y+4
0066D9  819D    	LDD R25,Y+5
0066DA  27FF    	CLR ZH
0066DB  2766    	CLR R22
0066DC  2777    	CLR R23
0066DD  940E    	CALL L872
0066DE  6CFB
0066DF  940E    	CALL L875
0066E0  6D87
0066E1  85A9    	LDD XL,Y+9
0066E2  85BA    	LDD XH,Y+10
0066E3  858B    	LDD R24,Y+11
0066E4  859C    	LDD R25,Y+12
0066E5  940E    	CALL L1348
0066E6  6C6B
0066E7  940E    	CALL L1349
0066E8  6D32
0066E9  87E9    	STD Y+9,ZL
0066EA  87FA    	STD Y+10,ZH
0066EB  876B    	STD Y+11,R22
0066EC  877C    	STD Y+12,R23
0066ED  CFB7    	RJMP L1369
0066EE  85E8    L1370:	LDD ZL,Y+8
0066EF  30E0    	CPI ZL,$00
0066F0  F429    	BRNE L1373
0066F1  81AE    	LDD XL,Y+6
0066F2  81BF    	LDD XH,Y+7
0066F3  E0E0    	LDI ZL,$00
0066F4  93EC    	ST X,ZL
0066F5  C03E    	RJMP L1374
0066F6  81AE    L1373:	LDD XL,Y+6
0066F7  81BF    	LDD XH,Y+7
0066F8  9611    	ADIW XH:XL,1
0066F9  83AE    	STD Y+6,XL
0066FA  83BF    	STD Y+7,XH
0066FB  9711    	SBIW XH:XL,1
0066FC  E2EE    	LDI ZL,$2E
0066FD  93EC    	ST X,ZL
0066FE  85E8    L1376:	LDD ZL,Y+8
0066FF  50E1    	SUBI ZL,$01
006700  87E8    	STD Y+8,ZL
006701  5FEF    	SUBI ZL,$FF
006702  F169    	BREQ L1375
006703  85A9    	LDD XL,Y+9
006704  85BA    	LDD XH,Y+10
006705  858B    	LDD R24,Y+11
006706  859C    	LDD R25,Y+12
006707  E0E0    	LDI ZL,$00
006708  E0F0    	LDI ZH,$00
006709  E260    	LDI R22,$20
00670A  E471    	LDI R23,$41
00670B  940E    	CALL L875
00670C  6D87
00670D  87E9    	STD Y+9,ZL
00670E  87FA    	STD Y+10,ZH
00670F  876B    	STD Y+11,R22
006710  877C    	STD Y+12,R23
006711  940E    	CALL L876
006712  6CC8
006713  2F1E    	MOV R17,ZL
006714  81AE    	LDD XL,Y+6
006715  81BF    	LDD XH,Y+7
006716  9611    	ADIW XH:XL,1
006717  83AE    	STD Y+6,XL
006718  83BF    	STD Y+7,XH
006719  9711    	SBIW XH:XL,1
00671A  2FE1    	MOV ZL,R17
00671B  5DE0    	SUBI ZL,$D0
00671C  93EC    	ST X,ZL
00671D  2FE1    	MOV ZL,R17
00671E  85A9    	LDD XL,Y+9
00671F  85BA    	LDD XH,Y+10
006720  858B    	LDD R24,Y+11
006721  859C    	LDD R25,Y+12
006722  27FF    	CLR ZH
006723  2766    	CLR R22
006724  2777    	CLR R23
006725  940E    	CALL L872
006726  6CFB
006727  940E    	CALL L1348
006728  6C6B
006729  940E    	CALL L1349
00672A  6D32
00672B  87E9    	STD Y+9,ZL
00672C  87FA    	STD Y+10,ZH
00672D  876B    	STD Y+11,R22
00672E  877C    	STD Y+12,R23
00672F  CFCE    	RJMP L1376
006730  81AE    L1375:	LDD XL,Y+6
006731  81BF    	LDD XH,Y+7
006732  E0E0    	LDI ZL,$00
006733  93EC    	ST X,ZL
006734  8119    L1374:	LDD R17,Y+1
006735  8108    	LD R16,Y
006736  962D    	ADIW YH:YL,13
006737  9508    	RET
006738  9724    L1439:	SBIW YH:YL,4
006739  940E    	CALL L594
00673A  6E29
00673B  E0E0    	LDI ZL,$00
00673C  E0F0    	LDI ZH,$00
00673D  E860    	LDI R22,$80
00673E  E37F    	LDI R23,$3F
00673F  83EB    	STD Y+3,ZL
006740  83FC    	STD Y+4,ZH
006741  836D    	STD Y+5,R22
006742  837E    	STD Y+6,R23
006743  85AA    	LDD XL,Y+10
006744  30A6    	CPI XL,$06
006745  F010    	BRCS L1377
006746  E0E5    	LDI ZL,$05
006747  87EA    	STD Y+10,ZL
006748  850A    L1377:	LDD R16,Y+10
006749  2FE0    L1379:	MOV ZL,R16
00674A  5001    	SUBI R16,$01
00674B  30E0    	CPI ZL,$00
00674C  F079    	BREQ L1378
00674D  81AB    	LDD XL,Y+3
00674E  81BC    	LDD XH,Y+4
00674F  818D    	LDD R24,Y+5
006750  819E    	LDD R25,Y+6
006751  E0E0    	LDI ZL,$00
006752  E0F0    	LDI ZH,$00
006753  E260    	LDI R22,$20
006754  E471    	LDI R23,$41
006755  940E    	CALL L875
006756  6D87
006757  83EB    	STD Y+3,ZL
006758  83FC    	STD Y+4,ZH
006759  836D    	STD Y+5,R22
00675A  837E    	STD Y+6,R23
00675B  CFED    	RJMP L1379
00675C  85EB    L1378:	LDD ZL,Y+11
00675D  85FC    	LDD ZH,Y+12
00675E  856D    	LDD R22,Y+13
00675F  857E    	LDD R23,Y+14
006760  940E    	CALL L1380
006761  6E1A
006762  F481    	BRNE L1381
006763  E020    	LDI R18,$00
006764  81AB    	LDD XL,Y+3
006765  81BC    	LDD XH,Y+4
006766  818D    	LDD R24,Y+5
006767  819E    	LDD R25,Y+6
006768  E0E0    	LDI ZL,$00
006769  E0F0    	LDI ZH,$00
00676A  E260    	LDI R22,$20
00676B  E471    	LDI R23,$41
00676C  940E    	CALL L875
00676D  6D87
00676E  83EB    	STD Y+3,ZL
00676F  83FC    	STD Y+4,ZH
006770  836D    	STD Y+5,R22
006771  837E    	STD Y+6,R23
006772  C07E    	RJMP L1382
006773  852A    L1381:	LDD R18,Y+10
006774  81EB    	LDD ZL,Y+3
006775  81FC    	LDD ZH,Y+4
006776  816D    	LDD R22,Y+5
006777  817E    	LDD R23,Y+6
006778  85AB    	LDD XL,Y+11
006779  85BC    	LDD XH,Y+12
00677A  858D    	LDD R24,Y+13
00677B  859E    	LDD R25,Y+14
00677C  940E    	CALL L974
00677D  6DFA
00677E  F009    	BREQ L1383
00677F  F410    	BRCC L1384
006780  940C    L1383:	JMP L1385
006781  67A8
006782  81AB    L1384:	LDD XL,Y+3
006783  81BC    	LDD XH,Y+4
006784  818D    	LDD R24,Y+5
006785  819E    	LDD R25,Y+6
006786  E0E0    	LDI ZL,$00
006787  E0F0    	LDI ZH,$00
006788  E260    	LDI R22,$20
006789  E471    	LDI R23,$41
00678A  940E    	CALL L875
00678B  6D87
00678C  83EB    	STD Y+3,ZL
00678D  83FC    	STD Y+4,ZH
00678E  836D    	STD Y+5,R22
00678F  837E    	STD Y+6,R23
006790  81EB    L1387:	LDD ZL,Y+3
006791  81FC    	LDD ZH,Y+4
006792  816D    	LDD R22,Y+5
006793  817E    	LDD R23,Y+6
006794  85AB    	LDD XL,Y+11
006795  85BC    	LDD XH,Y+12
006796  858D    	LDD R24,Y+13
006797  859E    	LDD R25,Y+14
006798  940E    	CALL L974
006799  6DFA
00679A  F060    	BRCS L1386
00679B  E0E0    	LDI ZL,$00
00679C  E0F0    	LDI ZH,$00
00679D  E260    	LDI R22,$20
00679E  E471    	LDI R23,$41
00679F  940E    	CALL L965
0067A0  6DB9
0067A1  87EB    	STD Y+11,ZL
0067A2  87FC    	STD Y+12,ZH
0067A3  876D    	STD Y+13,R22
0067A4  877E    	STD Y+14,R23
0067A5  5F2F    	SUBI R18,$FF
0067A6  CFE9    	RJMP L1387
0067A7  C025    L1386:	RJMP L1388
0067A8  81EB    L1385:	LDD ZL,Y+3
0067A9  81FC    	LDD ZH,Y+4
0067AA  816D    	LDD R22,Y+5
0067AB  817E    	LDD R23,Y+6
0067AC  85AB    	LDD XL,Y+11
0067AD  85BC    	LDD XH,Y+12
0067AE  858D    	LDD R24,Y+13
0067AF  859E    	LDD R25,Y+14
0067B0  940E    	CALL L974
0067B1  6DFA
0067B2  F460    	BRCC L1389
0067B3  E0E0    	LDI ZL,$00
0067B4  E0F0    	LDI ZH,$00
0067B5  E260    	LDI R22,$20
0067B6  E471    	LDI R23,$41
0067B7  940E    	CALL L875
0067B8  6D87
0067B9  87EB    	STD Y+11,ZL
0067BA  87FC    	STD Y+12,ZH
0067BB  876D    	STD Y+13,R22
0067BC  877E    	STD Y+14,R23
0067BD  5021    	SUBI R18,$01
0067BE  CFE9    	RJMP L1385
0067BF  81AB    L1389:	LDD XL,Y+3
0067C0  81BC    	LDD XH,Y+4
0067C1  818D    	LDD R24,Y+5
0067C2  819E    	LDD R25,Y+6
0067C3  E0E0    	LDI ZL,$00
0067C4  E0F0    	LDI ZH,$00
0067C5  E260    	LDI R22,$20
0067C6  E471    	LDI R23,$41
0067C7  940E    	CALL L875
0067C8  6D87
0067C9  83EB    	STD Y+3,ZL
0067CA  83FC    	STD Y+4,ZH
0067CB  836D    	STD Y+5,R22
0067CC  837E    	STD Y+6,R23
0067CD  85EB    L1388:	LDD ZL,Y+11
0067CE  85FC    	LDD ZH,Y+12
0067CF  856D    	LDD R22,Y+13
0067D0  857E    	LDD R23,Y+14
0067D1  E0A0    	LDI XL,$00
0067D2  E0B0    	LDI XH,$00
0067D3  E080    	LDI R24,$00
0067D4  E39F    	LDI R25,$3F
0067D5  940E    	CALL L1347
0067D6  6D39
0067D7  87EB    	STD Y+11,ZL
0067D8  87FC    	STD Y+12,ZH
0067D9  876D    	STD Y+13,R22
0067DA  877E    	STD Y+14,R23
0067DB  81EB    	LDD ZL,Y+3
0067DC  81FC    	LDD ZH,Y+4
0067DD  816D    	LDD R22,Y+5
0067DE  817E    	LDD R23,Y+6
0067DF  85AB    	LDD XL,Y+11
0067E0  85BC    	LDD XH,Y+12
0067E1  858D    	LDD R24,Y+13
0067E2  859E    	LDD R25,Y+14
0067E3  940E    	CALL L974
0067E4  6DFA
0067E5  F058    	BRCS L1382
0067E6  E0E0    	LDI ZL,$00
0067E7  E0F0    	LDI ZH,$00
0067E8  E260    	LDI R22,$20
0067E9  E471    	LDI R23,$41
0067EA  940E    	CALL L965
0067EB  6DB9
0067EC  87EB    	STD Y+11,ZL
0067ED  87FC    	STD Y+12,ZH
0067EE  876D    	STD Y+13,R22
0067EF  877E    	STD Y+14,R23
0067F0  5F2F    	SUBI R18,$FF
0067F1  E000    L1382:	LDI R16,$00
0067F2  85EA    L1393:	LDD ZL,Y+10
0067F3  17E0    	CP ZL,R16
0067F4  F410    	BRCC L1390
0067F5  940C    	JMP L1391
0067F6  6847
0067F7  81AB    L1390:	LDD XL,Y+3
0067F8  81BC    	LDD XH,Y+4
0067F9  818D    	LDD R24,Y+5
0067FA  819E    	LDD R25,Y+6
0067FB  E0E0    	LDI ZL,$00
0067FC  E0F0    	LDI ZH,$00
0067FD  E260    	LDI R22,$20
0067FE  E471    	LDI R23,$41
0067FF  940E    	CALL L965
006800  6DB9
006801  E0A0    	LDI XL,$00
006802  E0B0    	LDI XH,$00
006803  E080    	LDI R24,$00
006804  E39F    	LDI R25,$3F
006805  940E    	CALL L1347
006806  6D39
006807  940E    	CALL L761
006808  6C66
006809  940E    	CALL L1372
00680A  6B92
00680B  83EB    	STD Y+3,ZL
00680C  83FC    	STD Y+4,ZH
00680D  836D    	STD Y+5,R22
00680E  837E    	STD Y+6,R23
00680F  85AB    	LDD XL,Y+11
006810  85BC    	LDD XH,Y+12
006811  858D    	LDD R24,Y+13
006812  859E    	LDD R25,Y+14
006813  940E    	CALL L965
006814  6DB9
006815  940E    	CALL L876
006816  6CC8
006817  2F1E    	MOV R17,ZL
006818  81AF    	LDD XL,Y+7
006819  85B8    	LDD XH,Y+8
00681A  9611    	ADIW XH:XL,1
00681B  83AF    	STD Y+7,XL
00681C  87B8    	STD Y+8,XH
00681D  9711    	SBIW XH:XL,1
00681E  2FE1    	MOV ZL,R17
00681F  5DE0    	SUBI ZL,$D0
006820  93EC    	ST X,ZL
006821  2FE1    	MOV ZL,R17
006822  27FF    	CLR ZH
006823  2766    	CLR R22
006824  2777    	CLR R23
006825  940E    	CALL L872
006826  6CFB
006827  81AB    	LDD XL,Y+3
006828  81BC    	LDD XH,Y+4
006829  818D    	LDD R24,Y+5
00682A  819E    	LDD R25,Y+6
00682B  940E    	CALL L875
00682C  6D87
00682D  85AB    	LDD XL,Y+11
00682E  85BC    	LDD XH,Y+12
00682F  858D    	LDD R24,Y+13
006830  859E    	LDD R25,Y+14
006831  940E    	CALL L1348
006832  6C6B
006833  940E    	CALL L1349
006834  6D32
006835  87EB    	STD Y+11,ZL
006836  87FC    	STD Y+12,ZH
006837  876D    	STD Y+13,R22
006838  877E    	STD Y+14,R23
006839  2FE0    	MOV ZL,R16
00683A  5F0F    	SUBI R16,$FF
00683B  30E0    	CPI ZL,$00
00683C  F009    	BREQ L1392
00683D  CFB4    	RJMP L1393
00683E  81AF    L1392:	LDD XL,Y+7
00683F  85B8    	LDD XH,Y+8
006840  9611    	ADIW XH:XL,1
006841  83AF    	STD Y+7,XL
006842  87B8    	STD Y+8,XH
006843  9711    	SBIW XH:XL,1
006844  E2EE    	LDI ZL,$2E
006845  93EC    	ST X,ZL
006846  CFAB    	RJMP L1393
006847  81EF    L1391:	LDD ZL,Y+7
006848  85F8    	LDD ZH,Y+8
006849  9631    	ADIW ZH:ZL,1
00684A  83EF    	STD Y+7,ZL
00684B  87F8    	STD Y+8,ZH
00684C  9731    	SBIW ZH:ZL,1
00684D  85A9    	LDD XL,Y+9
00684E  83A0    	ST Z,XL
00684F  3020    	CPI R18,$00
006850  F44C    	BRGE L1394
006851  81AF    	LDD XL,Y+7
006852  85B8    	LDD XH,Y+8
006853  9611    	ADIW XH:XL,1
006854  83AF    	STD Y+7,XL
006855  87B8    	STD Y+8,XH
006856  9711    	SBIW XH:XL,1
006857  E2ED    	LDI ZL,$2D
006858  93EC    	ST X,ZL
006859  9521    	NEG R18
00685A  302A    L1394:	CPI R18,$0A
00685B  F074    	BRLT L1395
00685C  81EF    	LDD ZL,Y+7
00685D  85F8    	LDD ZH,Y+8
00685E  9631    	ADIW ZH:ZL,1
00685F  83EF    	STD Y+7,ZL
006860  87F8    	STD Y+8,ZH
006861  9731    	SBIW ZH:ZL,1
006862  01BF    	MOVW R23:R22,R31:R30
006863  2FA2    	MOV XL,R18
006864  E0EA    	LDI ZL,$0A
006865  940E    	CALL L1396
006866  6BF1
006867  5DE0    	SUBI ZL,$D0
006868  01DB    	MOVW R27:R26,R23:R22
006869  93EC    	ST X,ZL
00686A  81EF    L1395:	LDD ZL,Y+7
00686B  85F8    	LDD ZH,Y+8
00686C  9631    	ADIW ZH:ZL,1
00686D  83EF    	STD Y+7,ZL
00686E  87F8    	STD Y+8,ZH
00686F  9731    	SBIW ZH:ZL,1
006870  01BF    	MOVW R23:R22,R31:R30
006871  2FA2    	MOV XL,R18
006872  E0EA    	LDI ZL,$0A
006873  940E    	CALL L1397
006874  6C2F
006875  5DE0    	SUBI ZL,$D0
006876  01DB    	MOVW R27:R26,R23:R22
006877  93EC    	ST X,ZL
006878  81AF    	LDD XL,Y+7
006879  85B8    	LDD XH,Y+8
00687A  E0E0    	LDI ZL,$00
00687B  93EC    	ST X,ZL
00687C  940E    	CALL L605
00687D  6E30
00687E  962F    	ADIW YH:YL,15
00687F  9508    	RET
006880  976E    L1504:	SBIW YH:YL,30
006881  940E    	CALL L613
006882  6E26
006883  E000    	LDI R16,$00
006884  A5E8    L1502:	LDD ZL,Y+40
006885  A5F9    	LDD ZH,Y+41
006886  A56A    	LDD R22,Y+42
006887  A57B    	LDD R23,Y+43
006888  5FEF    	SUBI ZL,$FF
006889  4FFF    	SBCI ZH,$FF
00688A  4F6F    	SBCI R22,$FF
00688B  4F7F    	SBCI R23,$FF
00688C  A7E8    	STD Y+40,ZL
00688D  A7F9    	STD Y+41,ZH
00688E  A76A    	STD Y+42,R22
00688F  A77B    	STD Y+43,R23
006890  9731    	SBIW ZH:ZL,1
006891  4060    	SBCI R22,$00
006892  4070    	SBCI R23,$00
006893  BF6B    	OUT RAMPZ,R22
006894  91E6    	ELPM ZL,Z
006895  2F3E    	MOV R19,ZL
006896  30E0    	CPI ZL,$00
006897  F411    	BRNE L1398
006898  940C    	JMP L1399
006899  6B1A
00689A  2FE0    L1398:	MOV ZL,R16
00689B  30E0    	CPI ZL,$00
00689C  F461    	BRNE L1400
00689D  3235    	CPI R19,$25
00689E  F411    	BRNE L1401
00689F  E001    	LDI R16,$01
0068A0  C007    	RJMP L1402
0068A1  933A    L1401:	ST -Y,R19
0068A2  A1ED    	LDD ZL,Y+37
0068A3  A1FE    	LDD ZH,Y+38
0068A4  93FA    	ST -Y,ZH
0068A5  93EA    	ST -Y,ZL
0068A6  940E    	CALL L1403
0068A7  6640
0068A8  C270    L1402:	RJMP L1404
0068A9  30E1    L1400:	CPI ZL,$01
0068AA  F4E9    	BRNE L1405
0068AB  3235    	CPI R19,$25
0068AC  F441    	BRNE L1406
0068AD  933A    	ST -Y,R19
0068AE  A1ED    	LDD ZL,Y+37
0068AF  A1FE    	LDD ZH,Y+38
0068B0  93FA    	ST -Y,ZH
0068B1  93EA    	ST -Y,ZL
0068B2  940E    	CALL L1403
0068B3  6640
0068B4  C263    	RJMP L1407
0068B5  E002    L1406:	LDI R16,$02
0068B6  E0E0    	LDI ZL,$00
0068B7  8BEB    	STD Y+19,ZL
0068B8  E010    	LDI R17,$00
0068B9  323D    	CPI R19,$2D
0068BA  F411    	BRNE L1408
0068BB  E011    	LDI R17,$01
0068BC  C25C    	RJMP L1404
0068BD  323B    L1408:	CPI R19,$2B
0068BE  F419    	BRNE L1409
0068BF  E2EB    	LDI ZL,$2B
0068C0  8BEB    	STD Y+19,ZL
0068C1  C257    	RJMP L1404
0068C2  3230    L1409:	CPI R19,$20
0068C3  F419    	BRNE L1410
0068C4  E2E0    	LDI ZL,$20
0068C5  8BEB    	STD Y+19,ZL
0068C6  C252    	RJMP L1404
0068C7  C002    L1410:	RJMP L1411
0068C8  30E2    L1405:	CPI ZL,$02
0068C9  F439    	BRNE L1412
0068CA  E040    L1411:	LDI R20,$00
0068CB  E003    	LDI R16,$03
0068CC  3330    	CPI R19,$30
0068CD  F411    	BRNE L1413
0068CE  6810    	ORI R17,$80
0068CF  C249    	RJMP L1404
0068D0  C002    L1413:	RJMP L1414
0068D1  30E3    L1412:	CPI ZL,$03
0068D2  F4A1    	BRNE L1415
0068D3  3330    L1414:	CPI R19,$30
0068D4  F010    	BRCS L1416
0068D5  333A    	CPI R19,$3A
0068D6  F008    	BRCS L1417
0068D7  C009    L1416:	RJMP L1418
0068D8  2FA4    L1417:	MOV XL,R20
0068D9  E0EA    	LDI ZL,$0A
0068DA  9FEA    	MUL ZL,XL
0068DB  01F0    	MOVW R31:R30,R1:R0
0068DC  2F4E    	MOV R20,ZL
0068DD  2FE3    	MOV ZL,R19
0068DE  53E0    	SUBI ZL,$30
0068DF  0F4E    	ADD R20,ZL
0068E0  C238    	RJMP L1404
0068E1  E050    L1418:	LDI R21,$00
0068E2  323E    	CPI R19,$2E
0068E3  F411    	BRNE L1419
0068E4  E004    	LDI R16,$04
0068E5  C233    	RJMP L1404
0068E6  C011    L1419:	RJMP L1420
0068E7  30E4    L1415:	CPI ZL,$04
0068E8  F4A9    	BRNE L1421
0068E9  3330    	CPI R19,$30
0068EA  F010    	BRCS L1422
0068EB  333A    	CPI R19,$3A
0068EC  F008    	BRCS L1423
0068ED  C00A    L1422:	RJMP L1420
0068EE  6210    L1423:	ORI R17,$20
0068EF  2FA5    	MOV XL,R21
0068F0  E0EA    	LDI ZL,$0A
0068F1  9FEA    	MUL ZL,XL
0068F2  01F0    	MOVW R31:R30,R1:R0
0068F3  2F5E    	MOV R21,ZL
0068F4  2FE3    	MOV ZL,R19
0068F5  53E0    	SUBI ZL,$30
0068F6  0F5E    	ADD R21,ZL
0068F7  C221    	RJMP L1404
0068F8  363C    L1420:	CPI R19,$6C
0068F9  F419    	BRNE L1424
0068FA  6012    	ORI R17,$02
0068FB  E005    	LDI R16,$05
0068FC  C21C    	RJMP L1404
0068FD  C004    L1424:	RJMP L1425
0068FE  30E5    L1421:	CPI ZL,$05
0068FF  F011    	BREQ L1425
006900  940C    	JMP L1404
006901  6B19
006902  2FE3    L1425:	MOV ZL,R19
006903  36E3    	CPI ZL,$63
006904  F479    	BRNE L1426
006905  A1AE    	LDD XL,Y+38
006906  A1BF    	LDD XH,Y+39
006907  9714    	SBIW XH:XL,4
006908  A3AE    	STD Y+38,XL
006909  A3BF    	STD Y+39,XH
00690A  9614    	ADIW XH:XL,4
00690B  91EC    	LD ZL,X
00690C  93EA    	ST -Y,ZL
00690D  A1ED    	LDD ZL,Y+37
00690E  A1FE    	LDD ZH,Y+38
00690F  93FA    	ST -Y,ZH
006910  93EA    	ST -Y,ZL
006911  940E    	CALL L1403
006912  6640
006913  C204    	RJMP L1407
006914  34E5    L1426:	CPI ZL,$45
006915  F011    	BREQ L1427
006916  36E5    	CPI ZL,$65
006917  F409    	BRNE L1428
006918  C004    L1427:	RJMP L1429
006919  36E6    L1428:	CPI ZL,$66
00691A  F011    	BREQ L1429
00691B  940C    	JMP L1430
00691C  697F
00691D  01FE    L1429:	MOVW R31:R30,R29:R28
00691E  9674    	ADIW ZH:ZL,20
00691F  87EA    	STD Y+10,ZL
006920  87FB    	STD Y+11,ZH
006921  A1AE    	LDD XL,Y+38
006922  A1BF    	LDD XH,Y+39
006923  9714    	SBIW XH:XL,4
006924  A3AE    	STD Y+38,XL
006925  A3BF    	STD Y+39,XH
006926  9614    	ADIW XH:XL,4
006927  940E    	CALL L874
006928  6C4F
006929  83EE    	STD Y+6,ZL
00692A  83FF    	STD Y+7,ZH
00692B  8768    	STD Y+8,R22
00692C  8779    	STD Y+9,R23
00692D  01DF    	MOVW R27:R26,R31:R30
00692E  01CB    	MOVW R25:R24,R23:R22
00692F  940E    	CALL L1350
006930  6E22
006931  F024    	BRLT L1431
006932  89AB    	LDD XL,Y+19
006933  32AB    	CPI XL,$2B
006934  F069    	BREQ L1432
006935  C01F    	RJMP L1433
006936  81EE    L1431:	LDD ZL,Y+6
006937  81FF    	LDD ZH,Y+7
006938  8568    	LDD R22,Y+8
006939  8579    	LDD R23,Y+9
00693A  940E    	CALL L1434
00693B  6C9F
00693C  83EE    	STD Y+6,ZL
00693D  83FF    	STD Y+7,ZH
00693E  8768    	STD Y+8,R22
00693F  8779    	STD Y+9,R23
006940  E2ED    	LDI ZL,$2D
006941  8BEB    	STD Y+19,ZL
006942  FF17    L1432:	SBRS R17,7
006943  C009    	RJMP L1435
006944  89EB    	LDD ZL,Y+19
006945  93EA    	ST -Y,ZL
006946  A1ED    	LDD ZL,Y+37
006947  A1FE    	LDD ZH,Y+38
006948  93FA    	ST -Y,ZH
006949  93EA    	ST -Y,ZL
00694A  940E    	CALL L1403
00694B  6640
00694C  C008    	RJMP L1433
00694D  85EA    L1435:	LDD ZL,Y+10
00694E  85FB    	LDD ZH,Y+11
00694F  9631    	ADIW ZH:ZL,1
006950  87EA    	STD Y+10,ZL
006951  87FB    	STD Y+11,ZH
006952  9731    	SBIW ZH:ZL,1
006953  89AB    	LDD XL,Y+19
006954  83A0    	ST Z,XL
006955  FF15    L1433:	SBRS R17,5
006956  E055    	LDI R21,$05
006957  3636    	CPI R19,$66
006958  F471    	BRNE L1436
006959  81EE    	LDD ZL,Y+6
00695A  81FF    	LDD ZH,Y+7
00695B  8568    	LDD R22,Y+8
00695C  8579    	LDD R23,Y+9
00695D  940E    	CALL L761
00695E  6C66
00695F  935A    	ST -Y,R21
006960  85EF    	LDD ZL,Y+15
006961  89F8    	LDD ZH,Y+16
006962  93FA    	ST -Y,ZH
006963  93EA    	ST -Y,ZL
006964  940E    	CALL L1437
006965  6655
006966  C00E    	RJMP L1438
006967  81EE    L1436:	LDD ZL,Y+6
006968  81FF    	LDD ZH,Y+7
006969  8568    	LDD R22,Y+8
00696A  8579    	LDD R23,Y+9
00696B  940E    	CALL L761
00696C  6C66
00696D  935A    	ST -Y,R21
00696E  933A    	ST -Y,R19
00696F  89E8    	LDD ZL,Y+16
006970  89F9    	LDD ZH,Y+17
006971  93FA    	ST -Y,ZH
006972  93EA    	ST -Y,ZL
006973  940E    	CALL L1439
006974  6738
006975  01FE    L1438:	MOVW R31:R30,R29:R28
006976  9674    	ADIW ZH:ZL,20
006977  87EA    	STD Y+10,ZL
006978  87FB    	STD Y+11,ZH
006979  93FA    	ST -Y,ZH
00697A  93EA    	ST -Y,ZL
00697B  940E    	CALL L1440
00697C  6B3F
00697D  2F0E    	MOV R16,ZL
00697E  C02D    	RJMP L1441
00697F  37E3    L1430:	CPI ZL,$73
006980  F481    	BRNE L1442
006981  A1AE    	LDD XL,Y+38
006982  A1BF    	LDD XH,Y+39
006983  9714    	SBIW XH:XL,4
006984  A3AE    	STD Y+38,XL
006985  A3BF    	STD Y+39,XH
006986  9614    	ADIW XH:XL,4
006987  940E    	CALL L878
006988  6C4B
006989  87EA    	STD Y+10,ZL
00698A  87FB    	STD Y+11,ZH
00698B  93FA    	ST -Y,ZH
00698C  93EA    	ST -Y,ZL
00698D  940E    	CALL L1440
00698E  6B3F
00698F  2F0E    	MOV R16,ZL
006990  C014    	RJMP L1443
006991  37E0    L1442:	CPI ZL,$70
006992  F4F1    	BRNE L1444
006993  A1AE    	LDD XL,Y+38
006994  A1BF    	LDD XH,Y+39
006995  9714    	SBIW XH:XL,4
006996  A3AE    	STD Y+38,XL
006997  A3BF    	STD Y+39,XH
006998  9614    	ADIW XH:XL,4
006999  940E    	CALL L874
00699A  6C4F
00699B  87EA    	STD Y+10,ZL
00699C  87FB    	STD Y+11,ZH
00699D  876C    	STD Y+12,R22
00699E  877D    	STD Y+13,R23
00699F  940E    	CALL L761
0069A0  6C66
0069A1  940E    	CALL L1445
0069A2  6B49
0069A3  2F0E    	MOV R16,ZL
0069A4  6018    	ORI R17,$08
0069A5  771F    L1443:	ANDI R17,$7F
0069A6  3050    	CPI R21,$00
0069A7  F011    	BREQ L1446
0069A8  1750    	CP R21,R16
0069A9  F008    	BRCS L1447
0069AA  C001    L1446:	RJMP L1441
0069AB  2F05    L1447:	MOV R16,R21
0069AC  E050    L1441:	LDI R21,$00
0069AD  E0E0    	LDI ZL,$00
0069AE  8BEA    	STD Y+18,ZL
0069AF  E020    	LDI R18,$00
0069B0  C087    	RJMP L1448
0069B1  36E4    L1444:	CPI ZL,$64
0069B2  F011    	BREQ L1449
0069B3  36E9    	CPI ZL,$69
0069B4  F411    	BRNE L1450
0069B5  6014    L1449:	ORI R17,$04
0069B6  C002    	RJMP L1451
0069B7  37E5    L1450:	CPI ZL,$75
0069B8  F4C1    	BRNE L1452
0069B9  E0EA    L1451:	LDI ZL,$0A
0069BA  8BEA    	STD Y+18,ZL
0069BB  FF11    	SBRS R17,1
0069BC  C00A    	RJMP L1453
0069BD  E0E0    	LDI ZL,$00
0069BE  ECFA    	LDI ZH,$CA
0069BF  E96A    	LDI R22,$9A
0069C0  E37B    	LDI R23,$3B
0069C1  87EE    	STD Y+14,ZL
0069C2  87FF    	STD Y+15,ZH
0069C3  8B68    	STD Y+16,R22
0069C4  8B79    	STD Y+17,R23
0069C5  E00A    	LDI R16,$0A
0069C6  C029    	RJMP L1454
0069C7  E1E0    L1453:	LDI ZL,$10
0069C8  E2F7    	LDI ZH,$27
0069C9  E060    	LDI R22,$00
0069CA  E070    	LDI R23,$00
0069CB  87EE    	STD Y+14,ZL
0069CC  87FF    	STD Y+15,ZH
0069CD  8B68    	STD Y+16,R22
0069CE  8B79    	STD Y+17,R23
0069CF  E005    	LDI R16,$05
0069D0  C01F    	RJMP L1454
0069D1  35E8    L1452:	CPI ZL,$58
0069D2  F411    	BRNE L1455
0069D3  6018    	ORI R17,$08
0069D4  C004    	RJMP L1456
0069D5  37E8    L1455:	CPI ZL,$78
0069D6  F011    	BREQ L1456
0069D7  940C    	JMP L1407
0069D8  6B18
0069D9  E1E0    L1456:	LDI ZL,$10
0069DA  8BEA    	STD Y+18,ZL
0069DB  FF11    	SBRS R17,1
0069DC  C00A    	RJMP L1457
0069DD  E0E0    	LDI ZL,$00
0069DE  E0F0    	LDI ZH,$00
0069DF  E060    	LDI R22,$00
0069E0  E170    	LDI R23,$10
0069E1  87EE    	STD Y+14,ZL
0069E2  87FF    	STD Y+15,ZH
0069E3  8B68    	STD Y+16,R22
0069E4  8B79    	STD Y+17,R23
0069E5  E008    	LDI R16,$08
0069E6  C009    	RJMP L1454
0069E7  E0E0    L1457:	LDI ZL,$00
0069E8  E1F0    	LDI ZH,$10
0069E9  E060    	LDI R22,$00
0069EA  E070    	LDI R23,$00
0069EB  87EE    	STD Y+14,ZL
0069EC  87FF    	STD Y+15,ZH
0069ED  8B68    	STD Y+16,R22
0069EE  8B79    	STD Y+17,R23
0069EF  E004    	LDI R16,$04
0069F0  3050    L1454:	CPI R21,$00
0069F1  F011    	BREQ L1458
0069F2  771F    	ANDI R17,$7F
0069F3  C001    	RJMP L1459
0069F4  E051    L1458:	LDI R21,$01
0069F5  FF11    L1459:	SBRS R17,1
0069F6  C009    	RJMP L1460
0069F7  A1AE    	LDD XL,Y+38
0069F8  A1BF    	LDD XH,Y+39
0069F9  9714    	SBIW XH:XL,4
0069FA  A3AE    	STD Y+38,XL
0069FB  A3BF    	STD Y+39,XH
0069FC  9614    	ADIW XH:XL,4
0069FD  940E    	CALL L874
0069FE  6C4F
0069FF  C017    	RJMP L1461
006A00  FF12    L1460:	SBRS R17,2
006A01  C00B    	RJMP L1462
006A02  A1AE    	LDD XL,Y+38
006A03  A1BF    	LDD XH,Y+39
006A04  9714    	SBIW XH:XL,4
006A05  A3AE    	STD Y+38,XL
006A06  A3BF    	STD Y+39,XH
006A07  9614    	ADIW XH:XL,4
006A08  940E    	CALL L878
006A09  6C4B
006A0A  940E    	CALL L871
006A0B  6BD6
006A0C  C00A    	RJMP L1461
006A0D  A1AE    L1462:	LDD XL,Y+38
006A0E  A1BF    	LDD XH,Y+39
006A0F  9714    	SBIW XH:XL,4
006A10  A3AE    	STD Y+38,XL
006A11  A3BF    	STD Y+39,XH
006A12  9614    	ADIW XH:XL,4
006A13  940E    	CALL L878
006A14  6C4B
006A15  2766    	CLR R22
006A16  2777    	CLR R23
006A17  83EE    L1461:	STD Y+6,ZL
006A18  83FF    	STD Y+7,ZH
006A19  8768    	STD Y+8,R22
006A1A  8779    	STD Y+9,R23
006A1B  FF12    	SBRS R17,2
006A1C  C01A    	RJMP L1463
006A1D  81AE    	LDD XL,Y+6
006A1E  81BF    	LDD XH,Y+7
006A1F  8588    	LDD R24,Y+8
006A20  8599    	LDD R25,Y+9
006A21  940E    	CALL L1350
006A22  6E22
006A23  F464    	BRGE L1464
006A24  81EE    	LDD ZL,Y+6
006A25  81FF    	LDD ZH,Y+7
006A26  8568    	LDD R22,Y+8
006A27  8579    	LDD R23,Y+9
006A28  940E    	CALL L1465
006A29  6BA9
006A2A  83EE    	STD Y+6,ZL
006A2B  83FF    	STD Y+7,ZH
006A2C  8768    	STD Y+8,R22
006A2D  8779    	STD Y+9,R23
006A2E  E2ED    	LDI ZL,$2D
006A2F  8BEB    	STD Y+19,ZL
006A30  89EB    L1464:	LDD ZL,Y+19
006A31  30E0    	CPI ZL,$00
006A32  F019    	BREQ L1466
006A33  5F0F    	SUBI R16,$FF
006A34  5F5F    	SUBI R21,$FF
006A35  C001    	RJMP L1463
006A36  7F1B    L1466:	ANDI R17,$FB
006A37  2F25    L1463:	MOV R18,R21
006A38  FD10    L1448:	SBRC R17,0
006A39  C019    	RJMP L1467
006A3A  1704    L1474:	CP R16,R20
006A3B  F410    	BRCC L1468
006A3C  1724    	CP R18,R20
006A3D  F008    	BRCS L1469
006A3E  C014    L1468:	RJMP L1467
006A3F  FF17    L1469:	SBRS R17,7
006A40  C008    	RJMP L1470
006A41  FF12    	SBRS R17,2
006A42  C004    	RJMP L1471
006A43  7F1B    	ANDI R17,$FB
006A44  893B    	LDD R19,Y+19
006A45  5001    	SUBI R16,$01
006A46  C001    	RJMP L1472
006A47  E330    L1471:	LDI R19,$30
006A48  C001    L1472:	RJMP L1473
006A49  E230    L1470:	LDI R19,$20
006A4A  933A    L1473:	ST -Y,R19
006A4B  A1ED    	LDD ZL,Y+37
006A4C  A1FE    	LDD ZH,Y+38
006A4D  93FA    	ST -Y,ZH
006A4E  93EA    	ST -Y,ZL
006A4F  940E    	CALL L1403
006A50  6640
006A51  5041    	SUBI R20,$01
006A52  CFE7    	RJMP L1474
006A53  1705    L1467:	CP R16,R21
006A54  F4F0    	BRCC L1475
006A55  6110    	ORI R17,$10
006A56  FF12    	SBRS R17,2
006A57  C00E    	RJMP L1476
006A58  7F1B    	ANDI R17,$FB
006A59  89EB    	LDD ZL,Y+19
006A5A  93EA    	ST -Y,ZL
006A5B  A1ED    	LDD ZL,Y+37
006A5C  A1FE    	LDD ZH,Y+38
006A5D  93FA    	ST -Y,ZH
006A5E  93EA    	ST -Y,ZL
006A5F  940E    	CALL L1403
006A60  6640
006A61  3040    	CPI R20,$00
006A62  F009    	BREQ L1477
006A63  5041    	SUBI R20,$01
006A64  5001    L1477:	SUBI R16,$01
006A65  5051    	SUBI R21,$01
006A66  E3E0    L1476:	LDI ZL,$30
006A67  93EA    	ST -Y,ZL
006A68  A1ED    	LDD ZL,Y+37
006A69  A1FE    	LDD ZH,Y+38
006A6A  93FA    	ST -Y,ZH
006A6B  93EA    	ST -Y,ZL
006A6C  940E    	CALL L1403
006A6D  6640
006A6E  3040    	CPI R20,$00
006A6F  F009    	BREQ L1478
006A70  5041    	SUBI R20,$01
006A71  5051    L1478:	SUBI R21,$01
006A72  CFE0    	RJMP L1467
006A73  2F20    L1475:	MOV R18,R16
006A74  89EA    	LDD ZL,Y+18
006A75  30E0    	CPI ZL,$00
006A76  F541    	BRNE L1479
006A77  3020    L1484:	CPI R18,$00
006A78  F129    	BREQ L1480
006A79  FF13    	SBRS R17,3
006A7A  C012    	RJMP L1481
006A7B  85EA    	LDD ZL,Y+10
006A7C  85FB    	LDD ZH,Y+11
006A7D  856C    	LDD R22,Y+12
006A7E  857D    	LDD R23,Y+13
006A7F  5FEF    	SUBI ZL,$FF
006A80  4FFF    	SBCI ZH,$FF
006A81  4F6F    	SBCI R22,$FF
006A82  4F7F    	SBCI R23,$FF
006A83  87EA    	STD Y+10,ZL
006A84  87FB    	STD Y+11,ZH
006A85  876C    	STD Y+12,R22
006A86  877D    	STD Y+13,R23
006A87  9731    	SBIW ZH:ZL,1
006A88  4060    	SBCI R22,$00
006A89  4070    	SBCI R23,$00
006A8A  BF6B    	OUT RAMPZ,R22
006A8B  91E6    	ELPM ZL,Z
006A8C  C005    	RJMP L1482
006A8D  85AA    L1481:	LDD XL,Y+10
006A8E  85BB    	LDD XH,Y+11
006A8F  91ED    	LD ZL,X+
006A90  87AA    	STD Y+10,XL
006A91  87BB    	STD Y+11,XH
006A92  93EA    L1482:	ST -Y,ZL
006A93  A1ED    	LDD ZL,Y+37
006A94  A1FE    	LDD ZH,Y+38
006A95  93FA    	ST -Y,ZH
006A96  93EA    	ST -Y,ZL
006A97  940E    	CALL L1403
006A98  6640
006A99  3040    	CPI R20,$00
006A9A  F009    	BREQ L1483
006A9B  5041    	SUBI R20,$01
006A9C  5021    L1483:	SUBI R18,$01
006A9D  CFD9    	RJMP L1484
006A9E  C06B    L1480:	RJMP L1485
006A9F  85EE    L1479:	LDD ZL,Y+14
006AA0  85FF    	LDD ZH,Y+15
006AA1  8968    	LDD R22,Y+16
006AA2  8979    	LDD R23,Y+17
006AA3  81AE    	LDD XL,Y+6
006AA4  81BF    	LDD XH,Y+7
006AA5  8588    	LDD R24,Y+8
006AA6  8599    	LDD R25,Y+9
006AA7  940E    	CALL L1486
006AA8  6C09
006AA9  2F3E    	MOV R19,ZL
006AAA  303A    	CPI R19,$0A
006AAB  F030    	BRCS L1487
006AAC  FF13    	SBRS R17,3
006AAD  C002    	RJMP L1488
006AAE  5C39    	SUBI R19,$C9
006AAF  C001    	RJMP L1489
006AB0  5A39    L1488:	SUBI R19,$A9
006AB1  C001    L1489:	RJMP L1490
006AB2  5D30    L1487:	SUBI R19,$D0
006AB3  FD14    L1490:	SBRC R17,4
006AB4  C02A    	RJMP L1491
006AB5  3331    	CPI R19,$31
006AB6  F460    	BRCC L1492
006AB7  85AE    	LDD XL,Y+14
006AB8  85BF    	LDD XH,Y+15
006AB9  8988    	LDD R24,Y+16
006ABA  8999    	LDD R25,Y+17
006ABB  30A1    	CPI XL,$01
006ABC  E0E0    	LDI ZL,$00
006ABD  07BE    	CPC XH,ZL
006ABE  E0E0    	LDI ZL,$00
006ABF  078E    	CPC R24,ZL
006AC0  E0E0    	LDI ZL,$00
006AC1  079E    	CPC R25,ZL
006AC2  F409    	BRNE L1493
006AC3  C00C    L1492:	RJMP L1494
006AC4  1752    L1493:	CP R21,R18
006AC5  F008    	BRCS L1495
006AC6  C008    	RJMP L1496
006AC7  1742    L1495:	CP R20,R18
006AC8  F010    	BRCS L1497
006AC9  FF10    	SBRS R17,0
006ACA  C001    	RJMP L1498
006ACB  C01D    L1497:	RJMP L1499
006ACC  E230    L1498:	LDI R19,$20
006ACD  FF17    	SBRS R17,7
006ACE  C010    	RJMP L1491
006ACF  E330    L1496:	LDI R19,$30
006AD0  6110    L1494:	ORI R17,$10
006AD1  FF12    	SBRS R17,2
006AD2  C00C    	RJMP L1491
006AD3  7F1B    	ANDI R17,$FB
006AD4  89EB    	LDD ZL,Y+19
006AD5  93EA    	ST -Y,ZL
006AD6  A1ED    	LDD ZL,Y+37
006AD7  A1FE    	LDD ZH,Y+38
006AD8  93FA    	ST -Y,ZH
006AD9  93EA    	ST -Y,ZL
006ADA  940E    	CALL L1403
006ADB  6640
006ADC  3040    	CPI R20,$00
006ADD  F009    	BREQ L1491
006ADE  5041    	SUBI R20,$01
006ADF  933A    L1491:	ST -Y,R19
006AE0  A1ED    	LDD ZL,Y+37
006AE1  A1FE    	LDD ZH,Y+38
006AE2  93FA    	ST -Y,ZH
006AE3  93EA    	ST -Y,ZL
006AE4  940E    	CALL L1403
006AE5  6640
006AE6  3040    	CPI R20,$00
006AE7  F009    	BREQ L1499
006AE8  5041    	SUBI R20,$01
006AE9  5021    L1499:	SUBI R18,$01
006AEA  85EE    	LDD ZL,Y+14
006AEB  85FF    	LDD ZH,Y+15
006AEC  8968    	LDD R22,Y+16
006AED  8979    	LDD R23,Y+17
006AEE  81AE    	LDD XL,Y+6
006AEF  81BF    	LDD XH,Y+7
006AF0  8588    	LDD R24,Y+8
006AF1  8599    	LDD R25,Y+9
006AF2  940E    	CALL L1500
006AF3  6C3B
006AF4  83EE    	STD Y+6,ZL
006AF5  83FF    	STD Y+7,ZH
006AF6  8768    	STD Y+8,R22
006AF7  8779    	STD Y+9,R23
006AF8  89EA    	LDD ZL,Y+18
006AF9  85AE    	LDD XL,Y+14
006AFA  85BF    	LDD XH,Y+15
006AFB  8988    	LDD R24,Y+16
006AFC  8999    	LDD R25,Y+17
006AFD  27FF    	CLR ZH
006AFE  2766    	CLR R22
006AFF  2777    	CLR R23
006B00  940E    	CALL L1486
006B01  6C09
006B02  87EE    	STD Y+14,ZL
006B03  87FF    	STD Y+15,ZH
006B04  8B68    	STD Y+16,R22
006B05  8B79    	STD Y+17,R23
006B06  940E    	CALL L1380
006B07  6E1A
006B08  F009    	BREQ L1485
006B09  CF95    	RJMP L1479
006B0A  FF10    L1485:	SBRS R17,0
006B0B  C00C    	RJMP L1407
006B0C  3040    L1501:	CPI R20,$00
006B0D  F051    	BREQ L1407
006B0E  5041    	SUBI R20,$01
006B0F  E2E0    	LDI ZL,$20
006B10  93EA    	ST -Y,ZL
006B11  A1ED    	LDD ZL,Y+37
006B12  A1FE    	LDD ZH,Y+38
006B13  93FA    	ST -Y,ZH
006B14  93EA    	ST -Y,ZL
006B15  940E    	CALL L1403
006B16  6640
006B17  CFF4    	RJMP L1501
006B18  E000    L1407:	LDI R16,$00
006B19  CD6A    L1404:	RJMP L1502
006B1A  940E    L1399:	CALL L617
006B1B  6E2D
006B1C  96AC    	ADIW YH:YL,44
006B1D  9508    	RET
006B1E  92FF    L762:	PUSH R15
006B1F  2EF8    	MOV R15,R24
006B20  9722    	SBIW YH:YL,2
006B21  931A    	ST -Y,R17
006B22  930A    	ST -Y,R16
006B23  01DE    	MOVW R27:R26,R29:R28
006B24  940E    	CALL L1503
006B25  6B9B
006B26  018D    	MOVW R17:R16,R27:R26
006B27  E0E0    	LDI ZL,$00
006B28  83EA    	STD Y+2,ZL
006B29  83EB    	STD Y+3,ZL
006B2A  01DE    	MOVW R27:R26,R29:R28
006B2B  9614    	ADIW XH:XL,4
006B2C  940E    	CALL L1503
006B2D  6B9B
006B2E  940E    	CALL L874
006B2F  6C4F
006B30  940E    	CALL L761
006B31  6C66
006B32  931A    	ST -Y,R17
006B33  930A    	ST -Y,R16
006B34  01FE    	MOVW R31:R30,R29:R28
006B35  9638    	ADIW ZH:ZL,8
006B36  93FA    	ST -Y,ZH
006B37  93EA    	ST -Y,ZL
006B38  940E    	CALL L1504
006B39  6880
006B3A  8119    	LDD R17,Y+1
006B3B  8108    	LD R16,Y
006B3C  9624    	ADIW YH:YL,4
006B3D  90FF    	POP R15
006B3E  9508    	RET
006B3F  91A9    L1440:	LD XL,Y+
006B40  91B9    	LD XH,Y+
006B41  27EE    	CLR ZL
006B42  27FF    	CLR ZH
006B43  916D    L1506:	LD R22,X+
006B44  2366    	TST R22
006B45  F011    	BREQ L1505
006B46  9631    	ADIW ZH:ZL,1
006B47  CFFB    	RJMP L1506
006B48  9508    L1505:	RET
006B49  27AA    L1445:	CLR XL
006B4A  27BB    	CLR XH
006B4B  91E9    	LD ZL,Y+
006B4C  91F9    	LD ZH,Y+
006B4D  9169    	LD R22,Y+
006B4E  9179    	LD R23,Y+
006B4F  BF6B    	OUT RAMPZ,R22
006B50  9007    L1508:	ELPM R0,Z+
006B51  2000    	TST R0
006B52  F011    	BREQ L1507
006B53  9611    	ADIW XH:XL,1
006B54  CFFB    	RJMP L1508
006B55  01FD    L1507:	MOVW R31:R30,R27:R26
006B56  9508    	RET

################################

Delay_ms (x)?

################################

006B57  91E9    L538:	LD ZL,Y+
006B58  91F9    	LD ZH,Y+
006B59  9630    	ADIW ZH:ZL,0
006B5A  F039    	BREQ L1509
006B5B  E686    L1511:	LDI R24,$66
006B5C  E09E    	LDI R25,$0E
006B5D  9701    L1510:	SBIW R25:R24,1
006B5E  F7F1    	BRNE L1510
006B5F  95A8    	WDR
006B60  9731    	SBIW ZH:ZL,1
006B61  F7C9    	BRNE L1511
006B62  9508    L1509:	RET

#################################

#################################

006B63  817B    L1516:	LDD R23,Y+3
006B64  816A    	LDD R22,Y+2
006B65  81F9    	LDD ZH,Y+1
006B66  81E8    	LD ZL,Y
006B67  FB77    	BST R23,7
006B68  0F77    	LSL R23
006B69  FD67    	SBRC R22,7
006B6A  6071    	ORI R23,$01
006B6B  2F97    	MOV R25,R23
006B6C  579E    	SUBI R25,$7E
006B6D  F081    	BREQ L1512
006B6E  F078    	BRCS L1512
006B6F  3198    	CPI R25,$18
006B70  F490    	BRCC L1513
006B71  27AA    	CLR XL
006B72  27BB    	CLR XH
006B73  2788    	CLR R24
006B74  9408    L1514:	BSET 0
006B75  9587    	ROR R24
006B76  95B7    	ROR XH
006B77  95A7    	ROR XL
006B78  959A    	DEC R25
006B79  F7D1    	BRNE L1514
006B7A  23EA    	AND ZL,XL
006B7B  23FB    	AND ZH,XH
006B7C  2368    	AND R22,R24
006B7D  C005    	RJMP L1513
006B7E  94E8    L1512:	BCLR 6
006B7F  2777    	CLR R23
006B80  27EE    	CLR ZL
006B81  27FF    	CLR ZH
006B82  2766    	CLR R22
006B83  776F    L1513:	ANDI R22,$7F
006B84  9576    	LSR R23
006B85  F408    	BRCC L1515
006B86  6860    	ORI R22,$80
006B87  F977    L1515:	BLD R23,7
006B88  91A9    	LD XL,Y+
006B89  91B9    	LD XH,Y+
006B8A  9189    	LD R24,Y+
006B8B  9199    	LD R25,Y+
006B8C  17EA    	CP ZL,XL
006B8D  07FB    	CPC ZH,XH
006B8E  0768    	CPC R22,R24
006B8F  0779    	CPC R23,R25
006B90  FB97    	BST R25,7
006B91  9508    	RET
006B92  DFD0    L1372:	RCALL L1516     'Recursive call
006B93  F409    	BRNE L1517
006B94  9508    L1518:	RET
006B95  F7F6    L1517:	BRTC L1518
006B96  EB9F    	LDI R25,$BF
006B97  27AA    	CLR XL
006B98  27BB    	CLR XH
006B99  E880    	LDI R24,$80
006B9A  C19E    	RJMP L1347
006B9B  2400    L1503:	CLR R0
006B9C  0DAF    	ADD XL,R15
006B9D  1DB0    	ADC XH,R0
006B9E  9508    	RET
006B9F  0FEA    L902:	ADD ZL,XL
006BA0  1FFB    	ADC ZH,XH
006BA1  1F68    	ADC R22,R24
006BA2  1F79    	ADC R23,R25
006BA3  9508    	RET
006BA4  2BEA    L661:	OR ZL,XL
006BA5  2BFB    	OR ZH,XH
006BA6  2B68    	OR R22,R24
006BA7  2B79    	OR R23,R25
006BA8  9508    	RET
006BA9  95E0    L1465:	COM ZL
006BAA  95F0    	COM ZH
006BAB  9560    	COM R22
006BAC  9570    	COM R23
006BAD  5FEF    	SUBI ZL,$FF
006BAE  4FFF    	SBCI ZH,$FF
006BAF  4F6F    	SBCI R22,$FF
006BB0  4F7F    	SBCI R23,$FF
006BB1  9508    	RET
006BB2  23EE    L778:	TST ZL
006BB3  2E0E    	MOV R0,ZL
006BB4  2FEA    	MOV ZL,XL
006BB5  F019    	BREQ L1519
006BB6  0FEE    L1520:	LSL ZL
006BB7  940A    	DEC R0
006BB8  F7E9    	BRNE L1520
006BB9  9508    L1519:	RET
006BBA  23EE    L901:	TST ZL
006BBB  2E0E    	MOV R0,ZL
006BBC  01FD    	MOVW R31:R30,R27:R26
006BBD  01BC    	MOVW R23:R22,R25:R24
006BBE  F031    	BREQ L1521
006BBF  0FEE    L1522:	LSL ZL
006BC0  1FFF    	ROL ZH
006BC1  1F66    	ROL R22
006BC2  1F77    	ROL R23
006BC3  940A    	DEC R0
006BC4  F7D1    	BRNE L1522
006BC5  9508    L1521:	RET
006BC6  0FEE    L873:	LSL ZL
006BC7  1FFF    	ROL ZH
006BC8  0FEE    	LSL ZL
006BC9  1FFF    	ROL ZH
006BCA  9508    	RET
006BCB  0FEE    L955:	LSL ZL
006BCC  1FFF    	ROL ZH
006BCD  1F66    	ROL R22
006BCE  1F77    	ROL R23
006BCF  9508    	RET
006BD0  2FFE    	MOV ZH,ZL
006BD1  0FFF    	LSL ZH
006BD2  0BFF    	SBC ZH,ZH
006BD3  2F6F    	MOV R22,ZH
006BD4  2F7F    	MOV R23,ZH
006BD5  9508    	RET
006BD6  2F6F    L871:	MOV R22,ZH
006BD7  0F66    	LSL R22
006BD8  0B66    	SBC R22,R22
006BD9  2F76    	MOV R23,R22
006BDA  9508    	RET
006BDB  9FFA    L909:	MUL ZH,XL
006BDC  2DF0    	MOV ZH,R0
006BDD  9FEB    	MUL ZL,XH
006BDE  0DF0    	ADD ZH,R0
006BDF  9FEA    	MUL ZL,XL
006BE0  2DE0    	MOV ZL,R0
006BE1  0DF1    	ADD ZH,R1
006BE2  9508    	RET
006BE3  2400    L1527:	CLR R0
006BE4  E098    	LDI R25,$08
006BE5  0FAA    L1525:	LSL XL
006BE6  1C00    	ROL R0
006BE7  1A0E    	SUB R0,ZL
006BE8  F410    	BRCC L1523
006BE9  0E0E    	ADD R0,ZL
006BEA  C001    	RJMP L1524
006BEB  60A1    L1523:	ORI XL,$01
006BEC  959A    L1524:	DEC R25
006BED  F7B9    	BRNE L1525
006BEE  2FEA    	MOV ZL,XL
006BEF  2DA0    	MOV XL,R0
006BF0  9508    	RET
006BF1  D04D    L1396:	RCALL L1526
006BF2  DFF0    	RCALL L1527
006BF3  F40E    	BRTC L1528
006BF4  95E1    	NEG ZL
006BF5  9508    L1528:	RET
006BF6  2400    L963:	CLR R0
006BF7  2411    	CLR R1
006BF8  E190    	LDI R25,$10
006BF9  0FAA    L1531:	LSL XL
006BFA  1FBB    	ROL XH
006BFB  1C00    	ROL R0
006BFC  1C11    	ROL R1
006BFD  1A0E    	SUB R0,ZL
006BFE  0A1F    	SBC R1,ZH
006BFF  F418    	BRCC L1529
006C00  0E0E    	ADD R0,ZL
006C01  1E1F    	ADC R1,ZH
006C02  C001    	RJMP L1530
006C03  60A1    L1529:	ORI XL,$01
006C04  959A    L1530:	DEC R25
006C05  F799    	BRNE L1531
006C06  01FD    	MOVW R31:R30,R27:R26
006C07  01D0    	MOVW R27:R26,R1:R0
006C08  9508    	RET
006C09  933F    L1486:	PUSH R19
006C0A  934F    	PUSH R20
006C0B  935F    	PUSH R21
006C0C  2400    	CLR R0
006C0D  2411    	CLR R1
006C0E  2733    	CLR R19
006C0F  2744    	CLR R20
006C10  E250    	LDI R21,$20
006C11  0FAA    L1534:	LSL XL
006C12  1FBB    	ROL XH
006C13  1F88    	ROL R24
006C14  1F99    	ROL R25
006C15  1C00    	ROL R0
006C16  1C11    	ROL R1
006C17  1F33    	ROL R19
006C18  1F44    	ROL R20
006C19  1A0E    	SUB R0,ZL
006C1A  0A1F    	SBC R1,ZH
006C1B  0B36    	SBC R19,R22
006C1C  0B47    	SBC R20,R23
006C1D  F428    	BRCC L1532
006C1E  0E0E    	ADD R0,ZL
006C1F  1E1F    	ADC R1,ZH
006C20  1F36    	ADC R19,R22
006C21  1F47    	ADC R20,R23
006C22  C001    	RJMP L1533
006C23  60A1    L1532:	ORI XL,$01
006C24  955A    L1533:	DEC R21
006C25  F759    	BRNE L1534
006C26  01FD    	MOVW R31:R30,R27:R26
006C27  01BC    	MOVW R23:R22,R25:R24
006C28  01D0    	MOVW R27:R26,R1:R0
006C29  2F83    	MOV R24,R19
006C2A  2F94    	MOV R25,R20
006C2B  915F    	POP R21
006C2C  914F    	POP R20
006C2D  913F    	POP R19
006C2E  9508    	RET
006C2F  94E8    L1397:	BCLR 6
006C30  FFA7    	SBRS XL,7
006C31  C002    	RJMP L1535
006C32  95A1    	NEG XL
006C33  9468    	BSET 6
006C34  FDE7    L1535:	SBRC ZL,7
006C35  95E1    	NEG ZL
006C36  DFAC    	RCALL L1527
006C37  2FEA    	MOV ZL,XL
006C38  F40E    	BRTC L1536
006C39  95E1    	NEG ZL
006C3A  9508    L1536:	RET
006C3B  DFCD    L1500:	RCALL L1486
006C3C  01FD    	MOVW R31:R30,R27:R26
006C3D  01BC    	MOVW R23:R22,R25:R24
006C3E  9508    	RET
006C3F  94E8    L1526:	BCLR 6
006C40  FFE7    	SBRS ZL,7
006C41  C002    	RJMP L1537
006C42  95E1    	NEG ZL
006C43  9468    	BSET 6
006C44  FFA7    L1537:	SBRS XL,7
006C45  C004    	RJMP L1538
006C46  95A1    	NEG XL
006C47  F800    	BLD R0,0
006C48  9403    	INC R0
006C49  FA00    	BST R0,0
006C4A  9508    L1538:	RET
006C4B  91ED    L878:	LD ZL,X+
006C4C  91FC    	LD ZH,X
006C4D  9711    	SBIW XH:XL,1
006C4E  9508    	RET
006C4F  91ED    L874:	LD ZL,X+
006C50  91FD    	LD ZH,X+
006C51  916D    	LD R22,X+
006C52  917C    	LD R23,X
006C53  9713    	SBIW XH:XL,3
006C54  9508    	RET
006C55  93ED    L903:	ST X+,ZL
006C56  93FD    	ST X+,ZH
006C57  936D    	ST X+,R22
006C58  937C    	ST X,R23
006C59  9508    	RET
006C5A  BF6B    L956:	OUT RAMPZ,R22
006C5B  9007    	ELPM R0,Z+
006C5C  91F6    	ELPM ZH,Z
006C5D  2DE0    	MOV ZL,R0
006C5E  9508    	RET
006C5F  BF6B    L1366:	OUT RAMPZ,R22
006C60  9007    	ELPM R0,Z+
006C61  9017    	ELPM R1,Z+
006C62  9167    	ELPM R22,Z+
006C63  9176    	ELPM R23,Z
006C64  01F0    	MOVW R31:R30,R1:R0
006C65  9508    	RET
006C66  937A    L761:	ST -Y,R23
006C67  936A    	ST -Y,R22
006C68  93FA    	ST -Y,ZH
006C69  93EA    	ST -Y,ZL
006C6A  9508    	RET
006C6B  2E18    L1348:	MOV R1,R24
006C6C  2F86    	MOV R24,R22
006C6D  2D61    	MOV R22,R1
006C6E  2E19    	MOV R1,R25
006C6F  2F97    	MOV R25,R23
006C70  2D71    	MOV R23,R1
006C71  2E1B    L1000:	MOV R1,XH
006C72  2FBF    	MOV XH,ZH
006C73  2DF1    	MOV ZH,R1
006C74  2E1A    	MOV R1,XL
006C75  2FAE    	MOV XL,ZL
006C76  2DE1    	MOV ZL,R1
006C77  9508    	RET
006C78  9611    L602:	ADIW XH:XL,1
006C79  D002    	RCALL L545
006C7A  2FFE    	MOV ZH,ZL
006C7B  9711    	SBIW XH:XL,1
006C7C  99E1    L545:	SBIC EECR,EEWE
006C7D  CFFE    	RJMP L545
006C7E  93FF    	PUSH ZH
006C7F  B7FF    	IN ZH,SREG
006C80  94F8    	BCLR 7
006C81  BBAE    	OUT EEARL,XL
006C82  BBBF    	OUT EEARH,XH
006C83  9AE0    	SBI EECR,EERE
006C84  B3ED    	IN ZL,EEDR
006C85  BFFF    	OUT SREG,ZH
006C86  91FF    	POP ZH
006C87  9508    	RET
006C88  D007    L662:	RCALL L546
006C89  9611    	ADIW XH:XL,1
006C8A  93EF    	PUSH ZL
006C8B  2FEF    	MOV ZL,ZH
006C8C  D003    	RCALL L546
006C8D  91EF    	POP ZL
006C8E  9711    	SBIW XH:XL,1
006C8F  9508    	RET
006C90  99E1    L546:	SBIC EECR,EEWE
006C91  CFFE    	RJMP L546
006C92  B79F    	IN R25,SREG
006C93  94F8    	BCLR 7
006C94  BBAE    	OUT EEARL,XL
006C95  BBBF    	OUT EEARH,XH
006C96  9AE0    	SBI EECR,EERE
006C97  B38D    	IN R24,EEDR
006C98  17E8    	CP ZL,R24
006C99  F019    	BREQ L1539
006C9A  BBED    	OUT EEDR,ZL
006C9B  9AE2    	SBI EECR,EEMWE
006C9C  9AE1    	SBI EECR,EEWE
006C9D  BF9F    L1539:	OUT SREG,R25
006C9E  9508    	RET
006C9F  9730    L1434:	SBIW ZH:ZL,0
006CA0  4060    	SBCI R22,$00
006CA1  4070    	SBCI R23,$00
006CA2  F009    	BREQ L1540
006CA3  5870    	SUBI R23,$80
006CA4  9508    L1540:	RET
006CA5  E850    L1562:	LDI R21,$80
006CA6  2757    	EOR R21,R23
006CA7  F411    	BRNE L1541
006CA8  935F    	PUSH R21
006CA9  C0D1    	RJMP L1542
006CAA  3F5F    L1541:	CPI R21,$FF
006CAB  F031    	BREQ L1543
006CAC  0F66    	LSL R22
006CAD  0C00    	LSL R0
006CAE  9557    	ROR R21
006CAF  9567    	ROR R22
006CB0  2F75    	MOV R23,R21
006CB1  9508    	RET
006CB2  935F    L1543:	PUSH R21
006CB3  2000    	TST R0
006CB4  F00A    	BRMI L1544
006CB5  C0CB    	RJMP L1545
006CB6  C0BE    L1544:	RJMP L1546
006CB7  E850    L1563:	LDI R21,$80
006CB8  2E19    	MOV R1,R25
006CB9  2215    	AND R1,R21
006CBA  0F88    	LSL R24
006CBB  1F99    	ROL R25
006CBC  2795    	EOR R25,R21
006CBD  0F55    	LSL R21
006CBE  9587    	ROR R24
006CBF  E850    L1547:	LDI R21,$80
006CC0  2E07    	MOV R0,R23
006CC1  2205    	AND R0,R21
006CC2  0F66    	LSL R22
006CC3  1F77    	ROL R23
006CC4  2775    	EOR R23,R21
006CC5  0F55    	LSL R21
006CC6  9567    	ROR R22
006CC7  9508    	RET
006CC8  935F    L876:	PUSH R21
006CC9  DFF5    	RCALL L1547
006CCA  3870    	CPI R23,$80
006CCB  F018    	BRCS L1548
006CCC  3F7F    	CPI R23,$FF
006CCD  F408    	BRCC L1548
006CCE  C0AC    	RJMP L1542
006CCF  E156    L1548:	LDI R21,$16
006CD0  1B57    	SUB R21,R23
006CD1  F492    	BRPL L1549
006CD2  9551    	NEG R21
006CD3  3058    	CPI R21,$08
006CD4  F028    	BRCS L1550
006CD5  EFEF    	LDI ZL,$FF
006CD6  EFFF    	LDI ZH,$FF
006CD7  EF6F    	LDI R22,$FF
006CD8  E77F    	LDI R23,$7F
006CD9  C01A    	RJMP L1551
006CDA  2777    L1550:	CLR R23
006CDB  2355    	TST R21
006CDC  F0B9    	BREQ L1551
006CDD  0FEE    L1552:	LSL ZL
006CDE  1FFF    	ROL ZH
006CDF  1F66    	ROL R22
006CE0  1F77    	ROL R23
006CE1  955A    	DEC R21
006CE2  F7D1    	BRNE L1552
006CE3  C010    	RJMP L1551
006CE4  2777    L1549:	CLR R23
006CE5  3058    L1554:	CPI R21,$08
006CE6  F028    	BRCS L1553
006CE7  2FEF    	MOV ZL,ZH
006CE8  2FF6    	MOV ZH,R22
006CE9  2F67    	MOV R22,R23
006CEA  5058    	SUBI R21,$08
006CEB  CFF9    	RJMP L1554
006CEC  2355    L1553:	TST R21
006CED  F031    	BREQ L1551
006CEE  9576    L1555:	LSR R23
006CEF  9567    	ROR R22
006CF0  95F7    	ROR ZH
006CF1  95E7    	ROR ZL
006CF2  955A    	DEC R21
006CF3  F7D1    	BRNE L1555
006CF4  2000    L1551:	TST R0
006CF5  F40A    	BRPL L1556
006CF6  DEB2    	RCALL L1465
006CF7  915F    L1556:	POP R21
006CF8  9508    	RET
006CF9  9468    	BSET 6
006CFA  C001    	RJMP L1557
006CFB  94E8    L872:	BCLR 6
006CFC  9730    L1557:	SBIW ZH:ZL,0
006CFD  4060    	SBCI R22,$00
006CFE  4070    	SBCI R23,$00
006CFF  F0B1    	BREQ L1558
006D00  2400    	CLR R0
006D01  F026    	BRTS L1559
006D02  2377    	TST R23
006D03  F412    	BRPL L1559
006D04  9400    	COM R0
006D05  DEA3    	RCALL L1465
006D06  2E17    L1559:	MOV R1,R23
006D07  E17E    	LDI R23,$1E
006D08  2011    	TST R1
006D09  F032    L1561:	BRMI L1560
006D0A  957A    	DEC R23
006D0B  0FEE    	LSL ZL
006D0C  1FFF    	ROL ZH
006D0D  1F66    	ROL R22
006D0E  1C11    	ROL R1
006D0F  CFF9    	RJMP L1561
006D10  2FEF    L1560:	MOV ZL,ZH
006D11  2FF6    	MOV ZH,R22
006D12  2D61    	MOV R22,R1
006D13  935F    	PUSH R21
006D14  DF90    	RCALL L1562
006D15  915F    	POP R21
006D16  9508    L1558:	RET

##################


#################

006D17  2F5E    L1568:	MOV R21,ZL
006D18  2FEA    	MOV ZL,XL
006D19  2FA5    	MOV XL,R21
006D1A  2F5F    	MOV R21,ZH
006D1B  2FFB    	MOV ZH,XH
006D1C  2FB5    	MOV XH,R21
006D1D  2F56    	MOV R21,R22
006D1E  2F68    	MOV R22,R24
006D1F  2F85    	MOV R24,R21
006D20  2F57    	MOV R21,R23
006D21  2F79    	MOV R23,R25
006D22  2F95    	MOV R25,R21
006D23  2D50    	MOV R21,R0
006D24  2C01    	MOV R0,R1
006D25  2E15    	MOV R1,R21
006D26  9508    	RET
006D27  0FEA    L1575:	ADD ZL,XL
006D28  1FFB    	ADC ZH,XH
006D29  1F68    	ADC R22,R24
006D2A  9508    	RET
006D2B  95E0    L1577:	COM ZL
006D2C  95F0    	COM ZH
006D2D  9560    	COM R22
006D2E  5FEF    	SUBI ZL,$FF
006D2F  4FFF    	SBCI ZH,$FF
006D30  4F6F    	SBCI R22,$FF
006D31  9508    	RET

##################


#################


006D32  935F    L1349:	PUSH R21
006D33  DF83    	RCALL L1563
006D34  3890    	CPI R25,$80
006D35  F171    	BREQ L1564
006D36  E850    	LDI R21,$80
006D37  2615    	EOR R1,R21
006D38  C004    	RJMP L1565
006D39  935F    L1347:	PUSH R21
006D3A  DF7C    	RCALL L1563
006D3B  3890    	CPI R25,$80
006D3C  F139    	BREQ L1564
006D3D  3870    L1565:	CPI R23,$80
006D3E  F121    	BREQ L1566
006D3F  2F57    L1569:	MOV R21,R23
006D40  1B59    	SUB R21,R25
006D41  F113    	BRVS L1564
006D42  F412    	BRPL L1567
006D43  DFD3    	RCALL L1568
006D44  CFFA    	RJMP L1569
006D45  3158    L1567:	CPI R21,$18
006D46  F018    	BRCS L1570
006D47  27AA    	CLR XL
006D48  27BB    	CLR XH
006D49  2788    	CLR R24
006D4A  3058    L1570:	CPI R21,$08
006D4B  F028    	BRCS L1571
006D4C  2FAB    	MOV XL,XH
006D4D  2FB8    	MOV XH,R24
006D4E  2788    	CLR R24
006D4F  5058    	SUBI R21,$08
006D50  CFF9    	RJMP L1570
006D51  2355    L1571:	TST R21
006D52  F029    	BREQ L1572
006D53  9586    L1573:	LSR R24
006D54  95B7    	ROR XH
006D55  95A7    	ROR XL
006D56  955A    	DEC R21
006D57  F7D9    	BRNE L1573
006D58  2D50    L1572:	MOV R21,R0
006D59  2551    	EOR R21,R1
006D5A  F062    	BRMI L1574
006D5B  DFCB    	RCALL L1575
006D5C  F438    	BRCC L1564
006D5D  9567    	ROR R22
006D5E  95F7    	ROR ZH
006D5F  95E7    	ROR ZL
006D60  9573    	INC R23
006D61  F413    	BRVC L1564
006D62  C01E    	RJMP L1545
006D63  DFB3    L1566:	RCALL L1568
006D64  DF40    L1564:	RCALL L1562
006D65  915F    	POP R21
006D66  9508    	RET
006D67  1BEA    L1574:	SUB ZL,XL
006D68  0BFB    	SBC ZH,XH
006D69  0B68    	SBC R22,R24
006D6A  F081    	BREQ L1542
006D6B  F410    	BRCC L1576
006D6C  9400    	COM R0
006D6D  DFBD    	RCALL L1577
006D6E  2366    L1576:	TST R22
006D6F  F3A2    	BRMI L1564
006D70  0FEE    	LSL ZL
006D71  1FFF    	ROL ZH
006D72  1F66    	ROL R22
006D73  957A    	DEC R23
006D74  F7CB    	BRVC L1576
006D75  EFEF    L1546:	LDI ZL,$FF
006D76  EFFF    	LDI ZH,$FF
006D77  E76F    	LDI R22,$7F
006D78  EF7F    	LDI R23,$FF
006D79  915F    	POP R21
006D7A  9508    	RET

##################


#################


006D7B  27EE    L1542:	CLR ZL
006D7C  27FF    	CLR ZH
006D7D  2766    	CLR R22
006D7E  2777    	CLR R23
006D7F  915F    	POP R21
006D80  9508    	RET

##################


#################

006D81  EFEF    L1545:	LDI ZL,$FF
006D82  EFFF    	LDI ZH,$FF
006D83  E76F    	LDI R22,$7F
006D84  E77F    	LDI R23,$7F
006D85  915F    	POP R21
006D86  9508    	RET

##################


#################

006D87  935F    L875:	PUSH R21
006D88  DF2E    	RCALL L1563
006D89  3870    	CPI R23,$80
006D8A  F381    	BREQ L1542
006D8B  3890    	CPI R25,$80
006D8C  F371    	BREQ L1542
006D8D  2401    	EOR R0,R1
006D8E  9408    	BSET 0
006D8F  1F79    	ADC R23,R25
006D90  F423    	BRVC L1578
006D91  F34C    	BRLT L1542
006D92  2000    L1583:	TST R0
006D93  F30A    	BRMI L1546
006D94  CFEC    	RJMP L1545
006D95  933F    L1578:	PUSH R19
006D96  934F    	PUSH R20
006D97  2411    	CLR R1
006D98  2733    	CLR R19
006D99  2744    	CLR R20
006D9A  2755    	CLR R21
006D9B  E198    	LDI R25,$18
006D9C  0F33    L1580:	LSL R19
006D9D  1F44    	ROL R20
006D9E  1F55    	ROL R21
006D9F  1FEE    	ROL ZL
006DA0  1FFF    	ROL ZH
006DA1  1F66    	ROL R22
006DA2  F430    	BRCC L1579
006DA3  0F3A    	ADD R19,XL
006DA4  1F4B    	ADC R20,XH
006DA5  1F58    	ADC R21,R24
006DA6  1DE1    	ADC ZL,R1
006DA7  1DF1    	ADC ZH,R1
006DA8  1D61    	ADC R22,R1
006DA9  959A    L1579:	DEC R25
006DAA  F789    	BRNE L1580
006DAB  914F    	POP R20
006DAC  913F    	POP R19
006DAD  2366    	TST R22
006DAE  F02A    	BRMI L1581
006DAF  0F55    	LSL R21
006DB0  1FEE    	ROL ZL
006DB1  1FFF    	ROL ZH
006DB2  1F66    	ROL R22
006DB3  C002    	RJMP L1582
006DB4  9573    L1581:	INC R23
006DB5  F2E3    	BRVS L1583
006DB6  DEEE    L1582:	RCALL L1562
006DB7  915F    	POP R21
006DB8  9508    	RET
006DB9  935F    L965:	PUSH R21
006DBA  DEFC    	RCALL L1563
006DBB  3870    	CPI R23,$80
006DBC  F419    	BRNE L1584
006DBD  2011    	TST R1
006DBE  F612    L1588:	BRPL L1545
006DBF  CFB5    	RJMP L1546
006DC0  3890    L1584:	CPI R25,$80
006DC1  F409    	BRNE L1585
006DC2  CFB8    L1587:	RJMP L1542
006DC3  2401    L1585:	EOR R0,R1
006DC4  9408    	BSET 0
006DC5  0B97    	SBC R25,R23
006DC6  F41B    	BRVC L1586
006DC7  F3D4    	BRLT L1587
006DC8  2000    	TST R0
006DC9  CFF4    	RJMP L1588
006DCA  2F79    L1586:	MOV R23,R25
006DCB  9566    	LSR R22
006DCC  95F7    	ROR ZH
006DCD  95E7    	ROR ZL
006DCE  9586    	LSR R24
006DCF  95B7    	ROR XH
006DD0  95A7    	ROR XL
006DD1  934F    	PUSH R20
006DD2  2411    	CLR R1
006DD3  2744    	CLR R20
006DD4  2755    	CLR R21
006DD5  E198    	LDI R25,$18
006DD6  17AE    L1591:	CP XL,ZL
006DD7  07BF    	CPC XH,ZH
006DD8  0786    	CPC R24,R22
006DD9  F028    	BRCS L1589
006DDA  1BAE    	SUB XL,ZL
006DDB  0BBF    	SBC XH,ZH
006DDC  0B86    	SBC R24,R22
006DDD  9408    	BSET 0
006DDE  C001    	RJMP L1590
006DDF  9488    L1589:	BCLR 0
006DE0  1C11    L1590:	ROL R1
006DE1  1F44    	ROL R20
006DE2  1F55    	ROL R21
006DE3  1FAA    	ROL XL
006DE4  1FBB    	ROL XH
006DE5  1F88    	ROL R24
006DE6  959A    	DEC R25
006DE7  F771    	BRNE L1591
006DE8  2DE1    	MOV ZL,R1
006DE9  2FF4    	MOV ZH,R20
006DEA  2F65    	MOV R22,R21
006DEB  95A6    	LSR XL
006DEC  1FE9    	ADC ZL,R25
006DED  1FF9    	ADC ZH,R25
006DEE  1F69    	ADC R22,R25
006DEF  914F    	POP R20
006DF0  2366    	TST R22
006DF1  F02A    	BRMI L1592
006DF2  0FEE    	LSL ZL
006DF3  1FFF    	ROL ZH
006DF4  1F66    	ROL R22
006DF5  957A    	DEC R23
006DF6  F25B    	BRVS L1587
006DF7  DEAD    L1592:	RCALL L1562
006DF8  915F    	POP R21
006DF9  9508    	RET
006DFA  2399    L974:	TST R25
006DFB  F09A    	BRMI L1593
006DFC  2377    	TST R23
006DFD  F042    	BRMI L1594
006DFE  1797    	CP R25,R23
006DFF  F048    	BRCS L1595
006E00  F429    	BRNE L1594
006E01  17AE    	CP XL,ZL
006E02  07BF    	CPC XH,ZH
006E03  0786    	CPC R24,R22
006E04  F020    	BRCS L1595
006E05  F031    	BREQ L1596
006E06  9498    L1594:	BCLR 1
006E07  9488    	BCLR 0
006E08  9508    	RET
006E09  9498    L1595:	BCLR 1
006E0A  9408    	BSET 0
006E0B  9508    	RET
006E0C  9418    L1596:	BSET 1
006E0D  9488    	BCLR 0
006E0E  9508    	RET

006E0F  2377    L1593:	TST R23
006E10  F7C2    	BRPL L1595
006E11  1797    	CP R25,R23
006E12  F398    	BRCS L1594
006E13  F7A9    	BRNE L1595
006E14  17EA    	CP ZL,XL
006E15  07FB    	CPC ZH,XH
006E16  0768    	CPC R22,R24
006E17  F388    	BRCS L1595
006E18  F399    	BREQ L1596
006E19  CFEC    	RJMP L1594
006E1A  9730    L1380:	SBIW ZH:ZL,0
006E1B  4060    	SBCI R22,$00
006E1C  4070    	SBCI R23,$00
006E1D  9508    	RET

###############################

compare XH&L==0

###############################

006E1E  2400    L753:	CLR R0
006E1F  160A    	CP R0,XL
006E20  060B    	CPC R0,XH
006E21  9508    	RET

##################


#################

006E22  9710    L1350:	SBIW XH:XL,0
006E23  4080    	SBCI R24,$00
006E24  4090    	SBCI R25,$00
006E25  9508    	RET

##################


#################

006E26  935A    L613:	ST -Y,R21
006E27  934A    L892:	ST -Y,R20
006E28  933A    L941:	ST -Y,R19
006E29  932A    L594:	ST -Y,R18
006E2A  931A    	ST -Y,R17
006E2B  930A    	ST -Y,R16
006E2C  9508    	RET

##################


#################

006E2D  815D    L617:	LDD R21,Y+5
006E2E  814C    L899:	LDD R20,Y+4
006E2F  813B    L953:	LDD R19,Y+3
006E30  812A    L605:	LDD R18,Y+2
006E31  8119    	LDD R17,Y+1
006E32  8108    	LD R16,Y
006E33  9508    	RET

##################


#################


006E34  0FAC    L1345:	ADD XL,YL
006E35  1FBD    	ADC XH,YH
006E36  BF6B    	OUT RAMPZ,R22
006E37  9007    L1597:	ELPM R0,Z+
006E38  920D    	ST X+,R0
006E39  958A    	DEC R24
006E3A  F7E1    	BRNE L1597
006E3B  9508    	RET

