
DCMP.elf:     file format elf32-avr

Sections:
Idx Name          Size      VMA       LMA       File off  Algn
  0 .data         00000460  00800100  00004d8c  00004e00  2**0
                  CONTENTS, ALLOC, LOAD, DATA
  1 .text         00004d8c  00000000  00000000  00000074  2**1
                  CONTENTS, ALLOC, LOAD, READONLY, CODE
  2 .bss          0000090c  00800560  000051ec  00005260  2**0
                  ALLOC
  3 .debug_aranges 000000c0  00000000  00000000  00005260  2**0
                  CONTENTS, READONLY, DEBUGGING
  4 .debug_pubnames 0000094b  00000000  00000000  00005320  2**0
                  CONTENTS, READONLY, DEBUGGING
  5 .debug_info   00002b5f  00000000  00000000  00005c6b  2**0
                  CONTENTS, READONLY, DEBUGGING
  6 .debug_abbrev 00000b7f  00000000  00000000  000087ca  2**0
                  CONTENTS, READONLY, DEBUGGING
  7 .debug_line   000030ab  00000000  00000000  00009349  2**0
                  CONTENTS, READONLY, DEBUGGING
  8 .debug_frame  000007d0  00000000  00000000  0000c3f4  2**2
                  CONTENTS, READONLY, DEBUGGING
  9 .debug_str    000007e2  00000000  00000000  0000cbc4  2**0
                  CONTENTS, READONLY, DEBUGGING
 10 .debug_loc    0000168f  00000000  00000000  0000d3a6  2**0
                  CONTENTS, READONLY, DEBUGGING
 11 .debug_ranges 000000c0  00000000  00000000  0000ea35  2**0
                  CONTENTS, READONLY, DEBUGGING
Disassembly of section .text:

00000000 <__vectors>:
       0:	0c 94 46 00 	jmp	0x8c	; 0x8c <__ctors_end>
       4:	0c 94 65 00 	jmp	0xca	; 0xca <__bad_interrupt>
       8:	0c 94 65 00 	jmp	0xca	; 0xca <__bad_interrupt>
       c:	0c 94 65 00 	jmp	0xca	; 0xca <__bad_interrupt>
      10:	0c 94 65 00 	jmp	0xca	; 0xca <__bad_interrupt>
      14:	0c 94 65 00 	jmp	0xca	; 0xca <__bad_interrupt>
      18:	0c 94 65 00 	jmp	0xca	; 0xca <__bad_interrupt>
      1c:	0c 94 0b 20 	jmp	0x4016	; 0x4016 <__vector_7>
      20:	0c 94 65 00 	jmp	0xca	; 0xca <__bad_interrupt>
      24:	0c 94 65 00 	jmp	0xca	; 0xca <__bad_interrupt>
      28:	0c 94 fa 1f 	jmp	0x3ff4	; 0x3ff4 <__vector_10>
      2c:	0c 94 65 00 	jmp	0xca	; 0xca <__bad_interrupt>
      30:	0c 94 65 00 	jmp	0xca	; 0xca <__bad_interrupt>
      34:	0c 94 65 00 	jmp	0xca	; 0xca <__bad_interrupt>
      38:	0c 94 65 00 	jmp	0xca	; 0xca <__bad_interrupt>
      3c:	0c 94 65 00 	jmp	0xca	; 0xca <__bad_interrupt>
      40:	0c 94 98 06 	jmp	0xd30	; 0xd30 <__vector_16>
      44:	0c 94 65 00 	jmp	0xca	; 0xca <__bad_interrupt>
      48:	0c 94 65 00 	jmp	0xca	; 0xca <__bad_interrupt>
      4c:	0c 94 65 00 	jmp	0xca	; 0xca <__bad_interrupt>
      50:	0c 94 65 00 	jmp	0xca	; 0xca <__bad_interrupt>
      54:	0c 94 91 03 	jmp	0x722	; 0x722 <__vector_21>
      58:	0c 94 65 00 	jmp	0xca	; 0xca <__bad_interrupt>
      5c:	0c 94 65 00 	jmp	0xca	; 0xca <__bad_interrupt>
      60:	0c 94 65 00 	jmp	0xca	; 0xca <__bad_interrupt>
      64:	0c 94 65 00 	jmp	0xca	; 0xca <__bad_interrupt>
      68:	0c 94 65 00 	jmp	0xca	; 0xca <__bad_interrupt>
      6c:	0c 94 65 00 	jmp	0xca	; 0xca <__bad_interrupt>
      70:	0c 94 65 00 	jmp	0xca	; 0xca <__bad_interrupt>
      74:	0c 94 65 00 	jmp	0xca	; 0xca <__bad_interrupt>
      78:	0c 94 65 00 	jmp	0xca	; 0xca <__bad_interrupt>
      7c:	0c 94 65 00 	jmp	0xca	; 0xca <__bad_interrupt>
      80:	0c 94 65 00 	jmp	0xca	; 0xca <__bad_interrupt>
      84:	0c 94 65 00 	jmp	0xca	; 0xca <__bad_interrupt>
      88:	0c 94 65 00 	jmp	0xca	; 0xca <__bad_interrupt>

0000008c <__ctors_end>:
      8c:	11 24       	eor	r1, r1
      8e:	1f be       	out	0x3f, r1	; 63
      90:	cf ef       	ldi	r28, 0xFF	; 255
      92:	d0 e1       	ldi	r29, 0x10	; 16
      94:	de bf       	out	0x3e, r29	; 62
      96:	cd bf       	out	0x3d, r28	; 61

00000098 <__do_copy_data>:
      98:	15 e0       	ldi	r17, 0x05	; 5
      9a:	a0 e0       	ldi	r26, 0x00	; 0
      9c:	b1 e0       	ldi	r27, 0x01	; 1
      9e:	ec e8       	ldi	r30, 0x8C	; 140
      a0:	fd e4       	ldi	r31, 0x4D	; 77
      a2:	00 e0       	ldi	r16, 0x00	; 0
      a4:	0b bf       	out	0x3b, r16	; 59
      a6:	02 c0       	rjmp	.+4      	; 0xac <__do_copy_data+0x14>
      a8:	07 90       	elpm	r0, Z+
      aa:	0d 92       	st	X+, r0
      ac:	a0 36       	cpi	r26, 0x60	; 96
      ae:	b1 07       	cpc	r27, r17
      b0:	d9 f7       	brne	.-10     	; 0xa8 <__do_copy_data+0x10>

000000b2 <__do_clear_bss>:
      b2:	1e e0       	ldi	r17, 0x0E	; 14
      b4:	a0 e6       	ldi	r26, 0x60	; 96
      b6:	b5 e0       	ldi	r27, 0x05	; 5
      b8:	01 c0       	rjmp	.+2      	; 0xbc <.do_clear_bss_start>

000000ba <.do_clear_bss_loop>:
      ba:	1d 92       	st	X+, r1

000000bc <.do_clear_bss_start>:
      bc:	ac 36       	cpi	r26, 0x6C	; 108
      be:	b1 07       	cpc	r27, r17
      c0:	e1 f7       	brne	.-8      	; 0xba <.do_clear_bss_loop>
      c2:	0e 94 75 01 	call	0x2ea	; 0x2ea <main>
      c6:	0c 94 c4 26 	jmp	0x4d88	; 0x4d88 <_exit>

000000ca <__bad_interrupt>:
      ca:	0c 94 00 00 	jmp	0	; 0x0 <__vectors>

000000ce <putByte>:
//------------------------------------------------------------------------------
// UART1 Transmit  Routine
//------------------------------------------------------------------------------

void putByte (BYTE b)
{
      ce:	98 2f       	mov	r25, r24
	while ( (UCSR1A & DATA_REGISTER_EMPTY) == 0 );
      d0:	80 91 9b 00 	lds	r24, 0x009B
      d4:	85 ff       	sbrs	r24, 5
      d6:	fc cf       	rjmp	.-8      	; 0xd0 <putByte+0x2>
	UDR1 = b;
      d8:	90 93 9c 00 	sts	0x009C, r25
}
      dc:	08 95       	ret

000000de <putWck>:
//------------------------------------------------------------------------------
// UART1 Transmit  Routine
//------------------------------------------------------------------------------

void putWck (BYTE b)
{
      de:	5d 9b       	sbis	0x0b, 5	; 11
      e0:	fe cf       	rjmp	.-4      	; 0xde <putWck>
	while ( (UCSR0A & DATA_REGISTER_EMPTY) == 0 );
	UDR0 = b;
      e2:	8c b9       	out	0x0c, r24	; 12
}
      e4:	08 95       	ret

000000e6 <HW_init>:
void SendToSoundIC(BYTE cmd) ;

//------------------------------------------------------------------------------
// Initialise Ports
//------------------------------------------------------------------------------
void HW_init(void) {
      e6:	93 e0       	ldi	r25, 0x03	; 3
      e8:	9b bb       	out	0x1b, r25	; 27
	// Input/Output Ports initialization
	// Port A initialization
	// Func7=Out Func6=Out Func5=Out Func4=Out Func3=Out Func2=Out Func1=In Func0=In 
	// State7=0 State6=0 State5=0 State4=0 State3=0 State2=0 State1=P State0=P 
	PORTA=0x03;
	DDRA=0xFC;
      ea:	8c ef       	ldi	r24, 0xFC	; 252
      ec:	8a bb       	out	0x1a, r24	; 26

	// Port B initialization
	// Func7=In Func6=Out Func5=Out Func4=Out Func3=In Func2=Out Func1=In Func0=In 
	// State7=T State6=0 State5=0 State4=0 State3=T State2=0 State1=T State0=T 
	PORTB=0x00;
      ee:	18 ba       	out	0x18, r1	; 24
	DDRB=0x74;
      f0:	84 e7       	ldi	r24, 0x74	; 116
      f2:	87 bb       	out	0x17, r24	; 23

	// Port C initialization
	// Func7=Out Func6=In Func5=In Func4=In Func3=In Func2=In Func1=In Func0=In 
	// State7=0 State6=T State5=T State4=T State3=T State2=T State1=T State0=T 
	PORTC=0x00;
      f4:	15 ba       	out	0x15, r1	; 21
	DDRC=0x80;
      f6:	40 e8       	ldi	r20, 0x80	; 128
      f8:	44 bb       	out	0x14, r20	; 20

	// Port D initialization
	// Func7=In Func6=In Func5=In Func4=In Func3=In Func2=In Func1=In Func0=In 
	// State7=T State6=T State5=T State4=T State3=T State2=T State1=P State0=P 
	PORTD=0x03;
      fa:	92 bb       	out	0x12, r25	; 18
	DDRD=0x00;
      fc:	11 ba       	out	0x11, r1	; 17

	// Port E initialization
	// Func7=In Func6=In Func5=In Func4=In Func3=Out Func2=In Func1=In Func0=In 
	// State7=T State6=P State5=P State4=P State3=0 State2=T State1=T State0=T 
	PORTE=0x70;
      fe:	80 e7       	ldi	r24, 0x70	; 112
     100:	83 b9       	out	0x03, r24	; 3
	DDRE=0x08;
     102:	88 e0       	ldi	r24, 0x08	; 8
     104:	82 b9       	out	0x02, r24	; 2

	// Port F initialization
	// Func7=In Func6=In Func5=In Func4=In Func3=In Func2=In Func1=In Func0=In 
	// State7=T State6=T State5=T State4=T State3=T State2=T State1=T State0=T 
	PORTF=0x00;
     106:	10 92 62 00 	sts	0x0062, r1
	DDRF=0x00;
     10a:	10 92 61 00 	sts	0x0061, r1

	// Port G initialization
	// Func4=In Func3=In Func2=Out Func1=In Func0=In 
	// State4=T State3=T State2=0 State1=T State0=T 
	PORTG=0x00;
     10e:	10 92 65 00 	sts	0x0065, r1
	DDRG=0x04;
     112:	84 e0       	ldi	r24, 0x04	; 4
     114:	80 93 64 00 	sts	0x0064, r24
	// Clock period = 1/230400 = 4.34us
	// Overflow time = 255*1/230400 = 1.107ms
	// 1ms overflow value =  255-230 = 25
	// Mode: Normal top=FFh
	// OC0 output: Disconnected
	ASSR=0x00;
     118:	10 be       	out	0x30, r1	; 48
	TCCR0=0x04;
     11a:	83 bf       	out	0x33, r24	; 51
	TCNT0=0x00;
     11c:	12 be       	out	0x32, r1	; 50
	OCR0=0x00;
     11e:	11 be       	out	0x31, r1	; 49
	// Timer 1 Overflow Interrupt: On
	// Input Capture Interrupt: Off
	// Compare A Match Interrupt: Off
	// Compare B Match Interrupt: Off
	// Compare C Match Interrupt: Off
	TCCR1A=0x00;
     120:	1f bc       	out	0x2f, r1	; 47
	TCCR1B=0x05;
     122:	85 e0       	ldi	r24, 0x05	; 5
     124:	8e bd       	out	0x2e, r24	; 46
	TCNT1H=0x00;
     126:	1d bc       	out	0x2d, r1	; 45
	TCNT1L=0x00;
     128:	1c bc       	out	0x2c, r1	; 44
	ICR1H=0x00;
     12a:	17 bc       	out	0x27, r1	; 39
	ICR1L=0x00;
     12c:	16 bc       	out	0x26, r1	; 38
	OCR1AH=0x00;
     12e:	1b bc       	out	0x2b, r1	; 43
	OCR1AL=0x00;
     130:	1a bc       	out	0x2a, r1	; 42
	OCR1BH=0x00;
     132:	19 bc       	out	0x29, r1	; 41
	OCR1BL=0x00;
     134:	18 bc       	out	0x28, r1	; 40
	OCR1CH=0x00;
     136:	10 92 79 00 	sts	0x0079, r1
	OCR1CL=0x00;
     13a:	10 92 78 00 	sts	0x0078, r1
	// Clock source: System Clock
	// Clock freq: 14.400 kHz
	// Clock period = 1/14400 = 69.4us
	// Mode: Normal top=FFh
	// OC2 output: Disconnected
	TCCR2=0x05;
     13e:	85 bd       	out	0x25, r24	; 37
	TCNT2=0x00;
     140:	14 bc       	out	0x24, r1	; 36
	OCR2=0x00;
     142:	13 bc       	out	0x23, r1	; 35

	// Timer 3---------------------------------------------------------------
	// Not used
	TCCR3A=0x00;
     144:	10 92 8b 00 	sts	0x008B, r1
	TCCR3B=0x03;
     148:	90 93 8a 00 	sts	0x008A, r25
	TCNT3H=0x00;
     14c:	10 92 89 00 	sts	0x0089, r1
	TCNT3L=0x00;
     150:	10 92 88 00 	sts	0x0088, r1
	ICR3H=0x00;
     154:	10 92 81 00 	sts	0x0081, r1
	ICR3L=0x00;
     158:	10 92 80 00 	sts	0x0080, r1
	OCR3AH=0x00;
     15c:	10 92 87 00 	sts	0x0087, r1
	OCR3AL=0x00;
     160:	10 92 86 00 	sts	0x0086, r1
	OCR3BH=0x00;
     164:	10 92 85 00 	sts	0x0085, r1
	OCR3BL=0x00;
     168:	10 92 84 00 	sts	0x0084, r1
	OCR3CH=0x00;
     16c:	10 92 83 00 	sts	0x0083, r1
	OCR3CL=0x00;
     170:	10 92 82 00 	sts	0x0082, r1
	// INT3: Off
	// INT4: Off
	// INT5: Off
	// INT6: IR Remote falling edge
	// INT7: Off
	EICRA=0x00;
     174:	10 92 6a 00 	sts	0x006A, r1
	EICRB=0x20;
     178:	30 e2       	ldi	r19, 0x20	; 32
     17a:	3a bf       	out	0x3a, r19	; 58
	EIMSK=0x40;
     17c:	80 e4       	ldi	r24, 0x40	; 64
     17e:	89 bf       	out	0x39, r24	; 57

	// Timer(s)/Counter(s) Interrupt(s) initialization
	TIMSK=0x00;
     180:	17 be       	out	0x37, r1	; 55
	ETIMSK=0x00;
     182:	10 92 7d 00 	sts	0x007D, r1
	// Communication Parameters: 8 Data, 1 Stop, No Parity
	// USART0 Receiver: Off
	// USART0 Transmitter: On
	// USART0 Mode: Asynchronous
	// USART0 Baud rate: 115200
	UCSR0A=0x00;
     186:	1b b8       	out	0x0b, r1	; 11
	//UCSR0B=0x98;
	//UCSR0B=0x48;
	UCSR0B = (1<<RXEN)|(1<<TXEN) |(1<<TXCIE); //enable reads for GetPos !!
     188:	88 e5       	ldi	r24, 0x58	; 88
     18a:	8a b9       	out	0x0a, r24	; 10
	UCSR0C=0x06;
     18c:	26 e0       	ldi	r18, 0x06	; 6
     18e:	20 93 95 00 	sts	0x0095, r18
	UBRR0H=0x00;
     192:	10 92 90 00 	sts	0x0090, r1
	UBRR0L=0x07;
     196:	97 e0       	ldi	r25, 0x07	; 7
     198:	99 b9       	out	0x09, r25	; 9
	// Communication Parameters: 8 Data, 1 Stop, No Parity
	// USART1 Receiver: On
	// USART1 Transmitter: On
	// USART1 Mode: Asynchronous
	// USART1 Baud rate: 115200
	UCSR1A=0x00;
     19a:	10 92 9b 00 	sts	0x009B, r1
	UCSR1B= (1<<RXEN)|(1<<TXEN) |(1<<RXCIE); //enable PC read/write ! (old value=0x18;		
     19e:	88 e9       	ldi	r24, 0x98	; 152
     1a0:	80 93 9a 00 	sts	0x009A, r24
	UCSR1C=0x06;
     1a4:	20 93 9d 00 	sts	0x009D, r18
	UBRR1H=0x00;
     1a8:	10 92 98 00 	sts	0x0098, r1
	UBRR1L=BR115200;
     1ac:	90 93 99 00 	sts	0x0099, r25

	// Analog Comparator initialization
	// Analog Comparator: Off
	// Analog Comparator Input Capture by Timer/Counter 1: Off
	// Analog Comparator Output: Off
	ACSR=0x80;
     1b0:	48 b9       	out	0x08, r20	; 8
	SFIOR=0x00;
     1b2:	10 bc       	out	0x20, r1	; 32
    //ADC initialization
    //ADC Clock frequency: 460.800 kHz
    //ADC Voltage Reference: AREF pin
    //Only the 8 most significant bits of
    //the AD conversion result are used
    ADMUX=ADC_VREF_TYPE;
     1b4:	37 b9       	out	0x07, r19	; 7
    ADCSRA=0x00;	
     1b6:	16 b8       	out	0x06, r1	; 6

	TWCR = 0;
     1b8:	10 92 74 00 	sts	0x0074, r1
}
     1bc:	08 95       	ret

000001be <SW_init>:


//------------------------------------------------------------------------------
// Initialise software states
//------------------------------------------------------------------------------
void SW_init(void) {
     1be:	da 9a       	sbi	0x1b, 2	; 27

	PF1_LED1_OFF;			// LED states
	PF1_LED2_OFF;
     1c0:	db 9a       	sbi	0x1b, 3	; 27
	PF2_LED_OFF;
     1c2:	dc 9a       	sbi	0x1b, 4	; 27
	PWR_LED1_OFF;
     1c4:	e5 e6       	ldi	r30, 0x65	; 101
     1c6:	f0 e0       	ldi	r31, 0x00	; 0
     1c8:	80 81       	ld	r24, Z
     1ca:	84 60       	ori	r24, 0x04	; 4
     1cc:	80 83       	st	Z, r24
	PWR_LED2_OFF;
     1ce:	af 9a       	sbi	0x15, 7	; 21
	RUN_LED1_OFF;
     1d0:	dd 9a       	sbi	0x1b, 5	; 27
	RUN_LED2_OFF;
     1d2:	de 9a       	sbi	0x1b, 6	; 27
	ERR_LED_OFF;
     1d4:	df 9a       	sbi	0x1b, 7	; 27

	PSD_OFF;                // PSD distance sensor off
     1d6:	c5 98       	cbi	0x18, 5	; 24
}
     1d8:	08 95       	ret

000001da <sound_init>:
	delay_ms(1);
	putWck(CheckSum);
} 

void sound_init()
{
     1da:	c6 98       	cbi	0x18, 6	; 24
	// low -> high PIN
	// defined in main.h
	P_BMC504_RESET(0);
	delay_ms(20);
     1dc:	84 e1       	ldi	r24, 0x14	; 20
     1de:	90 e0       	ldi	r25, 0x00	; 0
     1e0:	0e 94 ef 04 	call	0x9de	; 0x9de <delay_ms>
	P_BMC504_RESET(1);
     1e4:	c6 9a       	sbi	0x18, 6	; 24
}
     1e6:	08 95       	ret

000001e8 <SendToSoundIC>:

#define P_BMC504_RESET(A)		if(A) SET_BIT6(PORTB);else CLR_BIT6(PORTB)
#define P_PWM_SOUND_CUTOFF(A)	if(A) CLR_BIT3(DDRE);else SET_BIT3(DDRE)

void SendToSoundIC(BYTE cmd) 
{
     1e8:	1f 93       	push	r17
     1ea:	18 2f       	mov	r17, r24
// UART1 Transmit  Routine
//------------------------------------------------------------------------------

void putWck (BYTE b)
{
	while ( (UCSR0A & DATA_REGISTER_EMPTY) == 0 );
     1ec:	5d 9b       	sbis	0x0b, 5	; 11
     1ee:	fe cf       	rjmp	.-4      	; 0x1ec <SendToSoundIC+0x4>
	UDR0 = b;
     1f0:	8f ef       	ldi	r24, 0xFF	; 255
     1f2:	8c b9       	out	0x0c, r24	; 12
{
	BYTE	CheckSum; 

	CheckSum = (29^cmd)&0x7f;
	putWck(0xFF);
	delay_ms(1);
     1f4:	81 e0       	ldi	r24, 0x01	; 1
     1f6:	90 e0       	ldi	r25, 0x00	; 0
     1f8:	0e 94 ef 04 	call	0x9de	; 0x9de <delay_ms>
// UART1 Transmit  Routine
//------------------------------------------------------------------------------

void putWck (BYTE b)
{
	while ( (UCSR0A & DATA_REGISTER_EMPTY) == 0 );
     1fc:	5d 9b       	sbis	0x0b, 5	; 11
     1fe:	fe cf       	rjmp	.-4      	; 0x1fc <SendToSoundIC+0x14>
	UDR0 = b;
     200:	8d e1       	ldi	r24, 0x1D	; 29
     202:	8c b9       	out	0x0c, r24	; 12

	CheckSum = (29^cmd)&0x7f;
	putWck(0xFF);
	delay_ms(1);
	putWck(29);
	delay_ms(1);
     204:	81 e0       	ldi	r24, 0x01	; 1
     206:	90 e0       	ldi	r25, 0x00	; 0
     208:	0e 94 ef 04 	call	0x9de	; 0x9de <delay_ms>
// UART1 Transmit  Routine
//------------------------------------------------------------------------------

void putWck (BYTE b)
{
	while ( (UCSR0A & DATA_REGISTER_EMPTY) == 0 );
     20c:	5d 9b       	sbis	0x0b, 5	; 11
     20e:	fe cf       	rjmp	.-4      	; 0x20c <SendToSoundIC+0x24>
	UDR0 = b;
     210:	1c b9       	out	0x0c, r17	; 12
	putWck(0xFF);
	delay_ms(1);
	putWck(29);
	delay_ms(1);
	putWck(cmd);
	delay_ms(1);
     212:	81 e0       	ldi	r24, 0x01	; 1
     214:	90 e0       	ldi	r25, 0x00	; 0
     216:	0e 94 ef 04 	call	0x9de	; 0x9de <delay_ms>
// UART1 Transmit  Routine
//------------------------------------------------------------------------------

void putWck (BYTE b)
{
	while ( (UCSR0A & DATA_REGISTER_EMPTY) == 0 );
     21a:	5d 9b       	sbis	0x0b, 5	; 11
     21c:	fe cf       	rjmp	.-4      	; 0x21a <SendToSoundIC+0x32>

void SendToSoundIC(BYTE cmd) 
{
	BYTE	CheckSum; 

	CheckSum = (29^cmd)&0x7f;
     21e:	8d e1       	ldi	r24, 0x1D	; 29
     220:	18 27       	eor	r17, r24
     222:	1f 77       	andi	r17, 0x7F	; 127
//------------------------------------------------------------------------------

void putWck (BYTE b)
{
	while ( (UCSR0A & DATA_REGISTER_EMPTY) == 0 );
	UDR0 = b;
     224:	1c b9       	out	0x0c, r17	; 12
	putWck(29);
	delay_ms(1);
	putWck(cmd);
	delay_ms(1);
	putWck(CheckSum);
} 
     226:	1f 91       	pop	r17
     228:	08 95       	ret

0000022a <ReadButton>:
//(CHK_BIT5(PORTA))
//------------------------------------------------------------------------------
//  Check Routine
//------------------------------------------------------------------------------
void ReadButton(void)
{
     22a:	89 b3       	in	r24, 0x19	; 25
     22c:	83 70       	andi	r24, 0x03	; 3
     22e:	81 30       	cpi	r24, 0x01	; 1
     230:	49 f4       	brne	.+18     	; 0x244 <ReadButton+0x1a>
	if((PINA&03) == 1)  // PF1 on, PF2 off
	{
		delay_ms(10);
     232:	8a e0       	ldi	r24, 0x0A	; 10
     234:	90 e0       	ldi	r25, 0x00	; 0
     236:	0e 94 ef 04 	call	0x9de	; 0x9de <delay_ms>
		if((PINA&1) == 1)
     23a:	c8 9b       	sbis	0x19, 0	; 25
     23c:	03 c0       	rjmp	.+6      	; 0x244 <ReadButton+0x1a>
		{
			gBtn_val = PF1_BTN_PRESSED;
     23e:	81 e0       	ldi	r24, 0x01	; 1
     240:	80 93 6c 05 	sts	0x056C, r24
		}
	}
	if((PINA&3) == 2)  // PF1 on, PF2 off
     244:	89 b3       	in	r24, 0x19	; 25
     246:	83 70       	andi	r24, 0x03	; 3
     248:	82 30       	cpi	r24, 0x02	; 2
     24a:	59 f4       	brne	.+22     	; 0x262 <ReadButton+0x38>
	{
		delay_ms(10);
     24c:	8a e0       	ldi	r24, 0x0A	; 10
     24e:	90 e0       	ldi	r25, 0x00	; 0
     250:	0e 94 ef 04 	call	0x9de	; 0x9de <delay_ms>
		if((PINA&3) == 2)
     254:	89 b3       	in	r24, 0x19	; 25
     256:	83 70       	andi	r24, 0x03	; 3
     258:	82 30       	cpi	r24, 0x02	; 2
     25a:	19 f4       	brne	.+6      	; 0x262 <ReadButton+0x38>
		{
			gBtn_val = PF2_BTN_PRESSED;
     25c:	83 e0       	ldi	r24, 0x03	; 3
     25e:	80 93 6c 05 	sts	0x056C, r24
     262:	08 95       	ret

00000264 <ProcButton>:
//-----------------------------------------------------------------------------
// Process routine
//-----------------------------------------------------------------------------

void ProcButton(void)
{
     264:	cf 93       	push	r28
     266:	df 93       	push	r29
	int cnt;
	if(gBtn_val == PF1_BTN_PRESSED)
     268:	80 91 6c 05 	lds	r24, 0x056C
     26c:	81 30       	cpi	r24, 0x01	; 1
     26e:	d1 f5       	brne	.+116    	; 0x2e4 <ProcButton+0x80>
	{
		//look to see if PF2 held down
		gBtn_val = 0;
     270:	10 92 6c 05 	sts	0x056C, r1
		
		printline("charge mode - testing");
     274:	80 e0       	ldi	r24, 0x00	; 0
     276:	91 e0       	ldi	r25, 0x01	; 1
     278:	0e 94 19 0f 	call	0x1e32	; 0x1e32 <printline>
     27c:	c0 e0       	ldi	r28, 0x00	; 0
     27e:	d0 e0       	ldi	r29, 0x00	; 0
		
		for (cnt=0; cnt<10; cnt++)
		{
			PWR_LED2_ON;	// RED on
     280:	af 98       	cbi	0x15, 7	; 21
			delay_ms(50);
     282:	82 e3       	ldi	r24, 0x32	; 50
     284:	90 e0       	ldi	r25, 0x00	; 0
     286:	0e 94 ef 04 	call	0x9de	; 0x9de <delay_ms>
			Get_VOLTAGE();
     28a:	0e 94 c4 04 	call	0x988	; 0x988 <Get_VOLTAGE>
			DetectPower();
     28e:	0e 94 fa 04 	call	0x9f4	; 0x9f4 <DetectPower>
			printint (gVOLTAGE); printline(" mV");
     292:	80 91 7e 05 	lds	r24, 0x057E
     296:	90 91 7f 05 	lds	r25, 0x057F
     29a:	0e 94 f0 0e 	call	0x1de0	; 0x1de0 <printint>
     29e:	86 e1       	ldi	r24, 0x16	; 22
     2a0:	91 e0       	ldi	r25, 0x01	; 1
     2a2:	0e 94 19 0f 	call	0x1e32	; 0x1e32 <printline>
			PWR_LED2_OFF;   // RED off
     2a6:	af 9a       	sbi	0x15, 7	; 21
			delay_ms(50);
     2a8:	82 e3       	ldi	r24, 0x32	; 50
     2aa:	90 e0       	ldi	r25, 0x00	; 0
     2ac:	0e 94 ef 04 	call	0x9de	; 0x9de <delay_ms>
		//look to see if PF2 held down
		gBtn_val = 0;
		
		printline("charge mode - testing");
		
		for (cnt=0; cnt<10; cnt++)
     2b0:	21 96       	adiw	r28, 0x01	; 1
     2b2:	ca 30       	cpi	r28, 0x0A	; 10
     2b4:	d1 05       	cpc	r29, r1
     2b6:	21 f7       	brne	.-56     	; 0x280 <ProcButton+0x1c>
			printint (gVOLTAGE); printline(" mV");
			PWR_LED2_OFF;   // RED off
			delay_ms(50);
		}
				
		if(F_PS_PLUGGED)
     2b8:	80 91 98 05 	lds	r24, 0x0598
     2bc:	88 23       	and	r24, r24
     2be:	69 f0       	breq	.+26     	; 0x2da <ProcButton+0x76>
		{	
			printline("Plugged in - charging");		
     2c0:	8a e1       	ldi	r24, 0x1A	; 26
     2c2:	91 e0       	ldi	r25, 0x01	; 1
     2c4:	0e 94 19 0f 	call	0x1e32	; 0x1e32 <printline>
			BreakModeCmdSend();		// put servo in breakmode (power off)
     2c8:	0e 94 44 07 	call	0xe88	; 0xe88 <BreakModeCmdSend>
			ChargeNiMH();  			//initiate battery charging	
     2cc:	0e 94 c0 05 	call	0xb80	; 0xb80 <ChargeNiMH>
			printline("Complete");	
     2d0:	80 e3       	ldi	r24, 0x30	; 48
     2d2:	91 e0       	ldi	r25, 0x01	; 1
     2d4:	0e 94 19 0f 	call	0x1e32	; 0x1e32 <printline>
     2d8:	05 c0       	rjmp	.+10     	; 0x2e4 <ProcButton+0x80>
		}	
		else
		{
			printline("Not plugged in");
     2da:	89 e3       	ldi	r24, 0x39	; 57
     2dc:	91 e0       	ldi	r25, 0x01	; 1
     2de:	0e 94 19 0f 	call	0x1e32	; 0x1e32 <printline>
			PWR_LED2_ON	;	
     2e2:	af 98       	cbi	0x15, 7	; 21
		}
	}
}
     2e4:	df 91       	pop	r29
     2e6:	cf 91       	pop	r28
     2e8:	08 95       	ret

000002ea <main>:
// Main Routine
// Version $Rev$
//------------------------------------------------------------------------------
	
int main(void) 
{
     2ea:	0e 94 73 00 	call	0xe6	; 0xe6 <HW_init>
	HW_init();					// Initialise ATMega Ports
	SW_init();					// Initialise software states	
     2ee:	0e 94 df 00 	call	0x1be	; 0x1be <SW_init>
			
	sei();						// enable interrupts	
     2f2:	78 94       	sei
	TIMSK |= 0x01;		
     2f4:	87 b7       	in	r24, 0x37	; 55
     2f6:	81 60       	ori	r24, 0x01	; 1
     2f8:	87 bf       	out	0x37, r24	; 55
	
	PWR_LED1_ON; 				// Power green light on
     2fa:	e5 e6       	ldi	r30, 0x65	; 101
     2fc:	f0 e0       	ldi	r31, 0x00	; 0
     2fe:	80 81       	ld	r24, Z
     300:	8b 7f       	andi	r24, 0xFB	; 251
     302:	80 83       	st	Z, r24
		
	sound_init();
     304:	0e 94 ed 00 	call	0x1da	; 0x1da <sound_init>
	tilt_setup();				// initialise acceleromter
     308:	0e 94 66 02 	call	0x4cc	; 0x4cc <tilt_setup>
	
	//call self test

	SelfTest1();	
     30c:	0e 94 47 05 	call	0xa8e	; 0xa8e <SelfTest1>
	ReadButton();	
     310:	0e 94 15 01 	call	0x22a	; 0x22a <ReadButton>
	ProcButton();
     314:	0e 94 32 01 	call	0x264	; 0x264 <ProcButton>
	
	//otherwise femto!
	
	femto();
     318:	0e 94 06 1c 	call	0x380c	; 0x380c <femto>
}
     31c:	80 e0       	ldi	r24, 0x00	; 0
     31e:	90 e0       	ldi	r25, 0x00	; 0
     320:	08 95       	ret

00000322 <start_accel>:
volatile int z_value;



void start_accel()
{
     322:	14 9a       	sbi	0x02, 4	; 2
    SET_BIT4(DDRE);
	SET_BIT5(DDRE);	
     324:	15 9a       	sbi	0x02, 5	; 2
	DATA_HIGH;
     326:	1d 9a       	sbi	0x03, 5	; 3
	CLOCK_HIGH;	
     328:	1c 9a       	sbi	0x03, 4	; 3
	NOP;
     32a:	00 00       	nop
	NOP;
     32c:	00 00       	nop
	DATA_LOW;
     32e:	1d 98       	cbi	0x03, 5	; 3
	NOP;
     330:	00 00       	nop
	NOP;
     332:	00 00       	nop
	CLOCK_LOW;
     334:	1c 98       	cbi	0x03, 4	; 3
	NOP;
     336:	00 00       	nop
	NOP;
     338:	00 00       	nop
}
     33a:	08 95       	ret

0000033c <stop_accel>:

void stop_accel()
{
     33c:	14 9a       	sbi	0x02, 4	; 2
    SET_BIT4(DDRE);
	SET_BIT5(DDRE);	
     33e:	15 9a       	sbi	0x02, 5	; 2
	DATA_LOW;
     340:	1d 98       	cbi	0x03, 5	; 3
	CLOCK_HIGH;	
     342:	1c 9a       	sbi	0x03, 4	; 3
	NOP;
     344:	00 00       	nop
	NOP;
     346:	00 00       	nop
	DATA_HIGH;
     348:	1d 9a       	sbi	0x03, 5	; 3
	NOP;
     34a:	00 00       	nop
	NOP;
     34c:	00 00       	nop
    CLR_BIT4(DDRE);
     34e:	14 98       	cbi	0x02, 4	; 2
	CLR_BIT5(DDRE);	
     350:	15 98       	cbi	0x02, 5	; 2
}
     352:	08 95       	ret

00000354 <read_value>:

// reads from tilt
BYTE read_value()
{
     354:	15 98       	cbi	0x02, 5	; 2
     356:	80 e0       	ldi	r24, 0x00	; 0
     358:	90 e0       	ldi	r25, 0x00	; 0
	BYTE b=0;
	CLR_BIT5(DDRE);	  		// I2C - input
  	BYTE i;
	for (i=0; i<8; i++)
	{
		b <<=(BYTE)1;
     35a:	88 0f       	add	r24, r24
	...
		NOP;
		NOP;
		NOP;
		NOP;
		CLOCK_HIGH; 			
     364:	1c 9a       	sbi	0x03, 4	; 3
		NOP;
     366:	00 00       	nop
		NOP;
     368:	00 00       	nop
		
		if (PINE & BV(PINE5)) 	
     36a:	0d 99       	sbic	0x01, 5	; 1
		{
			b |= (BYTE)1;  
     36c:	81 60       	ori	r24, 0x01	; 1
		}

		NOP;
     36e:	00 00       	nop
		NOP;
     370:	00 00       	nop
		CLOCK_LOW; 	  
     372:	1c 98       	cbi	0x03, 4	; 3
BYTE read_value()
{
	BYTE b=0;
	CLR_BIT5(DDRE);	  		// I2C - input
  	BYTE i;
	for (i=0; i<8; i++)
     374:	9f 5f       	subi	r25, 0xFF	; 255
     376:	98 30       	cpi	r25, 0x08	; 8
     378:	81 f7       	brne	.-32     	; 0x35a <read_value+0x6>

		NOP;
		NOP;
		CLOCK_LOW; 	  
	}  
	SET_BIT5(DDRE);		  // I2C - output
     37a:	15 9a       	sbi	0x02, 5	; 2
	return b; 
}
     37c:	08 95       	ret

0000037e <write_value>:

// write to tilt
void write_value(BYTE data)
{
     37e:	15 9a       	sbi	0x02, 5	; 2
     380:	90 e0       	ldi	r25, 0x00	; 0
	BYTE i;
	SET_BIT5(DDRE);	
	for (i=0; i<8; i++)
	{
		if (data & (BYTE)0x80)
     382:	87 ff       	sbrs	r24, 7
     384:	02 c0       	rjmp	.+4      	; 0x38a <write_value+0xc>
		{
			DATA_HIGH;
     386:	1d 9a       	sbi	0x03, 5	; 3
     388:	01 c0       	rjmp	.+2      	; 0x38c <write_value+0xe>
		}
		else
		{
			DATA_LOW;
     38a:	1d 98       	cbi	0x03, 5	; 3
		}
		NOP;
     38c:	00 00       	nop
		NOP;
     38e:	00 00       	nop
		CLOCK_HIGH;
     390:	1c 9a       	sbi	0x03, 4	; 3
	...
		NOP;
		NOP;
		NOP;
		NOP;
		CLOCK_LOW;
     39a:	1c 98       	cbi	0x03, 4	; 3
		NOP;
     39c:	00 00       	nop
		NOP;
     39e:	00 00       	nop
// write to tilt
void write_value(BYTE data)
{
	BYTE i;
	SET_BIT5(DDRE);	
	for (i=0; i<8; i++)
     3a0:	9f 5f       	subi	r25, 0xFF	; 255
     3a2:	98 30       	cpi	r25, 0x08	; 8
     3a4:	11 f0       	breq	.+4      	; 0x3aa <write_value+0x2c>
		NOP;
		NOP;
		CLOCK_LOW;
		NOP;
		NOP;
		data <<= (BYTE)1;
     3a6:	88 0f       	add	r24, r24
     3a8:	ec cf       	rjmp	.-40     	; 0x382 <write_value+0x4>
     3aa:	08 95       	ret

000003ac <ack>:
	}  
}

void ack()
{
     3ac:	15 98       	cbi	0x02, 5	; 2
	CLR_BIT5(DDRE);	
	NOP;
     3ae:	00 00       	nop
	NOP;
     3b0:	00 00       	nop
	DATA_HIGH;
     3b2:	1d 9a       	sbi	0x03, 5	; 3
	NOP;
     3b4:	00 00       	nop
	NOP;
     3b6:	00 00       	nop
	CLOCK_HIGH;
     3b8:	1c 9a       	sbi	0x03, 4	; 3
	NOP;
     3ba:	00 00       	nop
	NOP;
     3bc:	00 00       	nop
	CLOCK_LOW;
     3be:	1c 98       	cbi	0x03, 4	; 3
	NOP;
     3c0:	00 00       	nop
	NOP;
     3c2:	00 00       	nop
	SET_BIT5(DDRE);		
     3c4:	15 9a       	sbi	0x02, 5	; 2
	NOP;
     3c6:	00 00       	nop
	NOP;
     3c8:	00 00       	nop
}
     3ca:	08 95       	ret

000003cc <next_byte>:

void next_byte()
{
     3cc:	15 9a       	sbi	0x02, 5	; 2
	SET_BIT5(DDRE);	
	NOP;
     3ce:	00 00       	nop
	NOP;
     3d0:	00 00       	nop
	DATA_LOW; 		
     3d2:	1d 98       	cbi	0x03, 5	; 3
	NOP;
     3d4:	00 00       	nop
	NOP;
     3d6:	00 00       	nop
	CLOCK_HIGH; 	
     3d8:	1c 9a       	sbi	0x03, 4	; 3
	NOP;
     3da:	00 00       	nop
	NOP;
     3dc:	00 00       	nop
	CLOCK_LOW; 		
     3de:	1c 98       	cbi	0x03, 4	; 3
	NOP;
     3e0:	00 00       	nop
	NOP;
     3e2:	00 00       	nop
	DATA_HIGH; 	   
     3e4:	1d 9a       	sbi	0x03, 5	; 3
	NOP;
     3e6:	00 00       	nop
	NOP;
     3e8:	00 00       	nop
}
     3ea:	08 95       	ret

000003ec <done_read>:

void done_read()
{
     3ec:	15 9a       	sbi	0x02, 5	; 2
	SET_BIT5(DDRE);	
	NOP;
     3ee:	00 00       	nop
	NOP;
     3f0:	00 00       	nop
	DATA_HIGH;  		
     3f2:	1d 9a       	sbi	0x03, 5	; 3
	NOP;
     3f4:	00 00       	nop
	NOP;
     3f6:	00 00       	nop
	CLOCK_HIGH; 		
     3f8:	1c 9a       	sbi	0x03, 4	; 3
	NOP;
     3fa:	00 00       	nop
	NOP;
     3fc:	00 00       	nop
	CLOCK_LOW;  		
     3fe:	1c 98       	cbi	0x03, 4	; 3
	NOP;
     400:	00 00       	nop
	NOP;
     402:	00 00       	nop
}
     404:	08 95       	ret

00000406 <cbyte>:

int cbyte(BYTE b)
{
     406:	28 2f       	mov	r18, r24
     408:	30 e0       	ldi	r19, 0x00	; 0
	int i;
	if (b>127) 
     40a:	87 ff       	sbrs	r24, 7
     40c:	02 c0       	rjmp	.+4      	; 0x412 <cbyte+0xc>
	{
		i=(int)b-256;
     40e:	20 50       	subi	r18, 0x00	; 0
     410:	31 40       	sbci	r19, 0x01	; 1
	else
	{
		i=(int)b;
	}
	return i;
}
     412:	c9 01       	movw	r24, r18
     414:	08 95       	ret

00000416 <tilt_read>:


void tilt_read()
{
     416:	0e 94 91 01 	call	0x322	; 0x322 <start_accel>
	BYTE tmp;
	
	start_accel();
	
	write_value(Slave_Addr);	  	//? slave Addr write mode
     41a:	80 e7       	ldi	r24, 0x70	; 112
     41c:	0e 94 bf 01 	call	0x37e	; 0x37e <write_value>
	ack();
     420:	0e 94 d6 01 	call	0x3ac	; 0x3ac <ack>
	 
	write_value(0x02);  			//?   0000 0010
     424:	82 e0       	ldi	r24, 0x02	; 2
     426:	0e 94 bf 01 	call	0x37e	; 0x37e <write_value>

	ack();
     42a:	0e 94 d6 01 	call	0x3ac	; 0x3ac <ack>

	stop_accel();
     42e:	0e 94 9e 01 	call	0x33c	; 0x33c <stop_accel>
	...
	
	NOP; NOP; NOP; NOP;

	start_accel();
     43a:	0e 94 91 01 	call	0x322	; 0x322 <start_accel>

	write_value(Slave_Addr+0x01);	  //Save_Addr + ReadBit
     43e:	81 e7       	ldi	r24, 0x71	; 113
     440:	0e 94 bf 01 	call	0x37e	; 0x37e <write_value>
	
	ack();
     444:	0e 94 d6 01 	call	0x3ac	; 0x3ac <ack>

	tmp = read_value();
     448:	0e 94 aa 01 	call	0x354	; 0x354 <read_value>
	
	next_byte();
     44c:	0e 94 e6 01 	call	0x3cc	; 0x3cc <next_byte>

	x_value = cbyte(read_value());
     450:	0e 94 aa 01 	call	0x354	; 0x354 <read_value>
     454:	28 2f       	mov	r18, r24
     456:	30 e0       	ldi	r19, 0x00	; 0
}

int cbyte(BYTE b)
{
	int i;
	if (b>127) 
     458:	87 ff       	sbrs	r24, 7
     45a:	04 c0       	rjmp	.+8      	; 0x464 <tilt_read+0x4e>
	{
		i=(int)b-256;
     45c:	c9 01       	movw	r24, r18
     45e:	80 50       	subi	r24, 0x00	; 0
     460:	91 40       	sbci	r25, 0x01	; 1
     462:	01 c0       	rjmp	.+2      	; 0x466 <tilt_read+0x50>
	}
	else
	{
		i=(int)b;
     464:	c9 01       	movw	r24, r18

	tmp = read_value();
	
	next_byte();

	x_value = cbyte(read_value());
     466:	90 93 73 05 	sts	0x0573, r25
     46a:	80 93 72 05 	sts	0x0572, r24

	next_byte();
     46e:	0e 94 e6 01 	call	0x3cc	; 0x3cc <next_byte>

	tmp = read_value();
     472:	0e 94 aa 01 	call	0x354	; 0x354 <read_value>

	next_byte();
     476:	0e 94 e6 01 	call	0x3cc	; 0x3cc <next_byte>

	y_value = cbyte(read_value());
     47a:	0e 94 aa 01 	call	0x354	; 0x354 <read_value>
     47e:	28 2f       	mov	r18, r24
     480:	30 e0       	ldi	r19, 0x00	; 0
}

int cbyte(BYTE b)
{
	int i;
	if (b>127) 
     482:	87 ff       	sbrs	r24, 7
     484:	04 c0       	rjmp	.+8      	; 0x48e <tilt_read+0x78>
	{
		i=(int)b-256;
     486:	c9 01       	movw	r24, r18
     488:	80 50       	subi	r24, 0x00	; 0
     48a:	91 40       	sbci	r25, 0x01	; 1
     48c:	01 c0       	rjmp	.+2      	; 0x490 <tilt_read+0x7a>
	}
	else
	{
		i=(int)b;
     48e:	c9 01       	movw	r24, r18

	tmp = read_value();

	next_byte();

	y_value = cbyte(read_value());
     490:	90 93 75 05 	sts	0x0575, r25
     494:	80 93 74 05 	sts	0x0574, r24

	next_byte();
     498:	0e 94 e6 01 	call	0x3cc	; 0x3cc <next_byte>

	tmp = read_value();
     49c:	0e 94 aa 01 	call	0x354	; 0x354 <read_value>
	
	next_byte();
     4a0:	0e 94 e6 01 	call	0x3cc	; 0x3cc <next_byte>

	z_value = cbyte(read_value());
     4a4:	0e 94 aa 01 	call	0x354	; 0x354 <read_value>
     4a8:	28 2f       	mov	r18, r24
     4aa:	30 e0       	ldi	r19, 0x00	; 0
}

int cbyte(BYTE b)
{
	int i;
	if (b>127) 
     4ac:	87 ff       	sbrs	r24, 7
     4ae:	04 c0       	rjmp	.+8      	; 0x4b8 <tilt_read+0xa2>
	{
		i=(int)b-256;
     4b0:	c9 01       	movw	r24, r18
     4b2:	80 50       	subi	r24, 0x00	; 0
     4b4:	91 40       	sbci	r25, 0x01	; 1
     4b6:	01 c0       	rjmp	.+2      	; 0x4ba <tilt_read+0xa4>
	}
	else
	{
		i=(int)b;
     4b8:	c9 01       	movw	r24, r18

	tmp = read_value();
	
	next_byte();

	z_value = cbyte(read_value());
     4ba:	90 93 7d 05 	sts	0x057D, r25
     4be:	80 93 7c 05 	sts	0x057C, r24

	done_read();	
     4c2:	0e 94 f6 01 	call	0x3ec	; 0x3ec <done_read>

	stop_accel();
     4c6:	0e 94 9e 01 	call	0x33c	; 0x33c <stop_accel>
}
     4ca:	08 95       	ret

000004cc <tilt_setup>:

void tilt_setup()
{
     4cc:	0e 94 91 01 	call	0x322	; 0x322 <start_accel>
	start_accel();
	
	write_value(Slave_Addr);	 //write mode
     4d0:	80 e7       	ldi	r24, 0x70	; 112
     4d2:	0e 94 bf 01 	call	0x37e	; 0x37e <write_value>
	
	ack();
     4d6:	0e 94 d6 01 	call	0x3ac	; 0x3ac <ack>
	 
	write_value(0x14);  		//0001 0100   (Guess - Data Rate and Resolution ?)
     4da:	84 e1       	ldi	r24, 0x14	; 20
     4dc:	0e 94 bf 01 	call	0x37e	; 0x37e <write_value>
 
	ack();
     4e0:	0e 94 d6 01 	call	0x3ac	; 0x3ac <ack>

	write_value(0x03); 			//0000 0111   (Guess - Control register - enabel X, Y ,Z axis)
     4e4:	83 e0       	ldi	r24, 0x03	; 3
     4e6:	0e 94 bf 01 	call	0x37e	; 0x37e <write_value>
	
	ack();
     4ea:	0e 94 d6 01 	call	0x3ac	; 0x3ac <ack>

	stop_accel();
     4ee:	0e 94 9e 01 	call	0x33c	; 0x33c <stop_accel>
}
     4f2:	08 95       	ret

000004f4 <AccStart>:

//==============================================================//
// Start
//==============================================================//
void AccStart(void)
{
     4f4:	15 9a       	sbi	0x02, 5	; 2
SDI_SET_OUTPUT;
SCK_SET_OUTPUT;
     4f6:	14 9a       	sbi	0x02, 4	; 2
	P_ACC_SDI(1);
     4f8:	1d 9a       	sbi	0x03, 5	; 3
	P_ACC_SCK(1);
     4fa:	1c 9a       	sbi	0x03, 4	; 3
	NOP;
     4fc:	00 00       	nop
	NOP;
     4fe:	00 00       	nop
	P_ACC_SDI(0);
     500:	1d 98       	cbi	0x03, 5	; 3
	NOP;
     502:	00 00       	nop
	NOP;
     504:	00 00       	nop
	P_ACC_SCK(0);
     506:	1c 98       	cbi	0x03, 4	; 3
	NOP;
     508:	00 00       	nop
	NOP;
     50a:	00 00       	nop
}
     50c:	08 95       	ret

0000050e <AccStop>:

//==============================================================//
// Stop
//==============================================================//
void AccStop(void)
{
     50e:	15 9a       	sbi	0x02, 5	; 2
	SDI_SET_OUTPUT;
	SCK_SET_OUTPUT;
     510:	14 9a       	sbi	0x02, 4	; 2
	P_ACC_SDI(0);
     512:	1d 98       	cbi	0x03, 5	; 3
	P_ACC_SCK(1);
     514:	1c 9a       	sbi	0x03, 4	; 3
	NOP;
     516:	00 00       	nop
	NOP;
     518:	00 00       	nop
	P_ACC_SDI(1);
     51a:	1d 9a       	sbi	0x03, 5	; 3
	NOP;
     51c:	00 00       	nop
	NOP;
     51e:	00 00       	nop
	SDI_SET_INPUT;
     520:	15 98       	cbi	0x02, 5	; 2
	SCK_SET_INPUT;
     522:	14 98       	cbi	0x02, 4	; 2
}
     524:	08 95       	ret

00000526 <AccByteWrite>:

//==============================================================//
//
//==============================================================//
void AccByteWrite(BYTE bData)
{
     526:	15 9a       	sbi	0x02, 5	; 2
     528:	90 e0       	ldi	r25, 0x00	; 0
	BYTE	bTmp;

SDI_SET_OUTPUT;
	for(i=0; i<8; i++){
		bTmp = CHK_BIT7(bData);
    	if(bTmp){
     52a:	87 ff       	sbrs	r24, 7
     52c:	02 c0       	rjmp	.+4      	; 0x532 <AccByteWrite+0xc>
			P_ACC_SDI(1);
     52e:	1d 9a       	sbi	0x03, 5	; 3
     530:	01 c0       	rjmp	.+2      	; 0x534 <AccByteWrite+0xe>
		}else{
			P_ACC_SDI(0);
     532:	1d 98       	cbi	0x03, 5	; 3
		}
		NOP;
     534:	00 00       	nop
		NOP;
     536:	00 00       	nop
		P_ACC_SCK(1);;
     538:	1c 9a       	sbi	0x03, 4	; 3
	...
		NOP;
		NOP;
		NOP;
		NOP;
		P_ACC_SCK(0);
     542:	1c 98       	cbi	0x03, 4	; 3
		NOP;
     544:	00 00       	nop
		NOP;
     546:	00 00       	nop
{
	BYTE	i;
	BYTE	bTmp;

SDI_SET_OUTPUT;
	for(i=0; i<8; i++){
     548:	9f 5f       	subi	r25, 0xFF	; 255
     54a:	98 30       	cpi	r25, 0x08	; 8
     54c:	11 f0       	breq	.+4      	; 0x552 <AccByteWrite+0x2c>
		NOP;
		NOP;
		P_ACC_SCK(0);
		NOP;
		NOP;
		bData =	bData << 1;
     54e:	88 0f       	add	r24, r24
     550:	ec cf       	rjmp	.-40     	; 0x52a <AccByteWrite+0x4>
     552:	08 95       	ret

00000554 <AccByteRead>:

//==============================================================//
//
//==============================================================//
char AccByteRead(void)
{
     554:	15 98       	cbi	0x02, 5	; 2
     556:	90 e0       	ldi	r25, 0x00	; 0
     558:	80 e0       	ldi	r24, 0x00	; 0
	BYTE	i;
	char	bTmp = 0;

	SDI_SET_INPUT;
	for(i = 0; i < 8;	i++){
		bTmp = bTmp << 1;
     55a:	88 0f       	add	r24, r24
	...
		NOP;
		NOP;
		NOP;
		NOP;
		P_ACC_SCK(1);
     564:	1c 9a       	sbi	0x03, 4	; 3
		NOP;
     566:	00 00       	nop
		NOP;
     568:	00 00       	nop
		if(SDI_CHK)	bTmp |= 0x01;
     56a:	0d 99       	sbic	0x01, 5	; 1
     56c:	81 60       	ori	r24, 0x01	; 1
		NOP;
     56e:	00 00       	nop
		NOP;
     570:	00 00       	nop
		P_ACC_SCK(0);
     572:	1c 98       	cbi	0x03, 4	; 3
{
	BYTE	i;
	char	bTmp = 0;

	SDI_SET_INPUT;
	for(i = 0; i < 8;	i++){
     574:	9f 5f       	subi	r25, 0xFF	; 255
     576:	98 30       	cpi	r25, 0x08	; 8
     578:	81 f7       	brne	.-32     	; 0x55a <AccByteRead+0x6>
		if(SDI_CHK)	bTmp |= 0x01;
		NOP;
		NOP;
		P_ACC_SCK(0);
	}
	SDI_SET_OUTPUT;
     57a:	15 9a       	sbi	0x02, 5	; 2

	return	bTmp;
}
     57c:	08 95       	ret

0000057e <AccAckRead>:

//==============================================================//
//
//==============================================================//
void AccAckRead(void)
{
     57e:	15 98       	cbi	0x02, 5	; 2
SDI_SET_INPUT;
	NOP;
     580:	00 00       	nop
	NOP;
     582:	00 00       	nop
	P_ACC_SDI(1);
     584:	1d 9a       	sbi	0x03, 5	; 3
	NOP;
     586:	00 00       	nop
	NOP;
     588:	00 00       	nop
	P_ACC_SCK(1);
     58a:	1c 9a       	sbi	0x03, 4	; 3
	NOP;
     58c:	00 00       	nop
	NOP;
     58e:	00 00       	nop
	P_ACC_SCK(0);
     590:	1c 98       	cbi	0x03, 4	; 3
	NOP;
     592:	00 00       	nop
	NOP;
     594:	00 00       	nop
SDI_SET_OUTPUT;
     596:	15 9a       	sbi	0x02, 5	; 2
	NOP;
     598:	00 00       	nop
	NOP;
     59a:	00 00       	nop
}
     59c:	08 95       	ret

0000059e <AccAckWrite>:

//==============================================================//
//
//==============================================================//
void AccAckWrite(void)
{
     59e:	15 9a       	sbi	0x02, 5	; 2
SDI_SET_OUTPUT;
	NOP;
     5a0:	00 00       	nop
	NOP;
     5a2:	00 00       	nop
	P_ACC_SDI(0);
     5a4:	1d 98       	cbi	0x03, 5	; 3
	NOP;
     5a6:	00 00       	nop
	NOP;
     5a8:	00 00       	nop
	P_ACC_SCK(1);
     5aa:	1c 9a       	sbi	0x03, 4	; 3
	NOP;
     5ac:	00 00       	nop
	NOP;
     5ae:	00 00       	nop
	P_ACC_SCK(0);
     5b0:	1c 98       	cbi	0x03, 4	; 3
	NOP;
     5b2:	00 00       	nop
	NOP;
     5b4:	00 00       	nop
	P_ACC_SDI(1);
     5b6:	1d 9a       	sbi	0x03, 5	; 3
	NOP;
     5b8:	00 00       	nop
	NOP;
     5ba:	00 00       	nop
}
     5bc:	08 95       	ret

000005be <AccNotAckWrite>:

//==============================================================//
//
//==============================================================//
void AccNotAckWrite(void)
{
     5be:	15 9a       	sbi	0x02, 5	; 2
SDI_SET_OUTPUT;
	NOP;
     5c0:	00 00       	nop
	NOP;
     5c2:	00 00       	nop
	P_ACC_SDI(1);
     5c4:	1d 9a       	sbi	0x03, 5	; 3
	NOP;
     5c6:	00 00       	nop
	NOP;
     5c8:	00 00       	nop
	P_ACC_SCK(1);
     5ca:	1c 9a       	sbi	0x03, 4	; 3
	NOP;
     5cc:	00 00       	nop
	NOP;
     5ce:	00 00       	nop
	P_ACC_SCK(0);
     5d0:	1c 98       	cbi	0x03, 4	; 3
	NOP;
     5d2:	00 00       	nop
	NOP;
     5d4:	00 00       	nop
}
     5d6:	08 95       	ret

000005d8 <Acc_init>:


//==============================================================//
//==============================================================//
void Acc_init(void)
{
     5d8:	0e 94 7a 02 	call	0x4f4	; 0x4f4 <AccStart>
	AccStart();
	AccByteWrite(0x70);
     5dc:	80 e7       	ldi	r24, 0x70	; 112
     5de:	0e 94 93 02 	call	0x526	; 0x526 <AccByteWrite>
	AccAckRead();
     5e2:	0e 94 bf 02 	call	0x57e	; 0x57e <AccAckRead>
	AccByteWrite(0x14);
     5e6:	84 e1       	ldi	r24, 0x14	; 20
     5e8:	0e 94 93 02 	call	0x526	; 0x526 <AccByteWrite>
	AccAckRead();
     5ec:	0e 94 bf 02 	call	0x57e	; 0x57e <AccAckRead>
	AccByteWrite(0x03);
     5f0:	83 e0       	ldi	r24, 0x03	; 3
     5f2:	0e 94 93 02 	call	0x526	; 0x526 <AccByteWrite>
	AccAckRead();
     5f6:	0e 94 bf 02 	call	0x57e	; 0x57e <AccAckRead>
	AccStop();
     5fa:	0e 94 87 02 	call	0x50e	; 0x50e <AccStop>
}
     5fe:	08 95       	ret

00000600 <AccGetData>:

//==============================================================//
//==============================================================//
void AccGetData(void)
{
     600:	0f 93       	push	r16
     602:	1f 93       	push	r17
	signed char	bTmp = 0;

	AccStart();
     604:	0e 94 7a 02 	call	0x4f4	; 0x4f4 <AccStart>
	AccByteWrite(0x70);
     608:	80 e7       	ldi	r24, 0x70	; 112
     60a:	0e 94 93 02 	call	0x526	; 0x526 <AccByteWrite>
	AccAckRead();
     60e:	0e 94 bf 02 	call	0x57e	; 0x57e <AccAckRead>
	AccByteWrite(0x02);
     612:	82 e0       	ldi	r24, 0x02	; 2
     614:	0e 94 93 02 	call	0x526	; 0x526 <AccByteWrite>
	AccAckRead();
     618:	0e 94 bf 02 	call	0x57e	; 0x57e <AccAckRead>
	AccStop();
     61c:	0e 94 87 02 	call	0x50e	; 0x50e <AccStop>
	...
	NOP;
	NOP;
	NOP;
	NOP;

	AccStart();
     628:	0e 94 7a 02 	call	0x4f4	; 0x4f4 <AccStart>
	AccByteWrite(0x71);
     62c:	81 e7       	ldi	r24, 0x71	; 113
     62e:	0e 94 93 02 	call	0x526	; 0x526 <AccByteWrite>
	AccAckRead();
     632:	0e 94 bf 02 	call	0x57e	; 0x57e <AccAckRead>

	bTmp = AccByteRead();
     636:	0e 94 aa 02 	call	0x554	; 0x554 <AccByteRead>
	AccAckWrite();
     63a:	0e 94 cf 02 	call	0x59e	; 0x59e <AccAckWrite>

	bTmp = AccByteRead();
     63e:	0e 94 aa 02 	call	0x554	; 0x554 <AccByteRead>
     642:	08 2f       	mov	r16, r24
	AccAckWrite();
     644:	0e 94 cf 02 	call	0x59e	; 0x59e <AccAckWrite>
	gAccX = bTmp;
     648:	11 27       	eor	r17, r17
     64a:	07 fd       	sbrc	r16, 7
     64c:	10 95       	com	r17
     64e:	10 93 77 05 	sts	0x0577, r17
     652:	00 93 76 05 	sts	0x0576, r16

	bTmp = AccByteRead();
     656:	0e 94 aa 02 	call	0x554	; 0x554 <AccByteRead>
	AccAckWrite();
     65a:	0e 94 cf 02 	call	0x59e	; 0x59e <AccAckWrite>

	bTmp = AccByteRead();
     65e:	0e 94 aa 02 	call	0x554	; 0x554 <AccByteRead>
     662:	08 2f       	mov	r16, r24
	AccAckWrite();
     664:	0e 94 cf 02 	call	0x59e	; 0x59e <AccAckWrite>
	gAccY = bTmp;
     668:	11 27       	eor	r17, r17
     66a:	07 fd       	sbrc	r16, 7
     66c:	10 95       	com	r17
     66e:	10 93 79 05 	sts	0x0579, r17
     672:	00 93 78 05 	sts	0x0578, r16

	bTmp = AccByteRead();
     676:	0e 94 aa 02 	call	0x554	; 0x554 <AccByteRead>
	AccAckWrite();
     67a:	0e 94 cf 02 	call	0x59e	; 0x59e <AccAckWrite>

	bTmp = AccByteRead();
     67e:	0e 94 aa 02 	call	0x554	; 0x554 <AccByteRead>
     682:	08 2f       	mov	r16, r24
	AccNotAckWrite();
     684:	0e 94 df 02 	call	0x5be	; 0x5be <AccNotAckWrite>
	gAccZ = bTmp;
     688:	11 27       	eor	r17, r17
     68a:	07 fd       	sbrc	r16, 7
     68c:	10 95       	com	r17
     68e:	10 93 7b 05 	sts	0x057B, r17
     692:	00 93 7a 05 	sts	0x057A, r16

	AccStop();
     696:	0e 94 87 02 	call	0x50e	; 0x50e <AccStop>
}
     69a:	1f 91       	pop	r17
     69c:	0f 91       	pop	r16
     69e:	08 95       	ret

000006a0 <lights>:
int 	sDcnt;

void ADC_set(BYTE);

void  lights(int n) // power bar meter!
{
     6a0:	9c 01       	movw	r18, r24
		RUN_LED1_OFF;
     6a2:	dd 9a       	sbi	0x1b, 5	; 27
		RUN_LED2_OFF;
     6a4:	de 9a       	sbi	0x1b, 6	; 27
		ERR_LED_OFF;
     6a6:	df 9a       	sbi	0x1b, 7	; 27
		PWR_LED1_OFF;
     6a8:	80 91 65 00 	lds	r24, 0x0065
     6ac:	84 60       	ori	r24, 0x04	; 4
     6ae:	80 93 65 00 	sts	0x0065, r24
		PWR_LED2_OFF;	
     6b2:	af 9a       	sbi	0x15, 7	; 21

		if (n > 1)    ERR_LED_ON;
     6b4:	22 30       	cpi	r18, 0x02	; 2
     6b6:	31 05       	cpc	r19, r1
     6b8:	ac f0       	brlt	.+42     	; 0x6e4 <lights+0x44>
     6ba:	df 98       	cbi	0x1b, 7	; 27
		if (n > 8)    RUN_LED1_ON;		
     6bc:	29 30       	cpi	r18, 0x09	; 9
     6be:	31 05       	cpc	r19, r1
     6c0:	8c f0       	brlt	.+34     	; 0x6e4 <lights+0x44>
     6c2:	dd 98       	cbi	0x1b, 5	; 27
		if (n > 16)   RUN_LED2_ON;		
     6c4:	21 31       	cpi	r18, 0x11	; 17
     6c6:	31 05       	cpc	r19, r1
     6c8:	6c f0       	brlt	.+26     	; 0x6e4 <lights+0x44>
     6ca:	de 98       	cbi	0x1b, 6	; 27
		if (n > 32)   PWR_LED1_ON;		
     6cc:	21 32       	cpi	r18, 0x21	; 33
     6ce:	31 05       	cpc	r19, r1
     6d0:	4c f0       	brlt	.+18     	; 0x6e4 <lights+0x44>
     6d2:	80 91 65 00 	lds	r24, 0x0065
     6d6:	8b 7f       	andi	r24, 0xFB	; 251
     6d8:	80 93 65 00 	sts	0x0065, r24
		if (n > 64)   PWR_LED2_ON;		
     6dc:	21 34       	cpi	r18, 0x41	; 65
     6de:	31 05       	cpc	r19, r1
     6e0:	0c f0       	brlt	.+2      	; 0x6e4 <lights+0x44>
     6e2:	af 98       	cbi	0x15, 7	; 21
     6e4:	08 95       	ret

000006e6 <sample_sound>:
}

void sample_sound(int status)
{
     6e6:	89 2b       	or	r24, r25
     6e8:	79 f0       	breq	.+30     	; 0x708 <sample_sound+0x22>
	if (status)
	{
		// 	set timer interupt on
		sDcnt=0;
     6ea:	10 92 96 05 	sts	0x0596, r1
     6ee:	10 92 95 05 	sts	0x0595, r1

		TIMSK |= 0x01;
     6f2:	87 b7       	in	r24, 0x37	; 55
     6f4:	81 60       	ori	r24, 0x01	; 1
     6f6:	87 bf       	out	0x37, r24	; 55
		EIMSK |= 0x40;
     6f8:	89 b7       	in	r24, 0x39	; 57
     6fa:	80 64       	ori	r24, 0x40	; 64
     6fc:	89 bf       	out	0x39, r24	; 57
		RUN_LED1_ON;		
     6fe:	dd 98       	cbi	0x1b, 5	; 27
		MIC_SAMPLING=1;
     700:	81 e0       	ldi	r24, 0x01	; 1
     702:	80 93 61 05 	sts	0x0561, r24
     706:	08 95       	ret
	}
	else
	{
		// 	set timer interupt off	
		TIMSK &= 0xFE;
     708:	87 b7       	in	r24, 0x37	; 55
     70a:	8e 7f       	andi	r24, 0xFE	; 254
     70c:	87 bf       	out	0x37, r24	; 55
		EIMSK &= 0xBF;
     70e:	89 b7       	in	r24, 0x39	; 57
     710:	8f 7b       	andi	r24, 0xBF	; 191
     712:	89 bf       	out	0x39, r24	; 57
		lights(0);
     714:	80 e0       	ldi	r24, 0x00	; 0
     716:	90 e0       	ldi	r25, 0x00	; 0
     718:	0e 94 50 03 	call	0x6a0	; 0x6a0 <lights>
		MIC_SAMPLING=0;
     71c:	10 92 61 05 	sts	0x0561, r1
     720:	08 95       	ret

00000722 <__vector_21>:

/********************************************************************************/


ISR(ADC_vect)
{
     722:	1f 92       	push	r1
     724:	0f 92       	push	r0
     726:	0f b6       	in	r0, 0x3f	; 63
     728:	0f 92       	push	r0
     72a:	0b b6       	in	r0, 0x3b	; 59
     72c:	0f 92       	push	r0
     72e:	11 24       	eor	r1, r1
     730:	2f 93       	push	r18
     732:	3f 93       	push	r19
     734:	4f 93       	push	r20
     736:	5f 93       	push	r21
     738:	6f 93       	push	r22
     73a:	7f 93       	push	r23
     73c:	8f 93       	push	r24
     73e:	9f 93       	push	r25
     740:	af 93       	push	r26
     742:	bf 93       	push	r27
     744:	ef 93       	push	r30
     746:	ff 93       	push	r31
	WORD i;
	gAD_val=(signed char)ADCH;
     748:	95 b1       	in	r25, 0x05	; 5
     74a:	90 93 91 05 	sts	0x0591, r25
	switch(gAD_Ch_Index){
     74e:	80 91 92 05 	lds	r24, 0x0592
     752:	81 30       	cpi	r24, 0x01	; 1
     754:	41 f0       	breq	.+16     	; 0x766 <__vector_21+0x44>
     756:	81 30       	cpi	r24, 0x01	; 1
     758:	18 f0       	brcs	.+6      	; 0x760 <__vector_21+0x3e>
     75a:	8f 30       	cpi	r24, 0x0F	; 15
     75c:	91 f5       	brne	.+100    	; 0x7c2 <__vector_21+0xa0>
     75e:	0c c0       	rjmp	.+24     	; 0x778 <__vector_21+0x56>
		case PSD_CH:
    	    gPSD_val = (BYTE)gAD_val;
     760:	90 93 90 05 	sts	0x0590, r25
     764:	2e c0       	rjmp	.+92     	; 0x7c2 <__vector_21+0xa0>
			break; 
		case VOLTAGE_CH:
			i = (BYTE)gAD_val;
			gVOLTAGE = i*57;
     766:	89 e3       	ldi	r24, 0x39	; 57
     768:	98 9f       	mul	r25, r24
     76a:	c0 01       	movw	r24, r0
     76c:	11 24       	eor	r1, r1
     76e:	90 93 7f 05 	sts	0x057F, r25
     772:	80 93 7e 05 	sts	0x057E, r24
     776:	25 c0       	rjmp	.+74     	; 0x7c2 <__vector_21+0xa0>
			break; 
		case MIC_CH:
			if((BYTE)gAD_val < 230)
     778:	96 3e       	cpi	r25, 0xE6	; 230
     77a:	18 f4       	brcc	.+6      	; 0x782 <__vector_21+0x60>
				gMIC_val = (BYTE)gAD_val;
     77c:	90 93 93 05 	sts	0x0593, r25
     780:	02 c0       	rjmp	.+4      	; 0x786 <__vector_21+0x64>
			else
				gMIC_val = 0;
     782:	10 92 93 05 	sts	0x0593, r1
				
			lights(gMIC_val);
     786:	80 91 93 05 	lds	r24, 0x0593
     78a:	90 e0       	ldi	r25, 0x00	; 0
     78c:	0e 94 50 03 	call	0x6a0	; 0x6a0 <lights>
			sData[sDcnt] = (sData[sDcnt] + gMIC_val)/2;
     790:	80 91 95 05 	lds	r24, 0x0595
     794:	90 91 96 05 	lds	r25, 0x0596
     798:	fc 01       	movw	r30, r24
     79a:	e0 58       	subi	r30, 0x80	; 128
     79c:	fa 4f       	sbci	r31, 0xFA	; 250
     79e:	40 81       	ld	r20, Z
     7a0:	20 91 93 05 	lds	r18, 0x0593
     7a4:	30 e0       	ldi	r19, 0x00	; 0
     7a6:	24 0f       	add	r18, r20
     7a8:	31 1d       	adc	r19, r1
     7aa:	35 95       	asr	r19
     7ac:	27 95       	ror	r18
     7ae:	20 83       	st	Z, r18
			sDcnt = (sDcnt + 1) % SDATASZ;  // store sample
     7b0:	01 96       	adiw	r24, 0x01	; 1
     7b2:	60 e1       	ldi	r22, 0x10	; 16
     7b4:	70 e0       	ldi	r23, 0x00	; 0
     7b6:	0e 94 66 26 	call	0x4ccc	; 0x4ccc <__divmodhi4>
     7ba:	90 93 96 05 	sts	0x0596, r25
     7be:	80 93 95 05 	sts	0x0595, r24
			break; 
	}  
	//F_AD_CONVERTING = 0;    
}
     7c2:	ff 91       	pop	r31
     7c4:	ef 91       	pop	r30
     7c6:	bf 91       	pop	r27
     7c8:	af 91       	pop	r26
     7ca:	9f 91       	pop	r25
     7cc:	8f 91       	pop	r24
     7ce:	7f 91       	pop	r23
     7d0:	6f 91       	pop	r22
     7d2:	5f 91       	pop	r21
     7d4:	4f 91       	pop	r20
     7d6:	3f 91       	pop	r19
     7d8:	2f 91       	pop	r18
     7da:	0f 90       	pop	r0
     7dc:	0b be       	out	0x3b, r0	; 59
     7de:	0f 90       	pop	r0
     7e0:	0f be       	out	0x3f, r0	; 63
     7e2:	0f 90       	pop	r0
     7e4:	1f 90       	pop	r1
     7e6:	18 95       	reti

000007e8 <ADC_set>:

void ADC_set(BYTE mode)
{                                    
     7e8:	90 91 92 05 	lds	r25, 0x0592
     7ec:	90 62       	ori	r25, 0x20	; 32
     7ee:	97 b9       	out	0x07, r25	; 7
	ADMUX=0x20 | gAD_Ch_Index;
	ADCSRA=mode;     
     7f0:	86 b9       	out	0x06, r24	; 6
}	
     7f2:	08 95       	ret

000007f4 <PSD_on>:

void PSD_on(void)
{
     7f4:	c5 9a       	sbi	0x18, 5	; 24
     7f6:	84 ef       	ldi	r24, 0xF4	; 244
     7f8:	91 e0       	ldi	r25, 0x01	; 1
    milliseconds can be achieved.
 */
void
_delay_loop_2(uint16_t __count)
{
	__asm__ volatile (
     7fa:	20 e7       	ldi	r18, 0x70	; 112
     7fc:	31 e0       	ldi	r19, 0x01	; 1
     7fe:	f9 01       	movw	r30, r18
     800:	31 97       	sbiw	r30, 0x01	; 1
     802:	f1 f7       	brne	.-4      	; 0x800 <PSD_on+0xc>
		__ticks = (uint16_t) (__ms * 10.0);
		while(__ticks)
		{
			// wait 1/10 ms
			_delay_loop_2(((F_CPU) / 4e3) / 10);
			__ticks --;
     804:	01 97       	sbiw	r24, 0x01	; 1
		__ticks = 1;
	else if (__tmp > 65535)
	{
		//	__ticks = requested delay in 1/10 ms
		__ticks = (uint16_t) (__ms * 10.0);
		while(__ticks)
     806:	d9 f7       	brne	.-10     	; 0x7fe <PSD_on+0xa>
	PSD_ON;
   	_delay_ms(50);
}
     808:	08 95       	ret

0000080a <PSD_off>:

void PSD_off(void)
{
     80a:	c5 98       	cbi	0x18, 5	; 24
	PSD_OFF;
}
     80c:	08 95       	ret

0000080e <Get_AD_PSD>:

void Get_AD_PSD(void)
{
     80e:	ef 92       	push	r14
     810:	ff 92       	push	r15
     812:	0f 93       	push	r16
     814:	1f 93       	push	r17
	float	tmp = 0;
	float	dist;
	
	if (CHK_BIT5(PORTB)==0) PSD_on();
     816:	c5 99       	sbic	0x18, 5	; 24
     818:	0a c0       	rjmp	.+20     	; 0x82e <Get_AD_PSD+0x20>
	ADCSRA=mode;     
}	

void PSD_on(void)
{
	PSD_ON;
     81a:	c5 9a       	sbi	0x18, 5	; 24
     81c:	84 ef       	ldi	r24, 0xF4	; 244
     81e:	91 e0       	ldi	r25, 0x01	; 1
     820:	20 e7       	ldi	r18, 0x70	; 112
     822:	31 e0       	ldi	r19, 0x01	; 1
     824:	f9 01       	movw	r30, r18
     826:	31 97       	sbiw	r30, 0x01	; 1
     828:	f1 f7       	brne	.-4      	; 0x826 <Get_AD_PSD+0x18>
		{
			// wait 1/10 ms
			_delay_loop_2(((F_CPU) / 4e3) / 10);
			__ticks --;
     82a:	01 97       	sbiw	r24, 0x01	; 1
		__ticks = 1;
	else if (__tmp > 65535)
	{
		//	__ticks = requested delay in 1/10 ms
		__ticks = (uint16_t) (__ms * 10.0);
		while(__ticks)
     82c:	d9 f7       	brne	.-10     	; 0x824 <Get_AD_PSD+0x16>
	float	tmp = 0;
	float	dist;
	
	if (CHK_BIT5(PORTB)==0) PSD_on();
	
	EIMSK &= 0xBF;   // disable interupts
     82e:	89 b7       	in	r24, 0x39	; 57
     830:	8f 7b       	andi	r24, 0xBF	; 191
     832:	89 bf       	out	0x39, r24	; 57

	gAD_Ch_Index = PSD_CH;
     834:	10 92 92 05 	sts	0x0592, r1
	//F_AD_CONVERTING = 0;    
}

void ADC_set(BYTE mode)
{                                    
	ADMUX=0x20 | gAD_Ch_Index;
     838:	80 e2       	ldi	r24, 0x20	; 32
     83a:	87 b9       	out	0x07, r24	; 7
	ADCSRA=mode;     
     83c:	8c ed       	ldi	r24, 0xDC	; 220
     83e:	86 b9       	out	0x06, r24	; 6
	gAD_Ch_Index = PSD_CH;
   	//F_AD_CONVERTING = 1;
   	ADC_set(ADC_MODE_SINGLE);
	
   	//while(F_AD_CONVERTING);    
    while (bit_is_set(ADCSRA, ADSC));
     840:	36 99       	sbic	0x06, 6	; 6
     842:	fe cf       	rjmp	.-4      	; 0x840 <Get_AD_PSD+0x32>
        
   	tmp = tmp + gPSD_val;
     844:	60 91 90 05 	lds	r22, 0x0590
	
	//EIMSK |= 0x40;   // re-enable interupts

	dist = 1117.2 / (tmp - 6.89);
     848:	70 e0       	ldi	r23, 0x00	; 0
     84a:	88 27       	eor	r24, r24
     84c:	77 fd       	sbrc	r23, 7
     84e:	80 95       	com	r24
     850:	98 2f       	mov	r25, r24
     852:	0e 94 aa 23 	call	0x4754	; 0x4754 <__floatsisf>
     856:	20 e0       	ldi	r18, 0x00	; 0
     858:	30 e0       	ldi	r19, 0x00	; 0
     85a:	40 e0       	ldi	r20, 0x00	; 0
     85c:	50 e0       	ldi	r21, 0x00	; 0
     85e:	0e 94 43 22 	call	0x4486	; 0x4486 <__addsf3>
     862:	21 ee       	ldi	r18, 0xE1	; 225
     864:	3a e7       	ldi	r19, 0x7A	; 122
     866:	4c ed       	ldi	r20, 0xDC	; 220
     868:	50 e4       	ldi	r21, 0x40	; 64
     86a:	0e 94 12 22 	call	0x4424	; 0x4424 <__subsf3>
     86e:	9b 01       	movw	r18, r22
     870:	ac 01       	movw	r20, r24
     872:	66 e6       	ldi	r22, 0x66	; 102
     874:	76 ea       	ldi	r23, 0xA6	; 166
     876:	8b e8       	ldi	r24, 0x8B	; 139
     878:	94 e4       	ldi	r25, 0x44	; 68
     87a:	0e 94 70 22 	call	0x44e0	; 0x44e0 <__divsf3>
     87e:	7b 01       	movw	r14, r22
     880:	8c 01       	movw	r16, r24
	if(dist < 0) dist = 50;
     882:	20 e0       	ldi	r18, 0x00	; 0
     884:	30 e0       	ldi	r19, 0x00	; 0
     886:	40 e0       	ldi	r20, 0x00	; 0
     888:	50 e0       	ldi	r21, 0x00	; 0
     88a:	0e 94 7a 23 	call	0x46f4	; 0x46f4 <__ltsf2>
     88e:	88 23       	and	r24, r24
     890:	fc f0       	brlt	.+62     	; 0x8d0 <Get_AD_PSD+0xc2>
	else if(dist < 10) dist = 10;
     892:	20 e0       	ldi	r18, 0x00	; 0
     894:	30 e0       	ldi	r19, 0x00	; 0
     896:	40 e2       	ldi	r20, 0x20	; 32
     898:	51 e4       	ldi	r21, 0x41	; 65
     89a:	c8 01       	movw	r24, r16
     89c:	b7 01       	movw	r22, r14
     89e:	0e 94 7a 23 	call	0x46f4	; 0x46f4 <__ltsf2>
     8a2:	88 23       	and	r24, r24
     8a4:	5c f4       	brge	.+22     	; 0x8bc <Get_AD_PSD+0xae>
     8a6:	0f 2e       	mov	r0, r31
     8a8:	f0 e0       	ldi	r31, 0x00	; 0
     8aa:	ef 2e       	mov	r14, r31
     8ac:	f0 e0       	ldi	r31, 0x00	; 0
     8ae:	ff 2e       	mov	r15, r31
     8b0:	f0 e2       	ldi	r31, 0x20	; 32
     8b2:	0f 2f       	mov	r16, r31
     8b4:	f1 e4       	ldi	r31, 0x41	; 65
     8b6:	1f 2f       	mov	r17, r31
     8b8:	f0 2d       	mov	r31, r0
     8ba:	14 c0       	rjmp	.+40     	; 0x8e4 <Get_AD_PSD+0xd6>
	else if(dist > 50) dist = 50;
     8bc:	20 e0       	ldi	r18, 0x00	; 0
     8be:	30 e0       	ldi	r19, 0x00	; 0
     8c0:	48 e4       	ldi	r20, 0x48	; 72
     8c2:	52 e4       	ldi	r21, 0x42	; 66
     8c4:	c8 01       	movw	r24, r16
     8c6:	b7 01       	movw	r22, r14
     8c8:	0e 94 1a 23 	call	0x4634	; 0x4634 <__gtsf2>
     8cc:	18 16       	cp	r1, r24
     8ce:	54 f4       	brge	.+20     	; 0x8e4 <Get_AD_PSD+0xd6>
     8d0:	0f 2e       	mov	r0, r31
     8d2:	f0 e0       	ldi	r31, 0x00	; 0
     8d4:	ef 2e       	mov	r14, r31
     8d6:	f0 e0       	ldi	r31, 0x00	; 0
     8d8:	ff 2e       	mov	r15, r31
     8da:	f8 e4       	ldi	r31, 0x48	; 72
     8dc:	0f 2f       	mov	r16, r31
     8de:	f2 e4       	ldi	r31, 0x42	; 66
     8e0:	1f 2f       	mov	r17, r31
     8e2:	f0 2d       	mov	r31, r0
	gDistance = (BYTE)dist;
     8e4:	c8 01       	movw	r24, r16
     8e6:	b7 01       	movw	r22, r14
     8e8:	0e 94 9a 20 	call	0x4134	; 0x4134 <__fixunssfsi>
     8ec:	60 93 97 05 	sts	0x0597, r22
}
     8f0:	1f 91       	pop	r17
     8f2:	0f 91       	pop	r16
     8f4:	ff 90       	pop	r15
     8f6:	ef 90       	pop	r14
     8f8:	08 95       	ret

000008fa <Get_AD_MIC>:

//------------------------------------------------------------------------------
// MIC  A/D
//------------------------------------------------------------------------------
void Get_AD_MIC(void)
{
     8fa:	cf 92       	push	r12
     8fc:	df 92       	push	r13
     8fe:	ef 92       	push	r14
     900:	ff 92       	push	r15
     902:	0f 93       	push	r16
     904:	1f 93       	push	r17
     906:	cf 93       	push	r28
     908:	df 93       	push	r29
	WORD	i;
	float	tmp = 0;
	
	gAD_Ch_Index = MIC_CH;
     90a:	8f e0       	ldi	r24, 0x0F	; 15
     90c:	80 93 92 05 	sts	0x0592, r24
     910:	c0 e0       	ldi	r28, 0x00	; 0
     912:	d0 e0       	ldi	r29, 0x00	; 0
     914:	0f 2e       	mov	r0, r31
     916:	f0 e0       	ldi	r31, 0x00	; 0
     918:	ef 2e       	mov	r14, r31
     91a:	f0 e0       	ldi	r31, 0x00	; 0
     91c:	ff 2e       	mov	r15, r31
     91e:	f0 e0       	ldi	r31, 0x00	; 0
     920:	0f 2f       	mov	r16, r31
     922:	f0 e0       	ldi	r31, 0x00	; 0
     924:	1f 2f       	mov	r17, r31
     926:	f0 2d       	mov	r31, r0
	//F_AD_CONVERTING = 0;    
}

void ADC_set(BYTE mode)
{                                    
	ADMUX=0x20 | gAD_Ch_Index;
     928:	6f e2       	ldi	r22, 0x2F	; 47
     92a:	c6 2e       	mov	r12, r22
	ADCSRA=mode;     
     92c:	5c ed       	ldi	r21, 0xDC	; 220
     92e:	d5 2e       	mov	r13, r21
	//F_AD_CONVERTING = 0;    
}

void ADC_set(BYTE mode)
{                                    
	ADMUX=0x20 | gAD_Ch_Index;
     930:	c7 b8       	out	0x07, r12	; 7
	ADCSRA=mode;     
     932:	d6 b8       	out	0x06, r13	; 6
	gAD_Ch_Index = MIC_CH;
	for(i = 0; i < 50; i++){
	
    	//F_AD_CONVERTING = 1;
	   	ADC_set(ADC_MODE_SINGLE);
    	while(bit_is_set(ADCSRA, ADSC));            
     934:	36 99       	sbic	0x06, 6	; 6
     936:	fe cf       	rjmp	.-4      	; 0x934 <Get_AD_MIC+0x3a>
    	tmp = tmp + gMIC_val;
     938:	60 91 93 05 	lds	r22, 0x0593
     93c:	70 e0       	ldi	r23, 0x00	; 0
     93e:	88 27       	eor	r24, r24
     940:	77 fd       	sbrc	r23, 7
     942:	80 95       	com	r24
     944:	98 2f       	mov	r25, r24
     946:	0e 94 aa 23 	call	0x4754	; 0x4754 <__floatsisf>
     94a:	9b 01       	movw	r18, r22
     94c:	ac 01       	movw	r20, r24
     94e:	c8 01       	movw	r24, r16
     950:	b7 01       	movw	r22, r14
     952:	0e 94 43 22 	call	0x4486	; 0x4486 <__addsf3>
     956:	7b 01       	movw	r14, r22
     958:	8c 01       	movw	r16, r24
{
	WORD	i;
	float	tmp = 0;
	
	gAD_Ch_Index = MIC_CH;
	for(i = 0; i < 50; i++){
     95a:	21 96       	adiw	r28, 0x01	; 1
     95c:	c2 33       	cpi	r28, 0x32	; 50
     95e:	d1 05       	cpc	r29, r1
     960:	39 f7       	brne	.-50     	; 0x930 <Get_AD_MIC+0x36>
	   	ADC_set(ADC_MODE_SINGLE);
    	while(bit_is_set(ADCSRA, ADSC));            
    	tmp = tmp + gMIC_val;
    }
    tmp = tmp / 10;
	gSoundLevel = (BYTE)tmp;
     962:	20 e0       	ldi	r18, 0x00	; 0
     964:	30 e0       	ldi	r19, 0x00	; 0
     966:	40 e2       	ldi	r20, 0x20	; 32
     968:	51 e4       	ldi	r21, 0x41	; 65
     96a:	0e 94 70 22 	call	0x44e0	; 0x44e0 <__divsf3>
     96e:	0e 94 9a 20 	call	0x4134	; 0x4134 <__fixunssfsi>
     972:	60 93 94 05 	sts	0x0594, r22
}
     976:	df 91       	pop	r29
     978:	cf 91       	pop	r28
     97a:	1f 91       	pop	r17
     97c:	0f 91       	pop	r16
     97e:	ff 90       	pop	r15
     980:	ef 90       	pop	r14
     982:	df 90       	pop	r13
     984:	cf 90       	pop	r12
     986:	08 95       	ret

00000988 <Get_VOLTAGE>:

//------------------------------------------------------------------------------
//   A/D
//------------------------------------------------------------------------------
void Get_VOLTAGE(void)
{
     988:	81 e0       	ldi	r24, 0x01	; 1
     98a:	80 93 92 05 	sts	0x0592, r24
	gAD_Ch_Index = VOLTAGE_CH;
	F_AD_CONVERTING = 1;
     98e:	80 93 60 05 	sts	0x0560, r24
	//F_AD_CONVERTING = 0;    
}

void ADC_set(BYTE mode)
{                                    
	ADMUX=0x20 | gAD_Ch_Index;
     992:	81 e2       	ldi	r24, 0x21	; 33
     994:	87 b9       	out	0x07, r24	; 7
	ADCSRA=mode;     
     996:	8c ed       	ldi	r24, 0xDC	; 220
     998:	86 b9       	out	0x06, r24	; 6
void Get_VOLTAGE(void)
{
	gAD_Ch_Index = VOLTAGE_CH;
	F_AD_CONVERTING = 1;
   	ADC_set(ADC_MODE_SINGLE);
	while (bit_is_set(ADCSRA, ADSC));	    // wait until value ready
     99a:	36 99       	sbic	0x06, 6	; 6
     99c:	fe cf       	rjmp	.-4      	; 0x99a <Get_VOLTAGE+0x12>
	//while(F_AD_CONVERTING);
     99e:	08 95       	ret

000009a0 <heart>:
//------------------------------------------------------------------------------
// Timer
//------------------------------------------------------------------------------

void heart()
{
     9a0:	80 91 a2 05 	lds	r24, 0x05A2
     9a4:	90 91 a3 05 	lds	r25, 0x05A3
     9a8:	88 3c       	cpi	r24, 0xC8	; 200
     9aa:	91 05       	cpc	r25, r1
     9ac:	10 f4       	brcc	.+4      	; 0x9b2 <heart+0x12>
	// 1000 ms 
	// 0-200 ms PF1 LED ON  200-400 ms PF2 LED on
	// else off
	if (g10MSEC<200)
	{
		PF1_LED1_ON;    
     9ae:	da 98       	cbi	0x1b, 2	; 27
     9b0:	13 c0       	rjmp	.+38     	; 0x9d8 <heart+0x38>
		PF1_LED2_OFF;
		PF2_LED_OFF;
	}
	else if (g10MSEC>200 && g10MSEC<400)
     9b2:	80 91 a2 05 	lds	r24, 0x05A2
     9b6:	90 91 a3 05 	lds	r25, 0x05A3
     9ba:	89 3c       	cpi	r24, 0xC9	; 201
     9bc:	91 05       	cpc	r25, r1
     9be:	58 f0       	brcs	.+22     	; 0x9d6 <heart+0x36>
     9c0:	80 91 a2 05 	lds	r24, 0x05A2
     9c4:	90 91 a3 05 	lds	r25, 0x05A3
     9c8:	80 59       	subi	r24, 0x90	; 144
     9ca:	91 40       	sbci	r25, 0x01	; 1
     9cc:	20 f4       	brcc	.+8      	; 0x9d6 <heart+0x36>
	{
		PF1_LED1_OFF;    
     9ce:	da 9a       	sbi	0x1b, 2	; 27
		PF1_LED2_OFF;
     9d0:	db 9a       	sbi	0x1b, 3	; 27
		PF2_LED_ON;
     9d2:	dc 98       	cbi	0x1b, 4	; 27
     9d4:	08 95       	ret
	}
	else
	{
		PF1_LED1_OFF;    
     9d6:	da 9a       	sbi	0x1b, 2	; 27
		PF1_LED2_OFF;
     9d8:	db 9a       	sbi	0x1b, 3	; 27
		PF2_LED_OFF;
     9da:	dc 9a       	sbi	0x1b, 4	; 27
     9dc:	08 95       	ret

000009de <delay_ms>:
	}
}

void delay_ms(int ms)
{
     9de:	90 93 9f 05 	sts	0x059F, r25
     9e2:	80 93 9e 05 	sts	0x059E, r24
	g10Mtimer=ms;
	while (g10Mtimer>0)
     9e6:	80 91 9e 05 	lds	r24, 0x059E
     9ea:	90 91 9f 05 	lds	r25, 0x059F
     9ee:	89 2b       	or	r24, r25
     9f0:	d1 f7       	brne	.-12     	; 0x9e6 <delay_ms+0x8>
	{
		//g10Mtime is decremented evry 1ms by interupt.
	}
}
     9f2:	08 95       	ret

000009f4 <DetectPower>:

//------------------------------------------------------------------------------
// 
//------------------------------------------------------------------------------
void DetectPower(void)
{
     9f4:	80 91 98 05 	lds	r24, 0x0598
     9f8:	88 23       	and	r24, r24
     9fa:	11 f1       	breq	.+68     	; 0xa40 <DetectPower+0x4c>
	if(F_PS_PLUGGED){
		if(gVOLTAGE >= U_T_OF_POWER)
     9fc:	80 91 7e 05 	lds	r24, 0x057E
     a00:	90 91 7f 05 	lds	r25, 0x057F
     a04:	8c 51       	subi	r24, 0x1C	; 28
     a06:	95 42       	sbci	r25, 0x25	; 37
     a08:	28 f0       	brcs	.+10     	; 0xa14 <DetectPower+0x20>
			gPSunplugCount = 0;
     a0a:	10 92 ac 05 	sts	0x05AC, r1
     a0e:	10 92 ab 05 	sts	0x05AB, r1
     a12:	09 c0       	rjmp	.+18     	; 0xa26 <DetectPower+0x32>
		else
			gPSunplugCount++;
     a14:	80 91 ab 05 	lds	r24, 0x05AB
     a18:	90 91 ac 05 	lds	r25, 0x05AC
     a1c:	01 96       	adiw	r24, 0x01	; 1
     a1e:	90 93 ac 05 	sts	0x05AC, r25
     a22:	80 93 ab 05 	sts	0x05AB, r24
		if(gPSunplugCount > 6){
     a26:	80 91 ab 05 	lds	r24, 0x05AB
     a2a:	90 91 ac 05 	lds	r25, 0x05AC
     a2e:	07 97       	sbiw	r24, 0x07	; 7
     a30:	68 f1       	brcs	.+90     	; 0xa8c <DetectPower+0x98>
			F_PS_PLUGGED = 0;
     a32:	10 92 98 05 	sts	0x0598, r1
			gPSunplugCount = 0;
     a36:	10 92 ac 05 	sts	0x05AC, r1
     a3a:	10 92 ab 05 	sts	0x05AB, r1
     a3e:	08 95       	ret
		}
	}
	else{
		if(gVOLTAGE >= U_T_OF_POWER){
     a40:	80 91 7e 05 	lds	r24, 0x057E
     a44:	90 91 7f 05 	lds	r25, 0x057F
     a48:	8c 51       	subi	r24, 0x1C	; 28
     a4a:	95 42       	sbci	r25, 0x25	; 37
     a4c:	70 f0       	brcs	.+28     	; 0xa6a <DetectPower+0x76>
			gPSunplugCount = 0;
     a4e:	10 92 ac 05 	sts	0x05AC, r1
     a52:	10 92 ab 05 	sts	0x05AB, r1
			gPSplugCount++;
     a56:	80 91 a0 05 	lds	r24, 0x05A0
     a5a:	90 91 a1 05 	lds	r25, 0x05A1
     a5e:	01 96       	adiw	r24, 0x01	; 1
     a60:	90 93 a1 05 	sts	0x05A1, r25
     a64:	80 93 a0 05 	sts	0x05A0, r24
     a68:	04 c0       	rjmp	.+8      	; 0xa72 <DetectPower+0x7e>
		}
		else{
			gPSplugCount = 0;
     a6a:	10 92 a1 05 	sts	0x05A1, r1
     a6e:	10 92 a0 05 	sts	0x05A0, r1
		}

		if(gPSplugCount>2){
     a72:	80 91 a0 05 	lds	r24, 0x05A0
     a76:	90 91 a1 05 	lds	r25, 0x05A1
     a7a:	03 97       	sbiw	r24, 0x03	; 3
     a7c:	38 f0       	brcs	.+14     	; 0xa8c <DetectPower+0x98>
			F_PS_PLUGGED = 1;
     a7e:	81 e0       	ldi	r24, 0x01	; 1
     a80:	80 93 98 05 	sts	0x0598, r24
			gPSplugCount = 0;
     a84:	10 92 a1 05 	sts	0x05A1, r1
     a88:	10 92 a0 05 	sts	0x05A0, r1
     a8c:	08 95       	ret

00000a8e <SelfTest1>:
		}
	}
}

void SelfTest1(void)
{
     a8e:	80 91 65 00 	lds	r24, 0x0065
     a92:	8b 7f       	andi	r24, 0xFB	; 251
     a94:	80 93 65 00 	sts	0x0065, r24
	}
}

void delay_ms(int ms)
{
	g10Mtimer=ms;
     a98:	8c e3       	ldi	r24, 0x3C	; 60
     a9a:	90 e0       	ldi	r25, 0x00	; 0
     a9c:	90 93 9f 05 	sts	0x059F, r25
     aa0:	80 93 9e 05 	sts	0x059E, r24
	while (g10Mtimer>0)
     aa4:	80 91 9e 05 	lds	r24, 0x059E
     aa8:	90 91 9f 05 	lds	r25, 0x059F
     aac:	89 2b       	or	r24, r25
     aae:	d1 f7       	brne	.-12     	; 0xaa4 <SelfTest1+0x16>
	}
}

void SelfTest1(void)
{
	PWR_LED1_ON;	delay_ms(60);	PWR_LED1_OFF;
     ab0:	80 91 65 00 	lds	r24, 0x0065
     ab4:	84 60       	ori	r24, 0x04	; 4
     ab6:	80 93 65 00 	sts	0x0065, r24
	PWR_LED2_ON;	delay_ms(60);	PWR_LED2_OFF;
     aba:	af 98       	cbi	0x15, 7	; 21
	}
}

void delay_ms(int ms)
{
	g10Mtimer=ms;
     abc:	8c e3       	ldi	r24, 0x3C	; 60
     abe:	90 e0       	ldi	r25, 0x00	; 0
     ac0:	90 93 9f 05 	sts	0x059F, r25
     ac4:	80 93 9e 05 	sts	0x059E, r24
	while (g10Mtimer>0)
     ac8:	80 91 9e 05 	lds	r24, 0x059E
     acc:	90 91 9f 05 	lds	r25, 0x059F
     ad0:	89 2b       	or	r24, r25
     ad2:	d1 f7       	brne	.-12     	; 0xac8 <SelfTest1+0x3a>
}

void SelfTest1(void)
{
	PWR_LED1_ON;	delay_ms(60);	PWR_LED1_OFF;
	PWR_LED2_ON;	delay_ms(60);	PWR_LED2_OFF;
     ad4:	af 9a       	sbi	0x15, 7	; 21
	RUN_LED1_ON;	delay_ms(60);	RUN_LED1_OFF;
     ad6:	dd 98       	cbi	0x1b, 5	; 27
	}
}

void delay_ms(int ms)
{
	g10Mtimer=ms;
     ad8:	8c e3       	ldi	r24, 0x3C	; 60
     ada:	90 e0       	ldi	r25, 0x00	; 0
     adc:	90 93 9f 05 	sts	0x059F, r25
     ae0:	80 93 9e 05 	sts	0x059E, r24
	while (g10Mtimer>0)
     ae4:	80 91 9e 05 	lds	r24, 0x059E
     ae8:	90 91 9f 05 	lds	r25, 0x059F
     aec:	89 2b       	or	r24, r25
     aee:	d1 f7       	brne	.-12     	; 0xae4 <SelfTest1+0x56>

void SelfTest1(void)
{
	PWR_LED1_ON;	delay_ms(60);	PWR_LED1_OFF;
	PWR_LED2_ON;	delay_ms(60);	PWR_LED2_OFF;
	RUN_LED1_ON;	delay_ms(60);	RUN_LED1_OFF;
     af0:	dd 9a       	sbi	0x1b, 5	; 27
	RUN_LED2_ON;	delay_ms(60);	RUN_LED2_OFF;
     af2:	de 98       	cbi	0x1b, 6	; 27
	}
}

void delay_ms(int ms)
{
	g10Mtimer=ms;
     af4:	8c e3       	ldi	r24, 0x3C	; 60
     af6:	90 e0       	ldi	r25, 0x00	; 0
     af8:	90 93 9f 05 	sts	0x059F, r25
     afc:	80 93 9e 05 	sts	0x059E, r24
	while (g10Mtimer>0)
     b00:	80 91 9e 05 	lds	r24, 0x059E
     b04:	90 91 9f 05 	lds	r25, 0x059F
     b08:	89 2b       	or	r24, r25
     b0a:	d1 f7       	brne	.-12     	; 0xb00 <SelfTest1+0x72>
void SelfTest1(void)
{
	PWR_LED1_ON;	delay_ms(60);	PWR_LED1_OFF;
	PWR_LED2_ON;	delay_ms(60);	PWR_LED2_OFF;
	RUN_LED1_ON;	delay_ms(60);	RUN_LED1_OFF;
	RUN_LED2_ON;	delay_ms(60);	RUN_LED2_OFF;
     b0c:	de 9a       	sbi	0x1b, 6	; 27
	ERR_LED_ON;		delay_ms(60);	ERR_LED_OFF;
     b0e:	df 98       	cbi	0x1b, 7	; 27
	}
}

void delay_ms(int ms)
{
	g10Mtimer=ms;
     b10:	8c e3       	ldi	r24, 0x3C	; 60
     b12:	90 e0       	ldi	r25, 0x00	; 0
     b14:	90 93 9f 05 	sts	0x059F, r25
     b18:	80 93 9e 05 	sts	0x059E, r24
	while (g10Mtimer>0)
     b1c:	80 91 9e 05 	lds	r24, 0x059E
     b20:	90 91 9f 05 	lds	r25, 0x059F
     b24:	89 2b       	or	r24, r25
     b26:	d1 f7       	brne	.-12     	; 0xb1c <SelfTest1+0x8e>
{
	PWR_LED1_ON;	delay_ms(60);	PWR_LED1_OFF;
	PWR_LED2_ON;	delay_ms(60);	PWR_LED2_OFF;
	RUN_LED1_ON;	delay_ms(60);	RUN_LED1_OFF;
	RUN_LED2_ON;	delay_ms(60);	RUN_LED2_OFF;
	ERR_LED_ON;		delay_ms(60);	ERR_LED_OFF;
     b28:	df 9a       	sbi	0x1b, 7	; 27

	PF2_LED_ON;		delay_ms(60);	PF2_LED_OFF;
     b2a:	dc 98       	cbi	0x1b, 4	; 27
	}
}

void delay_ms(int ms)
{
	g10Mtimer=ms;
     b2c:	8c e3       	ldi	r24, 0x3C	; 60
     b2e:	90 e0       	ldi	r25, 0x00	; 0
     b30:	90 93 9f 05 	sts	0x059F, r25
     b34:	80 93 9e 05 	sts	0x059E, r24
	while (g10Mtimer>0)
     b38:	80 91 9e 05 	lds	r24, 0x059E
     b3c:	90 91 9f 05 	lds	r25, 0x059F
     b40:	89 2b       	or	r24, r25
     b42:	d1 f7       	brne	.-12     	; 0xb38 <SelfTest1+0xaa>
	PWR_LED2_ON;	delay_ms(60);	PWR_LED2_OFF;
	RUN_LED1_ON;	delay_ms(60);	RUN_LED1_OFF;
	RUN_LED2_ON;	delay_ms(60);	RUN_LED2_OFF;
	ERR_LED_ON;		delay_ms(60);	ERR_LED_OFF;

	PF2_LED_ON;		delay_ms(60);	PF2_LED_OFF;
     b44:	dc 9a       	sbi	0x1b, 4	; 27
	PF1_LED2_ON;	delay_ms(60);	PF1_LED2_OFF;
     b46:	db 98       	cbi	0x1b, 3	; 27
	}
}

void delay_ms(int ms)
{
	g10Mtimer=ms;
     b48:	8c e3       	ldi	r24, 0x3C	; 60
     b4a:	90 e0       	ldi	r25, 0x00	; 0
     b4c:	90 93 9f 05 	sts	0x059F, r25
     b50:	80 93 9e 05 	sts	0x059E, r24
	while (g10Mtimer>0)
     b54:	80 91 9e 05 	lds	r24, 0x059E
     b58:	90 91 9f 05 	lds	r25, 0x059F
     b5c:	89 2b       	or	r24, r25
     b5e:	d1 f7       	brne	.-12     	; 0xb54 <SelfTest1+0xc6>
	RUN_LED1_ON;	delay_ms(60);	RUN_LED1_OFF;
	RUN_LED2_ON;	delay_ms(60);	RUN_LED2_OFF;
	ERR_LED_ON;		delay_ms(60);	ERR_LED_OFF;

	PF2_LED_ON;		delay_ms(60);	PF2_LED_OFF;
	PF1_LED2_ON;	delay_ms(60);	PF1_LED2_OFF;
     b60:	db 9a       	sbi	0x1b, 3	; 27
	PF1_LED1_ON;	delay_ms(60);	PF1_LED1_OFF;
     b62:	da 98       	cbi	0x1b, 2	; 27
	}
}

void delay_ms(int ms)
{
	g10Mtimer=ms;
     b64:	8c e3       	ldi	r24, 0x3C	; 60
     b66:	90 e0       	ldi	r25, 0x00	; 0
     b68:	90 93 9f 05 	sts	0x059F, r25
     b6c:	80 93 9e 05 	sts	0x059E, r24
	while (g10Mtimer>0)
     b70:	80 91 9e 05 	lds	r24, 0x059E
     b74:	90 91 9f 05 	lds	r25, 0x059F
     b78:	89 2b       	or	r24, r25
     b7a:	d1 f7       	brne	.-12     	; 0xb70 <SelfTest1+0xe2>
	RUN_LED2_ON;	delay_ms(60);	RUN_LED2_OFF;
	ERR_LED_ON;		delay_ms(60);	ERR_LED_OFF;

	PF2_LED_ON;		delay_ms(60);	PF2_LED_OFF;
	PF1_LED2_ON;	delay_ms(60);	PF1_LED2_OFF;
	PF1_LED1_ON;	delay_ms(60);	PF1_LED1_OFF;
     b7c:	da 9a       	sbi	0x1b, 2	; 27
}
     b7e:	08 95       	ret

00000b80 <ChargeNiMH>:

//-----------------------------------------------------------------------------
// 
//-----------------------------------------------------------------------------
void ChargeNiMH(void)
{
     b80:	ef 92       	push	r14
     b82:	ff 92       	push	r15
     b84:	0f 93       	push	r16
     b86:	1f 93       	push	r17
     b88:	cf 93       	push	r28
     b8a:	df 93       	push	r29
	F_CHARGING = 1;
     b8c:	81 e0       	ldi	r24, 0x01	; 1
     b8e:	80 93 9a 05 	sts	0x059A, r24
	gMIN_DCOUNT = 5;
     b92:	85 e0       	ldi	r24, 0x05	; 5
     b94:	90 e0       	ldi	r25, 0x00	; 0
     b96:	90 93 aa 05 	sts	0x05AA, r25
     b9a:	80 93 a9 05 	sts	0x05A9, r24
	}
}

void delay_ms(int ms)
{
	g10Mtimer=ms;
     b9e:	88 e2       	ldi	r24, 0x28	; 40
     ba0:	e8 2e       	mov	r14, r24
     ba2:	f1 2c       	mov	r15, r1
{
	F_CHARGING = 1;
	gMIN_DCOUNT = 5;
	while(gMIN_DCOUNT)
	{
	    if (gSEC%5==0)
     ba4:	0c ec       	ldi	r16, 0xCC	; 204
     ba6:	11 e0       	ldi	r17, 0x01	; 1
     ba8:	c4 ef       	ldi	r28, 0xF4	; 244
     baa:	d1 e0       	ldi	r29, 0x01	; 1
     bac:	59 c0       	rjmp	.+178    	; 0xc60 <ChargeNiMH+0xe0>
     bae:	80 91 a4 05 	lds	r24, 0x05A4
     bb2:	65 e0       	ldi	r22, 0x05	; 5
     bb4:	0e 94 5a 26 	call	0x4cb4	; 0x4cb4 <__udivmodqi4>
     bb8:	99 23       	and	r25, r25
     bba:	b9 f4       	brne	.+46     	; 0xbea <ChargeNiMH+0x6a>
		{
			printnumber(gMIN, 2,'0');
     bbc:	80 91 99 05 	lds	r24, 0x0599
     bc0:	40 e3       	ldi	r20, 0x30	; 48
     bc2:	62 e0       	ldi	r22, 0x02	; 2
     bc4:	70 e0       	ldi	r23, 0x00	; 0
     bc6:	0e 94 86 0e 	call	0x1d0c	; 0x1d0c <printnumber>
			printstr(":");
     bca:	88 e4       	ldi	r24, 0x48	; 72
     bcc:	91 e0       	ldi	r25, 0x01	; 1
     bce:	0e 94 f6 0e 	call	0x1dec	; 0x1dec <printstr>
			printnumber(gSEC,2,'0');
     bd2:	80 91 a4 05 	lds	r24, 0x05A4
     bd6:	40 e3       	ldi	r20, 0x30	; 48
     bd8:	62 e0       	ldi	r22, 0x02	; 2
     bda:	70 e0       	ldi	r23, 0x00	; 0
     bdc:	90 e0       	ldi	r25, 0x00	; 0
     bde:	0e 94 86 0e 	call	0x1d0c	; 0x1d0c <printnumber>
			printline (" short 40ms charge pulses");
     be2:	8a e4       	ldi	r24, 0x4A	; 74
     be4:	91 e0       	ldi	r25, 0x01	; 1
     be6:	0e 94 19 0f 	call	0x1e32	; 0x1e32 <printline>
		}
		PWR_LED2_OFF;
     bea:	af 9a       	sbi	0x15, 7	; 21
		PWR_LED1_ON;
     bec:	80 91 65 00 	lds	r24, 0x0065
     bf0:	8b 7f       	andi	r24, 0xFB	; 251
     bf2:	80 93 65 00 	sts	0x0065, r24
		Get_VOLTAGE();	DetectPower();
     bf6:	0e 94 c4 04 	call	0x988	; 0x988 <Get_VOLTAGE>
     bfa:	0e 94 fa 04 	call	0x9f4	; 0x9f4 <DetectPower>
		if(F_PS_PLUGGED == 0) break;
     bfe:	80 91 98 05 	lds	r24, 0x0598
     c02:	88 23       	and	r24, r24
     c04:	a1 f1       	breq	.+104    	; 0xc6e <ChargeNiMH+0xee>
		CHARGE_ENABLE;
     c06:	c4 9a       	sbi	0x18, 4	; 24
	}
}

void delay_ms(int ms)
{
	g10Mtimer=ms;
     c08:	f0 92 9f 05 	sts	0x059F, r15
     c0c:	e0 92 9e 05 	sts	0x059E, r14
	while (g10Mtimer>0)
     c10:	80 91 9e 05 	lds	r24, 0x059E
     c14:	90 91 9f 05 	lds	r25, 0x059F
     c18:	89 2b       	or	r24, r25
     c1a:	d1 f7       	brne	.-12     	; 0xc10 <ChargeNiMH+0x90>
		PWR_LED1_ON;
		Get_VOLTAGE();	DetectPower();
		if(F_PS_PLUGGED == 0) break;
		CHARGE_ENABLE;
		delay_ms(40);
		CHARGE_DISABLE;
     c1c:	c4 98       	cbi	0x18, 4	; 24
	}
}

void delay_ms(int ms)
{
	g10Mtimer=ms;
     c1e:	10 93 9f 05 	sts	0x059F, r17
     c22:	00 93 9e 05 	sts	0x059E, r16
	while (g10Mtimer>0)
     c26:	80 91 9e 05 	lds	r24, 0x059E
     c2a:	90 91 9f 05 	lds	r25, 0x059F
     c2e:	89 2b       	or	r24, r25
     c30:	d1 f7       	brne	.-12     	; 0xc26 <ChargeNiMH+0xa6>
		if(F_PS_PLUGGED == 0) break;
		CHARGE_ENABLE;
		delay_ms(40);
		CHARGE_DISABLE;
		delay_ms(500-40);
		PWR_LED1_OFF;
     c32:	80 91 65 00 	lds	r24, 0x0065
     c36:	84 60       	ori	r24, 0x04	; 4
     c38:	80 93 65 00 	sts	0x0065, r24
		Get_VOLTAGE();	DetectPower();
     c3c:	0e 94 c4 04 	call	0x988	; 0x988 <Get_VOLTAGE>
     c40:	0e 94 fa 04 	call	0x9f4	; 0x9f4 <DetectPower>
		if(F_PS_PLUGGED == 0) break;
     c44:	80 91 98 05 	lds	r24, 0x0598
     c48:	88 23       	and	r24, r24
     c4a:	89 f0       	breq	.+34     	; 0xc6e <ChargeNiMH+0xee>
	}
}

void delay_ms(int ms)
{
	g10Mtimer=ms;
     c4c:	d0 93 9f 05 	sts	0x059F, r29
     c50:	c0 93 9e 05 	sts	0x059E, r28
	while (g10Mtimer>0)
     c54:	80 91 9e 05 	lds	r24, 0x059E
     c58:	90 91 9f 05 	lds	r25, 0x059F
     c5c:	89 2b       	or	r24, r25
     c5e:	d1 f7       	brne	.-12     	; 0xc54 <ChargeNiMH+0xd4>
//-----------------------------------------------------------------------------
void ChargeNiMH(void)
{
	F_CHARGING = 1;
	gMIN_DCOUNT = 5;
	while(gMIN_DCOUNT)
     c60:	80 91 a9 05 	lds	r24, 0x05A9
     c64:	90 91 aa 05 	lds	r25, 0x05AA
     c68:	89 2b       	or	r24, r25
     c6a:	09 f0       	breq	.+2      	; 0xc6e <ChargeNiMH+0xee>
     c6c:	a0 cf       	rjmp	.-192    	; 0xbae <ChargeNiMH+0x2e>
		PWR_LED1_OFF;
		Get_VOLTAGE();	DetectPower();
		if(F_PS_PLUGGED == 0) break;
		delay_ms(500);
	}
	gMIN_DCOUNT = 85;
     c6e:	85 e5       	ldi	r24, 0x55	; 85
     c70:	90 e0       	ldi	r25, 0x00	; 0
     c72:	90 93 aa 05 	sts	0x05AA, r25
     c76:	80 93 a9 05 	sts	0x05A9, r24
     c7a:	45 c0       	rjmp	.+138    	; 0xd06 <ChargeNiMH+0x186>
	while(gMIN_DCOUNT)
	{
		if (gSEC%5==0)
     c7c:	80 91 a4 05 	lds	r24, 0x05A4
     c80:	65 e0       	ldi	r22, 0x05	; 5
     c82:	0e 94 5a 26 	call	0x4cb4	; 0x4cb4 <__udivmodqi4>
     c86:	99 23       	and	r25, r25
     c88:	b9 f4       	brne	.+46     	; 0xcb8 <ChargeNiMH+0x138>
		{
			printnumber(gMIN,2,'0');
     c8a:	80 91 99 05 	lds	r24, 0x0599
     c8e:	40 e3       	ldi	r20, 0x30	; 48
     c90:	62 e0       	ldi	r22, 0x02	; 2
     c92:	70 e0       	ldi	r23, 0x00	; 0
     c94:	0e 94 86 0e 	call	0x1d0c	; 0x1d0c <printnumber>
			printstr(":");
     c98:	88 e4       	ldi	r24, 0x48	; 72
     c9a:	91 e0       	ldi	r25, 0x01	; 1
     c9c:	0e 94 f6 0e 	call	0x1dec	; 0x1dec <printstr>
			printnumber(gSEC, 2, '0');
     ca0:	80 91 a4 05 	lds	r24, 0x05A4
     ca4:	40 e3       	ldi	r20, 0x30	; 48
     ca6:	62 e0       	ldi	r22, 0x02	; 2
     ca8:	70 e0       	ldi	r23, 0x00	; 0
     caa:	90 e0       	ldi	r25, 0x00	; 0
     cac:	0e 94 86 0e 	call	0x1d0c	; 0x1d0c <printnumber>
			printline (" full charge power");
     cb0:	84 e6       	ldi	r24, 0x64	; 100
     cb2:	91 e0       	ldi	r25, 0x01	; 1
     cb4:	0e 94 19 0f 	call	0x1e32	; 0x1e32 <printline>
		}
		PWR_LED2_OFF;
     cb8:	af 9a       	sbi	0x15, 7	; 21
		if(g10MSEC > 500)	
     cba:	80 91 a2 05 	lds	r24, 0x05A2
     cbe:	90 91 a3 05 	lds	r25, 0x05A3
     cc2:	85 5f       	subi	r24, 0xF5	; 245
     cc4:	91 40       	sbci	r25, 0x01	; 1
     cc6:	20 f0       	brcs	.+8      	; 0xcd0 <ChargeNiMH+0x150>
			PWR_LED1_ON;
     cc8:	80 91 65 00 	lds	r24, 0x0065
     ccc:	8b 7f       	andi	r24, 0xFB	; 251
     cce:	03 c0       	rjmp	.+6      	; 0xcd6 <ChargeNiMH+0x156>
		else			
			PWR_LED1_OFF;
     cd0:	80 91 65 00 	lds	r24, 0x0065
     cd4:	84 60       	ori	r24, 0x04	; 4
     cd6:	80 93 65 00 	sts	0x0065, r24
		if(g10MSEC == 0 || g10MSEC == 500){
     cda:	80 91 a2 05 	lds	r24, 0x05A2
     cde:	90 91 a3 05 	lds	r25, 0x05A3
     ce2:	89 2b       	or	r24, r25
     ce4:	39 f0       	breq	.+14     	; 0xcf4 <ChargeNiMH+0x174>
     ce6:	80 91 a2 05 	lds	r24, 0x05A2
     cea:	90 91 a3 05 	lds	r25, 0x05A3
     cee:	84 5f       	subi	r24, 0xF4	; 244
     cf0:	91 40       	sbci	r25, 0x01	; 1
     cf2:	21 f4       	brne	.+8      	; 0xcfc <ChargeNiMH+0x17c>
			Get_VOLTAGE();
     cf4:	0e 94 c4 04 	call	0x988	; 0x988 <Get_VOLTAGE>
			DetectPower();
     cf8:	0e 94 fa 04 	call	0x9f4	; 0x9f4 <DetectPower>
		}
		if(F_PS_PLUGGED == 0) break;
     cfc:	80 91 98 05 	lds	r24, 0x0598
     d00:	88 23       	and	r24, r24
     d02:	41 f0       	breq	.+16     	; 0xd14 <ChargeNiMH+0x194>
		CHARGE_ENABLE;
     d04:	c4 9a       	sbi	0x18, 4	; 24
		Get_VOLTAGE();	DetectPower();
		if(F_PS_PLUGGED == 0) break;
		delay_ms(500);
	}
	gMIN_DCOUNT = 85;
	while(gMIN_DCOUNT)
     d06:	80 91 a9 05 	lds	r24, 0x05A9
     d0a:	90 91 aa 05 	lds	r25, 0x05AA
     d0e:	89 2b       	or	r24, r25
     d10:	09 f0       	breq	.+2      	; 0xd14 <ChargeNiMH+0x194>
     d12:	b4 cf       	rjmp	.-152    	; 0xc7c <ChargeNiMH+0xfc>
			DetectPower();
		}
		if(F_PS_PLUGGED == 0) break;
		CHARGE_ENABLE;
	}
	CHARGE_DISABLE;
     d14:	c4 98       	cbi	0x18, 4	; 24
	F_CHARGING = 0;
     d16:	10 92 9a 05 	sts	0x059A, r1
	printline ("Done");
     d1a:	87 e7       	ldi	r24, 0x77	; 119
     d1c:	91 e0       	ldi	r25, 0x01	; 1
     d1e:	0e 94 19 0f 	call	0x1e32	; 0x1e32 <printline>
}
     d22:	df 91       	pop	r29
     d24:	cf 91       	pop	r28
     d26:	1f 91       	pop	r17
     d28:	0f 91       	pop	r16
     d2a:	ff 90       	pop	r15
     d2c:	ef 90       	pop	r14
     d2e:	08 95       	ret

00000d30 <__vector_16>:
		//g10Mtime is decremented evry 1ms by interupt.
	}
}

ISR(TIMER0_OVF_vect)
{
     d30:	1f 92       	push	r1
     d32:	0f 92       	push	r0
     d34:	0f b6       	in	r0, 0x3f	; 63
     d36:	0f 92       	push	r0
     d38:	0b b6       	in	r0, 0x3b	; 59
     d3a:	0f 92       	push	r0
     d3c:	11 24       	eor	r1, r1
     d3e:	2f 93       	push	r18
     d40:	3f 93       	push	r19
     d42:	4f 93       	push	r20
     d44:	5f 93       	push	r21
     d46:	6f 93       	push	r22
     d48:	7f 93       	push	r23
     d4a:	8f 93       	push	r24
     d4c:	9f 93       	push	r25
     d4e:	af 93       	push	r26
     d50:	bf 93       	push	r27
     d52:	ef 93       	push	r30
     d54:	ff 93       	push	r31
	//TCNT0 = 111;
	TCNT0 = 25;
     d56:	89 e1       	ldi	r24, 0x19	; 25
     d58:	82 bf       	out	0x32, r24	; 50
	
	gticks++;
     d5a:	80 91 9b 05 	lds	r24, 0x059B
     d5e:	90 91 9c 05 	lds	r25, 0x059C
     d62:	01 96       	adiw	r24, 0x01	; 1
     d64:	90 93 9c 05 	sts	0x059C, r25
     d68:	80 93 9b 05 	sts	0x059B, r24

	if (g10Mtimer>0) g10Mtimer--; //count down timer
     d6c:	80 91 9e 05 	lds	r24, 0x059E
     d70:	90 91 9f 05 	lds	r25, 0x059F
     d74:	89 2b       	or	r24, r25
     d76:	49 f0       	breq	.+18     	; 0xd8a <__vector_16+0x5a>
     d78:	80 91 9e 05 	lds	r24, 0x059E
     d7c:	90 91 9f 05 	lds	r25, 0x059F
     d80:	01 97       	sbiw	r24, 0x01	; 1
     d82:	90 93 9f 05 	sts	0x059F, r25
     d86:	80 93 9e 05 	sts	0x059E, r24
	
	//
	if (MIC_SAMPLING && g10MSEC%4==0)
     d8a:	80 91 61 05 	lds	r24, 0x0561
     d8e:	88 23       	and	r24, r24
     d90:	71 f0       	breq	.+28     	; 0xdae <__vector_16+0x7e>
     d92:	80 91 a2 05 	lds	r24, 0x05A2
     d96:	90 91 a3 05 	lds	r25, 0x05A3
     d9a:	83 70       	andi	r24, 0x03	; 3
     d9c:	90 70       	andi	r25, 0x00	; 0
     d9e:	89 2b       	or	r24, r25
     da0:	31 f4       	brne	.+12     	; 0xdae <__vector_16+0x7e>
	{
		//every 4ms
		gAD_Ch_Index = MIC_CH;		
     da2:	8f e0       	ldi	r24, 0x0F	; 15
     da4:	80 93 92 05 	sts	0x0592, r24
		ADC_set(ADC_MODE_SINGLE);
     da8:	8c ed       	ldi	r24, 0xDC	; 220
     daa:	0e 94 f4 03 	call	0x7e8	; 0x7e8 <ADC_set>
	}

	if (!MIC_SAMPLING)
     dae:	80 91 61 05 	lds	r24, 0x0561
     db2:	88 23       	and	r24, r24
     db4:	11 f4       	brne	.+4      	; 0xdba <__vector_16+0x8a>
		heart();
     db6:	0e 94 d0 04 	call	0x9a0	; 0x9a0 <heart>

	
	if(++g10MSEC > 999){
     dba:	80 91 a2 05 	lds	r24, 0x05A2
     dbe:	90 91 a3 05 	lds	r25, 0x05A3
     dc2:	01 96       	adiw	r24, 0x01	; 1
     dc4:	90 93 a3 05 	sts	0x05A3, r25
     dc8:	80 93 a2 05 	sts	0x05A2, r24
     dcc:	80 91 a2 05 	lds	r24, 0x05A2
     dd0:	90 91 a3 05 	lds	r25, 0x05A3
     dd4:	88 5e       	subi	r24, 0xE8	; 232
     dd6:	93 40       	sbci	r25, 0x03	; 3
     dd8:	08 f4       	brcc	.+2      	; 0xddc <__vector_16+0xac>
     dda:	43 c0       	rjmp	.+134    	; 0xe62 <__vector_16+0x132>
        g10MSEC = 0;
     ddc:	10 92 a3 05 	sts	0x05A3, r1
     de0:	10 92 a2 05 	sts	0x05A2, r1
        if(gSEC_DCOUNT > 0)	gSEC_DCOUNT--;
     de4:	80 91 a5 05 	lds	r24, 0x05A5
     de8:	90 91 a6 05 	lds	r25, 0x05A6
     dec:	89 2b       	or	r24, r25
     dee:	49 f0       	breq	.+18     	; 0xe02 <__vector_16+0xd2>
     df0:	80 91 a5 05 	lds	r24, 0x05A5
     df4:	90 91 a6 05 	lds	r25, 0x05A6
     df8:	01 97       	sbiw	r24, 0x01	; 1
     dfa:	90 93 a6 05 	sts	0x05A6, r25
     dfe:	80 93 a5 05 	sts	0x05A5, r24
        if(++gSEC > 59){
     e02:	80 91 a4 05 	lds	r24, 0x05A4
     e06:	8f 5f       	subi	r24, 0xFF	; 255
     e08:	80 93 a4 05 	sts	0x05A4, r24
     e0c:	80 91 a4 05 	lds	r24, 0x05A4
     e10:	8c 33       	cpi	r24, 0x3C	; 60
     e12:	38 f1       	brcs	.+78     	; 0xe62 <__vector_16+0x132>
            gSEC = 0;
     e14:	10 92 a4 05 	sts	0x05A4, r1
	        if(gMIN_DCOUNT > 0)	gMIN_DCOUNT--;
     e18:	80 91 a9 05 	lds	r24, 0x05A9
     e1c:	90 91 aa 05 	lds	r25, 0x05AA
     e20:	89 2b       	or	r24, r25
     e22:	49 f0       	breq	.+18     	; 0xe36 <__vector_16+0x106>
     e24:	80 91 a9 05 	lds	r24, 0x05A9
     e28:	90 91 aa 05 	lds	r25, 0x05AA
     e2c:	01 97       	sbiw	r24, 0x01	; 1
     e2e:	90 93 aa 05 	sts	0x05AA, r25
     e32:	80 93 a9 05 	sts	0x05A9, r24
            if(++gMIN > 59){
     e36:	80 91 99 05 	lds	r24, 0x0599
     e3a:	8f 5f       	subi	r24, 0xFF	; 255
     e3c:	80 93 99 05 	sts	0x0599, r24
     e40:	80 91 99 05 	lds	r24, 0x0599
     e44:	8c 33       	cpi	r24, 0x3C	; 60
     e46:	68 f0       	brcs	.+26     	; 0xe62 <__vector_16+0x132>
                gMIN = 0;
     e48:	10 92 99 05 	sts	0x0599, r1
                if(++gHOUR > 23)
     e4c:	80 91 9d 05 	lds	r24, 0x059D
     e50:	8f 5f       	subi	r24, 0xFF	; 255
     e52:	80 93 9d 05 	sts	0x059D, r24
     e56:	80 91 9d 05 	lds	r24, 0x059D
     e5a:	88 31       	cpi	r24, 0x18	; 24
     e5c:	10 f0       	brcs	.+4      	; 0xe62 <__vector_16+0x132>
                    gHOUR = 0;
     e5e:	10 92 9d 05 	sts	0x059D, r1
            }
		}
    }
}
     e62:	ff 91       	pop	r31
     e64:	ef 91       	pop	r30
     e66:	bf 91       	pop	r27
     e68:	af 91       	pop	r26
     e6a:	9f 91       	pop	r25
     e6c:	8f 91       	pop	r24
     e6e:	7f 91       	pop	r23
     e70:	6f 91       	pop	r22
     e72:	5f 91       	pop	r21
     e74:	4f 91       	pop	r20
     e76:	3f 91       	pop	r19
     e78:	2f 91       	pop	r18
     e7a:	0f 90       	pop	r0
     e7c:	0b be       	out	0x3b, r0	; 59
     e7e:	0f 90       	pop	r0
     e80:	0f be       	out	0x3f, r0	; 63
     e82:	0f 90       	pop	r0
     e84:	1f 90       	pop	r1
     e86:	18 95       	reti

00000e88 <BreakModeCmdSend>:
//------------------------------------------------------------------------------
// set wck modules to btreak mode
//------------------------------------------------------------------------------
#define HEADER			0xFF 
void BreakModeCmdSend(void)
{
     e88:	8f ef       	ldi	r24, 0xFF	; 255
     e8a:	90 e0       	ldi	r25, 0x00	; 0
     e8c:	0e 94 67 00 	call	0xce	; 0xce <putByte>
	Data1 = (6<<5) | 31;
	Data2 = 0x20;
	CheckSum = (Data1^Data2)&0x7f;

	putByte(HEADER);
	putByte(Data1);
     e90:	8f ed       	ldi	r24, 0xDF	; 223
     e92:	90 e0       	ldi	r25, 0x00	; 0
     e94:	0e 94 67 00 	call	0xce	; 0xce <putByte>
	putByte(Data2);
     e98:	80 e2       	ldi	r24, 0x20	; 32
     e9a:	90 e0       	ldi	r25, 0x00	; 0
     e9c:	0e 94 67 00 	call	0xce	; 0xce <putByte>
	putByte(CheckSum);
     ea0:	8f e7       	ldi	r24, 0x7F	; 127
     ea2:	90 e0       	ldi	r25, 0x00	; 0
     ea4:	0e 94 67 00 	call	0xce	; 0xce <putByte>
} 
     ea8:	08 95       	ret

00000eaa <test>:
//------------------------------------------------------------------------------
// Simple self tests
//------------------------------------------------------------------------------

void test()
{
     eaa:	80 91 7e 05 	lds	r24, 0x057E
     eae:	90 91 7f 05 	lds	r25, 0x057F
     eb2:	89 59       	subi	r24, 0x99	; 153
     eb4:	91 42       	sbci	r25, 0x21	; 33
     eb6:	58 f0       	brcs	.+22     	; 0xece <test+0x24>
	if(gVOLTAGE>M_T_OF_POWER){
		PWR_LED1_ON;
     eb8:	80 91 65 00 	lds	r24, 0x0065
     ebc:	8b 7f       	andi	r24, 0xFB	; 251
     ebe:	80 93 65 00 	sts	0x0065, r24
		PWR_LED2_OFF;
     ec2:	af 9a       	sbi	0x15, 7	; 21
		gPwrLowCount = 0;
     ec4:	10 92 a8 05 	sts	0x05A8, r1
     ec8:	10 92 a7 05 	sts	0x05A7, r1
     ecc:	08 95       	ret
	}
	else if(gVOLTAGE>L_T_OF_POWER){
     ece:	80 91 7e 05 	lds	r24, 0x057E
     ed2:	90 91 7f 05 	lds	r25, 0x057F
     ed6:	85 5a       	subi	r24, 0xA5	; 165
     ed8:	9f 41       	sbci	r25, 0x1F	; 31
     eda:	f0 f0       	brcs	.+60     	; 0xf18 <test+0x6e>
		PWR_LED1_OFF;
     edc:	80 91 65 00 	lds	r24, 0x0065
     ee0:	84 60       	ori	r24, 0x04	; 4
     ee2:	80 93 65 00 	sts	0x0065, r24
		PWR_LED2_ON;
     ee6:	af 98       	cbi	0x15, 7	; 21
		gPwrLowCount++;
     ee8:	80 91 a7 05 	lds	r24, 0x05A7
     eec:	90 91 a8 05 	lds	r25, 0x05A8
     ef0:	01 96       	adiw	r24, 0x01	; 1
     ef2:	90 93 a8 05 	sts	0x05A8, r25
     ef6:	80 93 a7 05 	sts	0x05A7, r24
		if(gPwrLowCount>5000){
     efa:	80 91 a7 05 	lds	r24, 0x05A7
     efe:	90 91 a8 05 	lds	r25, 0x05A8
     f02:	89 58       	subi	r24, 0x89	; 137
     f04:	93 41       	sbci	r25, 0x13	; 19
     f06:	08 f4       	brcc	.+2      	; 0xf0a <test+0x60>
     f08:	3f c0       	rjmp	.+126    	; 0xf88 <test+0xde>
			gPwrLowCount = 0;
     f0a:	10 92 a8 05 	sts	0x05A8, r1
     f0e:	10 92 a7 05 	sts	0x05A7, r1
			BreakModeCmdSend();
     f12:	0e 94 44 07 	call	0xe88	; 0xe88 <BreakModeCmdSend>
     f16:	08 95       	ret
		}
	}
	else{
		PWR_LED1_OFF;
     f18:	80 91 65 00 	lds	r24, 0x0065
     f1c:	84 60       	ori	r24, 0x04	; 4
     f1e:	80 93 65 00 	sts	0x0065, r24
		if(g10MSEC<25)			PWR_LED2_ON;
     f22:	80 91 a2 05 	lds	r24, 0x05A2
     f26:	90 91 a3 05 	lds	r25, 0x05A3
     f2a:	49 97       	sbiw	r24, 0x19	; 25
     f2c:	68 f0       	brcs	.+26     	; 0xf48 <test+0x9e>
		else if(g10MSEC<50)		PWR_LED2_OFF;
     f2e:	80 91 a2 05 	lds	r24, 0x05A2
     f32:	90 91 a3 05 	lds	r25, 0x05A3
     f36:	c2 97       	sbiw	r24, 0x32	; 50
     f38:	80 f0       	brcs	.+32     	; 0xf5a <test+0xb0>
		else if(g10MSEC<75)		PWR_LED2_ON;
     f3a:	80 91 a2 05 	lds	r24, 0x05A2
     f3e:	90 91 a3 05 	lds	r25, 0x05A3
     f42:	8b 34       	cpi	r24, 0x4B	; 75
     f44:	91 05       	cpc	r25, r1
     f46:	10 f4       	brcc	.+4      	; 0xf4c <test+0xa2>
     f48:	af 98       	cbi	0x15, 7	; 21
     f4a:	08 c0       	rjmp	.+16     	; 0xf5c <test+0xb2>
		else if(g10MSEC<100)	PWR_LED2_OFF;
     f4c:	80 91 a2 05 	lds	r24, 0x05A2
     f50:	90 91 a3 05 	lds	r25, 0x05A3
     f54:	84 36       	cpi	r24, 0x64	; 100
     f56:	91 05       	cpc	r25, r1
     f58:	08 f4       	brcc	.+2      	; 0xf5c <test+0xb2>
     f5a:	af 9a       	sbi	0x15, 7	; 21
		gPwrLowCount++;
     f5c:	80 91 a7 05 	lds	r24, 0x05A7
     f60:	90 91 a8 05 	lds	r25, 0x05A8
     f64:	01 96       	adiw	r24, 0x01	; 1
     f66:	90 93 a8 05 	sts	0x05A8, r25
     f6a:	80 93 a7 05 	sts	0x05A7, r24
		if(gPwrLowCount>3000){
     f6e:	80 91 a7 05 	lds	r24, 0x05A7
     f72:	90 91 a8 05 	lds	r25, 0x05A8
     f76:	89 5b       	subi	r24, 0xB9	; 185
     f78:	9b 40       	sbci	r25, 0x0B	; 11
     f7a:	30 f0       	brcs	.+12     	; 0xf88 <test+0xde>
			gPwrLowCount=0;
     f7c:	10 92 a8 05 	sts	0x05A8, r1
     f80:	10 92 a7 05 	sts	0x05A7, r1
			BreakModeCmdSend();
     f84:	0e 94 44 07 	call	0xe88	; 0xe88 <BreakModeCmdSend>
     f88:	08 95       	ret

00000f8a <getByte>:

extern void putByte (BYTE b);
extern void putWck  (BYTE b);

int getByte()
{
     f8a:	80 91 9b 00 	lds	r24, 0x009B
     f8e:	87 ff       	sbrs	r24, 7
     f90:	fc cf       	rjmp	.-8      	; 0xf8a <getByte>
	while(!(UCSR1A & RX_COMPLETE)) ;
	return UDR1;
     f92:	80 91 9c 00 	lds	r24, 0x009C
}
     f96:	90 e0       	ldi	r25, 0x00	; 0
     f98:	08 95       	ret

00000f9a <wckGetByte>:

int wckGetByte(WORD timeout)
{
     f9a:	90 93 9f 05 	sts	0x059F, r25
     f9e:	80 93 9e 05 	sts	0x059E, r24
     fa2:	09 c0       	rjmp	.+18     	; 0xfb6 <wckGetByte+0x1c>
	g10Mtimer = timeout;
	
	while(!(UCSR0A&(1<<RXC)) ){ 	// test for received character
		if (g10Mtimer==0) return -1;
     fa4:	80 91 9e 05 	lds	r24, 0x059E
     fa8:	90 91 9f 05 	lds	r25, 0x059F
     fac:	89 2b       	or	r24, r25
     fae:	19 f4       	brne	.+6      	; 0xfb6 <wckGetByte+0x1c>
     fb0:	2f ef       	ldi	r18, 0xFF	; 255
     fb2:	3f ef       	ldi	r19, 0xFF	; 255
     fb4:	05 c0       	rjmp	.+10     	; 0xfc0 <wckGetByte+0x26>

int wckGetByte(WORD timeout)
{
	g10Mtimer = timeout;
	
	while(!(UCSR0A&(1<<RXC)) ){ 	// test for received character
     fb6:	5f 9b       	sbis	0x0b, 7	; 11
     fb8:	f5 cf       	rjmp	.-22     	; 0xfa4 <wckGetByte+0xa>
		if (g10Mtimer==0) return -1;
	}
	return UDR0;
     fba:	8c b1       	in	r24, 0x0c	; 12
     fbc:	28 2f       	mov	r18, r24
     fbe:	30 e0       	ldi	r19, 0x00	; 0
}
     fc0:	c9 01       	movw	r24, r18
     fc2:	08 95       	ret

00000fc4 <ungetch>:
	}		
	inputbuffer[ibcnt]=0;
}

void ungetch(int c)
{
     fc4:	e0 91 5f 0e 	lds	r30, 0x0E5F
     fc8:	f0 91 60 0e 	lds	r31, 0x0E60
     fcc:	9d e0       	ldi	r25, 0x0D	; 13
     fce:	eb 3f       	cpi	r30, 0xFB	; 251
     fd0:	f9 07       	cpc	r31, r25
     fd2:	39 f0       	breq	.+14     	; 0xfe2 <ungetch+0x1e>
     fd4:	30 f0       	brcs	.+12     	; 0xfe2 <ungetch+0x1e>
	if (ibptr>inputbuffer)
	{
		--ibptr;
     fd6:	31 97       	sbiw	r30, 0x01	; 1
     fd8:	f0 93 60 0e 	sts	0x0E60, r31
     fdc:	e0 93 5f 0e 	sts	0x0E5F, r30
		*ibptr=c;
     fe0:	80 83       	st	Z, r24
     fe2:	08 95       	ret

00000fe4 <getch>:
	}
}

int getch()
{
     fe4:	e0 91 5f 0e 	lds	r30, 0x0E5F
     fe8:	f0 91 60 0e 	lds	r31, 0x0E60
     fec:	80 81       	ld	r24, Z
     fee:	88 23       	and	r24, r24
     ff0:	19 f4       	brne	.+6      	; 0xff8 <getch+0x14>
     ff2:	2f ef       	ldi	r18, 0xFF	; 255
     ff4:	3f ef       	ldi	r19, 0xFF	; 255
     ff6:	07 c0       	rjmp	.+14     	; 0x1006 <getch+0x22>
	if (*ibptr!=0)
		return *ibptr++;
     ff8:	28 2f       	mov	r18, r24
     ffa:	30 e0       	ldi	r19, 0x00	; 0
     ffc:	31 96       	adiw	r30, 0x01	; 1
     ffe:	f0 93 60 0e 	sts	0x0E60, r31
    1002:	e0 93 5f 0e 	sts	0x0E5F, r30
	return -1;
}
    1006:	c9 01       	movw	r24, r18
    1008:	08 95       	ret

0000100a <newCell>:
tCELL memory[MEMSZ];
int mem=0;
void printtype(tOBJ);

tCELLp newCell()
{
    100a:	40 91 64 05 	lds	r20, 0x0564
    100e:	50 91 65 05 	lds	r21, 0x0565
    1012:	43 36       	cpi	r20, 0x63	; 99
    1014:	51 05       	cpc	r21, r1
    1016:	1c f0       	brlt	.+6      	; 0x101e <newCell+0x14>
    1018:	20 e0       	ldi	r18, 0x00	; 0
    101a:	30 e0       	ldi	r19, 0x00	; 0
    101c:	13 c0       	rjmp	.+38     	; 0x1044 <newCell+0x3a>
	if (mem<MEMSZ-1)
	{
		return &memory[mem++];
    101e:	9a 01       	movw	r18, r20
    1020:	22 0f       	add	r18, r18
    1022:	33 1f       	adc	r19, r19
    1024:	ca 01       	movw	r24, r20
    1026:	63 e0       	ldi	r22, 0x03	; 3
    1028:	88 0f       	add	r24, r24
    102a:	99 1f       	adc	r25, r25
    102c:	6a 95       	dec	r22
    102e:	e1 f7       	brne	.-8      	; 0x1028 <newCell+0x1e>
    1030:	28 0f       	add	r18, r24
    1032:	39 1f       	adc	r19, r25
    1034:	2f 5e       	subi	r18, 0xEF	; 239
    1036:	39 4f       	sbci	r19, 0xF9	; 249
    1038:	4f 5f       	subi	r20, 0xFF	; 255
    103a:	5f 4f       	sbci	r21, 0xFF	; 255
    103c:	50 93 65 05 	sts	0x0565, r21
    1040:	40 93 64 05 	sts	0x0564, r20
	}
	return null;
}
    1044:	c9 01       	movw	r24, r18
    1046:	08 95       	ret

00001048 <delCell>:

void delCell(tCELLp p)
{
    1048:	08 95       	ret

0000104a <copyString>:

BYTE stringbuffer[1024];
BYTE *stop=stringbuffer;

void copyString(char *a, char *b, int n)
{
    104a:	dc 01       	movw	r26, r24
    104c:	fb 01       	movw	r30, r22
    104e:	ca 01       	movw	r24, r20
    1050:	02 c0       	rjmp	.+4      	; 0x1056 <copyString+0xc>
	while (n-->=0 && *b!=0)
		*a++ = *b++;
    1052:	2d 93       	st	X+, r18
    1054:	31 96       	adiw	r30, 0x01	; 1
BYTE stringbuffer[1024];
BYTE *stop=stringbuffer;

void copyString(char *a, char *b, int n)
{
	while (n-->=0 && *b!=0)
    1056:	97 fd       	sbrc	r25, 7
    1058:	04 c0       	rjmp	.+8      	; 0x1062 <copyString+0x18>
    105a:	20 81       	ld	r18, Z
    105c:	01 97       	sbiw	r24, 0x01	; 1
    105e:	22 23       	and	r18, r18
    1060:	c1 f7       	brne	.-16     	; 0x1052 <copyString+0x8>
		*a++ = *b++;
	*a=0; // null terminate
    1062:	1c 92       	st	X, r1
}
    1064:	08 95       	ret

00001066 <delString>:
	*stop++ = '$' ; //add a guard
	return p;
}

void delString(char *p)
{
    1066:	fc 01       	movw	r30, r24
    1068:	82 91       	ld	r24, -Z
    106a:	8f 77       	andi	r24, 0x7F	; 127
    106c:	80 83       	st	Z, r24
	*(p-1) = *(p-1) & 0x7f;  // clear bit7
}
    106e:	08 95       	ret

00001070 <readdigit>:
}

/**************************************************************************************************/

int readdigit()
{
    1070:	e0 91 5f 0e 	lds	r30, 0x0E5F
    1074:	f0 91 60 0e 	lds	r31, 0x0E60
    1078:	80 81       	ld	r24, Z
    107a:	88 23       	and	r24, r24
    107c:	61 f0       	breq	.+24     	; 0x1096 <readdigit+0x26>
}

int getch()
{
	if (*ibptr!=0)
		return *ibptr++;
    107e:	31 96       	adiw	r30, 0x01	; 1
    1080:	f0 93 60 0e 	sts	0x0E60, r31
    1084:	e0 93 5f 0e 	sts	0x0E5F, r30
int readdigit()
{
	int num = 0;
	int ch  = 0;
	int s   = 1;
	switch(ch=getch())
    1088:	8b 32       	cpi	r24, 0x2B	; 43
    108a:	b1 f0       	breq	.+44     	; 0x10b8 <readdigit+0x48>
    108c:	8d 32       	cpi	r24, 0x2D	; 45
    108e:	29 f4       	brne	.+10     	; 0x109a <readdigit+0x2a>
}

int getch()
{
	if (*ibptr!=0)
		return *ibptr++;
    1090:	af ef       	ldi	r26, 0xFF	; 255
    1092:	bf ef       	ldi	r27, 0xFF	; 255
    1094:	13 c0       	rjmp	.+38     	; 0x10bc <readdigit+0x4c>
    1096:	8f ef       	ldi	r24, 0xFF	; 255
    1098:	9f ef       	ldi	r25, 0xFF	; 255
	inputbuffer[ibcnt]=0;
}

void ungetch(int c)
{
	if (ibptr>inputbuffer)
    109a:	e0 91 5f 0e 	lds	r30, 0x0E5F
    109e:	f0 91 60 0e 	lds	r31, 0x0E60
    10a2:	2d e0       	ldi	r18, 0x0D	; 13
    10a4:	eb 3f       	cpi	r30, 0xFB	; 251
    10a6:	f2 07       	cpc	r31, r18
    10a8:	39 f0       	breq	.+14     	; 0x10b8 <readdigit+0x48>
    10aa:	30 f0       	brcs	.+12     	; 0x10b8 <readdigit+0x48>
	{
		--ibptr;
    10ac:	31 97       	sbiw	r30, 0x01	; 1
    10ae:	f0 93 60 0e 	sts	0x0E60, r31
    10b2:	e0 93 5f 0e 	sts	0x0E5F, r30
		*ibptr=c;
    10b6:	80 83       	st	Z, r24
    10b8:	a1 e0       	ldi	r26, 0x01	; 1
    10ba:	b0 e0       	ldi	r27, 0x00	; 0
    10bc:	40 e0       	ldi	r20, 0x00	; 0
    10be:	50 e0       	ldi	r21, 0x00	; 0
    10c0:	1c c0       	rjmp	.+56     	; 0x10fa <readdigit+0x8a>
		default: ungetch(ch); break;
	}
	
	while ((ch = getch()) > 0)
	{
		if (!(ch>='0' && ch<='9'))
    10c2:	9c 01       	movw	r18, r24
    10c4:	20 53       	subi	r18, 0x30	; 48
    10c6:	30 40       	sbci	r19, 0x00	; 0
    10c8:	2a 30       	cpi	r18, 0x0A	; 10
    10ca:	31 05       	cpc	r19, r1
    10cc:	50 f0       	brcs	.+20     	; 0x10e2 <readdigit+0x72>
	inputbuffer[ibcnt]=0;
}

void ungetch(int c)
{
	if (ibptr>inputbuffer)
    10ce:	6b 5f       	subi	r22, 0xFB	; 251
    10d0:	7d 40       	sbci	r23, 0x0D	; 13
    10d2:	21 f1       	breq	.+72     	; 0x111c <__stack+0x1d>
    10d4:	18 f1       	brcs	.+70     	; 0x111c <__stack+0x1d>
	{
		--ibptr;
    10d6:	f0 93 60 0e 	sts	0x0E60, r31
    10da:	e0 93 5f 0e 	sts	0x0E5F, r30
		*ibptr=c;
    10de:	80 83       	st	Z, r24
    10e0:	1d c0       	rjmp	.+58     	; 0x111c <__stack+0x1d>
		if (!(ch>='0' && ch<='9'))
		{
			ungetch(ch);
			return num*s;
		}
		num = num * 10 + (ch - '0');
    10e2:	ca 01       	movw	r24, r20
    10e4:	f3 e0       	ldi	r31, 0x03	; 3
    10e6:	88 0f       	add	r24, r24
    10e8:	99 1f       	adc	r25, r25
    10ea:	fa 95       	dec	r31
    10ec:	e1 f7       	brne	.-8      	; 0x10e6 <readdigit+0x76>
    10ee:	44 0f       	add	r20, r20
    10f0:	55 1f       	adc	r21, r21
    10f2:	48 0f       	add	r20, r24
    10f4:	59 1f       	adc	r21, r25
    10f6:	42 0f       	add	r20, r18
    10f8:	53 1f       	adc	r21, r19
	}
}

int getch()
{
	if (*ibptr!=0)
    10fa:	e0 91 5f 0e 	lds	r30, 0x0E5F
    10fe:	f0 91 60 0e 	lds	r31, 0x0E60
    1102:	80 81       	ld	r24, Z
    1104:	88 23       	and	r24, r24
    1106:	51 f0       	breq	.+20     	; 0x111c <__stack+0x1d>
		return *ibptr++;
    1108:	90 e0       	ldi	r25, 0x00	; 0
    110a:	bf 01       	movw	r22, r30
    110c:	6f 5f       	subi	r22, 0xFF	; 255
    110e:	7f 4f       	sbci	r23, 0xFF	; 255
    1110:	70 93 60 0e 	sts	0x0E60, r23
    1114:	60 93 5f 0e 	sts	0x0E5F, r22
		case '-': s=-1; break;
		case '+': s=1; break;
		default: ungetch(ch); break;
	}
	
	while ((ch = getch()) > 0)
    1118:	00 97       	sbiw	r24, 0x00	; 0
    111a:	99 f6       	brne	.-90     	; 0x10c2 <readdigit+0x52>
			ungetch(ch);
			return num*s;
		}
		num = num * 10 + (ch - '0');
	}
	return num*s;
    111c:	4a 9f       	mul	r20, r26
    111e:	90 01       	movw	r18, r0
    1120:	4b 9f       	mul	r20, r27
    1122:	30 0d       	add	r19, r0
    1124:	5a 9f       	mul	r21, r26
    1126:	30 0d       	add	r19, r0
    1128:	11 24       	eor	r1, r1
}
    112a:	c9 01       	movw	r24, r18
    112c:	08 95       	ret

0000112e <isWhiteSpace>:

bool isWhiteSpace(int ch)
{
    112e:	80 32       	cpi	r24, 0x20	; 32
    1130:	91 05       	cpc	r25, r1
    1132:	51 f0       	breq	.+20     	; 0x1148 <isWhiteSpace+0x1a>
    1134:	89 30       	cpi	r24, 0x09	; 9
    1136:	91 05       	cpc	r25, r1
    1138:	39 f0       	breq	.+14     	; 0x1148 <isWhiteSpace+0x1a>
    113a:	8d 30       	cpi	r24, 0x0D	; 13
    113c:	91 05       	cpc	r25, r1
    113e:	21 f0       	breq	.+8      	; 0x1148 <isWhiteSpace+0x1a>
    1140:	20 e0       	ldi	r18, 0x00	; 0
    1142:	30 e0       	ldi	r19, 0x00	; 0
    1144:	0a 97       	sbiw	r24, 0x0a	; 10
    1146:	11 f4       	brne	.+4      	; 0x114c <isWhiteSpace+0x1e>
    1148:	21 e0       	ldi	r18, 0x01	; 1
    114a:	30 e0       	ldi	r19, 0x00	; 0
	return (ch == ' ' || ch == '\t' || ch == '\r' || ch == '\n');
}
    114c:	c9 01       	movw	r24, r18
    114e:	08 95       	ret

00001150 <isLetterorDigit>:

bool isLetterorDigit(int ch)
{
    1150:	9c 01       	movw	r18, r24
    1152:	81 54       	subi	r24, 0x41	; 65
    1154:	90 40       	sbci	r25, 0x00	; 0
    1156:	4a 97       	sbiw	r24, 0x1a	; 26
    1158:	60 f0       	brcs	.+24     	; 0x1172 <isLetterorDigit+0x22>
    115a:	c9 01       	movw	r24, r18
    115c:	81 56       	subi	r24, 0x61	; 97
    115e:	90 40       	sbci	r25, 0x00	; 0
    1160:	4a 97       	sbiw	r24, 0x1a	; 26
    1162:	38 f0       	brcs	.+14     	; 0x1172 <isLetterorDigit+0x22>
    1164:	40 e0       	ldi	r20, 0x00	; 0
    1166:	50 e0       	ldi	r21, 0x00	; 0
    1168:	20 53       	subi	r18, 0x30	; 48
    116a:	30 40       	sbci	r19, 0x00	; 0
    116c:	2a 30       	cpi	r18, 0x0A	; 10
    116e:	31 05       	cpc	r19, r1
    1170:	10 f4       	brcc	.+4      	; 0x1176 <isLetterorDigit+0x26>
    1172:	41 e0       	ldi	r20, 0x01	; 1
    1174:	50 e0       	ldi	r21, 0x00	; 0
	return ((ch >= 'A' && ch <= 'Z' ) ||
	 (ch >= 'a' && ch <= 'z' ) ||
	 (ch >= '0' && ch <= '9' ) );
}
    1176:	ca 01       	movw	r24, r20
    1178:	08 95       	ret

0000117a <isSymbol>:
	}		
	return r;
}

bool isSymbol(int ch)
{
    117a:	8b 32       	cpi	r24, 0x2B	; 43
    117c:	91 05       	cpc	r25, r1
    117e:	51 f0       	breq	.+20     	; 0x1194 <isSymbol+0x1a>
    1180:	8d 32       	cpi	r24, 0x2D	; 45
    1182:	91 05       	cpc	r25, r1
    1184:	39 f0       	breq	.+14     	; 0x1194 <isSymbol+0x1a>
    1186:	8f 35       	cpi	r24, 0x5F	; 95
    1188:	91 05       	cpc	r25, r1
    118a:	21 f0       	breq	.+8      	; 0x1194 <isSymbol+0x1a>
    118c:	20 e0       	ldi	r18, 0x00	; 0
    118e:	30 e0       	ldi	r19, 0x00	; 0
    1190:	8e 97       	sbiw	r24, 0x2e	; 46
    1192:	11 f4       	brne	.+4      	; 0x1198 <isSymbol+0x1e>
    1194:	21 e0       	ldi	r18, 0x01	; 1
    1196:	30 e0       	ldi	r19, 0x00	; 0
	return (ch == '+' || ch == '-' || ch == '_' || ch == '.');
}
    1198:	c9 01       	movw	r24, r18
    119a:	08 95       	ret

0000119c <readwhitespace>:

void readwhitespace()
{
    119c:	e0 91 5f 0e 	lds	r30, 0x0E5F
    11a0:	f0 91 60 0e 	lds	r31, 0x0E60
    11a4:	80 81       	ld	r24, Z
    11a6:	88 23       	and	r24, r24
    11a8:	19 f4       	brne	.+6      	; 0x11b0 <readwhitespace+0x14>
    11aa:	2f ef       	ldi	r18, 0xFF	; 255
    11ac:	3f ef       	ldi	r19, 0xFF	; 255
    11ae:	16 c0       	rjmp	.+44     	; 0x11dc <readwhitespace+0x40>
}

int getch()
{
	if (*ibptr!=0)
		return *ibptr++;
    11b0:	28 2f       	mov	r18, r24
    11b2:	30 e0       	ldi	r19, 0x00	; 0
    11b4:	31 96       	adiw	r30, 0x01	; 1
    11b6:	f0 93 60 0e 	sts	0x0E60, r31
    11ba:	e0 93 5f 0e 	sts	0x0E5F, r30
}

void readwhitespace()
{
	int ch = 0;
	while ((ch = getch()) > 0 && isWhiteSpace((char)ch)) ;
    11be:	21 15       	cp	r18, r1
    11c0:	31 05       	cpc	r19, r1
    11c2:	61 f0       	breq	.+24     	; 0x11dc <readwhitespace+0x40>
    11c4:	c9 01       	movw	r24, r18
	return num*s;
}

bool isWhiteSpace(int ch)
{
	return (ch == ' ' || ch == '\t' || ch == '\r' || ch == '\n');
    11c6:	80 32       	cpi	r24, 0x20	; 32
    11c8:	91 05       	cpc	r25, r1
    11ca:	41 f3       	breq	.-48     	; 0x119c <readwhitespace>
    11cc:	89 30       	cpi	r24, 0x09	; 9
    11ce:	91 05       	cpc	r25, r1
    11d0:	29 f3       	breq	.-54     	; 0x119c <readwhitespace>
    11d2:	8d 30       	cpi	r24, 0x0D	; 13
    11d4:	91 05       	cpc	r25, r1
    11d6:	11 f3       	breq	.-60     	; 0x119c <readwhitespace>
    11d8:	0a 97       	sbiw	r24, 0x0a	; 10
    11da:	01 f3       	breq	.-64     	; 0x119c <readwhitespace>
	inputbuffer[ibcnt]=0;
}

void ungetch(int c)
{
	if (ibptr>inputbuffer)
    11dc:	e0 91 5f 0e 	lds	r30, 0x0E5F
    11e0:	f0 91 60 0e 	lds	r31, 0x0E60
    11e4:	8d e0       	ldi	r24, 0x0D	; 13
    11e6:	eb 3f       	cpi	r30, 0xFB	; 251
    11e8:	f8 07       	cpc	r31, r24
    11ea:	39 f0       	breq	.+14     	; 0x11fa <readwhitespace+0x5e>
    11ec:	30 f0       	brcs	.+12     	; 0x11fa <readwhitespace+0x5e>
	{
		--ibptr;
    11ee:	31 97       	sbiw	r30, 0x01	; 1
    11f0:	f0 93 60 0e 	sts	0x0E60, r31
    11f4:	e0 93 5f 0e 	sts	0x0E5F, r30
		*ibptr=c;
    11f8:	20 83       	st	Z, r18
    11fa:	08 95       	ret

000011fc <throw>:
/**********  primitives  *********/

void showenviron();

tOBJ throw(int n)
{
    11fc:	df 93       	push	r29
    11fe:	cf 93       	push	r28
    1200:	cd b7       	in	r28, 0x3d	; 61
    1202:	de b7       	in	r29, 0x3e	; 62
    1204:	60 97       	sbiw	r28, 0x10	; 16
    1206:	0f b6       	in	r0, 0x3f	; 63
    1208:	f8 94       	cli
    120a:	de bf       	out	0x3e, r29	; 62
    120c:	0f be       	out	0x3f, r0	; 63
    120e:	cd bf       	out	0x3d, r28	; 61
	tOBJ r; r.type=ERROR; r.number=n;
    1210:	9e 83       	std	Y+6, r25	; 0x06
    1212:	8d 83       	std	Y+5, r24	; 0x05
	return r;
    1214:	89 e0       	ldi	r24, 0x09	; 9
    1216:	90 e0       	ldi	r25, 0x00	; 0
    1218:	9a 83       	std	Y+2, r25	; 0x02
    121a:	89 83       	std	Y+1, r24	; 0x01
    121c:	de 01       	movw	r26, r28
    121e:	19 96       	adiw	r26, 0x09	; 9
    1220:	fe 01       	movw	r30, r28
    1222:	31 96       	adiw	r30, 0x01	; 1
    1224:	88 e0       	ldi	r24, 0x08	; 8
    1226:	01 90       	ld	r0, Z+
    1228:	0d 92       	st	X+, r0
    122a:	81 50       	subi	r24, 0x01	; 1
    122c:	e1 f7       	brne	.-8      	; 0x1226 <throw+0x2a>
    122e:	29 85       	ldd	r18, Y+9	; 0x09
    1230:	3a 85       	ldd	r19, Y+10	; 0x0a
    1232:	4b 85       	ldd	r20, Y+11	; 0x0b
    1234:	5c 85       	ldd	r21, Y+12	; 0x0c
    1236:	6d 85       	ldd	r22, Y+13	; 0x0d
    1238:	7e 85       	ldd	r23, Y+14	; 0x0e
}
    123a:	8f 85       	ldd	r24, Y+15	; 0x0f
    123c:	98 89       	ldd	r25, Y+16	; 0x10
    123e:	60 96       	adiw	r28, 0x10	; 16
    1240:	0f b6       	in	r0, 0x3f	; 63
    1242:	f8 94       	cli
    1244:	de bf       	out	0x3e, r29	; 62
    1246:	0f be       	out	0x3f, r0	; 63
    1248:	cd bf       	out	0x3d, r28	; 61
    124a:	cf 91       	pop	r28
    124c:	df 91       	pop	r29
    124e:	08 95       	ret

00001250 <car>:
	showenviron();
	return r;
}

tOBJ car(tCELLp p)   // i.e. (car  '(123 456)) => 123
{
    1250:	df 93       	push	r29
    1252:	cf 93       	push	r28
    1254:	cd b7       	in	r28, 0x3d	; 61
    1256:	de b7       	in	r29, 0x3e	; 62
    1258:	60 97       	sbiw	r28, 0x10	; 16
    125a:	0f b6       	in	r0, 0x3f	; 63
    125c:	f8 94       	cli
    125e:	de bf       	out	0x3e, r29	; 62
    1260:	0f be       	out	0x3f, r0	; 63
    1262:	cd bf       	out	0x3d, r28	; 61
    1264:	fc 01       	movw	r30, r24
	tOBJ r;
	r.type=EMPTY;

	if (p->head.type==CELL)
    1266:	80 81       	ld	r24, Z
    1268:	91 81       	ldd	r25, Z+1	; 0x01
    126a:	9e 01       	movw	r18, r28
    126c:	27 5f       	subi	r18, 0xF7	; 247
    126e:	3f 4f       	sbci	r19, 0xFF	; 255
    1270:	07 97       	sbiw	r24, 0x07	; 7
    1272:	59 f4       	brne	.+22     	; 0x128a <car+0x3a>
	{
		p = p->head.cell;
		return p->head;
    1274:	d9 01       	movw	r26, r18
    1276:	84 81       	ldd	r24, Z+4	; 0x04
    1278:	95 81       	ldd	r25, Z+5	; 0x05
    127a:	9c 01       	movw	r18, r24
    127c:	f9 01       	movw	r30, r18
    127e:	88 e0       	ldi	r24, 0x08	; 8
    1280:	01 90       	ld	r0, Z+
    1282:	0d 92       	st	X+, r0
    1284:	81 50       	subi	r24, 0x01	; 1
    1286:	e1 f7       	brne	.-8      	; 0x1280 <car+0x30>
    1288:	0c c0       	rjmp	.+24     	; 0x12a2 <car+0x52>
	}
	return r;
    128a:	88 e0       	ldi	r24, 0x08	; 8
    128c:	90 e0       	ldi	r25, 0x00	; 0
    128e:	9a 83       	std	Y+2, r25	; 0x02
    1290:	89 83       	std	Y+1, r24	; 0x01
    1292:	d9 01       	movw	r26, r18
    1294:	fe 01       	movw	r30, r28
    1296:	31 96       	adiw	r30, 0x01	; 1
    1298:	88 e0       	ldi	r24, 0x08	; 8
    129a:	01 90       	ld	r0, Z+
    129c:	0d 92       	st	X+, r0
    129e:	81 50       	subi	r24, 0x01	; 1
    12a0:	e1 f7       	brne	.-8      	; 0x129a <car+0x4a>
    12a2:	29 85       	ldd	r18, Y+9	; 0x09
    12a4:	3a 85       	ldd	r19, Y+10	; 0x0a
    12a6:	4b 85       	ldd	r20, Y+11	; 0x0b
    12a8:	5c 85       	ldd	r21, Y+12	; 0x0c
    12aa:	6d 85       	ldd	r22, Y+13	; 0x0d
    12ac:	7e 85       	ldd	r23, Y+14	; 0x0e
}
    12ae:	8f 85       	ldd	r24, Y+15	; 0x0f
    12b0:	98 89       	ldd	r25, Y+16	; 0x10
    12b2:	60 96       	adiw	r28, 0x10	; 16
    12b4:	0f b6       	in	r0, 0x3f	; 63
    12b6:	f8 94       	cli
    12b8:	de bf       	out	0x3e, r29	; 62
    12ba:	0f be       	out	0x3f, r0	; 63
    12bc:	cd bf       	out	0x3d, r28	; 61
    12be:	cf 91       	pop	r28
    12c0:	df 91       	pop	r29
    12c2:	08 95       	ret

000012c4 <cdr>:

tOBJ cdr(tCELLp p) // i.e. (cdr  '(123 456)) => (456)
{
    12c4:	df 93       	push	r29
    12c6:	cf 93       	push	r28
    12c8:	cd b7       	in	r28, 0x3d	; 61
    12ca:	de b7       	in	r29, 0x3e	; 62
    12cc:	60 97       	sbiw	r28, 0x10	; 16
    12ce:	0f b6       	in	r0, 0x3f	; 63
    12d0:	f8 94       	cli
    12d2:	de bf       	out	0x3e, r29	; 62
    12d4:	0f be       	out	0x3f, r0	; 63
    12d6:	cd bf       	out	0x3d, r28	; 61
    12d8:	fc 01       	movw	r30, r24
	tOBJ r;
	r.type=EMPTY;

	if (p->head.type==CELL)
    12da:	80 81       	ld	r24, Z
    12dc:	91 81       	ldd	r25, Z+1	; 0x01
    12de:	07 97       	sbiw	r24, 0x07	; 7
    12e0:	19 f0       	breq	.+6      	; 0x12e8 <cdr+0x24>
    12e2:	88 e0       	ldi	r24, 0x08	; 8
    12e4:	90 e0       	ldi	r25, 0x00	; 0
    12e6:	09 c0       	rjmp	.+18     	; 0x12fa <cdr+0x36>
	{
		p = p->head.cell;	
    12e8:	04 80       	ldd	r0, Z+4	; 0x04
    12ea:	f5 81       	ldd	r31, Z+5	; 0x05
    12ec:	e0 2d       	mov	r30, r0
		r.type = CELL;
		r.cell = p->tail;
    12ee:	80 85       	ldd	r24, Z+8	; 0x08
    12f0:	91 85       	ldd	r25, Z+9	; 0x09
    12f2:	9e 83       	std	Y+6, r25	; 0x06
    12f4:	8d 83       	std	Y+5, r24	; 0x05
    12f6:	87 e0       	ldi	r24, 0x07	; 7
    12f8:	90 e0       	ldi	r25, 0x00	; 0
	}
	return r;
    12fa:	9a 83       	std	Y+2, r25	; 0x02
    12fc:	89 83       	std	Y+1, r24	; 0x01
    12fe:	de 01       	movw	r26, r28
    1300:	19 96       	adiw	r26, 0x09	; 9
    1302:	fe 01       	movw	r30, r28
    1304:	31 96       	adiw	r30, 0x01	; 1
    1306:	88 e0       	ldi	r24, 0x08	; 8
    1308:	01 90       	ld	r0, Z+
    130a:	0d 92       	st	X+, r0
    130c:	81 50       	subi	r24, 0x01	; 1
    130e:	e1 f7       	brne	.-8      	; 0x1308 <cdr+0x44>
    1310:	29 85       	ldd	r18, Y+9	; 0x09
    1312:	3a 85       	ldd	r19, Y+10	; 0x0a
    1314:	4b 85       	ldd	r20, Y+11	; 0x0b
    1316:	5c 85       	ldd	r21, Y+12	; 0x0c
    1318:	6d 85       	ldd	r22, Y+13	; 0x0d
    131a:	7e 85       	ldd	r23, Y+14	; 0x0e
}
    131c:	8f 85       	ldd	r24, Y+15	; 0x0f
    131e:	98 89       	ldd	r25, Y+16	; 0x10
    1320:	60 96       	adiw	r28, 0x10	; 16
    1322:	0f b6       	in	r0, 0x3f	; 63
    1324:	f8 94       	cli
    1326:	de bf       	out	0x3e, r29	; 62
    1328:	0f be       	out	0x3f, r0	; 63
    132a:	cd bf       	out	0x3d, r28	; 61
    132c:	cf 91       	pop	r28
    132e:	df 91       	pop	r29
    1330:	08 95       	ret

00001332 <cadr>:

tOBJ cadr(tCELLp p) // i.e. (cadr  '(123 456)) => 456
{
    1332:	df 93       	push	r29
    1334:	cf 93       	push	r28
    1336:	cd b7       	in	r28, 0x3d	; 61
    1338:	de b7       	in	r29, 0x3e	; 62
    133a:	e8 97       	sbiw	r28, 0x38	; 56
    133c:	0f b6       	in	r0, 0x3f	; 63
    133e:	f8 94       	cli
    1340:	de bf       	out	0x3e, r29	; 62
    1342:	0f be       	out	0x3f, r0	; 63
    1344:	cd bf       	out	0x3d, r28	; 61
    1346:	fc 01       	movw	r30, r24
tOBJ cdr(tCELLp p) // i.e. (cdr  '(123 456)) => (456)
{
	tOBJ r;
	r.type=EMPTY;

	if (p->head.type==CELL)
    1348:	80 81       	ld	r24, Z
    134a:	91 81       	ldd	r25, Z+1	; 0x01
    134c:	07 97       	sbiw	r24, 0x07	; 7
    134e:	19 f0       	breq	.+6      	; 0x1356 <cadr+0x24>
    1350:	88 e0       	ldi	r24, 0x08	; 8
    1352:	90 e0       	ldi	r25, 0x00	; 0
    1354:	09 c0       	rjmp	.+18     	; 0x1368 <cadr+0x36>
	{
		p = p->head.cell;	
		r.type = CELL;
		r.cell = p->tail;
    1356:	04 80       	ldd	r0, Z+4	; 0x04
    1358:	f5 81       	ldd	r31, Z+5	; 0x05
    135a:	e0 2d       	mov	r30, r0
    135c:	80 85       	ldd	r24, Z+8	; 0x08
    135e:	91 85       	ldd	r25, Z+9	; 0x09
    1360:	9e 8f       	std	Y+30, r25	; 0x1e
    1362:	8d 8f       	std	Y+29, r24	; 0x1d
    1364:	87 e0       	ldi	r24, 0x07	; 7
    1366:	90 e0       	ldi	r25, 0x00	; 0
	}
	return r;
    1368:	9a 8f       	std	Y+26, r25	; 0x1a
    136a:	89 8f       	std	Y+25, r24	; 0x19
    136c:	de 01       	movw	r26, r28
    136e:	91 96       	adiw	r26, 0x21	; 33
    1370:	fe 01       	movw	r30, r28
    1372:	79 96       	adiw	r30, 0x19	; 25
    1374:	88 e0       	ldi	r24, 0x08	; 8
    1376:	01 90       	ld	r0, Z+
    1378:	0d 92       	st	X+, r0
    137a:	81 50       	subi	r24, 0x01	; 1
    137c:	e1 f7       	brne	.-8      	; 0x1376 <cadr+0x44>
    137e:	de 01       	movw	r26, r28
    1380:	19 96       	adiw	r26, 0x09	; 9
    1382:	fe 01       	movw	r30, r28
    1384:	b1 96       	adiw	r30, 0x21	; 33
    1386:	88 e0       	ldi	r24, 0x08	; 8
    1388:	01 90       	ld	r0, Z+
    138a:	0d 92       	st	X+, r0
    138c:	81 50       	subi	r24, 0x01	; 1
    138e:	e1 f7       	brne	.-8      	; 0x1388 <cadr+0x56>
}

tOBJ cadr(tCELLp p) // i.e. (cadr  '(123 456)) => 456
{
	tOBJ r = car (cdr(p).cell);
    1390:	ed 85       	ldd	r30, Y+13	; 0x0d
    1392:	fe 85       	ldd	r31, Y+14	; 0x0e
tOBJ car(tCELLp p)   // i.e. (car  '(123 456)) => 123
{
	tOBJ r;
	r.type=EMPTY;

	if (p->head.type==CELL)
    1394:	80 81       	ld	r24, Z
    1396:	91 81       	ldd	r25, Z+1	; 0x01
    1398:	9e 01       	movw	r18, r28
    139a:	2f 5c       	subi	r18, 0xCF	; 207
    139c:	3f 4f       	sbci	r19, 0xFF	; 255
    139e:	07 97       	sbiw	r24, 0x07	; 7
    13a0:	59 f4       	brne	.+22     	; 0x13b8 <cadr+0x86>
	{
		p = p->head.cell;
		return p->head;
    13a2:	d9 01       	movw	r26, r18
    13a4:	84 81       	ldd	r24, Z+4	; 0x04
    13a6:	95 81       	ldd	r25, Z+5	; 0x05
    13a8:	9c 01       	movw	r18, r24
    13aa:	f9 01       	movw	r30, r18
    13ac:	88 e0       	ldi	r24, 0x08	; 8
    13ae:	01 90       	ld	r0, Z+
    13b0:	0d 92       	st	X+, r0
    13b2:	81 50       	subi	r24, 0x01	; 1
    13b4:	e1 f7       	brne	.-8      	; 0x13ae <cadr+0x7c>
    13b6:	0c c0       	rjmp	.+24     	; 0x13d0 <cadr+0x9e>
	}
	return r;
    13b8:	88 e0       	ldi	r24, 0x08	; 8
    13ba:	90 e0       	ldi	r25, 0x00	; 0
    13bc:	9a a7       	std	Y+42, r25	; 0x2a
    13be:	89 a7       	std	Y+41, r24	; 0x29
    13c0:	d9 01       	movw	r26, r18
    13c2:	fe 01       	movw	r30, r28
    13c4:	b9 96       	adiw	r30, 0x29	; 41
    13c6:	88 e0       	ldi	r24, 0x08	; 8
    13c8:	01 90       	ld	r0, Z+
    13ca:	0d 92       	st	X+, r0
    13cc:	81 50       	subi	r24, 0x01	; 1
    13ce:	e1 f7       	brne	.-8      	; 0x13c8 <cadr+0x96>
    13d0:	de 01       	movw	r26, r28
    13d2:	11 96       	adiw	r26, 0x01	; 1
    13d4:	fe 01       	movw	r30, r28
    13d6:	f1 96       	adiw	r30, 0x31	; 49
    13d8:	88 e0       	ldi	r24, 0x08	; 8
    13da:	01 90       	ld	r0, Z+
    13dc:	0d 92       	st	X+, r0
    13de:	81 50       	subi	r24, 0x01	; 1
    13e0:	e1 f7       	brne	.-8      	; 0x13da <cadr+0xa8>
}

tOBJ cadr(tCELLp p) // i.e. (cadr  '(123 456)) => 456
{
	tOBJ r = car (cdr(p).cell);
	return r;
    13e2:	de 01       	movw	r26, r28
    13e4:	51 96       	adiw	r26, 0x11	; 17
    13e6:	fe 01       	movw	r30, r28
    13e8:	31 96       	adiw	r30, 0x01	; 1
    13ea:	88 e0       	ldi	r24, 0x08	; 8
    13ec:	01 90       	ld	r0, Z+
    13ee:	0d 92       	st	X+, r0
    13f0:	81 50       	subi	r24, 0x01	; 1
    13f2:	e1 f7       	brne	.-8      	; 0x13ec <cadr+0xba>
    13f4:	29 89       	ldd	r18, Y+17	; 0x11
    13f6:	3a 89       	ldd	r19, Y+18	; 0x12
    13f8:	4b 89       	ldd	r20, Y+19	; 0x13
    13fa:	5c 89       	ldd	r21, Y+20	; 0x14
    13fc:	6d 89       	ldd	r22, Y+21	; 0x15
    13fe:	7e 89       	ldd	r23, Y+22	; 0x16
}
    1400:	8f 89       	ldd	r24, Y+23	; 0x17
    1402:	98 8d       	ldd	r25, Y+24	; 0x18
    1404:	e8 96       	adiw	r28, 0x38	; 56
    1406:	0f b6       	in	r0, 0x3f	; 63
    1408:	f8 94       	cli
    140a:	de bf       	out	0x3e, r29	; 62
    140c:	0f be       	out	0x3f, r0	; 63
    140e:	cd bf       	out	0x3d, r28	; 61
    1410:	cf 91       	pop	r28
    1412:	df 91       	pop	r29
    1414:	08 95       	ret

00001416 <len>:

tOBJ len(tCELLp p) // i.e. (len  '(123 456)) => 2
{
    1416:	df 93       	push	r29
    1418:	cf 93       	push	r28
    141a:	cd b7       	in	r28, 0x3d	; 61
    141c:	de b7       	in	r29, 0x3e	; 62
    141e:	a0 97       	sbiw	r28, 0x20	; 32
    1420:	0f b6       	in	r0, 0x3f	; 63
    1422:	f8 94       	cli
    1424:	de bf       	out	0x3e, r29	; 62
    1426:	0f be       	out	0x3f, r0	; 63
    1428:	cd bf       	out	0x3d, r28	; 61
    142a:	fc 01       	movw	r30, r24
	tOBJ r; r.type=INT;
	if (p->head.type != CELL)
    142c:	80 81       	ld	r24, Z
    142e:	91 81       	ldd	r25, Z+1	; 0x01
    1430:	07 97       	sbiw	r24, 0x07	; 7
    1432:	f1 f0       	breq	.+60     	; 0x1470 <len+0x5a>

void showenviron();

tOBJ throw(int n)
{
	tOBJ r; r.type=ERROR; r.number=n;
    1434:	82 e0       	ldi	r24, 0x02	; 2
    1436:	90 e0       	ldi	r25, 0x00	; 0
    1438:	9e 8b       	std	Y+22, r25	; 0x16
    143a:	8d 8b       	std	Y+21, r24	; 0x15
	return r;
    143c:	89 e0       	ldi	r24, 0x09	; 9
    143e:	90 e0       	ldi	r25, 0x00	; 0
    1440:	9a 8b       	std	Y+18, r25	; 0x12
    1442:	89 8b       	std	Y+17, r24	; 0x11
    1444:	de 01       	movw	r26, r28
    1446:	59 96       	adiw	r26, 0x19	; 25
    1448:	fe 01       	movw	r30, r28
    144a:	71 96       	adiw	r30, 0x11	; 17
    144c:	88 e0       	ldi	r24, 0x08	; 8
    144e:	01 90       	ld	r0, Z+
    1450:	0d 92       	st	X+, r0
    1452:	81 50       	subi	r24, 0x01	; 1
    1454:	e1 f7       	brne	.-8      	; 0x144e <len+0x38>
    1456:	de 01       	movw	r26, r28
    1458:	11 96       	adiw	r26, 0x01	; 1
    145a:	fe 01       	movw	r30, r28
    145c:	79 96       	adiw	r30, 0x19	; 25
    145e:	88 e0       	ldi	r24, 0x08	; 8
    1460:	01 90       	ld	r0, Z+
    1462:	0d 92       	st	X+, r0
    1464:	81 50       	subi	r24, 0x01	; 1
    1466:	e1 f7       	brne	.-8      	; 0x1460 <len+0x4a>
    1468:	89 81       	ldd	r24, Y+1	; 0x01
    146a:	9a 81       	ldd	r25, Y+2	; 0x02
    146c:	9c 01       	movw	r18, r24
    146e:	11 c0       	rjmp	.+34     	; 0x1492 <len+0x7c>
	if (p->head.type != CELL)
		r=throw(2);
	else
	{
		int n=0;
		p=p->head.cell;
    1470:	84 81       	ldd	r24, Z+4	; 0x04
    1472:	95 81       	ldd	r25, Z+5	; 0x05
    1474:	9c 01       	movw	r18, r24
    1476:	f9 01       	movw	r30, r18
    1478:	80 e0       	ldi	r24, 0x00	; 0
    147a:	90 e0       	ldi	r25, 0x00	; 0
    147c:	04 c0       	rjmp	.+8      	; 0x1486 <len+0x70>
		while (p != null)
		{
			n++;
    147e:	01 96       	adiw	r24, 0x01	; 1
			p=p->tail;
    1480:	00 84       	ldd	r0, Z+8	; 0x08
    1482:	f1 85       	ldd	r31, Z+9	; 0x09
    1484:	e0 2d       	mov	r30, r0
		r=throw(2);
	else
	{
		int n=0;
		p=p->head.cell;
		while (p != null)
    1486:	30 97       	sbiw	r30, 0x00	; 0
    1488:	d1 f7       	brne	.-12     	; 0x147e <len+0x68>
		{
			n++;
			p=p->tail;
		}
		r.number=n;
    148a:	9e 83       	std	Y+6, r25	; 0x06
    148c:	8d 83       	std	Y+5, r24	; 0x05
    148e:	21 e0       	ldi	r18, 0x01	; 1
    1490:	30 e0       	ldi	r19, 0x00	; 0
	}
	return r;
    1492:	3a 83       	std	Y+2, r19	; 0x02
    1494:	29 83       	std	Y+1, r18	; 0x01
    1496:	de 01       	movw	r26, r28
    1498:	19 96       	adiw	r26, 0x09	; 9
    149a:	fe 01       	movw	r30, r28
    149c:	31 96       	adiw	r30, 0x01	; 1
    149e:	88 e0       	ldi	r24, 0x08	; 8
    14a0:	01 90       	ld	r0, Z+
    14a2:	0d 92       	st	X+, r0
    14a4:	81 50       	subi	r24, 0x01	; 1
    14a6:	e1 f7       	brne	.-8      	; 0x14a0 <len+0x8a>
    14a8:	29 85       	ldd	r18, Y+9	; 0x09
    14aa:	3a 85       	ldd	r19, Y+10	; 0x0a
    14ac:	4b 85       	ldd	r20, Y+11	; 0x0b
    14ae:	5c 85       	ldd	r21, Y+12	; 0x0c
    14b0:	6d 85       	ldd	r22, Y+13	; 0x0d
    14b2:	7e 85       	ldd	r23, Y+14	; 0x0e
}
    14b4:	8f 85       	ldd	r24, Y+15	; 0x0f
    14b6:	98 89       	ldd	r25, Y+16	; 0x10
    14b8:	a0 96       	adiw	r28, 0x20	; 32
    14ba:	0f b6       	in	r0, 0x3f	; 63
    14bc:	f8 94       	cli
    14be:	de bf       	out	0x3e, r29	; 62
    14c0:	0f be       	out	0x3f, r0	; 63
    14c2:	cd bf       	out	0x3d, r28	; 61
    14c4:	cf 91       	pop	r28
    14c6:	df 91       	pop	r29
    14c8:	08 95       	ret

000014ca <cons>:

tOBJ cons(tCELLp p) // i.e. (cons  123 '(456)) => (123 456)
{
    14ca:	df 93       	push	r29
    14cc:	cf 93       	push	r28
    14ce:	cd b7       	in	r28, 0x3d	; 61
    14d0:	de b7       	in	r29, 0x3e	; 62
    14d2:	a0 97       	sbiw	r28, 0x20	; 32
    14d4:	0f b6       	in	r0, 0x3f	; 63
    14d6:	f8 94       	cli
    14d8:	de bf       	out	0x3e, r29	; 62
    14da:	0f be       	out	0x3f, r0	; 63
    14dc:	cd bf       	out	0x3d, r28	; 61
    14de:	fc 01       	movw	r30, r24
	tOBJ r ; r.type=EMPTY;
	tOBJ a = p->head;
    14e0:	9e 01       	movw	r18, r28
    14e2:	27 5f       	subi	r18, 0xF7	; 247
    14e4:	3f 4f       	sbci	r19, 0xFF	; 255
    14e6:	ac 01       	movw	r20, r24
    14e8:	88 e0       	ldi	r24, 0x08	; 8
    14ea:	da 01       	movw	r26, r20
    14ec:	0d 90       	ld	r0, X+
    14ee:	ad 01       	movw	r20, r26
    14f0:	d9 01       	movw	r26, r18
    14f2:	0d 92       	st	X+, r0
    14f4:	9d 01       	movw	r18, r26
    14f6:	81 50       	subi	r24, 0x01	; 1
    14f8:	c1 f7       	brne	.-16     	; 0x14ea <cons+0x20>
    14fa:	49 85       	ldd	r20, Y+9	; 0x09
    14fc:	5a 85       	ldd	r21, Y+10	; 0x0a
	tOBJ b = p->tail->head;
    14fe:	de 01       	movw	r26, r28
    1500:	51 96       	adiw	r26, 0x11	; 17
    1502:	80 85       	ldd	r24, Z+8	; 0x08
    1504:	91 85       	ldd	r25, Z+9	; 0x09
    1506:	9c 01       	movw	r18, r24
    1508:	f9 01       	movw	r30, r18
    150a:	88 e0       	ldi	r24, 0x08	; 8
    150c:	01 90       	ld	r0, Z+
    150e:	0d 92       	st	X+, r0
    1510:	81 50       	subi	r24, 0x01	; 1
    1512:	e1 f7       	brne	.-8      	; 0x150c <cons+0x42>
    1514:	89 89       	ldd	r24, Y+17	; 0x11
    1516:	9a 89       	ldd	r25, Y+18	; 0x12
	if (a.type ==CELL || b.type != CELL)
    1518:	47 30       	cpi	r20, 0x07	; 7
    151a:	51 05       	cpc	r21, r1
    151c:	b9 f1       	breq	.+110    	; 0x158c <cons+0xc2>
    151e:	07 97       	sbiw	r24, 0x07	; 7
    1520:	a9 f5       	brne	.+106    	; 0x158c <cons+0xc2>
int mem=0;
void printtype(tOBJ);

tCELLp newCell()
{
	if (mem<MEMSZ-1)
    1522:	20 91 64 05 	lds	r18, 0x0564
    1526:	30 91 65 05 	lds	r19, 0x0565
    152a:	23 36       	cpi	r18, 0x63	; 99
    152c:	31 05       	cpc	r19, r1
    152e:	1c f0       	brlt	.+6      	; 0x1536 <cons+0x6c>
    1530:	e0 e0       	ldi	r30, 0x00	; 0
    1532:	f0 e0       	ldi	r31, 0x00	; 0
    1534:	13 c0       	rjmp	.+38     	; 0x155c <cons+0x92>
	{
		return &memory[mem++];
    1536:	f9 01       	movw	r30, r18
    1538:	ee 0f       	add	r30, r30
    153a:	ff 1f       	adc	r31, r31
    153c:	c9 01       	movw	r24, r18
    153e:	a3 e0       	ldi	r26, 0x03	; 3
    1540:	88 0f       	add	r24, r24
    1542:	99 1f       	adc	r25, r25
    1544:	aa 95       	dec	r26
    1546:	e1 f7       	brne	.-8      	; 0x1540 <cons+0x76>
    1548:	e8 0f       	add	r30, r24
    154a:	f9 1f       	adc	r31, r25
    154c:	ef 5e       	subi	r30, 0xEF	; 239
    154e:	f9 4f       	sbci	r31, 0xF9	; 249
    1550:	2f 5f       	subi	r18, 0xFF	; 255
    1552:	3f 4f       	sbci	r19, 0xFF	; 255
    1554:	30 93 65 05 	sts	0x0565, r19
    1558:	20 93 64 05 	sts	0x0564, r18
		r.type=EMPTY; //error
	}
	else
	{
		tCELLp n = newCell();
		n->head=a;
    155c:	5a 87       	std	Y+10, r21	; 0x0a
    155e:	49 87       	std	Y+9, r20	; 0x09
    1560:	9f 01       	movw	r18, r30
    1562:	ae 01       	movw	r20, r28
    1564:	47 5f       	subi	r20, 0xF7	; 247
    1566:	5f 4f       	sbci	r21, 0xFF	; 255
    1568:	88 e0       	ldi	r24, 0x08	; 8
    156a:	da 01       	movw	r26, r20
    156c:	0d 90       	ld	r0, X+
    156e:	ad 01       	movw	r20, r26
    1570:	d9 01       	movw	r26, r18
    1572:	0d 92       	st	X+, r0
    1574:	9d 01       	movw	r18, r26
    1576:	81 50       	subi	r24, 0x01	; 1
    1578:	c1 f7       	brne	.-16     	; 0x156a <cons+0xa0>
		n->tail = (tCELLp)(b.cell);
    157a:	8d 89       	ldd	r24, Y+21	; 0x15
    157c:	9e 89       	ldd	r25, Y+22	; 0x16
    157e:	91 87       	std	Z+9, r25	; 0x09
    1580:	80 87       	std	Z+8, r24	; 0x08
		r.type = CELL;
		r.cell = n;
    1582:	fe 83       	std	Y+6, r31	; 0x06
    1584:	ed 83       	std	Y+5, r30	; 0x05
    1586:	87 e0       	ldi	r24, 0x07	; 7
    1588:	90 e0       	ldi	r25, 0x00	; 0
    158a:	02 c0       	rjmp	.+4      	; 0x1590 <cons+0xc6>
    158c:	88 e0       	ldi	r24, 0x08	; 8
    158e:	90 e0       	ldi	r25, 0x00	; 0
	}
	return r;
    1590:	9a 83       	std	Y+2, r25	; 0x02
    1592:	89 83       	std	Y+1, r24	; 0x01
    1594:	de 01       	movw	r26, r28
    1596:	59 96       	adiw	r26, 0x19	; 25
    1598:	fe 01       	movw	r30, r28
    159a:	31 96       	adiw	r30, 0x01	; 1
    159c:	88 e0       	ldi	r24, 0x08	; 8
    159e:	01 90       	ld	r0, Z+
    15a0:	0d 92       	st	X+, r0
    15a2:	81 50       	subi	r24, 0x01	; 1
    15a4:	e1 f7       	brne	.-8      	; 0x159e <cons+0xd4>
    15a6:	29 8d       	ldd	r18, Y+25	; 0x19
    15a8:	3a 8d       	ldd	r19, Y+26	; 0x1a
    15aa:	4b 8d       	ldd	r20, Y+27	; 0x1b
    15ac:	5c 8d       	ldd	r21, Y+28	; 0x1c
    15ae:	6d 8d       	ldd	r22, Y+29	; 0x1d
    15b0:	7e 8d       	ldd	r23, Y+30	; 0x1e
}
    15b2:	8f 8d       	ldd	r24, Y+31	; 0x1f
    15b4:	98 a1       	ldd	r25, Y+32	; 0x20
    15b6:	a0 96       	adiw	r28, 0x20	; 32
    15b8:	0f b6       	in	r0, 0x3f	; 63
    15ba:	f8 94       	cli
    15bc:	de bf       	out	0x3e, r29	; 62
    15be:	0f be       	out	0x3f, r0	; 63
    15c0:	cd bf       	out	0x3d, r28	; 61
    15c2:	cf 91       	pop	r28
    15c4:	df 91       	pop	r29
    15c6:	08 95       	ret

000015c8 <list>:

tOBJ list(tCELLp p) // i.e. (list 123 456) => (123 456)
{
    15c8:	df 93       	push	r29
    15ca:	cf 93       	push	r28
    15cc:	cd b7       	in	r28, 0x3d	; 61
    15ce:	de b7       	in	r29, 0x3e	; 62
    15d0:	60 97       	sbiw	r28, 0x10	; 16
    15d2:	0f b6       	in	r0, 0x3f	; 63
    15d4:	f8 94       	cli
    15d6:	de bf       	out	0x3e, r29	; 62
    15d8:	0f be       	out	0x3f, r0	; 63
    15da:	cd bf       	out	0x3d, r28	; 61
	tOBJ r ; r.type=CELL; 
	r.cell = p;
    15dc:	9e 83       	std	Y+6, r25	; 0x06
    15de:	8d 83       	std	Y+5, r24	; 0x05
	return r;
    15e0:	87 e0       	ldi	r24, 0x07	; 7
    15e2:	90 e0       	ldi	r25, 0x00	; 0
    15e4:	9a 83       	std	Y+2, r25	; 0x02
    15e6:	89 83       	std	Y+1, r24	; 0x01
    15e8:	de 01       	movw	r26, r28
    15ea:	19 96       	adiw	r26, 0x09	; 9
    15ec:	fe 01       	movw	r30, r28
    15ee:	31 96       	adiw	r30, 0x01	; 1
    15f0:	88 e0       	ldi	r24, 0x08	; 8
    15f2:	01 90       	ld	r0, Z+
    15f4:	0d 92       	st	X+, r0
    15f6:	81 50       	subi	r24, 0x01	; 1
    15f8:	e1 f7       	brne	.-8      	; 0x15f2 <list+0x2a>
    15fa:	29 85       	ldd	r18, Y+9	; 0x09
    15fc:	3a 85       	ldd	r19, Y+10	; 0x0a
    15fe:	4b 85       	ldd	r20, Y+11	; 0x0b
    1600:	5c 85       	ldd	r21, Y+12	; 0x0c
    1602:	6d 85       	ldd	r22, Y+13	; 0x0d
    1604:	7e 85       	ldd	r23, Y+14	; 0x0e
}
    1606:	8f 85       	ldd	r24, Y+15	; 0x0f
    1608:	98 89       	ldd	r25, Y+16	; 0x10
    160a:	60 96       	adiw	r28, 0x10	; 16
    160c:	0f b6       	in	r0, 0x3f	; 63
    160e:	f8 94       	cli
    1610:	de bf       	out	0x3e, r29	; 62
    1612:	0f be       	out	0x3f, r0	; 63
    1614:	cd bf       	out	0x3d, r28	; 61
    1616:	cf 91       	pop	r28
    1618:	df 91       	pop	r29
    161a:	08 95       	ret

0000161c <plus>:

tOBJ plus(tCELLp p) // i.e. (plus 123 456) => 597
{
    161c:	0f 93       	push	r16
    161e:	1f 93       	push	r17
    1620:	df 93       	push	r29
    1622:	cf 93       	push	r28
    1624:	cd b7       	in	r28, 0x3d	; 61
    1626:	de b7       	in	r29, 0x3e	; 62
    1628:	a0 97       	sbiw	r28, 0x20	; 32
    162a:	0f b6       	in	r0, 0x3f	; 63
    162c:	f8 94       	cli
    162e:	de bf       	out	0x3e, r29	; 62
    1630:	0f be       	out	0x3f, r0	; 63
    1632:	cd bf       	out	0x3d, r28	; 61
    1634:	fc 01       	movw	r30, r24
	tOBJ r;
	r.type=INT;
	r.number=0;
	
	int n=0;
	if (p->head.type == INT)
    1636:	80 81       	ld	r24, Z
    1638:	91 81       	ldd	r25, Z+1	; 0x01
    163a:	01 97       	sbiw	r24, 0x01	; 1
    163c:	19 f0       	breq	.+6      	; 0x1644 <plus+0x28>
    163e:	80 e0       	ldi	r24, 0x00	; 0
    1640:	90 e0       	ldi	r25, 0x00	; 0
    1642:	1b c0       	rjmp	.+54     	; 0x167a <plus+0x5e>
	{
		n = p->head.number + plus(p->tail).number;
    1644:	04 81       	ldd	r16, Z+4	; 0x04
    1646:	15 81       	ldd	r17, Z+5	; 0x05
    1648:	80 85       	ldd	r24, Z+8	; 0x08
    164a:	91 85       	ldd	r25, Z+9	; 0x09
    164c:	0e 94 0e 0b 	call	0x161c	; 0x161c <plus>
    1650:	29 8f       	std	Y+25, r18	; 0x19
    1652:	3a 8f       	std	Y+26, r19	; 0x1a
    1654:	4b 8f       	std	Y+27, r20	; 0x1b
    1656:	5c 8f       	std	Y+28, r21	; 0x1c
    1658:	6d 8f       	std	Y+29, r22	; 0x1d
    165a:	7e 8f       	std	Y+30, r23	; 0x1e
    165c:	8f 8f       	std	Y+31, r24	; 0x1f
    165e:	98 a3       	std	Y+32, r25	; 0x20
    1660:	de 01       	movw	r26, r28
    1662:	19 96       	adiw	r26, 0x09	; 9
    1664:	fe 01       	movw	r30, r28
    1666:	79 96       	adiw	r30, 0x19	; 25
    1668:	88 e0       	ldi	r24, 0x08	; 8
    166a:	01 90       	ld	r0, Z+
    166c:	0d 92       	st	X+, r0
    166e:	81 50       	subi	r24, 0x01	; 1
    1670:	e1 f7       	brne	.-8      	; 0x166a <plus+0x4e>
    1672:	8d 85       	ldd	r24, Y+13	; 0x0d
    1674:	9e 85       	ldd	r25, Y+14	; 0x0e
    1676:	80 0f       	add	r24, r16
    1678:	91 1f       	adc	r25, r17
	}
	r.number=n;
    167a:	9e 83       	std	Y+6, r25	; 0x06
    167c:	8d 83       	std	Y+5, r24	; 0x05
	return r;
    167e:	81 e0       	ldi	r24, 0x01	; 1
    1680:	90 e0       	ldi	r25, 0x00	; 0
    1682:	9a 83       	std	Y+2, r25	; 0x02
    1684:	89 83       	std	Y+1, r24	; 0x01
    1686:	de 01       	movw	r26, r28
    1688:	51 96       	adiw	r26, 0x11	; 17
    168a:	fe 01       	movw	r30, r28
    168c:	31 96       	adiw	r30, 0x01	; 1
    168e:	88 e0       	ldi	r24, 0x08	; 8
    1690:	01 90       	ld	r0, Z+
    1692:	0d 92       	st	X+, r0
    1694:	81 50       	subi	r24, 0x01	; 1
    1696:	e1 f7       	brne	.-8      	; 0x1690 <plus+0x74>
    1698:	29 89       	ldd	r18, Y+17	; 0x11
    169a:	3a 89       	ldd	r19, Y+18	; 0x12
    169c:	4b 89       	ldd	r20, Y+19	; 0x13
    169e:	5c 89       	ldd	r21, Y+20	; 0x14
    16a0:	6d 89       	ldd	r22, Y+21	; 0x15
    16a2:	7e 89       	ldd	r23, Y+22	; 0x16
}
    16a4:	8f 89       	ldd	r24, Y+23	; 0x17
    16a6:	98 8d       	ldd	r25, Y+24	; 0x18
    16a8:	a0 96       	adiw	r28, 0x20	; 32
    16aa:	0f b6       	in	r0, 0x3f	; 63
    16ac:	f8 94       	cli
    16ae:	de bf       	out	0x3e, r29	; 62
    16b0:	0f be       	out	0x3f, r0	; 63
    16b2:	cd bf       	out	0x3d, r28	; 61
    16b4:	cf 91       	pop	r28
    16b6:	df 91       	pop	r29
    16b8:	1f 91       	pop	r17
    16ba:	0f 91       	pop	r16
    16bc:	08 95       	ret

000016be <clone>:
	return r;
}


tCELLp clone(tCELLp p)  //(clone 1 2 '(3))-> (1 2 (3))
{
    16be:	ef 92       	push	r14
    16c0:	ff 92       	push	r15
    16c2:	0f 93       	push	r16
    16c4:	1f 93       	push	r17
    16c6:	cf 93       	push	r28
    16c8:	df 93       	push	r29
    16ca:	8c 01       	movw	r16, r24
	tCELLp n;	
	tCELLp t=null;
	tCELLp r=null;
	
	if (p==null) return null;
    16cc:	00 97       	sbiw	r24, 0x00	; 0
    16ce:	19 f4       	brne	.+6      	; 0x16d6 <clone+0x18>
    16d0:	ee 24       	eor	r14, r14
    16d2:	ff 24       	eor	r15, r15
    16d4:	43 c0       	rjmp	.+134    	; 0x175c <clone+0x9e>
    16d6:	e0 e0       	ldi	r30, 0x00	; 0
    16d8:	f0 e0       	ldi	r31, 0x00	; 0
    16da:	ee 24       	eor	r14, r14
    16dc:	ff 24       	eor	r15, r15
int mem=0;
void printtype(tOBJ);

tCELLp newCell()
{
	if (mem<MEMSZ-1)
    16de:	20 91 64 05 	lds	r18, 0x0564
    16e2:	30 91 65 05 	lds	r19, 0x0565
    16e6:	23 36       	cpi	r18, 0x63	; 99
    16e8:	31 05       	cpc	r19, r1
    16ea:	1c f0       	brlt	.+6      	; 0x16f2 <clone+0x34>
    16ec:	c0 e0       	ldi	r28, 0x00	; 0
    16ee:	d0 e0       	ldi	r29, 0x00	; 0
    16f0:	13 c0       	rjmp	.+38     	; 0x1718 <clone+0x5a>
	{
		return &memory[mem++];
    16f2:	e9 01       	movw	r28, r18
    16f4:	cc 0f       	add	r28, r28
    16f6:	dd 1f       	adc	r29, r29
    16f8:	c9 01       	movw	r24, r18
    16fa:	43 e0       	ldi	r20, 0x03	; 3
    16fc:	88 0f       	add	r24, r24
    16fe:	99 1f       	adc	r25, r25
    1700:	4a 95       	dec	r20
    1702:	e1 f7       	brne	.-8      	; 0x16fc <clone+0x3e>
    1704:	c8 0f       	add	r28, r24
    1706:	d9 1f       	adc	r29, r25
    1708:	cf 5e       	subi	r28, 0xEF	; 239
    170a:	d9 4f       	sbci	r29, 0xF9	; 249
    170c:	2f 5f       	subi	r18, 0xFF	; 255
    170e:	3f 4f       	sbci	r19, 0xFF	; 255
    1710:	30 93 65 05 	sts	0x0565, r19
    1714:	20 93 64 05 	sts	0x0564, r18
	if (p==null) return null;
	
	while (p != null)
	{
		n = newCell();
		if (r == null) r=n;
    1718:	e1 14       	cp	r14, r1
    171a:	f1 04       	cpc	r15, r1
    171c:	09 f4       	brne	.+2      	; 0x1720 <clone+0x62>
    171e:	7e 01       	movw	r14, r28
		if (t != null) t->tail=n;
    1720:	30 97       	sbiw	r30, 0x00	; 0
    1722:	11 f0       	breq	.+4      	; 0x1728 <clone+0x6a>
    1724:	d1 87       	std	Z+9, r29	; 0x09
    1726:	c0 87       	std	Z+8, r28	; 0x08
		n->head = p->head;
    1728:	de 01       	movw	r26, r28
    172a:	f8 01       	movw	r30, r16
    172c:	88 e0       	ldi	r24, 0x08	; 8
    172e:	01 90       	ld	r0, Z+
    1730:	0d 92       	st	X+, r0
    1732:	81 50       	subi	r24, 0x01	; 1
    1734:	e1 f7       	brne	.-8      	; 0x172e <clone+0x70>
		if (p->head.type == CELL)
    1736:	f8 01       	movw	r30, r16
    1738:	80 81       	ld	r24, Z
    173a:	91 81       	ldd	r25, Z+1	; 0x01
    173c:	07 97       	sbiw	r24, 0x07	; 7
    173e:	31 f4       	brne	.+12     	; 0x174c <clone+0x8e>
		{
			n->head.cell = clone((tCELLp)(p->head.cell));
    1740:	84 81       	ldd	r24, Z+4	; 0x04
    1742:	95 81       	ldd	r25, Z+5	; 0x05
    1744:	0e 94 5f 0b 	call	0x16be	; 0x16be <clone>
    1748:	9d 83       	std	Y+5, r25	; 0x05
    174a:	8c 83       	std	Y+4, r24	; 0x04
		}
		p=p->tail;
    174c:	f8 01       	movw	r30, r16
    174e:	00 85       	ldd	r16, Z+8	; 0x08
    1750:	11 85       	ldd	r17, Z+9	; 0x09
    1752:	fe 01       	movw	r30, r28
	tCELLp t=null;
	tCELLp r=null;
	
	if (p==null) return null;
	
	while (p != null)
    1754:	01 15       	cp	r16, r1
    1756:	11 05       	cpc	r17, r1
    1758:	09 f0       	breq	.+2      	; 0x175c <clone+0x9e>
    175a:	c1 cf       	rjmp	.-126    	; 0x16de <clone+0x20>
		}
		p=p->tail;
		t=n;
	}
	return r;
}
    175c:	c7 01       	movw	r24, r14
    175e:	df 91       	pop	r29
    1760:	cf 91       	pop	r28
    1762:	1f 91       	pop	r17
    1764:	0f 91       	pop	r16
    1766:	ff 90       	pop	r15
    1768:	ef 90       	pop	r14
    176a:	08 95       	ret

0000176c <cclone>:

tOBJ cclone(tCELLp p)
{
    176c:	df 93       	push	r29
    176e:	cf 93       	push	r28
    1770:	cd b7       	in	r28, 0x3d	; 61
    1772:	de b7       	in	r29, 0x3e	; 62
    1774:	60 97       	sbiw	r28, 0x10	; 16
    1776:	0f b6       	in	r0, 0x3f	; 63
    1778:	f8 94       	cli
    177a:	de bf       	out	0x3e, r29	; 62
    177c:	0f be       	out	0x3f, r0	; 63
    177e:	cd bf       	out	0x3d, r28	; 61
	tOBJ r; r.type=CELL;
	r.cell=clone(p);
    1780:	0e 94 5f 0b 	call	0x16be	; 0x16be <clone>
    1784:	9e 83       	std	Y+6, r25	; 0x06
    1786:	8d 83       	std	Y+5, r24	; 0x05
	return r;
    1788:	87 e0       	ldi	r24, 0x07	; 7
    178a:	90 e0       	ldi	r25, 0x00	; 0
    178c:	9a 83       	std	Y+2, r25	; 0x02
    178e:	89 83       	std	Y+1, r24	; 0x01
    1790:	de 01       	movw	r26, r28
    1792:	19 96       	adiw	r26, 0x09	; 9
    1794:	fe 01       	movw	r30, r28
    1796:	31 96       	adiw	r30, 0x01	; 1
    1798:	88 e0       	ldi	r24, 0x08	; 8
    179a:	01 90       	ld	r0, Z+
    179c:	0d 92       	st	X+, r0
    179e:	81 50       	subi	r24, 0x01	; 1
    17a0:	e1 f7       	brne	.-8      	; 0x179a <cclone+0x2e>
    17a2:	29 85       	ldd	r18, Y+9	; 0x09
    17a4:	3a 85       	ldd	r19, Y+10	; 0x0a
    17a6:	4b 85       	ldd	r20, Y+11	; 0x0b
    17a8:	5c 85       	ldd	r21, Y+12	; 0x0c
    17aa:	6d 85       	ldd	r22, Y+13	; 0x0d
    17ac:	7e 85       	ldd	r23, Y+14	; 0x0e
}
    17ae:	8f 85       	ldd	r24, Y+15	; 0x0f
    17b0:	98 89       	ldd	r25, Y+16	; 0x10
    17b2:	60 96       	adiw	r28, 0x10	; 16
    17b4:	0f b6       	in	r0, 0x3f	; 63
    17b6:	f8 94       	cli
    17b8:	de bf       	out	0x3e, r29	; 62
    17ba:	0f be       	out	0x3f, r0	; 63
    17bc:	cd bf       	out	0x3d, r28	; 61
    17be:	cf 91       	pop	r28
    17c0:	df 91       	pop	r29
    17c2:	08 95       	ret

000017c4 <oclone>:

tOBJ oclone(tOBJ o)
{
    17c4:	0f 93       	push	r16
    17c6:	1f 93       	push	r17
    17c8:	df 93       	push	r29
    17ca:	cf 93       	push	r28
    17cc:	cd b7       	in	r28, 0x3d	; 61
    17ce:	de b7       	in	r29, 0x3e	; 62
    17d0:	68 97       	sbiw	r28, 0x18	; 24
    17d2:	0f b6       	in	r0, 0x3f	; 63
    17d4:	f8 94       	cli
    17d6:	de bf       	out	0x3e, r29	; 62
    17d8:	0f be       	out	0x3f, r0	; 63
    17da:	cd bf       	out	0x3d, r28	; 61
    17dc:	29 87       	std	Y+9, r18	; 0x09
    17de:	3a 87       	std	Y+10, r19	; 0x0a
    17e0:	4b 87       	std	Y+11, r20	; 0x0b
    17e2:	5c 87       	std	Y+12, r21	; 0x0c
    17e4:	6d 87       	std	Y+13, r22	; 0x0d
    17e6:	7e 87       	std	Y+14, r23	; 0x0e
    17e8:	8f 87       	std	Y+15, r24	; 0x0f
    17ea:	98 8b       	std	Y+16, r25	; 0x10
    17ec:	89 85       	ldd	r24, Y+9	; 0x09
    17ee:	9a 85       	ldd	r25, Y+10	; 0x0a
    17f0:	8e 01       	movw	r16, r28
    17f2:	0f 5f       	subi	r16, 0xFF	; 255
    17f4:	1f 4f       	sbci	r17, 0xFF	; 255
	if (o.type == CELL)
    17f6:	87 30       	cpi	r24, 0x07	; 7
    17f8:	91 05       	cpc	r25, r1
    17fa:	a9 f4       	brne	.+42     	; 0x1826 <oclone+0x62>
		return cclone(o.cell);
    17fc:	8d 85       	ldd	r24, Y+13	; 0x0d
    17fe:	9e 85       	ldd	r25, Y+14	; 0x0e
    1800:	0e 94 b6 0b 	call	0x176c	; 0x176c <cclone>
    1804:	29 8b       	std	Y+17, r18	; 0x11
    1806:	3a 8b       	std	Y+18, r19	; 0x12
    1808:	4b 8b       	std	Y+19, r20	; 0x13
    180a:	5c 8b       	std	Y+20, r21	; 0x14
    180c:	6d 8b       	std	Y+21, r22	; 0x15
    180e:	7e 8b       	std	Y+22, r23	; 0x16
    1810:	8f 8b       	std	Y+23, r24	; 0x17
    1812:	98 8f       	std	Y+24, r25	; 0x18
    1814:	d8 01       	movw	r26, r16
    1816:	fe 01       	movw	r30, r28
    1818:	71 96       	adiw	r30, 0x11	; 17
    181a:	88 e0       	ldi	r24, 0x08	; 8
    181c:	01 90       	ld	r0, Z+
    181e:	0d 92       	st	X+, r0
    1820:	81 50       	subi	r24, 0x01	; 1
    1822:	e1 f7       	brne	.-8      	; 0x181c <oclone+0x58>
    1824:	0a c0       	rjmp	.+20     	; 0x183a <oclone+0x76>
	return o;
    1826:	9a 87       	std	Y+10, r25	; 0x0a
    1828:	89 87       	std	Y+9, r24	; 0x09
    182a:	d8 01       	movw	r26, r16
    182c:	fe 01       	movw	r30, r28
    182e:	39 96       	adiw	r30, 0x09	; 9
    1830:	88 e0       	ldi	r24, 0x08	; 8
    1832:	01 90       	ld	r0, Z+
    1834:	0d 92       	st	X+, r0
    1836:	81 50       	subi	r24, 0x01	; 1
    1838:	e1 f7       	brne	.-8      	; 0x1832 <oclone+0x6e>
    183a:	29 81       	ldd	r18, Y+1	; 0x01
    183c:	3a 81       	ldd	r19, Y+2	; 0x02
    183e:	4b 81       	ldd	r20, Y+3	; 0x03
    1840:	5c 81       	ldd	r21, Y+4	; 0x04
    1842:	6d 81       	ldd	r22, Y+5	; 0x05
    1844:	7e 81       	ldd	r23, Y+6	; 0x06
}
    1846:	8f 81       	ldd	r24, Y+7	; 0x07
    1848:	98 85       	ldd	r25, Y+8	; 0x08
    184a:	68 96       	adiw	r28, 0x18	; 24
    184c:	0f b6       	in	r0, 0x3f	; 63
    184e:	f8 94       	cli
    1850:	de bf       	out	0x3e, r29	; 62
    1852:	0f be       	out	0x3f, r0	; 63
    1854:	cd bf       	out	0x3d, r28	; 61
    1856:	cf 91       	pop	r28
    1858:	df 91       	pop	r29
    185a:	1f 91       	pop	r17
    185c:	0f 91       	pop	r16
    185e:	08 95       	ret

00001860 <prog>:
	}
	return r;
}

tOBJ prog(tCELLp p)   // i.e. (do (prn "hello") (prn "world") -> "hello")
{
    1860:	df 93       	push	r29
    1862:	cf 93       	push	r28
    1864:	cd b7       	in	r28, 0x3d	; 61
    1866:	de b7       	in	r29, 0x3e	; 62
    1868:	60 97       	sbiw	r28, 0x10	; 16
    186a:	0f b6       	in	r0, 0x3f	; 63
    186c:	f8 94       	cli
    186e:	de bf       	out	0x3e, r29	; 62
    1870:	0f be       	out	0x3f, r0	; 63
    1872:	cd bf       	out	0x3d, r28	; 61
	tOBJ r; r.type=EMPTY;
	if (p != null)
    1874:	00 97       	sbiw	r24, 0x00	; 0
    1876:	19 f4       	brne	.+6      	; 0x187e <prog+0x1e>
    1878:	28 e0       	ldi	r18, 0x08	; 8
    187a:	30 e0       	ldi	r19, 0x00	; 0
    187c:	0b c0       	rjmp	.+22     	; 0x1894 <prog+0x34>
		r= p->head;
    187e:	de 01       	movw	r26, r28
    1880:	11 96       	adiw	r26, 0x01	; 1
    1882:	fc 01       	movw	r30, r24
    1884:	88 e0       	ldi	r24, 0x08	; 8
    1886:	01 90       	ld	r0, Z+
    1888:	0d 92       	st	X+, r0
    188a:	81 50       	subi	r24, 0x01	; 1
    188c:	e1 f7       	brne	.-8      	; 0x1886 <prog+0x26>
    188e:	89 81       	ldd	r24, Y+1	; 0x01
    1890:	9a 81       	ldd	r25, Y+2	; 0x02
    1892:	9c 01       	movw	r18, r24
	return r;
    1894:	3a 83       	std	Y+2, r19	; 0x02
    1896:	29 83       	std	Y+1, r18	; 0x01
    1898:	de 01       	movw	r26, r28
    189a:	19 96       	adiw	r26, 0x09	; 9
    189c:	fe 01       	movw	r30, r28
    189e:	31 96       	adiw	r30, 0x01	; 1
    18a0:	88 e0       	ldi	r24, 0x08	; 8
    18a2:	01 90       	ld	r0, Z+
    18a4:	0d 92       	st	X+, r0
    18a6:	81 50       	subi	r24, 0x01	; 1
    18a8:	e1 f7       	brne	.-8      	; 0x18a2 <prog+0x42>
    18aa:	29 85       	ldd	r18, Y+9	; 0x09
    18ac:	3a 85       	ldd	r19, Y+10	; 0x0a
    18ae:	4b 85       	ldd	r20, Y+11	; 0x0b
    18b0:	5c 85       	ldd	r21, Y+12	; 0x0c
    18b2:	6d 85       	ldd	r22, Y+13	; 0x0d
    18b4:	7e 85       	ldd	r23, Y+14	; 0x0e
}
    18b6:	8f 85       	ldd	r24, Y+15	; 0x0f
    18b8:	98 89       	ldd	r25, Y+16	; 0x10
    18ba:	60 96       	adiw	r28, 0x10	; 16
    18bc:	0f b6       	in	r0, 0x3f	; 63
    18be:	f8 94       	cli
    18c0:	de bf       	out	0x3e, r29	; 62
    18c2:	0f be       	out	0x3f, r0	; 63
    18c4:	cd bf       	out	0x3d, r28	; 61
    18c6:	cf 91       	pop	r28
    18c8:	df 91       	pop	r29
    18ca:	08 95       	ret

000018cc <progn>:

tOBJ progn(tCELLp p)   // i.e. (do (prn "hello") (prn "world") -> "world")
{
    18cc:	df 93       	push	r29
    18ce:	cf 93       	push	r28
    18d0:	cd b7       	in	r28, 0x3d	; 61
    18d2:	de b7       	in	r29, 0x3e	; 62
    18d4:	60 97       	sbiw	r28, 0x10	; 16
    18d6:	0f b6       	in	r0, 0x3f	; 63
    18d8:	f8 94       	cli
    18da:	de bf       	out	0x3e, r29	; 62
    18dc:	0f be       	out	0x3f, r0	; 63
    18de:	cd bf       	out	0x3d, r28	; 61
    18e0:	fc 01       	movw	r30, r24
    18e2:	88 e0       	ldi	r24, 0x08	; 8
    18e4:	90 e0       	ldi	r25, 0x00	; 0
    18e6:	ae 01       	movw	r20, r28
    18e8:	4f 5f       	subi	r20, 0xFF	; 255
    18ea:	5f 4f       	sbci	r21, 0xFF	; 255
    18ec:	10 c0       	rjmp	.+32     	; 0x190e <progn+0x42>
	tOBJ r; r.type=EMPTY;
	while (p != null)
	{
		r=p->head;
    18ee:	9a 01       	movw	r18, r20
    18f0:	bf 01       	movw	r22, r30
    18f2:	88 e0       	ldi	r24, 0x08	; 8
    18f4:	db 01       	movw	r26, r22
    18f6:	0d 90       	ld	r0, X+
    18f8:	bd 01       	movw	r22, r26
    18fa:	d9 01       	movw	r26, r18
    18fc:	0d 92       	st	X+, r0
    18fe:	9d 01       	movw	r18, r26
    1900:	81 50       	subi	r24, 0x01	; 1
    1902:	c1 f7       	brne	.-16     	; 0x18f4 <progn+0x28>
		p=p->tail;
    1904:	00 84       	ldd	r0, Z+8	; 0x08
    1906:	f1 85       	ldd	r31, Z+9	; 0x09
    1908:	e0 2d       	mov	r30, r0
    190a:	89 81       	ldd	r24, Y+1	; 0x01
    190c:	9a 81       	ldd	r25, Y+2	; 0x02
}

tOBJ progn(tCELLp p)   // i.e. (do (prn "hello") (prn "world") -> "world")
{
	tOBJ r; r.type=EMPTY;
	while (p != null)
    190e:	30 97       	sbiw	r30, 0x00	; 0
    1910:	71 f7       	brne	.-36     	; 0x18ee <progn+0x22>
	{
		r=p->head;
		p=p->tail;
	}
	return r;
    1912:	9a 83       	std	Y+2, r25	; 0x02
    1914:	89 83       	std	Y+1, r24	; 0x01
    1916:	de 01       	movw	r26, r28
    1918:	19 96       	adiw	r26, 0x09	; 9
    191a:	fa 01       	movw	r30, r20
    191c:	88 e0       	ldi	r24, 0x08	; 8
    191e:	01 90       	ld	r0, Z+
    1920:	0d 92       	st	X+, r0
    1922:	81 50       	subi	r24, 0x01	; 1
    1924:	e1 f7       	brne	.-8      	; 0x191e <progn+0x52>
    1926:	29 85       	ldd	r18, Y+9	; 0x09
    1928:	3a 85       	ldd	r19, Y+10	; 0x0a
    192a:	4b 85       	ldd	r20, Y+11	; 0x0b
    192c:	5c 85       	ldd	r21, Y+12	; 0x0c
    192e:	6d 85       	ldd	r22, Y+13	; 0x0d
    1930:	7e 85       	ldd	r23, Y+14	; 0x0e
}
    1932:	8f 85       	ldd	r24, Y+15	; 0x0f
    1934:	98 89       	ldd	r25, Y+16	; 0x10
    1936:	60 96       	adiw	r28, 0x10	; 16
    1938:	0f b6       	in	r0, 0x3f	; 63
    193a:	f8 94       	cli
    193c:	de bf       	out	0x3e, r29	; 62
    193e:	0f be       	out	0x3f, r0	; 63
    1940:	cd bf       	out	0x3d, r28	; 61
    1942:	cf 91       	pop	r28
    1944:	df 91       	pop	r29
    1946:	08 95       	ret

00001948 <readIR>:

//define ir.c
extern int irGetByte(void);

tOBJ readIR(tCELLp p)   
{
    1948:	df 93       	push	r29
    194a:	cf 93       	push	r28
    194c:	cd b7       	in	r28, 0x3d	; 61
    194e:	de b7       	in	r29, 0x3e	; 62
    1950:	60 97       	sbiw	r28, 0x10	; 16
    1952:	0f b6       	in	r0, 0x3f	; 63
    1954:	f8 94       	cli
    1956:	de bf       	out	0x3e, r29	; 62
    1958:	0f be       	out	0x3f, r0	; 63
    195a:	cd bf       	out	0x3d, r28	; 61
	tOBJ r; r.type = INT;
	r.number = irGetByte();
    195c:	0e 94 8b 20 	call	0x4116	; 0x4116 <irGetByte>
    1960:	9e 83       	std	Y+6, r25	; 0x06
    1962:	8d 83       	std	Y+5, r24	; 0x05
	return r;
    1964:	81 e0       	ldi	r24, 0x01	; 1
    1966:	90 e0       	ldi	r25, 0x00	; 0
    1968:	9a 83       	std	Y+2, r25	; 0x02
    196a:	89 83       	std	Y+1, r24	; 0x01
    196c:	de 01       	movw	r26, r28
    196e:	19 96       	adiw	r26, 0x09	; 9
    1970:	fe 01       	movw	r30, r28
    1972:	31 96       	adiw	r30, 0x01	; 1
    1974:	88 e0       	ldi	r24, 0x08	; 8
    1976:	01 90       	ld	r0, Z+
    1978:	0d 92       	st	X+, r0
    197a:	81 50       	subi	r24, 0x01	; 1
    197c:	e1 f7       	brne	.-8      	; 0x1976 <readIR+0x2e>
    197e:	29 85       	ldd	r18, Y+9	; 0x09
    1980:	3a 85       	ldd	r19, Y+10	; 0x0a
    1982:	4b 85       	ldd	r20, Y+11	; 0x0b
    1984:	5c 85       	ldd	r21, Y+12	; 0x0c
    1986:	6d 85       	ldd	r22, Y+13	; 0x0d
    1988:	7e 85       	ldd	r23, Y+14	; 0x0e
}
    198a:	8f 85       	ldd	r24, Y+15	; 0x0f
    198c:	98 89       	ldd	r25, Y+16	; 0x10
    198e:	60 96       	adiw	r28, 0x10	; 16
    1990:	0f b6       	in	r0, 0x3f	; 63
    1992:	f8 94       	cli
    1994:	de bf       	out	0x3e, r29	; 62
    1996:	0f be       	out	0x3f, r0	; 63
    1998:	cd bf       	out	0x3d, r28	; 61
    199a:	cf 91       	pop	r28
    199c:	df 91       	pop	r29
    199e:	08 95       	ret

000019a0 <sleep>:
	r.number=gticks;
	return r;
}

tOBJ sleep(tCELLp p)   // i.e.(sleep 500) 
{
    19a0:	df 93       	push	r29
    19a2:	cf 93       	push	r28
    19a4:	cd b7       	in	r28, 0x3d	; 61
    19a6:	de b7       	in	r29, 0x3e	; 62
    19a8:	60 97       	sbiw	r28, 0x10	; 16
    19aa:	0f b6       	in	r0, 0x3f	; 63
    19ac:	f8 94       	cli
    19ae:	de bf       	out	0x3e, r29	; 62
    19b0:	0f be       	out	0x3f, r0	; 63
    19b2:	cd bf       	out	0x3d, r28	; 61
    19b4:	fc 01       	movw	r30, r24
	tOBJ r; r.type=EMPTY;
	
	if (p->head.type == INT)
    19b6:	80 81       	ld	r24, Z
    19b8:	91 81       	ldd	r25, Z+1	; 0x01
    19ba:	01 97       	sbiw	r24, 0x01	; 1
    19bc:	21 f4       	brne	.+8      	; 0x19c6 <sleep+0x26>
	{
		delay_ms(p->head.number);
    19be:	84 81       	ldd	r24, Z+4	; 0x04
    19c0:	95 81       	ldd	r25, Z+5	; 0x05
    19c2:	0e 94 ef 04 	call	0x9de	; 0x9de <delay_ms>
	}
	return r;
    19c6:	88 e0       	ldi	r24, 0x08	; 8
    19c8:	90 e0       	ldi	r25, 0x00	; 0
    19ca:	9a 83       	std	Y+2, r25	; 0x02
    19cc:	89 83       	std	Y+1, r24	; 0x01
    19ce:	de 01       	movw	r26, r28
    19d0:	19 96       	adiw	r26, 0x09	; 9
    19d2:	fe 01       	movw	r30, r28
    19d4:	31 96       	adiw	r30, 0x01	; 1
    19d6:	88 e0       	ldi	r24, 0x08	; 8
    19d8:	01 90       	ld	r0, Z+
    19da:	0d 92       	st	X+, r0
    19dc:	81 50       	subi	r24, 0x01	; 1
    19de:	e1 f7       	brne	.-8      	; 0x19d8 <sleep+0x38>
    19e0:	29 85       	ldd	r18, Y+9	; 0x09
    19e2:	3a 85       	ldd	r19, Y+10	; 0x0a
    19e4:	4b 85       	ldd	r20, Y+11	; 0x0b
    19e6:	5c 85       	ldd	r21, Y+12	; 0x0c
    19e8:	6d 85       	ldd	r22, Y+13	; 0x0d
    19ea:	7e 85       	ldd	r23, Y+14	; 0x0e
}
    19ec:	8f 85       	ldd	r24, Y+15	; 0x0f
    19ee:	98 89       	ldd	r25, Y+16	; 0x10
    19f0:	60 96       	adiw	r28, 0x10	; 16
    19f2:	0f b6       	in	r0, 0x3f	; 63
    19f4:	f8 94       	cli
    19f6:	de bf       	out	0x3e, r29	; 62
    19f8:	0f be       	out	0x3f, r0	; 63
    19fa:	cd bf       	out	0x3d, r28	; 61
    19fc:	cf 91       	pop	r28
    19fe:	df 91       	pop	r29
    1a00:	08 95       	ret

00001a02 <add>:
	}
	return r;
}

int add(char *n, tOBJ v)
{
    1a02:	af 92       	push	r10
    1a04:	bf 92       	push	r11
    1a06:	cf 92       	push	r12
    1a08:	df 92       	push	r13
    1a0a:	ef 92       	push	r14
    1a0c:	ff 92       	push	r15
    1a0e:	0f 93       	push	r16
    1a10:	1f 93       	push	r17
    1a12:	df 93       	push	r29
    1a14:	cf 93       	push	r28
    1a16:	cd b7       	in	r28, 0x3d	; 61
    1a18:	de b7       	in	r29, 0x3e	; 62
    1a1a:	28 97       	sbiw	r28, 0x08	; 8
    1a1c:	0f b6       	in	r0, 0x3f	; 63
    1a1e:	f8 94       	cli
    1a20:	de bf       	out	0x3e, r29	; 62
    1a22:	0f be       	out	0x3f, r0	; 63
    1a24:	cd bf       	out	0x3d, r28	; 61
    1a26:	5c 01       	movw	r10, r24
    1a28:	09 83       	std	Y+1, r16	; 0x01
    1a2a:	1a 83       	std	Y+2, r17	; 0x02
    1a2c:	2b 83       	std	Y+3, r18	; 0x03
    1a2e:	3c 83       	std	Y+4, r19	; 0x04
    1a30:	4d 83       	std	Y+5, r20	; 0x05
    1a32:	5e 83       	std	Y+6, r21	; 0x06
    1a34:	6f 83       	std	Y+7, r22	; 0x07
    1a36:	78 87       	std	Y+8, r23	; 0x08
	int i=0;
	
	//printstr("Add "); printstr(n); printstr("-"); printint(v.type); printline(""); 	//DEBUG
	for (i=0; i<symCnt; i++)
    1a38:	e0 90 66 05 	lds	r14, 0x0566
    1a3c:	f0 90 67 05 	lds	r15, 0x0567
    1a40:	2d ea       	ldi	r18, 0xAD	; 173
    1a42:	c2 2e       	mov	r12, r18
    1a44:	25 e0       	ldi	r18, 0x05	; 5
    1a46:	d2 2e       	mov	r13, r18
    1a48:	00 e0       	ldi	r16, 0x00	; 0
    1a4a:	10 e0       	ldi	r17, 0x00	; 0
    1a4c:	22 c0       	rjmp	.+68     	; 0x1a92 <add+0x90>
	{
		if (strcmp(n,symb_tab[i].name)==0)
    1a4e:	f6 01       	movw	r30, r12
    1a50:	60 81       	ld	r22, Z
    1a52:	71 81       	ldd	r23, Z+1	; 0x01
    1a54:	c5 01       	movw	r24, r10
    1a56:	0e 94 51 26 	call	0x4ca2	; 0x4ca2 <strcmp>
    1a5a:	9c 01       	movw	r18, r24
    1a5c:	8a e0       	ldi	r24, 0x0A	; 10
    1a5e:	90 e0       	ldi	r25, 0x00	; 0
    1a60:	c8 0e       	add	r12, r24
    1a62:	d9 1e       	adc	r13, r25
    1a64:	23 2b       	or	r18, r19
    1a66:	99 f4       	brne	.+38     	; 0x1a8e <add+0x8c>
		{
			symb_tab[i].val =v;
    1a68:	f8 01       	movw	r30, r16
    1a6a:	ee 0f       	add	r30, r30
    1a6c:	ff 1f       	adc	r31, r31
    1a6e:	ee 0f       	add	r30, r30
    1a70:	ff 1f       	adc	r31, r31
    1a72:	e0 0f       	add	r30, r16
    1a74:	f1 1f       	adc	r31, r17
    1a76:	ee 0f       	add	r30, r30
    1a78:	ff 1f       	adc	r31, r31
    1a7a:	e1 55       	subi	r30, 0x51	; 81
    1a7c:	fa 4f       	sbci	r31, 0xFA	; 250
    1a7e:	de 01       	movw	r26, r28
    1a80:	11 96       	adiw	r26, 0x01	; 1
    1a82:	88 e0       	ldi	r24, 0x08	; 8
    1a84:	0d 90       	ld	r0, X+
    1a86:	01 92       	st	Z+, r0
    1a88:	81 50       	subi	r24, 0x01	; 1
    1a8a:	e1 f7       	brne	.-8      	; 0x1a84 <add+0x82>
    1a8c:	35 c0       	rjmp	.+106    	; 0x1af8 <add+0xf6>
int add(char *n, tOBJ v)
{
	int i=0;
	
	//printstr("Add "); printstr(n); printstr("-"); printint(v.type); printline(""); 	//DEBUG
	for (i=0; i<symCnt; i++)
    1a8e:	0f 5f       	subi	r16, 0xFF	; 255
    1a90:	1f 4f       	sbci	r17, 0xFF	; 255
    1a92:	0e 15       	cp	r16, r14
    1a94:	1f 05       	cpc	r17, r15
    1a96:	dc f2       	brlt	.-74     	; 0x1a4e <add+0x4c>
		{
			symb_tab[i].val =v;
			return i;
		}
	}
	if (symCnt<SYMSZ)
    1a98:	9a e0       	ldi	r25, 0x0A	; 10
    1a9a:	e9 16       	cp	r14, r25
    1a9c:	f1 04       	cpc	r15, r1
    1a9e:	44 f5       	brge	.+80     	; 0x1af0 <add+0xee>
	{
		symb_tab[symCnt].name=n;
    1aa0:	f7 01       	movw	r30, r14
    1aa2:	ee 0f       	add	r30, r30
    1aa4:	ff 1f       	adc	r31, r31
    1aa6:	c7 01       	movw	r24, r14
    1aa8:	a3 e0       	ldi	r26, 0x03	; 3
    1aaa:	88 0f       	add	r24, r24
    1aac:	99 1f       	adc	r25, r25
    1aae:	aa 95       	dec	r26
    1ab0:	e1 f7       	brne	.-8      	; 0x1aaa <add+0xa8>
    1ab2:	e8 0f       	add	r30, r24
    1ab4:	f9 1f       	adc	r31, r25
    1ab6:	e3 55       	subi	r30, 0x53	; 83
    1ab8:	fa 4f       	sbci	r31, 0xFA	; 250
    1aba:	b1 82       	std	Z+1, r11	; 0x01
    1abc:	a0 82       	st	Z, r10
		symb_tab[symCnt].val=v;
    1abe:	f7 01       	movw	r30, r14
    1ac0:	ee 0f       	add	r30, r30
    1ac2:	ff 1f       	adc	r31, r31
    1ac4:	ee 0f       	add	r30, r30
    1ac6:	ff 1f       	adc	r31, r31
    1ac8:	ee 0d       	add	r30, r14
    1aca:	ff 1d       	adc	r31, r15
    1acc:	ee 0f       	add	r30, r30
    1ace:	ff 1f       	adc	r31, r31
    1ad0:	e1 55       	subi	r30, 0x51	; 81
    1ad2:	fa 4f       	sbci	r31, 0xFA	; 250
    1ad4:	de 01       	movw	r26, r28
    1ad6:	11 96       	adiw	r26, 0x01	; 1
    1ad8:	88 e0       	ldi	r24, 0x08	; 8
    1ada:	0d 90       	ld	r0, X+
    1adc:	01 92       	st	Z+, r0
    1ade:	81 50       	subi	r24, 0x01	; 1
    1ae0:	e1 f7       	brne	.-8      	; 0x1ada <add+0xd8>
		symCnt++;
    1ae2:	08 94       	sec
    1ae4:	e1 1c       	adc	r14, r1
    1ae6:	f1 1c       	adc	r15, r1
    1ae8:	f0 92 67 05 	sts	0x0567, r15
    1aec:	e0 92 66 05 	sts	0x0566, r14
	}
	return symCnt;
    1af0:	00 91 66 05 	lds	r16, 0x0566
    1af4:	10 91 67 05 	lds	r17, 0x0567
}
    1af8:	c8 01       	movw	r24, r16
    1afa:	28 96       	adiw	r28, 0x08	; 8
    1afc:	0f b6       	in	r0, 0x3f	; 63
    1afe:	f8 94       	cli
    1b00:	de bf       	out	0x3e, r29	; 62
    1b02:	0f be       	out	0x3f, r0	; 63
    1b04:	cd bf       	out	0x3d, r28	; 61
    1b06:	cf 91       	pop	r28
    1b08:	df 91       	pop	r29
    1b0a:	1f 91       	pop	r17
    1b0c:	0f 91       	pop	r16
    1b0e:	ff 90       	pop	r15
    1b10:	ef 90       	pop	r14
    1b12:	df 90       	pop	r13
    1b14:	cf 90       	pop	r12
    1b16:	bf 90       	pop	r11
    1b18:	af 90       	pop	r10
    1b1a:	08 95       	ret

00001b1c <get>:
#define SYMSZ 10
struct symbs { char *name; tOBJ val; } symb_tab[SYMSZ];
int symCnt=0;

tOBJ get(char *n)
{
    1b1c:	af 92       	push	r10
    1b1e:	bf 92       	push	r11
    1b20:	cf 92       	push	r12
    1b22:	df 92       	push	r13
    1b24:	ef 92       	push	r14
    1b26:	ff 92       	push	r15
    1b28:	0f 93       	push	r16
    1b2a:	1f 93       	push	r17
    1b2c:	df 93       	push	r29
    1b2e:	cf 93       	push	r28
    1b30:	cd b7       	in	r28, 0x3d	; 61
    1b32:	de b7       	in	r29, 0x3e	; 62
    1b34:	60 97       	sbiw	r28, 0x10	; 16
    1b36:	0f b6       	in	r0, 0x3f	; 63
    1b38:	f8 94       	cli
    1b3a:	de bf       	out	0x3e, r29	; 62
    1b3c:	0f be       	out	0x3f, r0	; 63
    1b3e:	cd bf       	out	0x3d, r28	; 61
    1b40:	5c 01       	movw	r10, r24
	tOBJ r;
	r.type=EMPTY;
	for (int i=0; i<symCnt; i++)
    1b42:	c0 90 66 05 	lds	r12, 0x0566
    1b46:	d0 90 67 05 	lds	r13, 0x0567
    1b4a:	5d ea       	ldi	r21, 0xAD	; 173
    1b4c:	e5 2e       	mov	r14, r21
    1b4e:	55 e0       	ldi	r21, 0x05	; 5
    1b50:	f5 2e       	mov	r15, r21
    1b52:	00 e0       	ldi	r16, 0x00	; 0
    1b54:	10 e0       	ldi	r17, 0x00	; 0
    1b56:	22 c0       	rjmp	.+68     	; 0x1b9c <get+0x80>
	{
		if (strcmp(n,symb_tab[i].name)==0)
    1b58:	f7 01       	movw	r30, r14
    1b5a:	60 81       	ld	r22, Z
    1b5c:	71 81       	ldd	r23, Z+1	; 0x01
    1b5e:	c5 01       	movw	r24, r10
    1b60:	0e 94 51 26 	call	0x4ca2	; 0x4ca2 <strcmp>
    1b64:	9c 01       	movw	r18, r24
    1b66:	8a e0       	ldi	r24, 0x0A	; 10
    1b68:	90 e0       	ldi	r25, 0x00	; 0
    1b6a:	e8 0e       	add	r14, r24
    1b6c:	f9 1e       	adc	r15, r25
    1b6e:	23 2b       	or	r18, r19
    1b70:	99 f4       	brne	.+38     	; 0x1b98 <get+0x7c>
		{
			return symb_tab[i].val;
    1b72:	f8 01       	movw	r30, r16
    1b74:	ee 0f       	add	r30, r30
    1b76:	ff 1f       	adc	r31, r31
    1b78:	ee 0f       	add	r30, r30
    1b7a:	ff 1f       	adc	r31, r31
    1b7c:	e0 0f       	add	r30, r16
    1b7e:	f1 1f       	adc	r31, r17
    1b80:	ee 0f       	add	r30, r30
    1b82:	ff 1f       	adc	r31, r31
    1b84:	de 01       	movw	r26, r28
    1b86:	19 96       	adiw	r26, 0x09	; 9
    1b88:	e1 55       	subi	r30, 0x51	; 81
    1b8a:	fa 4f       	sbci	r31, 0xFA	; 250
    1b8c:	88 e0       	ldi	r24, 0x08	; 8
    1b8e:	01 90       	ld	r0, Z+
    1b90:	0d 92       	st	X+, r0
    1b92:	81 50       	subi	r24, 0x01	; 1
    1b94:	e1 f7       	brne	.-8      	; 0x1b8e <get+0x72>
    1b96:	12 c0       	rjmp	.+36     	; 0x1bbc <get+0xa0>

tOBJ get(char *n)
{
	tOBJ r;
	r.type=EMPTY;
	for (int i=0; i<symCnt; i++)
    1b98:	0f 5f       	subi	r16, 0xFF	; 255
    1b9a:	1f 4f       	sbci	r17, 0xFF	; 255
    1b9c:	0c 15       	cp	r16, r12
    1b9e:	1d 05       	cpc	r17, r13
    1ba0:	dc f2       	brlt	.-74     	; 0x1b58 <get+0x3c>
		if (strcmp(n,symb_tab[i].name)==0)
		{
			return symb_tab[i].val;
		}
	}
	return r;
    1ba2:	88 e0       	ldi	r24, 0x08	; 8
    1ba4:	90 e0       	ldi	r25, 0x00	; 0
    1ba6:	9a 83       	std	Y+2, r25	; 0x02
    1ba8:	89 83       	std	Y+1, r24	; 0x01
    1baa:	de 01       	movw	r26, r28
    1bac:	19 96       	adiw	r26, 0x09	; 9
    1bae:	fe 01       	movw	r30, r28
    1bb0:	31 96       	adiw	r30, 0x01	; 1
    1bb2:	88 e0       	ldi	r24, 0x08	; 8
    1bb4:	01 90       	ld	r0, Z+
    1bb6:	0d 92       	st	X+, r0
    1bb8:	81 50       	subi	r24, 0x01	; 1
    1bba:	e1 f7       	brne	.-8      	; 0x1bb4 <get+0x98>
    1bbc:	29 85       	ldd	r18, Y+9	; 0x09
    1bbe:	3a 85       	ldd	r19, Y+10	; 0x0a
    1bc0:	4b 85       	ldd	r20, Y+11	; 0x0b
    1bc2:	5c 85       	ldd	r21, Y+12	; 0x0c
    1bc4:	6d 85       	ldd	r22, Y+13	; 0x0d
    1bc6:	7e 85       	ldd	r23, Y+14	; 0x0e
}
    1bc8:	8f 85       	ldd	r24, Y+15	; 0x0f
    1bca:	98 89       	ldd	r25, Y+16	; 0x10
    1bcc:	60 96       	adiw	r28, 0x10	; 16
    1bce:	0f b6       	in	r0, 0x3f	; 63
    1bd0:	f8 94       	cli
    1bd2:	de bf       	out	0x3e, r29	; 62
    1bd4:	0f be       	out	0x3f, r0	; 63
    1bd6:	cd bf       	out	0x3d, r28	; 61
    1bd8:	cf 91       	pop	r28
    1bda:	df 91       	pop	r29
    1bdc:	1f 91       	pop	r17
    1bde:	0f 91       	pop	r16
    1be0:	ff 90       	pop	r15
    1be2:	ef 90       	pop	r14
    1be4:	df 90       	pop	r13
    1be6:	cf 90       	pop	r12
    1be8:	bf 90       	pop	r11
    1bea:	af 90       	pop	r10
    1bec:	08 95       	ret

00001bee <eq>:
	return r;
}


tOBJ eq(tCELLp p)  // i.e. (eq 1 1) => true, (eq 1 2) => nil
{
    1bee:	0f 93       	push	r16
    1bf0:	1f 93       	push	r17
    1bf2:	df 93       	push	r29
    1bf4:	cf 93       	push	r28
    1bf6:	cd b7       	in	r28, 0x3d	; 61
    1bf8:	de b7       	in	r29, 0x3e	; 62
    1bfa:	a0 97       	sbiw	r28, 0x20	; 32
    1bfc:	0f b6       	in	r0, 0x3f	; 63
    1bfe:	f8 94       	cli
    1c00:	de bf       	out	0x3e, r29	; 62
    1c02:	0f be       	out	0x3f, r0	; 63
    1c04:	cd bf       	out	0x3d, r28	; 61
    1c06:	fc 01       	movw	r30, r24
	tOBJ r, a, b;
	r.type=BOOL;
	r.number=0;  // assume false
    1c08:	1e 82       	std	Y+6, r1	; 0x06
    1c0a:	1d 82       	std	Y+5, r1	; 0x05
	
	a = p->head;
    1c0c:	9e 01       	movw	r18, r28
    1c0e:	27 5f       	subi	r18, 0xF7	; 247
    1c10:	3f 4f       	sbci	r19, 0xFF	; 255
    1c12:	ac 01       	movw	r20, r24
    1c14:	88 e0       	ldi	r24, 0x08	; 8
    1c16:	da 01       	movw	r26, r20
    1c18:	0d 90       	ld	r0, X+
    1c1a:	ad 01       	movw	r20, r26
    1c1c:	d9 01       	movw	r26, r18
    1c1e:	0d 92       	st	X+, r0
    1c20:	9d 01       	movw	r18, r26
    1c22:	81 50       	subi	r24, 0x01	; 1
    1c24:	c1 f7       	brne	.-16     	; 0x1c16 <eq+0x28>
    1c26:	09 85       	ldd	r16, Y+9	; 0x09
    1c28:	1a 85       	ldd	r17, Y+10	; 0x0a
	b = p->tail->head;
    1c2a:	de 01       	movw	r26, r28
    1c2c:	51 96       	adiw	r26, 0x11	; 17
    1c2e:	80 85       	ldd	r24, Z+8	; 0x08
    1c30:	91 85       	ldd	r25, Z+9	; 0x09
    1c32:	9c 01       	movw	r18, r24
    1c34:	f9 01       	movw	r30, r18
    1c36:	88 e0       	ldi	r24, 0x08	; 8
    1c38:	01 90       	ld	r0, Z+
    1c3a:	0d 92       	st	X+, r0
    1c3c:	81 50       	subi	r24, 0x01	; 1
    1c3e:	e1 f7       	brne	.-8      	; 0x1c38 <eq+0x4a>
	
	if (a.type == b.type)
    1c40:	89 89       	ldd	r24, Y+17	; 0x11
    1c42:	9a 89       	ldd	r25, Y+18	; 0x12
    1c44:	08 17       	cp	r16, r24
    1c46:	19 07       	cpc	r17, r25
    1c48:	09 f0       	breq	.+2      	; 0x1c4c <eq+0x5e>
    1c4a:	3d c0       	rjmp	.+122    	; 0x1cc6 <eq+0xd8>
	{
		if (a.type == STRING || a.type == SYMBOL)
    1c4c:	06 30       	cpi	r16, 0x06	; 6
    1c4e:	11 05       	cpc	r17, r1
    1c50:	19 f0       	breq	.+6      	; 0x1c58 <eq+0x6a>
    1c52:	01 15       	cp	r16, r1
    1c54:	11 05       	cpc	r17, r1
    1c56:	71 f4       	brne	.+28     	; 0x1c74 <eq+0x86>
		{
			r.number = (strcmp(a.string,b.string)==0)?1:0;
    1c58:	6d 89       	ldd	r22, Y+21	; 0x15
    1c5a:	7e 89       	ldd	r23, Y+22	; 0x16
    1c5c:	8d 85       	ldd	r24, Y+13	; 0x0d
    1c5e:	9e 85       	ldd	r25, Y+14	; 0x0e
    1c60:	0e 94 51 26 	call	0x4ca2	; 0x4ca2 <strcmp>
    1c64:	1e 82       	std	Y+6, r1	; 0x06
    1c66:	1d 82       	std	Y+5, r1	; 0x05
    1c68:	00 97       	sbiw	r24, 0x00	; 0
    1c6a:	21 f4       	brne	.+8      	; 0x1c74 <eq+0x86>
    1c6c:	81 e0       	ldi	r24, 0x01	; 1
    1c6e:	90 e0       	ldi	r25, 0x00	; 0
    1c70:	9e 83       	std	Y+6, r25	; 0x06
    1c72:	8d 83       	std	Y+5, r24	; 0x05
		}
		if (a.type == INT || a.type == BOOL)
    1c74:	c8 01       	movw	r24, r16
    1c76:	01 97       	sbiw	r24, 0x01	; 1
    1c78:	02 97       	sbiw	r24, 0x02	; 2
    1c7a:	68 f4       	brcc	.+26     	; 0x1c96 <eq+0xa8>
		{
			r.number = (a.number==b.number)?1:0;
    1c7c:	1e 82       	std	Y+6, r1	; 0x06
    1c7e:	1d 82       	std	Y+5, r1	; 0x05
    1c80:	2d 85       	ldd	r18, Y+13	; 0x0d
    1c82:	3e 85       	ldd	r19, Y+14	; 0x0e
    1c84:	8d 89       	ldd	r24, Y+21	; 0x15
    1c86:	9e 89       	ldd	r25, Y+22	; 0x16
    1c88:	28 17       	cp	r18, r24
    1c8a:	39 07       	cpc	r19, r25
    1c8c:	21 f4       	brne	.+8      	; 0x1c96 <eq+0xa8>
    1c8e:	81 e0       	ldi	r24, 0x01	; 1
    1c90:	90 e0       	ldi	r25, 0x00	; 0
    1c92:	9e 83       	std	Y+6, r25	; 0x06
    1c94:	8d 83       	std	Y+5, r24	; 0x05
		}
		if (a.type == FUNCTION || a.type == SPECIAL )
    1c96:	c8 01       	movw	r24, r16
    1c98:	03 97       	sbiw	r24, 0x03	; 3
    1c9a:	02 97       	sbiw	r24, 0x02	; 2
    1c9c:	68 f4       	brcc	.+26     	; 0x1cb8 <eq+0xca>
		{
			r.number = (a.func==b.func)?1:0;
    1c9e:	1e 82       	std	Y+6, r1	; 0x06
    1ca0:	1d 82       	std	Y+5, r1	; 0x05
    1ca2:	2d 85       	ldd	r18, Y+13	; 0x0d
    1ca4:	3e 85       	ldd	r19, Y+14	; 0x0e
    1ca6:	8d 89       	ldd	r24, Y+21	; 0x15
    1ca8:	9e 89       	ldd	r25, Y+22	; 0x16
    1caa:	28 17       	cp	r18, r24
    1cac:	39 07       	cpc	r19, r25
    1cae:	21 f4       	brne	.+8      	; 0x1cb8 <eq+0xca>
    1cb0:	81 e0       	ldi	r24, 0x01	; 1
    1cb2:	90 e0       	ldi	r25, 0x00	; 0
    1cb4:	9e 83       	std	Y+6, r25	; 0x06
    1cb6:	8d 83       	std	Y+5, r24	; 0x05
		}
		if (a.type == EMPTY)
    1cb8:	08 30       	cpi	r16, 0x08	; 8
    1cba:	11 05       	cpc	r17, r1
    1cbc:	21 f4       	brne	.+8      	; 0x1cc6 <eq+0xd8>
		{
			r.number = 1;
    1cbe:	81 e0       	ldi	r24, 0x01	; 1
    1cc0:	90 e0       	ldi	r25, 0x00	; 0
    1cc2:	9e 83       	std	Y+6, r25	; 0x06
    1cc4:	8d 83       	std	Y+5, r24	; 0x05
		}
	}
	return r;
    1cc6:	82 e0       	ldi	r24, 0x02	; 2
    1cc8:	90 e0       	ldi	r25, 0x00	; 0
    1cca:	9a 83       	std	Y+2, r25	; 0x02
    1ccc:	89 83       	std	Y+1, r24	; 0x01
    1cce:	de 01       	movw	r26, r28
    1cd0:	59 96       	adiw	r26, 0x19	; 25
    1cd2:	fe 01       	movw	r30, r28
    1cd4:	31 96       	adiw	r30, 0x01	; 1
    1cd6:	88 e0       	ldi	r24, 0x08	; 8
    1cd8:	01 90       	ld	r0, Z+
    1cda:	0d 92       	st	X+, r0
    1cdc:	81 50       	subi	r24, 0x01	; 1
    1cde:	e1 f7       	brne	.-8      	; 0x1cd8 <eq+0xea>
    1ce0:	29 8d       	ldd	r18, Y+25	; 0x19
    1ce2:	3a 8d       	ldd	r19, Y+26	; 0x1a
    1ce4:	4b 8d       	ldd	r20, Y+27	; 0x1b
    1ce6:	5c 8d       	ldd	r21, Y+28	; 0x1c
    1ce8:	6d 8d       	ldd	r22, Y+29	; 0x1d
    1cea:	7e 8d       	ldd	r23, Y+30	; 0x1e
}
    1cec:	8f 8d       	ldd	r24, Y+31	; 0x1f
    1cee:	98 a1       	ldd	r25, Y+32	; 0x20
    1cf0:	a0 96       	adiw	r28, 0x20	; 32
    1cf2:	0f b6       	in	r0, 0x3f	; 63
    1cf4:	f8 94       	cli
    1cf6:	de bf       	out	0x3e, r29	; 62
    1cf8:	0f be       	out	0x3f, r0	; 63
    1cfa:	cd bf       	out	0x3d, r28	; 61
    1cfc:	cf 91       	pop	r28
    1cfe:	df 91       	pop	r29
    1d00:	1f 91       	pop	r17
    1d02:	0f 91       	pop	r16
    1d04:	08 95       	ret

00001d06 <putch>:
		return *ibptr++;
	return -1;
}

void putch(char c)
{
    1d06:	0e 94 67 00 	call	0xce	; 0xce <putByte>
	putByte(c);
}
    1d0a:	08 95       	ret

00001d0c <printnumber>:
	putch(13);
	putch(10);
}

void printnumber(int n, int w, char pad) 
{
    1d0c:	cf 92       	push	r12
    1d0e:	df 92       	push	r13
    1d10:	ef 92       	push	r14
    1d12:	ff 92       	push	r15
    1d14:	0f 93       	push	r16
    1d16:	1f 93       	push	r17
    1d18:	df 93       	push	r29
    1d1a:	cf 93       	push	r28
    1d1c:	cd b7       	in	r28, 0x3d	; 61
    1d1e:	de b7       	in	r29, 0x3e	; 62
    1d20:	2a 97       	sbiw	r28, 0x0a	; 10
    1d22:	0f b6       	in	r0, 0x3f	; 63
    1d24:	f8 94       	cli
    1d26:	de bf       	out	0x3e, r29	; 62
    1d28:	0f be       	out	0x3f, r0	; 63
    1d2a:	cd bf       	out	0x3d, r28	; 61
    1d2c:	7c 01       	movw	r14, r24
    1d2e:	6b 01       	movw	r12, r22
	char tb[10];
	char *cp=tb;
	int n1 = (n<0)?-n:n;
    1d30:	9c 01       	movw	r18, r24
    1d32:	97 ff       	sbrs	r25, 7
    1d34:	04 c0       	rjmp	.+8      	; 0x1d3e <printnumber+0x32>
    1d36:	22 27       	eor	r18, r18
    1d38:	33 27       	eor	r19, r19
    1d3a:	28 1b       	sub	r18, r24
    1d3c:	39 0b       	sbc	r19, r25
    1d3e:	8e 01       	movw	r16, r28
    1d40:	0f 5f       	subi	r16, 0xFF	; 255
    1d42:	1f 4f       	sbci	r17, 0xFF	; 255
    1d44:	12 c0       	rjmp	.+36     	; 0x1d6a <printnumber+0x5e>
	while (n1>9)
	{
		*cp++ = '0' + (n1%10);
    1d46:	c9 01       	movw	r24, r18
    1d48:	6a e0       	ldi	r22, 0x0A	; 10
    1d4a:	70 e0       	ldi	r23, 0x00	; 0
    1d4c:	0e 94 66 26 	call	0x4ccc	; 0x4ccc <__divmodhi4>
    1d50:	80 5d       	subi	r24, 0xD0	; 208
    1d52:	d8 01       	movw	r26, r16
    1d54:	8c 93       	st	X, r24
    1d56:	8f 01       	movw	r16, r30
		n1 = n1/10;
    1d58:	c9 01       	movw	r24, r18
    1d5a:	6a e0       	ldi	r22, 0x0A	; 10
    1d5c:	70 e0       	ldi	r23, 0x00	; 0
    1d5e:	0e 94 66 26 	call	0x4ccc	; 0x4ccc <__divmodhi4>
    1d62:	9b 01       	movw	r18, r22
		w--;
    1d64:	08 94       	sec
    1d66:	c1 08       	sbc	r12, r1
    1d68:	d1 08       	sbc	r13, r1
    1d6a:	f8 01       	movw	r30, r16
    1d6c:	31 96       	adiw	r30, 0x01	; 1
void printnumber(int n, int w, char pad) 
{
	char tb[10];
	char *cp=tb;
	int n1 = (n<0)?-n:n;
	while (n1>9)
    1d6e:	2a 30       	cpi	r18, 0x0A	; 10
    1d70:	31 05       	cpc	r19, r1
    1d72:	4c f7       	brge	.-46     	; 0x1d46 <printnumber+0x3a>
	{
		*cp++ = '0' + (n1%10);
		n1 = n1/10;
		w--;
	}
	*cp++ = '0' + (n1%10);
    1d74:	c9 01       	movw	r24, r18
    1d76:	6a e0       	ldi	r22, 0x0A	; 10
    1d78:	70 e0       	ldi	r23, 0x00	; 0
    1d7a:	0e 94 66 26 	call	0x4ccc	; 0x4ccc <__divmodhi4>
    1d7e:	80 5d       	subi	r24, 0xD0	; 208
    1d80:	d8 01       	movw	r26, r16
    1d82:	8c 93       	st	X, r24
    1d84:	8f 01       	movw	r16, r30
	w--;
	if (n<0) *cp++ = '-';
    1d86:	f7 fe       	sbrs	r15, 7
    1d88:	04 c0       	rjmp	.+8      	; 0x1d92 <printnumber+0x86>
    1d8a:	8d e2       	ldi	r24, 0x2D	; 45
    1d8c:	80 83       	st	Z, r24
    1d8e:	0f 5f       	subi	r16, 0xFF	; 255
    1d90:	1f 4f       	sbci	r17, 0xFF	; 255
    1d92:	b6 01       	movw	r22, r12
    1d94:	03 c0       	rjmp	.+6      	; 0x1d9c <printnumber+0x90>
	while (w-- > 0) *cp++ = pad;
    1d96:	f8 01       	movw	r30, r16
    1d98:	41 93       	st	Z+, r20
    1d9a:	8f 01       	movw	r16, r30
    1d9c:	61 50       	subi	r22, 0x01	; 1
    1d9e:	70 40       	sbci	r23, 0x00	; 0
    1da0:	16 16       	cp	r1, r22
    1da2:	17 06       	cpc	r1, r23
    1da4:	c4 f3       	brlt	.-16     	; 0x1d96 <printnumber+0x8a>
    1da6:	06 c0       	rjmp	.+12     	; 0x1db4 <printnumber+0xa8>
	return -1;
}

void putch(char c)
{
	putByte(c);
    1da8:	d8 01       	movw	r26, r16
    1daa:	8e 91       	ld	r24, -X
    1dac:	8d 01       	movw	r16, r26
    1dae:	0e 94 67 00 	call	0xce	; 0xce <putByte>
    1db2:	04 c0       	rjmp	.+8      	; 0x1dbc <printnumber+0xb0>
	}
	*cp++ = '0' + (n1%10);
	w--;
	if (n<0) *cp++ = '-';
	while (w-- > 0) *cp++ = pad;
	while (cp>tb)
    1db4:	7e 01       	movw	r14, r28
    1db6:	08 94       	sec
    1db8:	e1 1c       	adc	r14, r1
    1dba:	f1 1c       	adc	r15, r1
    1dbc:	e0 16       	cp	r14, r16
    1dbe:	f1 06       	cpc	r15, r17
    1dc0:	98 f3       	brcs	.-26     	; 0x1da8 <printnumber+0x9c>
	{
		cp--;
		putch(*cp);
	}
}
    1dc2:	2a 96       	adiw	r28, 0x0a	; 10
    1dc4:	0f b6       	in	r0, 0x3f	; 63
    1dc6:	f8 94       	cli
    1dc8:	de bf       	out	0x3e, r29	; 62
    1dca:	0f be       	out	0x3f, r0	; 63
    1dcc:	cd bf       	out	0x3d, r28	; 61
    1dce:	cf 91       	pop	r28
    1dd0:	df 91       	pop	r29
    1dd2:	1f 91       	pop	r17
    1dd4:	0f 91       	pop	r16
    1dd6:	ff 90       	pop	r15
    1dd8:	ef 90       	pop	r14
    1dda:	df 90       	pop	r13
    1ddc:	cf 90       	pop	r12
    1dde:	08 95       	ret

00001de0 <printint>:

void printint(int n) 
{
    1de0:	40 e0       	ldi	r20, 0x00	; 0
    1de2:	60 e0       	ldi	r22, 0x00	; 0
    1de4:	70 e0       	ldi	r23, 0x00	; 0
    1de6:	0e 94 86 0e 	call	0x1d0c	; 0x1d0c <printnumber>
	printnumber(n, 0, '\0');
}
    1dea:	08 95       	ret

00001dec <printstr>:
{
	putByte(c);
}

void printstr(char *c)
{
    1dec:	cf 93       	push	r28
    1dee:	df 93       	push	r29
    1df0:	ec 01       	movw	r28, r24
    1df2:	02 c0       	rjmp	.+4      	; 0x1df8 <printstr+0xc>
	return -1;
}

void putch(char c)
{
	putByte(c);
    1df4:	0e 94 67 00 	call	0xce	; 0xce <putByte>
}

void printstr(char *c)
{
	char ch;
	while ((ch=*c++) != 0) putch(ch);
    1df8:	89 91       	ld	r24, Y+
    1dfa:	88 23       	and	r24, r24
    1dfc:	d9 f7       	brne	.-10     	; 0x1df4 <printstr+0x8>
}
    1dfe:	df 91       	pop	r29
    1e00:	cf 91       	pop	r28
    1e02:	08 95       	ret

00001e04 <printtime>:
}

/**************************************************************************************************/

void printtime(char * s)
{
    1e04:	0e 94 f6 0e 	call	0x1dec	; 0x1dec <printstr>
    1e08:	80 91 99 05 	lds	r24, 0x0599
    1e0c:	40 e3       	ldi	r20, 0x30	; 48
    1e0e:	62 e0       	ldi	r22, 0x02	; 2
    1e10:	70 e0       	ldi	r23, 0x00	; 0
    1e12:	90 e0       	ldi	r25, 0x00	; 0
    1e14:	0e 94 86 0e 	call	0x1d0c	; 0x1d0c <printnumber>
    1e18:	8c e7       	ldi	r24, 0x7C	; 124
    1e1a:	91 e0       	ldi	r25, 0x01	; 1
    1e1c:	0e 94 f6 0e 	call	0x1dec	; 0x1dec <printstr>
    1e20:	80 91 a4 05 	lds	r24, 0x05A4
    1e24:	40 e3       	ldi	r20, 0x30	; 48
    1e26:	62 e0       	ldi	r22, 0x02	; 2
    1e28:	70 e0       	ldi	r23, 0x00	; 0
    1e2a:	90 e0       	ldi	r25, 0x00	; 0
    1e2c:	0e 94 86 0e 	call	0x1d0c	; 0x1d0c <printnumber>
	printstr (s); printnumber(gMIN,2,'0'); printstr(":"); printnumber(gSEC,2,'0'); 
}
    1e30:	08 95       	ret

00001e32 <printline>:
	char ch;
	while ((ch=*c++) != 0) putch(ch);
}

void printline(char *c)
{
    1e32:	0e 94 f6 0e 	call	0x1dec	; 0x1dec <printstr>
	return -1;
}

void putch(char c)
{
	putByte(c);
    1e36:	8d e0       	ldi	r24, 0x0D	; 13
    1e38:	0e 94 67 00 	call	0xce	; 0xce <putByte>
void printline(char *c)
{
	printstr(c);
	putch(13);
	putch(10);
}
    1e3c:	8a e0       	ldi	r24, 0x0A	; 10
    1e3e:	0e 94 67 00 	call	0xce	; 0xce <putByte>
    1e42:	08 95       	ret

00001e44 <printtype>:
	}
	return r;
}

void printtype(tOBJ r)
{
    1e44:	0f 93       	push	r16
    1e46:	1f 93       	push	r17
    1e48:	df 93       	push	r29
    1e4a:	cf 93       	push	r28
    1e4c:	cd b7       	in	r28, 0x3d	; 61
    1e4e:	de b7       	in	r29, 0x3e	; 62
    1e50:	28 97       	sbiw	r28, 0x08	; 8
    1e52:	0f b6       	in	r0, 0x3f	; 63
    1e54:	f8 94       	cli
    1e56:	de bf       	out	0x3e, r29	; 62
    1e58:	0f be       	out	0x3f, r0	; 63
    1e5a:	cd bf       	out	0x3d, r28	; 61
    1e5c:	29 83       	std	Y+1, r18	; 0x01
    1e5e:	3a 83       	std	Y+2, r19	; 0x02
    1e60:	4b 83       	std	Y+3, r20	; 0x03
    1e62:	5c 83       	std	Y+4, r21	; 0x04
    1e64:	6d 83       	std	Y+5, r22	; 0x05
    1e66:	7e 83       	std	Y+6, r23	; 0x06
    1e68:	8f 83       	std	Y+7, r24	; 0x07
    1e6a:	98 87       	std	Y+8, r25	; 0x08
    1e6c:	29 81       	ldd	r18, Y+1	; 0x01
    1e6e:	3a 81       	ldd	r19, Y+2	; 0x02
    1e70:	8b 81       	ldd	r24, Y+3	; 0x03
    1e72:	9c 81       	ldd	r25, Y+4	; 0x04

	if (r.type == CELL)
    1e74:	27 30       	cpi	r18, 0x07	; 7
    1e76:	31 05       	cpc	r19, r1
    1e78:	09 f5       	brne	.+66     	; 0x1ebc <printtype+0x78>
	{
		if (r.q == true) printstr("'");
    1e7a:	01 97       	sbiw	r24, 0x01	; 1
    1e7c:	21 f4       	brne	.+8      	; 0x1e86 <printtype+0x42>
    1e7e:	8e e7       	ldi	r24, 0x7E	; 126
    1e80:	91 e0       	ldi	r25, 0x01	; 1
    1e82:	0e 94 f6 0e 	call	0x1dec	; 0x1dec <printstr>
		printstr("CELL#");	
    1e86:	80 e8       	ldi	r24, 0x80	; 128
    1e88:	91 e0       	ldi	r25, 0x01	; 1
    1e8a:	0e 94 f6 0e 	call	0x1dec	; 0x1dec <printstr>
		if (r.cell != null)
    1e8e:	2d 81       	ldd	r18, Y+5	; 0x05
    1e90:	3e 81       	ldd	r19, Y+6	; 0x06
    1e92:	21 15       	cp	r18, r1
    1e94:	31 05       	cpc	r19, r1
    1e96:	79 f0       	breq	.+30     	; 0x1eb6 <printtype+0x72>
		{
			int n = ((tCELLp)(r.cell)-&memory[0]); ///sizeof(tCELL);
			printint(n);
    1e98:	21 51       	subi	r18, 0x11	; 17
    1e9a:	36 40       	sbci	r19, 0x06	; 6
    1e9c:	35 95       	asr	r19
    1e9e:	27 95       	ror	r18
    1ea0:	8d ec       	ldi	r24, 0xCD	; 205
    1ea2:	9c ec       	ldi	r25, 0xCC	; 204
    1ea4:	ac 01       	movw	r20, r24
    1ea6:	24 9f       	mul	r18, r20
    1ea8:	c0 01       	movw	r24, r0
    1eaa:	25 9f       	mul	r18, r21
    1eac:	90 0d       	add	r25, r0
    1eae:	34 9f       	mul	r19, r20
    1eb0:	90 0d       	add	r25, r0
    1eb2:	11 24       	eor	r1, r1
    1eb4:	08 c0       	rjmp	.+16     	; 0x1ec6 <printtype+0x82>
		}
		else
		{
			printstr("null");
    1eb6:	86 e8       	ldi	r24, 0x86	; 134
    1eb8:	91 e0       	ldi	r25, 0x01	; 1
    1eba:	4b c0       	rjmp	.+150    	; 0x1f52 <printtype+0x10e>
		}
	}
	else if (r.type == INT)
    1ebc:	21 30       	cpi	r18, 0x01	; 1
    1ebe:	31 05       	cpc	r19, r1
    1ec0:	29 f4       	brne	.+10     	; 0x1ecc <printtype+0x88>
	{
		printint(r.number);
    1ec2:	8d 81       	ldd	r24, Y+5	; 0x05
    1ec4:	9e 81       	ldd	r25, Y+6	; 0x06
    1ec6:	0e 94 f0 0e 	call	0x1de0	; 0x1de0 <printint>
    1eca:	4a c0       	rjmp	.+148    	; 0x1f60 <printtype+0x11c>
	}
	else if (r.type == STRING)
    1ecc:	26 30       	cpi	r18, 0x06	; 6
    1ece:	31 05       	cpc	r19, r1
    1ed0:	49 f0       	breq	.+18     	; 0x1ee4 <printtype+0xa0>
	{
		printstr(r.string);
	}
	else if (r.type == SYMBOL)
    1ed2:	21 15       	cp	r18, r1
    1ed4:	31 05       	cpc	r19, r1
    1ed6:	49 f4       	brne	.+18     	; 0x1eea <printtype+0xa6>
	{
		if (r.q == true) printstr("'");
    1ed8:	01 97       	sbiw	r24, 0x01	; 1
    1eda:	21 f4       	brne	.+8      	; 0x1ee4 <printtype+0xa0>
    1edc:	8e e7       	ldi	r24, 0x7E	; 126
    1ede:	91 e0       	ldi	r25, 0x01	; 1
    1ee0:	0e 94 f6 0e 	call	0x1dec	; 0x1dec <printstr>
		printstr(r.string);
    1ee4:	8d 81       	ldd	r24, Y+5	; 0x05
    1ee6:	9e 81       	ldd	r25, Y+6	; 0x06
    1ee8:	34 c0       	rjmp	.+104    	; 0x1f52 <printtype+0x10e>
	}
	else if (r.type == BOOL)
    1eea:	22 30       	cpi	r18, 0x02	; 2
    1eec:	31 05       	cpc	r19, r1
    1eee:	51 f4       	brne	.+20     	; 0x1f04 <printtype+0xc0>
	{
		if ( r.number==0)
    1ef0:	8d 81       	ldd	r24, Y+5	; 0x05
    1ef2:	9e 81       	ldd	r25, Y+6	; 0x06
    1ef4:	89 2b       	or	r24, r25
    1ef6:	19 f4       	brne	.+6      	; 0x1efe <printtype+0xba>
			printstr("False");
    1ef8:	8b e8       	ldi	r24, 0x8B	; 139
    1efa:	91 e0       	ldi	r25, 0x01	; 1
    1efc:	2a c0       	rjmp	.+84     	; 0x1f52 <printtype+0x10e>
		else
			printstr("True");
    1efe:	81 e9       	ldi	r24, 0x91	; 145
    1f00:	91 e0       	ldi	r25, 0x01	; 1
    1f02:	27 c0       	rjmp	.+78     	; 0x1f52 <printtype+0x10e>
	}
	else if (r.type == EMPTY)
    1f04:	28 30       	cpi	r18, 0x08	; 8
    1f06:	31 05       	cpc	r19, r1
    1f08:	19 f4       	brne	.+6      	; 0x1f10 <printtype+0xcc>
	{
		printstr("NIL");
    1f0a:	86 e9       	ldi	r24, 0x96	; 150
    1f0c:	91 e0       	ldi	r25, 0x01	; 1
    1f0e:	21 c0       	rjmp	.+66     	; 0x1f52 <printtype+0x10e>
	}
	else if (r.type == FUNCTION || r.type == SPECIAL)
    1f10:	c9 01       	movw	r24, r18
    1f12:	03 97       	sbiw	r24, 0x03	; 3
    1f14:	02 97       	sbiw	r24, 0x02	; 2
    1f16:	18 f4       	brcc	.+6      	; 0x1f1e <printtype+0xda>
	{
		printstr("FUNCTION");	
    1f18:	8a e9       	ldi	r24, 0x9A	; 154
    1f1a:	91 e0       	ldi	r25, 0x01	; 1
    1f1c:	1a c0       	rjmp	.+52     	; 0x1f52 <printtype+0x10e>
	}
	else if (r.type == ERROR)
    1f1e:	29 30       	cpi	r18, 0x09	; 9
    1f20:	31 05       	cpc	r19, r1
    1f22:	d1 f4       	brne	.+52     	; 0x1f58 <printtype+0x114>
	{
		printstr("Error [");printint(r.number);printstr("] :: ");
    1f24:	83 ea       	ldi	r24, 0xA3	; 163
    1f26:	91 e0       	ldi	r25, 0x01	; 1
    1f28:	0e 94 f6 0e 	call	0x1dec	; 0x1dec <printstr>
    1f2c:	0d 81       	ldd	r16, Y+5	; 0x05
    1f2e:	1e 81       	ldd	r17, Y+6	; 0x06
    1f30:	c8 01       	movw	r24, r16
    1f32:	0e 94 f0 0e 	call	0x1de0	; 0x1de0 <printint>
    1f36:	8b ea       	ldi	r24, 0xAB	; 171
    1f38:	91 e0       	ldi	r25, 0x01	; 1
    1f3a:	0e 94 f6 0e 	call	0x1dec	; 0x1dec <printstr>
		if (r.number<sizeof(errmessage)) printstr(errmessage[r.number]);
    1f3e:	0c 30       	cpi	r16, 0x0C	; 12
    1f40:	11 05       	cpc	r17, r1
    1f42:	70 f4       	brcc	.+28     	; 0x1f60 <printtype+0x11c>
    1f44:	00 0f       	add	r16, r16
    1f46:	11 1f       	adc	r17, r17
    1f48:	07 5e       	subi	r16, 0xE7	; 231
    1f4a:	1c 4f       	sbci	r17, 0xFC	; 252
    1f4c:	f8 01       	movw	r30, r16
    1f4e:	80 81       	ld	r24, Z
    1f50:	91 81       	ldd	r25, Z+1	; 0x01
    1f52:	0e 94 f6 0e 	call	0x1dec	; 0x1dec <printstr>
    1f56:	04 c0       	rjmp	.+8      	; 0x1f60 <printtype+0x11c>
	}
	else	
	{		
		printline("? error - type ");	
    1f58:	81 eb       	ldi	r24, 0xB1	; 177
    1f5a:	91 e0       	ldi	r25, 0x01	; 1
    1f5c:	0e 94 19 0f 	call	0x1e32	; 0x1e32 <printline>
	}
	return;
}
    1f60:	28 96       	adiw	r28, 0x08	; 8
    1f62:	0f b6       	in	r0, 0x3f	; 63
    1f64:	f8 94       	cli
    1f66:	de bf       	out	0x3e, r29	; 62
    1f68:	0f be       	out	0x3f, r0	; 63
    1f6a:	cd bf       	out	0x3d, r28	; 61
    1f6c:	cf 91       	pop	r28
    1f6e:	df 91       	pop	r29
    1f70:	1f 91       	pop	r17
    1f72:	0f 91       	pop	r16
    1f74:	08 95       	ret

00001f76 <set>:
	return symCnt;
}


tOBJ set(tCELLp p)   // i.e. (set 'a 123 'b 245 ) => 123 and set a 
{
    1f76:	ef 92       	push	r14
    1f78:	ff 92       	push	r15
    1f7a:	0f 93       	push	r16
    1f7c:	1f 93       	push	r17
    1f7e:	df 93       	push	r29
    1f80:	cf 93       	push	r28
    1f82:	cd b7       	in	r28, 0x3d	; 61
    1f84:	de b7       	in	r29, 0x3e	; 62
    1f86:	e0 97       	sbiw	r28, 0x30	; 48
    1f88:	0f b6       	in	r0, 0x3f	; 63
    1f8a:	f8 94       	cli
    1f8c:	de bf       	out	0x3e, r29	; 62
    1f8e:	0f be       	out	0x3f, r0	; 63
    1f90:	cd bf       	out	0x3d, r28	; 61
    1f92:	7c 01       	movw	r14, r24
	tOBJ r;
	r.type=EMPTY;

	tOBJ h = p->head;
    1f94:	de 01       	movw	r26, r28
    1f96:	19 96       	adiw	r26, 0x09	; 9
    1f98:	fc 01       	movw	r30, r24
    1f9a:	88 e0       	ldi	r24, 0x08	; 8
    1f9c:	01 90       	ld	r0, Z+
    1f9e:	0d 92       	st	X+, r0
    1fa0:	81 50       	subi	r24, 0x01	; 1
    1fa2:	e1 f7       	brne	.-8      	; 0x1f9c <set+0x26>
    1fa4:	49 85       	ldd	r20, Y+9	; 0x09
    1fa6:	5a 85       	ldd	r21, Y+10	; 0x0a
	if (h.type == SYMBOL)
    1fa8:	41 15       	cp	r20, r1
    1faa:	51 05       	cpc	r21, r1
    1fac:	e1 f5       	brne	.+120    	; 0x2026 <set+0xb0>
	{
		add(h.string, (p->tail)->head);
    1fae:	d7 01       	movw	r26, r14
    1fb0:	18 96       	adiw	r26, 0x08	; 8
    1fb2:	ed 91       	ld	r30, X+
    1fb4:	fc 91       	ld	r31, X
    1fb6:	19 97       	sbiw	r26, 0x09	; 9
    1fb8:	00 81       	ld	r16, Z
    1fba:	11 81       	ldd	r17, Z+1	; 0x01
    1fbc:	22 81       	ldd	r18, Z+2	; 0x02
    1fbe:	33 81       	ldd	r19, Z+3	; 0x03
    1fc0:	44 81       	ldd	r20, Z+4	; 0x04
    1fc2:	55 81       	ldd	r21, Z+5	; 0x05
    1fc4:	66 81       	ldd	r22, Z+6	; 0x06
    1fc6:	77 81       	ldd	r23, Z+7	; 0x07
    1fc8:	8d 85       	ldd	r24, Y+13	; 0x0d
    1fca:	9e 85       	ldd	r25, Y+14	; 0x0e
    1fcc:	0e 94 01 0d 	call	0x1a02	; 0x1a02 <add>
		r= (p->tail)->head;
    1fd0:	f7 01       	movw	r30, r14
    1fd2:	20 85       	ldd	r18, Z+8	; 0x08
    1fd4:	31 85       	ldd	r19, Z+9	; 0x09
    1fd6:	de 01       	movw	r26, r28
    1fd8:	11 96       	adiw	r26, 0x01	; 1
    1fda:	f9 01       	movw	r30, r18
    1fdc:	88 e0       	ldi	r24, 0x08	; 8
    1fde:	01 90       	ld	r0, Z+
    1fe0:	0d 92       	st	X+, r0
    1fe2:	81 50       	subi	r24, 0x01	; 1
    1fe4:	e1 f7       	brne	.-8      	; 0x1fde <set+0x68>
    1fe6:	49 81       	ldd	r20, Y+1	; 0x01
    1fe8:	5a 81       	ldd	r21, Y+2	; 0x02
		
		if (p->tail->tail != null)
    1fea:	d9 01       	movw	r26, r18
    1fec:	18 96       	adiw	r26, 0x08	; 8
    1fee:	8d 91       	ld	r24, X+
    1ff0:	9c 91       	ld	r25, X
    1ff2:	19 97       	sbiw	r26, 0x09	; 9
    1ff4:	00 97       	sbiw	r24, 0x00	; 0
    1ff6:	19 f4       	brne	.+6      	; 0x1ffe <set+0x88>
    1ff8:	94 2f       	mov	r25, r20
    1ffa:	85 2f       	mov	r24, r21
    1ffc:	42 c0       	rjmp	.+132    	; 0x2082 <set+0x10c>
		{
			return set(p->tail->tail);
    1ffe:	0e 94 bb 0f 	call	0x1f76	; 0x1f76 <set>
    2002:	29 a7       	std	Y+41, r18	; 0x29
    2004:	3a a7       	std	Y+42, r19	; 0x2a
    2006:	4b a7       	std	Y+43, r20	; 0x2b
    2008:	5c a7       	std	Y+44, r21	; 0x2c
    200a:	6d a7       	std	Y+45, r22	; 0x2d
    200c:	7e a7       	std	Y+46, r23	; 0x2e
    200e:	8f a7       	std	Y+47, r24	; 0x2f
    2010:	98 ab       	std	Y+48, r25	; 0x30
    2012:	de 01       	movw	r26, r28
    2014:	51 96       	adiw	r26, 0x11	; 17
    2016:	fe 01       	movw	r30, r28
    2018:	b9 96       	adiw	r30, 0x29	; 41
    201a:	88 e0       	ldi	r24, 0x08	; 8
    201c:	01 90       	ld	r0, Z+
    201e:	0d 92       	st	X+, r0
    2020:	81 50       	subi	r24, 0x01	; 1
    2022:	e1 f7       	brne	.-8      	; 0x201c <set+0xa6>
    2024:	39 c0       	rjmp	.+114    	; 0x2098 <set+0x122>
		}
	}
	else
	{
		DEBUG(printtype(h);)
    2026:	80 91 62 05 	lds	r24, 0x0562
    202a:	90 91 63 05 	lds	r25, 0x0563
    202e:	89 2b       	or	r24, r25
    2030:	61 f0       	breq	.+24     	; 0x204a <set+0xd4>
    2032:	24 2f       	mov	r18, r20
    2034:	5a 87       	std	Y+10, r21	; 0x0a
    2036:	49 87       	std	Y+9, r20	; 0x09
    2038:	3a 85       	ldd	r19, Y+10	; 0x0a
    203a:	4b 85       	ldd	r20, Y+11	; 0x0b
    203c:	5c 85       	ldd	r21, Y+12	; 0x0c
    203e:	6d 85       	ldd	r22, Y+13	; 0x0d
    2040:	7e 85       	ldd	r23, Y+14	; 0x0e
    2042:	8f 85       	ldd	r24, Y+15	; 0x0f
    2044:	98 89       	ldd	r25, Y+16	; 0x10
    2046:	0e 94 22 0f 	call	0x1e44	; 0x1e44 <printtype>

void showenviron();

tOBJ throw(int n)
{
	tOBJ r; r.type=ERROR; r.number=n;
    204a:	84 e0       	ldi	r24, 0x04	; 4
    204c:	90 e0       	ldi	r25, 0x00	; 0
    204e:	9e 8f       	std	Y+30, r25	; 0x1e
    2050:	8d 8f       	std	Y+29, r24	; 0x1d
	return r;
    2052:	89 e0       	ldi	r24, 0x09	; 9
    2054:	90 e0       	ldi	r25, 0x00	; 0
    2056:	9a 8f       	std	Y+26, r25	; 0x1a
    2058:	89 8f       	std	Y+25, r24	; 0x19
    205a:	de 01       	movw	r26, r28
    205c:	91 96       	adiw	r26, 0x21	; 33
    205e:	fe 01       	movw	r30, r28
    2060:	79 96       	adiw	r30, 0x19	; 25
    2062:	88 e0       	ldi	r24, 0x08	; 8
    2064:	01 90       	ld	r0, Z+
    2066:	0d 92       	st	X+, r0
    2068:	81 50       	subi	r24, 0x01	; 1
    206a:	e1 f7       	brne	.-8      	; 0x2064 <set+0xee>
    206c:	de 01       	movw	r26, r28
    206e:	11 96       	adiw	r26, 0x01	; 1
    2070:	fe 01       	movw	r30, r28
    2072:	b1 96       	adiw	r30, 0x21	; 33
    2074:	88 e0       	ldi	r24, 0x08	; 8
    2076:	01 90       	ld	r0, Z+
    2078:	0d 92       	st	X+, r0
    207a:	81 50       	subi	r24, 0x01	; 1
    207c:	e1 f7       	brne	.-8      	; 0x2076 <set+0x100>
    207e:	99 81       	ldd	r25, Y+1	; 0x01
    2080:	8a 81       	ldd	r24, Y+2	; 0x02
	else
	{
		DEBUG(printtype(h);)
		r=throw(4);
	}
	return r;
    2082:	99 83       	std	Y+1, r25	; 0x01
    2084:	8a 83       	std	Y+2, r24	; 0x02
    2086:	de 01       	movw	r26, r28
    2088:	51 96       	adiw	r26, 0x11	; 17
    208a:	fe 01       	movw	r30, r28
    208c:	31 96       	adiw	r30, 0x01	; 1
    208e:	88 e0       	ldi	r24, 0x08	; 8
    2090:	01 90       	ld	r0, Z+
    2092:	0d 92       	st	X+, r0
    2094:	81 50       	subi	r24, 0x01	; 1
    2096:	e1 f7       	brne	.-8      	; 0x2090 <set+0x11a>
    2098:	29 89       	ldd	r18, Y+17	; 0x11
    209a:	3a 89       	ldd	r19, Y+18	; 0x12
    209c:	4b 89       	ldd	r20, Y+19	; 0x13
    209e:	5c 89       	ldd	r21, Y+20	; 0x14
    20a0:	6d 89       	ldd	r22, Y+21	; 0x15
    20a2:	7e 89       	ldd	r23, Y+22	; 0x16
}
    20a4:	8f 89       	ldd	r24, Y+23	; 0x17
    20a6:	98 8d       	ldd	r25, Y+24	; 0x18
    20a8:	e0 96       	adiw	r28, 0x30	; 48
    20aa:	0f b6       	in	r0, 0x3f	; 63
    20ac:	f8 94       	cli
    20ae:	de bf       	out	0x3e, r29	; 62
    20b0:	0f be       	out	0x3f, r0	; 63
    20b2:	cd bf       	out	0x3d, r28	; 61
    20b4:	cf 91       	pop	r28
    20b6:	df 91       	pop	r29
    20b8:	1f 91       	pop	r17
    20ba:	0f 91       	pop	r16
    20bc:	ff 90       	pop	r15
    20be:	ef 90       	pop	r14
    20c0:	08 95       	ret

000020c2 <print>:
	}
	return;
}

tOBJ print(tOBJ r)
{
    20c2:	cf 92       	push	r12
    20c4:	df 92       	push	r13
    20c6:	ef 92       	push	r14
    20c8:	ff 92       	push	r15
    20ca:	0f 93       	push	r16
    20cc:	1f 93       	push	r17
    20ce:	df 93       	push	r29
    20d0:	cf 93       	push	r28
    20d2:	cd b7       	in	r28, 0x3d	; 61
    20d4:	de b7       	in	r29, 0x3e	; 62
    20d6:	60 97       	sbiw	r28, 0x10	; 16
    20d8:	0f b6       	in	r0, 0x3f	; 63
    20da:	f8 94       	cli
    20dc:	de bf       	out	0x3e, r29	; 62
    20de:	0f be       	out	0x3f, r0	; 63
    20e0:	cd bf       	out	0x3d, r28	; 61
    20e2:	29 87       	std	Y+9, r18	; 0x09
    20e4:	3a 87       	std	Y+10, r19	; 0x0a
    20e6:	4b 87       	std	Y+11, r20	; 0x0b
    20e8:	5c 87       	std	Y+12, r21	; 0x0c
    20ea:	6d 87       	std	Y+13, r22	; 0x0d
    20ec:	7e 87       	std	Y+14, r23	; 0x0e
    20ee:	8f 87       	std	Y+15, r24	; 0x0f
    20f0:	98 8b       	std	Y+16, r25	; 0x10
    20f2:	c9 84       	ldd	r12, Y+9	; 0x09
    20f4:	da 84       	ldd	r13, Y+10	; 0x0a
    20f6:	eb 84       	ldd	r14, Y+11	; 0x0b
    20f8:	fc 84       	ldd	r15, Y+12	; 0x0c
	if (r.type == CELL)
    20fa:	87 e0       	ldi	r24, 0x07	; 7
    20fc:	c8 16       	cp	r12, r24
    20fe:	d1 04       	cpc	r13, r1
    2100:	39 f5       	brne	.+78     	; 0x2150 <print+0x8e>
	{
		struct cell  *c = r.cell;
    2102:	0d 85       	ldd	r16, Y+13	; 0x0d
    2104:	1e 85       	ldd	r17, Y+14	; 0x0e
		if (r.q == true) printstr("'");
    2106:	e1 e0       	ldi	r30, 0x01	; 1
    2108:	ee 16       	cp	r14, r30
    210a:	f1 04       	cpc	r15, r1
    210c:	21 f4       	brne	.+8      	; 0x2116 <print+0x54>
    210e:	8e e7       	ldi	r24, 0x7E	; 126
    2110:	91 e0       	ldi	r25, 0x01	; 1
    2112:	0e 94 f6 0e 	call	0x1dec	; 0x1dec <printstr>
		printstr("(");	
    2116:	81 ec       	ldi	r24, 0xC1	; 193
    2118:	91 e0       	ldi	r25, 0x01	; 1
    211a:	02 c0       	rjmp	.+4      	; 0x2120 <print+0x5e>
		print(c->head);
		
		while (c->tail != null)
		{
			c=c->tail;
			printstr(" ");
    211c:	83 ec       	ldi	r24, 0xC3	; 195
    211e:	91 e0       	ldi	r25, 0x01	; 1
    2120:	0e 94 f6 0e 	call	0x1dec	; 0x1dec <printstr>
			print(c->head);
    2124:	f8 01       	movw	r30, r16
    2126:	20 81       	ld	r18, Z
    2128:	31 81       	ldd	r19, Z+1	; 0x01
    212a:	42 81       	ldd	r20, Z+2	; 0x02
    212c:	53 81       	ldd	r21, Z+3	; 0x03
    212e:	64 81       	ldd	r22, Z+4	; 0x04
    2130:	75 81       	ldd	r23, Z+5	; 0x05
    2132:	86 81       	ldd	r24, Z+6	; 0x06
    2134:	97 81       	ldd	r25, Z+7	; 0x07
    2136:	0e 94 61 10 	call	0x20c2	; 0x20c2 <print>
		struct cell  *c = r.cell;
		if (r.q == true) printstr("'");
		printstr("(");	
		print(c->head);
		
		while (c->tail != null)
    213a:	f8 01       	movw	r30, r16
    213c:	00 85       	ldd	r16, Z+8	; 0x08
    213e:	11 85       	ldd	r17, Z+9	; 0x09
    2140:	01 15       	cp	r16, r1
    2142:	11 05       	cpc	r17, r1
    2144:	59 f7       	brne	.-42     	; 0x211c <print+0x5a>
		{
			c=c->tail;
			printstr(" ");
			print(c->head);
		}
		printstr(")");
    2146:	85 ec       	ldi	r24, 0xC5	; 197
    2148:	91 e0       	ldi	r25, 0x01	; 1
    214a:	0e 94 f6 0e 	call	0x1dec	; 0x1dec <printstr>
    214e:	0e c0       	rjmp	.+28     	; 0x216c <print+0xaa>
	}
	else
	{
		printtype(r);
    2150:	2c 2d       	mov	r18, r12
    2152:	da 86       	std	Y+10, r13	; 0x0a
    2154:	c9 86       	std	Y+9, r12	; 0x09
    2156:	4e 2d       	mov	r20, r14
    2158:	fc 86       	std	Y+12, r15	; 0x0c
    215a:	eb 86       	std	Y+11, r14	; 0x0b
    215c:	3a 85       	ldd	r19, Y+10	; 0x0a
    215e:	5c 85       	ldd	r21, Y+12	; 0x0c
    2160:	6d 85       	ldd	r22, Y+13	; 0x0d
    2162:	7e 85       	ldd	r23, Y+14	; 0x0e
    2164:	8f 85       	ldd	r24, Y+15	; 0x0f
    2166:	98 89       	ldd	r25, Y+16	; 0x10
    2168:	0e 94 22 0f 	call	0x1e44	; 0x1e44 <printtype>
	}
	return r;
    216c:	da 86       	std	Y+10, r13	; 0x0a
    216e:	c9 86       	std	Y+9, r12	; 0x09
    2170:	fc 86       	std	Y+12, r15	; 0x0c
    2172:	eb 86       	std	Y+11, r14	; 0x0b
    2174:	de 01       	movw	r26, r28
    2176:	11 96       	adiw	r26, 0x01	; 1
    2178:	fe 01       	movw	r30, r28
    217a:	39 96       	adiw	r30, 0x09	; 9
    217c:	88 e0       	ldi	r24, 0x08	; 8
    217e:	01 90       	ld	r0, Z+
    2180:	0d 92       	st	X+, r0
    2182:	81 50       	subi	r24, 0x01	; 1
    2184:	e1 f7       	brne	.-8      	; 0x217e <print+0xbc>
    2186:	29 81       	ldd	r18, Y+1	; 0x01
    2188:	3a 81       	ldd	r19, Y+2	; 0x02
    218a:	4b 81       	ldd	r20, Y+3	; 0x03
    218c:	5c 81       	ldd	r21, Y+4	; 0x04
    218e:	6d 81       	ldd	r22, Y+5	; 0x05
    2190:	7e 81       	ldd	r23, Y+6	; 0x06
}
    2192:	8f 81       	ldd	r24, Y+7	; 0x07
    2194:	98 85       	ldd	r25, Y+8	; 0x08
    2196:	60 96       	adiw	r28, 0x10	; 16
    2198:	0f b6       	in	r0, 0x3f	; 63
    219a:	f8 94       	cli
    219c:	de bf       	out	0x3e, r29	; 62
    219e:	0f be       	out	0x3f, r0	; 63
    21a0:	cd bf       	out	0x3d, r28	; 61
    21a2:	cf 91       	pop	r28
    21a4:	df 91       	pop	r29
    21a6:	1f 91       	pop	r17
    21a8:	0f 91       	pop	r16
    21aa:	ff 90       	pop	r15
    21ac:	ef 90       	pop	r14
    21ae:	df 90       	pop	r13
    21b0:	cf 90       	pop	r12
    21b2:	08 95       	ret

000021b4 <pr>:
	r.number=n;
	return r;
}

tOBJ pr(tCELLp p)  // i.e. (pr "abc" 123) => abc123
{
    21b4:	0f 93       	push	r16
    21b6:	1f 93       	push	r17
    21b8:	df 93       	push	r29
    21ba:	cf 93       	push	r28
    21bc:	cd b7       	in	r28, 0x3d	; 61
    21be:	de b7       	in	r29, 0x3e	; 62
    21c0:	68 97       	sbiw	r28, 0x18	; 24
    21c2:	0f b6       	in	r0, 0x3f	; 63
    21c4:	f8 94       	cli
    21c6:	de bf       	out	0x3e, r29	; 62
    21c8:	0f be       	out	0x3f, r0	; 63
    21ca:	cd bf       	out	0x3d, r28	; 61
    21cc:	8c 01       	movw	r16, r24
	tOBJ r;
	r.type=EMPTY;
	
	print(p->head);
    21ce:	fc 01       	movw	r30, r24
    21d0:	20 81       	ld	r18, Z
    21d2:	31 81       	ldd	r19, Z+1	; 0x01
    21d4:	42 81       	ldd	r20, Z+2	; 0x02
    21d6:	53 81       	ldd	r21, Z+3	; 0x03
    21d8:	64 81       	ldd	r22, Z+4	; 0x04
    21da:	75 81       	ldd	r23, Z+5	; 0x05
    21dc:	86 81       	ldd	r24, Z+6	; 0x06
    21de:	97 81       	ldd	r25, Z+7	; 0x07
    21e0:	0e 94 61 10 	call	0x20c2	; 0x20c2 <print>
	if (p->tail==null)
    21e4:	f8 01       	movw	r30, r16
    21e6:	80 85       	ldd	r24, Z+8	; 0x08
    21e8:	91 85       	ldd	r25, Z+9	; 0x09
    21ea:	00 97       	sbiw	r24, 0x00	; 0
    21ec:	41 f4       	brne	.+16     	; 0x21fe <pr+0x4a>
		return p->head;
    21ee:	de 01       	movw	r26, r28
    21f0:	19 96       	adiw	r26, 0x09	; 9
    21f2:	88 e0       	ldi	r24, 0x08	; 8
    21f4:	01 90       	ld	r0, Z+
    21f6:	0d 92       	st	X+, r0
    21f8:	81 50       	subi	r24, 0x01	; 1
    21fa:	e1 f7       	brne	.-8      	; 0x21f4 <pr+0x40>
    21fc:	1c c0       	rjmp	.+56     	; 0x2236 <pr+0x82>
	r=pr(p->tail);
    21fe:	0e 94 da 10 	call	0x21b4	; 0x21b4 <pr>
    2202:	29 8b       	std	Y+17, r18	; 0x11
    2204:	3a 8b       	std	Y+18, r19	; 0x12
    2206:	4b 8b       	std	Y+19, r20	; 0x13
    2208:	5c 8b       	std	Y+20, r21	; 0x14
    220a:	6d 8b       	std	Y+21, r22	; 0x15
    220c:	7e 8b       	std	Y+22, r23	; 0x16
    220e:	8f 8b       	std	Y+23, r24	; 0x17
    2210:	98 8f       	std	Y+24, r25	; 0x18
    2212:	de 01       	movw	r26, r28
    2214:	11 96       	adiw	r26, 0x01	; 1
    2216:	fe 01       	movw	r30, r28
    2218:	71 96       	adiw	r30, 0x11	; 17
    221a:	88 e0       	ldi	r24, 0x08	; 8
    221c:	01 90       	ld	r0, Z+
    221e:	0d 92       	st	X+, r0
    2220:	81 50       	subi	r24, 0x01	; 1
    2222:	e1 f7       	brne	.-8      	; 0x221c <pr+0x68>

	return r;
    2224:	de 01       	movw	r26, r28
    2226:	19 96       	adiw	r26, 0x09	; 9
    2228:	fe 01       	movw	r30, r28
    222a:	31 96       	adiw	r30, 0x01	; 1
    222c:	88 e0       	ldi	r24, 0x08	; 8
    222e:	01 90       	ld	r0, Z+
    2230:	0d 92       	st	X+, r0
    2232:	81 50       	subi	r24, 0x01	; 1
    2234:	e1 f7       	brne	.-8      	; 0x222e <pr+0x7a>
    2236:	29 85       	ldd	r18, Y+9	; 0x09
    2238:	3a 85       	ldd	r19, Y+10	; 0x0a
    223a:	4b 85       	ldd	r20, Y+11	; 0x0b
    223c:	5c 85       	ldd	r21, Y+12	; 0x0c
    223e:	6d 85       	ldd	r22, Y+13	; 0x0d
    2240:	7e 85       	ldd	r23, Y+14	; 0x0e
}
    2242:	8f 85       	ldd	r24, Y+15	; 0x0f
    2244:	98 89       	ldd	r25, Y+16	; 0x10
    2246:	68 96       	adiw	r28, 0x18	; 24
    2248:	0f b6       	in	r0, 0x3f	; 63
    224a:	f8 94       	cli
    224c:	de bf       	out	0x3e, r29	; 62
    224e:	0f be       	out	0x3f, r0	; 63
    2250:	cd bf       	out	0x3d, r28	; 61
    2252:	cf 91       	pop	r28
    2254:	df 91       	pop	r29
    2256:	1f 91       	pop	r17
    2258:	0f 91       	pop	r16
    225a:	08 95       	ret

0000225c <callobj>:
		return cclone(o.cell);
	return o;
}

tOBJ callobj(tOBJ h)   // i.e. (eval '(plus 2 3)) -> 7 // (set 'a '(prn "hello")) (eval a) => "hello"
{
    225c:	6f 92       	push	r6
    225e:	7f 92       	push	r7
    2260:	8f 92       	push	r8
    2262:	9f 92       	push	r9
    2264:	af 92       	push	r10
    2266:	bf 92       	push	r11
    2268:	cf 92       	push	r12
    226a:	df 92       	push	r13
    226c:	ef 92       	push	r14
    226e:	ff 92       	push	r15
    2270:	0f 93       	push	r16
    2272:	1f 93       	push	r17
    2274:	df 93       	push	r29
    2276:	cf 93       	push	r28
    2278:	cd b7       	in	r28, 0x3d	; 61
    227a:	de b7       	in	r29, 0x3e	; 62
    227c:	c0 58       	subi	r28, 0x80	; 128
    227e:	d0 40       	sbci	r29, 0x00	; 0
    2280:	0f b6       	in	r0, 0x3f	; 63
    2282:	f8 94       	cli
    2284:	de bf       	out	0x3e, r29	; 62
    2286:	0f be       	out	0x3f, r0	; 63
    2288:	cd bf       	out	0x3d, r28	; 61
    228a:	8e 01       	movw	r16, r28
    228c:	0f 58       	subi	r16, 0x8F	; 143
    228e:	1f 4f       	sbci	r17, 0xFF	; 255
    2290:	d8 01       	movw	r26, r16
    2292:	2c 93       	st	X, r18
    2294:	11 96       	adiw	r26, 0x01	; 1
    2296:	3c 93       	st	X, r19
    2298:	11 97       	sbiw	r26, 0x01	; 1
    229a:	12 96       	adiw	r26, 0x02	; 2
    229c:	4c 93       	st	X, r20
    229e:	12 97       	sbiw	r26, 0x02	; 2
    22a0:	13 96       	adiw	r26, 0x03	; 3
    22a2:	5c 93       	st	X, r21
    22a4:	13 97       	sbiw	r26, 0x03	; 3
    22a6:	14 96       	adiw	r26, 0x04	; 4
    22a8:	6c 93       	st	X, r22
    22aa:	14 97       	sbiw	r26, 0x04	; 4
    22ac:	15 96       	adiw	r26, 0x05	; 5
    22ae:	7c 93       	st	X, r23
    22b0:	15 97       	sbiw	r26, 0x05	; 5
    22b2:	16 96       	adiw	r26, 0x06	; 6
    22b4:	8c 93       	st	X, r24
    22b6:	16 97       	sbiw	r26, 0x06	; 6
    22b8:	17 96       	adiw	r26, 0x07	; 7
    22ba:	9c 93       	st	X, r25
    22bc:	17 97       	sbiw	r26, 0x07	; 7
    22be:	12 96       	adiw	r26, 0x02	; 2
    22c0:	cd 90       	ld	r12, X+
    22c2:	dc 90       	ld	r13, X
    22c4:	13 97       	sbiw	r26, 0x03	; 3
    22c6:	ed 90       	ld	r14, X+
    22c8:	fc 90       	ld	r15, X
	tOBJ r ; r.type=EMPTY;
	
	DEBUG(printstr("DEBUG:: ["); printtype(h); printline("]"))
    22ca:	80 91 62 05 	lds	r24, 0x0562
    22ce:	90 91 63 05 	lds	r25, 0x0563
    22d2:	89 2b       	or	r24, r25
    22d4:	b9 f0       	breq	.+46     	; 0x2304 <callobj+0xa8>
    22d6:	87 ec       	ldi	r24, 0xC7	; 199
    22d8:	91 e0       	ldi	r25, 0x01	; 1
    22da:	0e 94 f6 0e 	call	0x1dec	; 0x1dec <printstr>
    22de:	4c 2d       	mov	r20, r12
    22e0:	f8 01       	movw	r30, r16
    22e2:	d3 82       	std	Z+3, r13	; 0x03
    22e4:	c2 82       	std	Z+2, r12	; 0x02
    22e6:	2e 2d       	mov	r18, r14
    22e8:	f1 82       	std	Z+1, r15	; 0x01
    22ea:	e0 82       	st	Z, r14
    22ec:	31 81       	ldd	r19, Z+1	; 0x01
    22ee:	53 81       	ldd	r21, Z+3	; 0x03
    22f0:	64 81       	ldd	r22, Z+4	; 0x04
    22f2:	75 81       	ldd	r23, Z+5	; 0x05
    22f4:	86 81       	ldd	r24, Z+6	; 0x06
    22f6:	97 81       	ldd	r25, Z+7	; 0x07
    22f8:	0e 94 22 0f 	call	0x1e44	; 0x1e44 <printtype>
    22fc:	81 ed       	ldi	r24, 0xD1	; 209
    22fe:	91 e0       	ldi	r25, 0x01	; 1
    2300:	0e 94 19 0f 	call	0x1e32	; 0x1e32 <printline>
	
	if (h.q == true)
    2304:	f1 e0       	ldi	r31, 0x01	; 1
    2306:	cf 16       	cp	r12, r31
    2308:	d1 04       	cpc	r13, r1
    230a:	c9 f4       	brne	.+50     	; 0x233e <callobj+0xe2>
	{
		DEBUG(printline("QUOTE"))
    230c:	80 91 62 05 	lds	r24, 0x0562
    2310:	90 91 63 05 	lds	r25, 0x0563
    2314:	89 2b       	or	r24, r25
    2316:	21 f0       	breq	.+8      	; 0x2320 <callobj+0xc4>
    2318:	83 ed       	ldi	r24, 0xD3	; 211
    231a:	91 e0       	ldi	r25, 0x01	; 1
    231c:	0e 94 19 0f 	call	0x1e32	; 0x1e32 <printline>
		h.q=false; //unquote
		return h;
    2320:	fe 01       	movw	r30, r28
    2322:	ef 58       	subi	r30, 0x8F	; 143
    2324:	ff 4f       	sbci	r31, 0xFF	; 255
    2326:	13 82       	std	Z+3, r1	; 0x03
    2328:	12 82       	std	Z+2, r1	; 0x02
    232a:	f1 82       	std	Z+1, r15	; 0x01
    232c:	e0 82       	st	Z, r14
    232e:	de 01       	movw	r26, r28
    2330:	19 96       	adiw	r26, 0x09	; 9
    2332:	88 e0       	ldi	r24, 0x08	; 8
    2334:	01 90       	ld	r0, Z+
    2336:	0d 92       	st	X+, r0
    2338:	81 50       	subi	r24, 0x01	; 1
    233a:	e1 f7       	brne	.-8      	; 0x2334 <callobj+0xd8>
    233c:	8b c1       	rjmp	.+790    	; 0x2654 <callobj+0x3f8>
	}
	
	if (h.type != CELL )
    233e:	87 e0       	ldi	r24, 0x07	; 7
    2340:	e8 16       	cp	r14, r24
    2342:	f1 04       	cpc	r15, r1
    2344:	09 f4       	brne	.+2      	; 0x2348 <callobj+0xec>
    2346:	5f c0       	rjmp	.+190    	; 0x2406 <callobj+0x1aa>
	{
		if (h.type == SYMBOL)
    2348:	e1 14       	cp	r14, r1
    234a:	f1 04       	cpc	r15, r1
    234c:	09 f0       	breq	.+2      	; 0x2350 <callobj+0xf4>
    234e:	4c c0       	rjmp	.+152    	; 0x23e8 <callobj+0x18c>
		{
			// user define it?		
			r = get(h.string);
    2350:	fe 01       	movw	r30, r28
    2352:	ef 58       	subi	r30, 0x8F	; 143
    2354:	ff 4f       	sbci	r31, 0xFF	; 255
    2356:	04 81       	ldd	r16, Z+4	; 0x04
    2358:	15 81       	ldd	r17, Z+5	; 0x05
    235a:	c8 01       	movw	r24, r16
    235c:	0e 94 8e 0d 	call	0x1b1c	; 0x1b1c <get>
    2360:	de 01       	movw	r26, r28
    2362:	a7 58       	subi	r26, 0x87	; 135
    2364:	bf 4f       	sbci	r27, 0xFF	; 255
    2366:	2c 93       	st	X, r18
    2368:	fe 01       	movw	r30, r28
    236a:	e6 58       	subi	r30, 0x86	; 134
    236c:	ff 4f       	sbci	r31, 0xFF	; 255
    236e:	30 83       	st	Z, r19
    2370:	fe 01       	movw	r30, r28
    2372:	e5 58       	subi	r30, 0x85	; 133
    2374:	ff 4f       	sbci	r31, 0xFF	; 255
    2376:	40 83       	st	Z, r20
    2378:	fe 01       	movw	r30, r28
    237a:	e4 58       	subi	r30, 0x84	; 132
    237c:	ff 4f       	sbci	r31, 0xFF	; 255
    237e:	50 83       	st	Z, r21
    2380:	fe 01       	movw	r30, r28
    2382:	e3 58       	subi	r30, 0x83	; 131
    2384:	ff 4f       	sbci	r31, 0xFF	; 255
    2386:	60 83       	st	Z, r22
    2388:	fe 01       	movw	r30, r28
    238a:	e2 58       	subi	r30, 0x82	; 130
    238c:	ff 4f       	sbci	r31, 0xFF	; 255
    238e:	70 83       	st	Z, r23
    2390:	fe 01       	movw	r30, r28
    2392:	e1 58       	subi	r30, 0x81	; 129
    2394:	ff 4f       	sbci	r31, 0xFF	; 255
    2396:	80 83       	st	Z, r24
    2398:	fe 01       	movw	r30, r28
    239a:	e0 58       	subi	r30, 0x80	; 128
    239c:	ff 4f       	sbci	r31, 0xFF	; 255
    239e:	90 83       	st	Z, r25
    23a0:	9e 01       	movw	r18, r28
    23a2:	2f 5f       	subi	r18, 0xFF	; 255
    23a4:	3f 4f       	sbci	r19, 0xFF	; 255
    23a6:	fd 01       	movw	r30, r26
    23a8:	88 e0       	ldi	r24, 0x08	; 8
    23aa:	01 90       	ld	r0, Z+
    23ac:	d9 01       	movw	r26, r18
    23ae:	0d 92       	st	X+, r0
    23b0:	9d 01       	movw	r18, r26
    23b2:	81 50       	subi	r24, 0x01	; 1
    23b4:	d1 f7       	brne	.-12     	; 0x23aa <callobj+0x14e>
    23b6:	89 81       	ldd	r24, Y+1	; 0x01
    23b8:	9a 81       	ldd	r25, Y+2	; 0x02
			
			if (r.type==EMPTY)
    23ba:	88 30       	cpi	r24, 0x08	; 8
    23bc:	91 05       	cpc	r25, r1
    23be:	41 f4       	brne	.+16     	; 0x23d0 <callobj+0x174>
			{
				printstr("Not defined? :: ");
    23c0:	89 ed       	ldi	r24, 0xD9	; 217
    23c2:	91 e0       	ldi	r25, 0x01	; 1
    23c4:	0e 94 f6 0e 	call	0x1dec	; 0x1dec <printstr>
				printline(h.string);
    23c8:	c8 01       	movw	r24, r16
    23ca:	0e 94 19 0f 	call	0x1e32	; 0x1e32 <printline>
    23ce:	0c c0       	rjmp	.+24     	; 0x23e8 <callobj+0x18c>
			}
			else
				return r;
    23d0:	9a 83       	std	Y+2, r25	; 0x02
    23d2:	89 83       	std	Y+1, r24	; 0x01
    23d4:	de 01       	movw	r26, r28
    23d6:	19 96       	adiw	r26, 0x09	; 9
    23d8:	fe 01       	movw	r30, r28
    23da:	31 96       	adiw	r30, 0x01	; 1
    23dc:	88 e0       	ldi	r24, 0x08	; 8
    23de:	01 90       	ld	r0, Z+
    23e0:	0d 92       	st	X+, r0
    23e2:	81 50       	subi	r24, 0x01	; 1
    23e4:	e1 f7       	brne	.-8      	; 0x23de <callobj+0x182>
    23e6:	36 c1       	rjmp	.+620    	; 0x2654 <callobj+0x3f8>
		}
		return h;
    23e8:	fe 01       	movw	r30, r28
    23ea:	ef 58       	subi	r30, 0x8F	; 143
    23ec:	ff 4f       	sbci	r31, 0xFF	; 255
    23ee:	d3 82       	std	Z+3, r13	; 0x03
    23f0:	c2 82       	std	Z+2, r12	; 0x02
    23f2:	f1 82       	std	Z+1, r15	; 0x01
    23f4:	e0 82       	st	Z, r14
    23f6:	de 01       	movw	r26, r28
    23f8:	19 96       	adiw	r26, 0x09	; 9
    23fa:	88 e0       	ldi	r24, 0x08	; 8
    23fc:	01 90       	ld	r0, Z+
    23fe:	0d 92       	st	X+, r0
    2400:	81 50       	subi	r24, 0x01	; 1
    2402:	e1 f7       	brne	.-8      	; 0x23fc <callobj+0x1a0>
    2404:	27 c1       	rjmp	.+590    	; 0x2654 <callobj+0x3f8>
	}
	
	tCELLp p = (tCELLp)(h.cell);
    2406:	fe 01       	movw	r30, r28
    2408:	ef 58       	subi	r30, 0x8F	; 143
    240a:	ff 4f       	sbci	r31, 0xFF	; 255
    240c:	04 81       	ldd	r16, Z+4	; 0x04
    240e:	15 81       	ldd	r17, Z+5	; 0x05
	h=p->head;
    2410:	d8 01       	movw	r26, r16
    2412:	88 e0       	ldi	r24, 0x08	; 8
    2414:	0d 90       	ld	r0, X+
    2416:	01 92       	st	Z+, r0
    2418:	81 50       	subi	r24, 0x01	; 1
    241a:	e1 f7       	brne	.-8      	; 0x2414 <callobj+0x1b8>
    241c:	fe 01       	movw	r30, r28
    241e:	ef 58       	subi	r30, 0x8F	; 143
    2420:	ff 4f       	sbci	r31, 0xFF	; 255
    2422:	22 81       	ldd	r18, Z+2	; 0x02
    2424:	33 81       	ldd	r19, Z+3	; 0x03
    2426:	60 81       	ld	r22, Z
    2428:	71 81       	ldd	r23, Z+1	; 0x01
	
	// first element in a lis must be a function
	
	if (h.type==FUNCTION || h.type == SPECIAL)
    242a:	cb 01       	movw	r24, r22
    242c:	03 97       	sbiw	r24, 0x03	; 3
    242e:	02 97       	sbiw	r24, 0x02	; 2
    2430:	08 f0       	brcs	.+2      	; 0x2434 <callobj+0x1d8>
    2432:	d7 c0       	rjmp	.+430    	; 0x25e2 <callobj+0x386>
	{
		int i;
		//  function	
		PFP f = (PFP)h.func;
    2434:	c4 80       	ldd	r12, Z+4	; 0x04
    2436:	d5 80       	ldd	r13, Z+5	; 0x05
		
		tCELLp tp =p->tail;
    2438:	f8 01       	movw	r30, r16
    243a:	70 84       	ldd	r7, Z+8	; 0x08
    243c:	61 84       	ldd	r6, Z+9	; 0x09
		
		// eval tail
		int ts=0;
		tOBJ temp[10];
				
		if (h.type == FUNCTION)
    243e:	63 30       	cpi	r22, 0x03	; 3
    2440:	71 05       	cpc	r23, r1
    2442:	19 f0       	breq	.+6      	; 0x244a <callobj+0x1ee>
    2444:	aa 24       	eor	r10, r10
    2446:	bb 24       	eor	r11, r11
    2448:	43 c0       	rjmp	.+134    	; 0x24d0 <callobj+0x274>
    244a:	81 e2       	ldi	r24, 0x21	; 33
    244c:	e8 2e       	mov	r14, r24
    244e:	f1 2c       	mov	r15, r1
    2450:	ec 0e       	add	r14, r28
    2452:	fd 1e       	adc	r15, r29
    2454:	aa 24       	eor	r10, r10
    2456:	bb 24       	eor	r11, r11
    2458:	2f c0       	rjmp	.+94     	; 0x24b8 <callobj+0x25c>
		{
			while ((p=p->tail) != null && ts<49)
			{ 
				temp[ts] = p->head;  //?memcpy???
    245a:	d7 01       	movw	r26, r14
    245c:	f8 01       	movw	r30, r16
    245e:	88 e0       	ldi	r24, 0x08	; 8
    2460:	01 90       	ld	r0, Z+
    2462:	0d 92       	st	X+, r0
    2464:	81 50       	subi	r24, 0x01	; 1
    2466:	e1 f7       	brne	.-8      	; 0x2460 <callobj+0x204>
				
				p->head = callobj (p->head);
    2468:	d8 01       	movw	r26, r16
    246a:	2c 91       	ld	r18, X
    246c:	11 96       	adiw	r26, 0x01	; 1
    246e:	3c 91       	ld	r19, X
    2470:	11 97       	sbiw	r26, 0x01	; 1
    2472:	12 96       	adiw	r26, 0x02	; 2
    2474:	4c 91       	ld	r20, X
    2476:	12 97       	sbiw	r26, 0x02	; 2
    2478:	13 96       	adiw	r26, 0x03	; 3
    247a:	5c 91       	ld	r21, X
    247c:	13 97       	sbiw	r26, 0x03	; 3
    247e:	14 96       	adiw	r26, 0x04	; 4
    2480:	6c 91       	ld	r22, X
    2482:	14 97       	sbiw	r26, 0x04	; 4
    2484:	15 96       	adiw	r26, 0x05	; 5
    2486:	7c 91       	ld	r23, X
    2488:	15 97       	sbiw	r26, 0x05	; 5
    248a:	16 96       	adiw	r26, 0x06	; 6
    248c:	8c 91       	ld	r24, X
    248e:	16 97       	sbiw	r26, 0x06	; 6
    2490:	17 96       	adiw	r26, 0x07	; 7
    2492:	9c 91       	ld	r25, X
    2494:	0e 94 2e 11 	call	0x225c	; 0x225c <callobj>
    2498:	f8 01       	movw	r30, r16
    249a:	20 83       	st	Z, r18
    249c:	31 83       	std	Z+1, r19	; 0x01
    249e:	42 83       	std	Z+2, r20	; 0x02
    24a0:	53 83       	std	Z+3, r21	; 0x03
    24a2:	64 83       	std	Z+4, r22	; 0x04
    24a4:	75 83       	std	Z+5, r23	; 0x05
    24a6:	86 83       	std	Z+6, r24	; 0x06
    24a8:	97 83       	std	Z+7, r25	; 0x07
				ts++;
    24aa:	08 94       	sec
    24ac:	a1 1c       	adc	r10, r1
    24ae:	b1 1c       	adc	r11, r1
    24b0:	88 e0       	ldi	r24, 0x08	; 8
    24b2:	90 e0       	ldi	r25, 0x00	; 0
    24b4:	e8 0e       	add	r14, r24
    24b6:	f9 1e       	adc	r15, r25
		int ts=0;
		tOBJ temp[10];
				
		if (h.type == FUNCTION)
		{
			while ((p=p->tail) != null && ts<49)
    24b8:	d8 01       	movw	r26, r16
    24ba:	18 96       	adiw	r26, 0x08	; 8
    24bc:	0d 91       	ld	r16, X+
    24be:	1c 91       	ld	r17, X
    24c0:	19 97       	sbiw	r26, 0x09	; 9
    24c2:	01 15       	cp	r16, r1
    24c4:	11 05       	cpc	r17, r1
    24c6:	21 f0       	breq	.+8      	; 0x24d0 <callobj+0x274>
    24c8:	b1 e3       	ldi	r27, 0x31	; 49
    24ca:	ab 16       	cp	r10, r27
    24cc:	b1 04       	cpc	r11, r1
    24ce:	29 f6       	brne	.-118    	; 0x245a <callobj+0x1fe>
				
				p->head = callobj (p->head);
				ts++;
			}
		}
		r= (*f)(tp);
    24d0:	87 2d       	mov	r24, r7
    24d2:	96 2d       	mov	r25, r6
    24d4:	f6 01       	movw	r30, r12
    24d6:	09 95       	icall
    24d8:	de 01       	movw	r26, r28
    24da:	a7 58       	subi	r26, 0x87	; 135
    24dc:	bf 4f       	sbci	r27, 0xFF	; 255
    24de:	2c 93       	st	X, r18
    24e0:	fe 01       	movw	r30, r28
    24e2:	e6 58       	subi	r30, 0x86	; 134
    24e4:	ff 4f       	sbci	r31, 0xFF	; 255
    24e6:	30 83       	st	Z, r19
    24e8:	fe 01       	movw	r30, r28
    24ea:	e5 58       	subi	r30, 0x85	; 133
    24ec:	ff 4f       	sbci	r31, 0xFF	; 255
    24ee:	40 83       	st	Z, r20
    24f0:	fe 01       	movw	r30, r28
    24f2:	e4 58       	subi	r30, 0x84	; 132
    24f4:	ff 4f       	sbci	r31, 0xFF	; 255
    24f6:	50 83       	st	Z, r21
    24f8:	fe 01       	movw	r30, r28
    24fa:	e3 58       	subi	r30, 0x83	; 131
    24fc:	ff 4f       	sbci	r31, 0xFF	; 255
    24fe:	60 83       	st	Z, r22
    2500:	fe 01       	movw	r30, r28
    2502:	e2 58       	subi	r30, 0x82	; 130
    2504:	ff 4f       	sbci	r31, 0xFF	; 255
    2506:	70 83       	st	Z, r23
    2508:	fe 01       	movw	r30, r28
    250a:	e1 58       	subi	r30, 0x81	; 129
    250c:	ff 4f       	sbci	r31, 0xFF	; 255
    250e:	80 83       	st	Z, r24
    2510:	fe 01       	movw	r30, r28
    2512:	e0 58       	subi	r30, 0x80	; 128
    2514:	ff 4f       	sbci	r31, 0xFF	; 255
    2516:	90 83       	st	Z, r25
    2518:	9e 01       	movw	r18, r28
    251a:	2f 5f       	subi	r18, 0xFF	; 255
    251c:	3f 4f       	sbci	r19, 0xFF	; 255
    251e:	fd 01       	movw	r30, r26
    2520:	88 e0       	ldi	r24, 0x08	; 8
    2522:	01 90       	ld	r0, Z+
    2524:	d9 01       	movw	r26, r18
    2526:	0d 92       	st	X+, r0
    2528:	9d 01       	movw	r18, r26
    252a:	81 50       	subi	r24, 0x01	; 1
    252c:	d1 f7       	brne	.-12     	; 0x2522 <callobj+0x2c6>
    252e:	89 80       	ldd	r8, Y+1	; 0x01
    2530:	9a 80       	ldd	r9, Y+2	; 0x02
    2532:	b1 e2       	ldi	r27, 0x21	; 33
    2534:	eb 2e       	mov	r14, r27
    2536:	f1 2c       	mov	r15, r1
    2538:	ec 0e       	add	r14, r28
    253a:	fd 1e       	adc	r15, r29
    253c:	87 2d       	mov	r24, r7
    253e:	96 2d       	mov	r25, r6
    2540:	9c 01       	movw	r18, r24
    2542:	69 01       	movw	r12, r18
    2544:	00 e0       	ldi	r16, 0x00	; 0
    2546:	10 e0       	ldi	r17, 0x00	; 0
    2548:	3e 01       	movw	r6, r28
    254a:	08 94       	sec
    254c:	61 1c       	adc	r6, r1
    254e:	71 1c       	adc	r7, r1
    2550:	43 c0       	rjmp	.+134    	; 0x25d8 <callobj+0x37c>
		
		p=tp;

		for (i=0;i<ts; i++)
		{
			printint(i);printstr("-"); printint(temp[i].type);printtype(temp[i]);printline("");
    2552:	c8 01       	movw	r24, r16
    2554:	0e 94 f0 0e 	call	0x1de0	; 0x1de0 <printint>
    2558:	8a ee       	ldi	r24, 0xEA	; 234
    255a:	91 e0       	ldi	r25, 0x01	; 1
    255c:	0e 94 f6 0e 	call	0x1dec	; 0x1dec <printstr>
    2560:	f7 01       	movw	r30, r14
    2562:	80 81       	ld	r24, Z
    2564:	91 81       	ldd	r25, Z+1	; 0x01
    2566:	0e 94 f0 0e 	call	0x1de0	; 0x1de0 <printint>
    256a:	f8 01       	movw	r30, r16
    256c:	a3 e0       	ldi	r26, 0x03	; 3
    256e:	ee 0f       	add	r30, r30
    2570:	ff 1f       	adc	r31, r31
    2572:	aa 95       	dec	r26
    2574:	e1 f7       	brne	.-8      	; 0x256e <callobj+0x312>
    2576:	e6 0d       	add	r30, r6
    2578:	f7 1d       	adc	r31, r7
    257a:	df 01       	movw	r26, r30
    257c:	90 96       	adiw	r26, 0x20	; 32
    257e:	20 a1       	ldd	r18, Z+32	; 0x20
    2580:	11 96       	adiw	r26, 0x01	; 1
    2582:	3c 91       	ld	r19, X
    2584:	11 97       	sbiw	r26, 0x01	; 1
    2586:	12 96       	adiw	r26, 0x02	; 2
    2588:	4c 91       	ld	r20, X
    258a:	12 97       	sbiw	r26, 0x02	; 2
    258c:	13 96       	adiw	r26, 0x03	; 3
    258e:	5c 91       	ld	r21, X
    2590:	13 97       	sbiw	r26, 0x03	; 3
    2592:	14 96       	adiw	r26, 0x04	; 4
    2594:	6c 91       	ld	r22, X
    2596:	14 97       	sbiw	r26, 0x04	; 4
    2598:	15 96       	adiw	r26, 0x05	; 5
    259a:	7c 91       	ld	r23, X
    259c:	15 97       	sbiw	r26, 0x05	; 5
    259e:	16 96       	adiw	r26, 0x06	; 6
    25a0:	8c 91       	ld	r24, X
    25a2:	16 97       	sbiw	r26, 0x06	; 6
    25a4:	17 96       	adiw	r26, 0x07	; 7
    25a6:	9c 91       	ld	r25, X
    25a8:	0e 94 22 0f 	call	0x1e44	; 0x1e44 <printtype>
    25ac:	8c ee       	ldi	r24, 0xEC	; 236
    25ae:	91 e0       	ldi	r25, 0x01	; 1
    25b0:	0e 94 19 0f 	call	0x1e32	; 0x1e32 <printline>
			p->head = temp[i];
    25b4:	d6 01       	movw	r26, r12
    25b6:	f7 01       	movw	r30, r14
    25b8:	88 e0       	ldi	r24, 0x08	; 8
    25ba:	01 90       	ld	r0, Z+
    25bc:	0d 92       	st	X+, r0
    25be:	81 50       	subi	r24, 0x01	; 1
    25c0:	e1 f7       	brne	.-8      	; 0x25ba <callobj+0x35e>
			p=p->tail;
    25c2:	d6 01       	movw	r26, r12
    25c4:	18 96       	adiw	r26, 0x08	; 8
    25c6:	cd 90       	ld	r12, X+
    25c8:	dc 90       	ld	r13, X
    25ca:	19 97       	sbiw	r26, 0x09	; 9
		}
		r= (*f)(tp);
		
		p=tp;

		for (i=0;i<ts; i++)
    25cc:	0f 5f       	subi	r16, 0xFF	; 255
    25ce:	1f 4f       	sbci	r17, 0xFF	; 255
    25d0:	e8 e0       	ldi	r30, 0x08	; 8
    25d2:	f0 e0       	ldi	r31, 0x00	; 0
    25d4:	ee 0e       	add	r14, r30
    25d6:	ff 1e       	adc	r15, r31
    25d8:	0a 15       	cp	r16, r10
    25da:	1b 05       	cpc	r17, r11
    25dc:	0c f4       	brge	.+2      	; 0x25e0 <callobj+0x384>
    25de:	b9 cf       	rjmp	.-142    	; 0x2552 <callobj+0x2f6>
    25e0:	2f c0       	rjmp	.+94     	; 0x2640 <callobj+0x3e4>
			p=p->tail;
		}
	}
	else
	{
		DEBUG(printtype(h);)
    25e2:	80 91 62 05 	lds	r24, 0x0562
    25e6:	90 91 63 05 	lds	r25, 0x0563
    25ea:	89 2b       	or	r24, r25
    25ec:	71 f0       	breq	.+28     	; 0x260a <callobj+0x3ae>
    25ee:	42 2f       	mov	r20, r18
    25f0:	22 83       	std	Z+2, r18	; 0x02
    25f2:	33 83       	std	Z+3, r19	; 0x03
    25f4:	26 2f       	mov	r18, r22
    25f6:	71 83       	std	Z+1, r23	; 0x01
    25f8:	60 83       	st	Z, r22
    25fa:	31 81       	ldd	r19, Z+1	; 0x01
    25fc:	53 81       	ldd	r21, Z+3	; 0x03
    25fe:	64 81       	ldd	r22, Z+4	; 0x04
    2600:	75 81       	ldd	r23, Z+5	; 0x05
    2602:	86 81       	ldd	r24, Z+6	; 0x06
    2604:	97 81       	ldd	r25, Z+7	; 0x07
    2606:	0e 94 22 0f 	call	0x1e44	; 0x1e44 <printtype>

void showenviron();

tOBJ throw(int n)
{
	tOBJ r; r.type=ERROR; r.number=n;
    260a:	85 e0       	ldi	r24, 0x05	; 5
    260c:	90 e0       	ldi	r25, 0x00	; 0
    260e:	9e 8b       	std	Y+22, r25	; 0x16
    2610:	8d 8b       	std	Y+21, r24	; 0x15
	return r;
    2612:	89 e0       	ldi	r24, 0x09	; 9
    2614:	90 e0       	ldi	r25, 0x00	; 0
    2616:	9a 8b       	std	Y+18, r25	; 0x12
    2618:	89 8b       	std	Y+17, r24	; 0x11
    261a:	de 01       	movw	r26, r28
    261c:	59 96       	adiw	r26, 0x19	; 25
    261e:	fe 01       	movw	r30, r28
    2620:	71 96       	adiw	r30, 0x11	; 17
    2622:	88 e0       	ldi	r24, 0x08	; 8
    2624:	01 90       	ld	r0, Z+
    2626:	0d 92       	st	X+, r0
    2628:	81 50       	subi	r24, 0x01	; 1
    262a:	e1 f7       	brne	.-8      	; 0x2624 <callobj+0x3c8>
    262c:	de 01       	movw	r26, r28
    262e:	19 96       	adiw	r26, 0x09	; 9
    2630:	fe 01       	movw	r30, r28
    2632:	79 96       	adiw	r30, 0x19	; 25
    2634:	88 e0       	ldi	r24, 0x08	; 8
    2636:	01 90       	ld	r0, Z+
    2638:	0d 92       	st	X+, r0
    263a:	81 50       	subi	r24, 0x01	; 1
    263c:	e1 f7       	brne	.-8      	; 0x2636 <callobj+0x3da>
    263e:	0a c0       	rjmp	.+20     	; 0x2654 <callobj+0x3f8>
	else
	{
		DEBUG(printtype(h);)
		return throw(5);
	}
	return r;
    2640:	9a 82       	std	Y+2, r9	; 0x02
    2642:	89 82       	std	Y+1, r8	; 0x01
    2644:	de 01       	movw	r26, r28
    2646:	19 96       	adiw	r26, 0x09	; 9
    2648:	f3 01       	movw	r30, r6
    264a:	88 e0       	ldi	r24, 0x08	; 8
    264c:	01 90       	ld	r0, Z+
    264e:	0d 92       	st	X+, r0
    2650:	81 50       	subi	r24, 0x01	; 1
    2652:	e1 f7       	brne	.-8      	; 0x264c <callobj+0x3f0>
    2654:	29 85       	ldd	r18, Y+9	; 0x09
    2656:	3a 85       	ldd	r19, Y+10	; 0x0a
    2658:	4b 85       	ldd	r20, Y+11	; 0x0b
    265a:	5c 85       	ldd	r21, Y+12	; 0x0c
    265c:	6d 85       	ldd	r22, Y+13	; 0x0d
    265e:	7e 85       	ldd	r23, Y+14	; 0x0e
}
    2660:	8f 85       	ldd	r24, Y+15	; 0x0f
    2662:	98 89       	ldd	r25, Y+16	; 0x10
    2664:	c0 58       	subi	r28, 0x80	; 128
    2666:	df 4f       	sbci	r29, 0xFF	; 255
    2668:	0f b6       	in	r0, 0x3f	; 63
    266a:	f8 94       	cli
    266c:	de bf       	out	0x3e, r29	; 62
    266e:	0f be       	out	0x3f, r0	; 63
    2670:	cd bf       	out	0x3d, r28	; 61
    2672:	cf 91       	pop	r28
    2674:	df 91       	pop	r29
    2676:	1f 91       	pop	r17
    2678:	0f 91       	pop	r16
    267a:	ff 90       	pop	r15
    267c:	ef 90       	pop	r14
    267e:	df 90       	pop	r13
    2680:	cf 90       	pop	r12
    2682:	bf 90       	pop	r11
    2684:	af 90       	pop	r10
    2686:	9f 90       	pop	r9
    2688:	8f 90       	pop	r8
    268a:	7f 90       	pop	r7
    268c:	6f 90       	pop	r6
    268e:	08 95       	ret

00002690 <call>:
	r.number = irGetByte();
	return r;
}

tOBJ call(tCELLp p)   // i.e. (eval '(plus 2 3)) -> 7 // (set 'a '(prn "hello")) (eval a) => "hello"
{
    2690:	0f 93       	push	r16
    2692:	1f 93       	push	r17
    2694:	df 93       	push	r29
    2696:	cf 93       	push	r28
    2698:	cd b7       	in	r28, 0x3d	; 61
    269a:	de b7       	in	r29, 0x3e	; 62
    269c:	68 97       	sbiw	r28, 0x18	; 24
    269e:	0f b6       	in	r0, 0x3f	; 63
    26a0:	f8 94       	cli
    26a2:	de bf       	out	0x3e, r29	; 62
    26a4:	0f be       	out	0x3f, r0	; 63
    26a6:	cd bf       	out	0x3d, r28	; 61
    26a8:	8c 01       	movw	r16, r24
	tOBJ r = callobj(p->head);
    26aa:	fc 01       	movw	r30, r24
    26ac:	20 81       	ld	r18, Z
    26ae:	31 81       	ldd	r19, Z+1	; 0x01
    26b0:	42 81       	ldd	r20, Z+2	; 0x02
    26b2:	53 81       	ldd	r21, Z+3	; 0x03
    26b4:	64 81       	ldd	r22, Z+4	; 0x04
    26b6:	75 81       	ldd	r23, Z+5	; 0x05
    26b8:	86 81       	ldd	r24, Z+6	; 0x06
    26ba:	97 81       	ldd	r25, Z+7	; 0x07
    26bc:	0e 94 2e 11 	call	0x225c	; 0x225c <callobj>
    26c0:	29 8b       	std	Y+17, r18	; 0x11
    26c2:	3a 8b       	std	Y+18, r19	; 0x12
    26c4:	4b 8b       	std	Y+19, r20	; 0x13
    26c6:	5c 8b       	std	Y+20, r21	; 0x14
    26c8:	6d 8b       	std	Y+21, r22	; 0x15
    26ca:	7e 8b       	std	Y+22, r23	; 0x16
    26cc:	8f 8b       	std	Y+23, r24	; 0x17
    26ce:	98 8f       	std	Y+24, r25	; 0x18
    26d0:	de 01       	movw	r26, r28
    26d2:	11 96       	adiw	r26, 0x01	; 1
    26d4:	fe 01       	movw	r30, r28
    26d6:	71 96       	adiw	r30, 0x11	; 17
    26d8:	88 e0       	ldi	r24, 0x08	; 8
    26da:	01 90       	ld	r0, Z+
    26dc:	0d 92       	st	X+, r0
    26de:	81 50       	subi	r24, 0x01	; 1
    26e0:	e1 f7       	brne	.-8      	; 0x26da <call+0x4a>
	if (p->tail != null)
    26e2:	f8 01       	movw	r30, r16
    26e4:	80 85       	ldd	r24, Z+8	; 0x08
    26e6:	91 85       	ldd	r25, Z+9	; 0x09
    26e8:	8e 01       	movw	r16, r28
    26ea:	07 5f       	subi	r16, 0xF7	; 247
    26ec:	1f 4f       	sbci	r17, 0xFF	; 255
    26ee:	00 97       	sbiw	r24, 0x00	; 0
    26f0:	99 f0       	breq	.+38     	; 0x2718 <call+0x88>
		return call(p->tail);
    26f2:	0e 94 48 13 	call	0x2690	; 0x2690 <call>
    26f6:	29 8b       	std	Y+17, r18	; 0x11
    26f8:	3a 8b       	std	Y+18, r19	; 0x12
    26fa:	4b 8b       	std	Y+19, r20	; 0x13
    26fc:	5c 8b       	std	Y+20, r21	; 0x14
    26fe:	6d 8b       	std	Y+21, r22	; 0x15
    2700:	7e 8b       	std	Y+22, r23	; 0x16
    2702:	8f 8b       	std	Y+23, r24	; 0x17
    2704:	98 8f       	std	Y+24, r25	; 0x18
    2706:	d8 01       	movw	r26, r16
    2708:	fe 01       	movw	r30, r28
    270a:	71 96       	adiw	r30, 0x11	; 17
    270c:	88 e0       	ldi	r24, 0x08	; 8
    270e:	01 90       	ld	r0, Z+
    2710:	0d 92       	st	X+, r0
    2712:	81 50       	subi	r24, 0x01	; 1
    2714:	e1 f7       	brne	.-8      	; 0x270e <call+0x7e>
    2716:	08 c0       	rjmp	.+16     	; 0x2728 <call+0x98>
	return r;
    2718:	d8 01       	movw	r26, r16
    271a:	fe 01       	movw	r30, r28
    271c:	31 96       	adiw	r30, 0x01	; 1
    271e:	88 e0       	ldi	r24, 0x08	; 8
    2720:	01 90       	ld	r0, Z+
    2722:	0d 92       	st	X+, r0
    2724:	81 50       	subi	r24, 0x01	; 1
    2726:	e1 f7       	brne	.-8      	; 0x2720 <call+0x90>
    2728:	29 85       	ldd	r18, Y+9	; 0x09
    272a:	3a 85       	ldd	r19, Y+10	; 0x0a
    272c:	4b 85       	ldd	r20, Y+11	; 0x0b
    272e:	5c 85       	ldd	r21, Y+12	; 0x0c
    2730:	6d 85       	ldd	r22, Y+13	; 0x0d
    2732:	7e 85       	ldd	r23, Y+14	; 0x0e
}
    2734:	8f 85       	ldd	r24, Y+15	; 0x0f
    2736:	98 89       	ldd	r25, Y+16	; 0x10
    2738:	68 96       	adiw	r28, 0x18	; 24
    273a:	0f b6       	in	r0, 0x3f	; 63
    273c:	f8 94       	cli
    273e:	de bf       	out	0x3e, r29	; 62
    2740:	0f be       	out	0x3f, r0	; 63
    2742:	cd bf       	out	0x3d, r28	; 61
    2744:	cf 91       	pop	r28
    2746:	df 91       	pop	r29
    2748:	1f 91       	pop	r17
    274a:	0f 91       	pop	r16
    274c:	08 95       	ret

0000274e <time>:
	
	return r;
}

tOBJ time(tCELLp p)   // i.e. (time (sleep 500))  => 500
{
    274e:	df 93       	push	r29
    2750:	cf 93       	push	r28
    2752:	cd b7       	in	r28, 0x3d	; 61
    2754:	de b7       	in	r29, 0x3e	; 62
    2756:	60 97       	sbiw	r28, 0x10	; 16
    2758:	0f b6       	in	r0, 0x3f	; 63
    275a:	f8 94       	cli
    275c:	de bf       	out	0x3e, r29	; 62
    275e:	0f be       	out	0x3f, r0	; 63
    2760:	cd bf       	out	0x3d, r28	; 61
    2762:	fc 01       	movw	r30, r24
	tOBJ r; r.type=INT;
	gticks = 0;
    2764:	10 92 9c 05 	sts	0x059C, r1
    2768:	10 92 9b 05 	sts	0x059B, r1
	callobj(p->head);
    276c:	20 81       	ld	r18, Z
    276e:	31 81       	ldd	r19, Z+1	; 0x01
    2770:	42 81       	ldd	r20, Z+2	; 0x02
    2772:	53 81       	ldd	r21, Z+3	; 0x03
    2774:	64 81       	ldd	r22, Z+4	; 0x04
    2776:	75 81       	ldd	r23, Z+5	; 0x05
    2778:	86 81       	ldd	r24, Z+6	; 0x06
    277a:	97 81       	ldd	r25, Z+7	; 0x07
    277c:	0e 94 2e 11 	call	0x225c	; 0x225c <callobj>
	r.number=gticks;
    2780:	80 91 9b 05 	lds	r24, 0x059B
    2784:	90 91 9c 05 	lds	r25, 0x059C
    2788:	9e 83       	std	Y+6, r25	; 0x06
    278a:	8d 83       	std	Y+5, r24	; 0x05
	return r;
    278c:	81 e0       	ldi	r24, 0x01	; 1
    278e:	90 e0       	ldi	r25, 0x00	; 0
    2790:	9a 83       	std	Y+2, r25	; 0x02
    2792:	89 83       	std	Y+1, r24	; 0x01
    2794:	de 01       	movw	r26, r28
    2796:	19 96       	adiw	r26, 0x09	; 9
    2798:	fe 01       	movw	r30, r28
    279a:	31 96       	adiw	r30, 0x01	; 1
    279c:	88 e0       	ldi	r24, 0x08	; 8
    279e:	01 90       	ld	r0, Z+
    27a0:	0d 92       	st	X+, r0
    27a2:	81 50       	subi	r24, 0x01	; 1
    27a4:	e1 f7       	brne	.-8      	; 0x279e <time+0x50>
    27a6:	29 85       	ldd	r18, Y+9	; 0x09
    27a8:	3a 85       	ldd	r19, Y+10	; 0x0a
    27aa:	4b 85       	ldd	r20, Y+11	; 0x0b
    27ac:	5c 85       	ldd	r21, Y+12	; 0x0c
    27ae:	6d 85       	ldd	r22, Y+13	; 0x0d
    27b0:	7e 85       	ldd	r23, Y+14	; 0x0e
}
    27b2:	8f 85       	ldd	r24, Y+15	; 0x0f
    27b4:	98 89       	ldd	r25, Y+16	; 0x10
    27b6:	60 96       	adiw	r28, 0x10	; 16
    27b8:	0f b6       	in	r0, 0x3f	; 63
    27ba:	f8 94       	cli
    27bc:	de bf       	out	0x3e, r29	; 62
    27be:	0f be       	out	0x3f, r0	; 63
    27c0:	cd bf       	out	0x3d, r28	; 61
    27c2:	cf 91       	pop	r28
    27c4:	df 91       	pop	r29
    27c6:	08 95       	ret

000027c8 <whle>:
	}
	return r;
}

tOBJ whle(tCELLp p)   // i.e. (while true (prn "world"))
{
    27c8:	cf 92       	push	r12
    27ca:	df 92       	push	r13
    27cc:	ef 92       	push	r14
    27ce:	ff 92       	push	r15
    27d0:	0f 93       	push	r16
    27d2:	1f 93       	push	r17
    27d4:	df 93       	push	r29
    27d6:	cf 93       	push	r28
    27d8:	cd b7       	in	r28, 0x3d	; 61
    27da:	de b7       	in	r29, 0x3e	; 62
    27dc:	e0 97       	sbiw	r28, 0x30	; 48
    27de:	0f b6       	in	r0, 0x3f	; 63
    27e0:	f8 94       	cli
    27e2:	de bf       	out	0x3e, r29	; 62
    27e4:	0f be       	out	0x3f, r0	; 63
    27e6:	cd bf       	out	0x3d, r28	; 61
    27e8:	fc 01       	movw	r30, r24
	// (while (eq -1 (readIR)) (do (prn "loop - IR=" (readIR)) (sleep 500)))
	tOBJ cond = p->head;
    27ea:	9e 01       	movw	r18, r28
    27ec:	2f 5f       	subi	r18, 0xFF	; 255
    27ee:	3f 4f       	sbci	r19, 0xFF	; 255
    27f0:	ac 01       	movw	r20, r24
    27f2:	88 e0       	ldi	r24, 0x08	; 8
    27f4:	da 01       	movw	r26, r20
    27f6:	0d 90       	ld	r0, X+
    27f8:	ad 01       	movw	r20, r26
    27fa:	d9 01       	movw	r26, r18
    27fc:	0d 92       	st	X+, r0
    27fe:	9d 01       	movw	r18, r26
    2800:	81 50       	subi	r24, 0x01	; 1
    2802:	c1 f7       	brne	.-16     	; 0x27f4 <whle+0x2c>
	tOBJ fn   = p->tail->head;
    2804:	de 01       	movw	r26, r28
    2806:	19 96       	adiw	r26, 0x09	; 9
    2808:	80 85       	ldd	r24, Z+8	; 0x08
    280a:	91 85       	ldd	r25, Z+9	; 0x09
    280c:	9c 01       	movw	r18, r24
    280e:	f9 01       	movw	r30, r18
    2810:	88 e0       	ldi	r24, 0x08	; 8
    2812:	01 90       	ld	r0, Z+
    2814:	0d 92       	st	X+, r0
    2816:	81 50       	subi	r24, 0x01	; 1
    2818:	e1 f7       	brne	.-8      	; 0x2812 <whle+0x4a>
	tOBJ r; r.type=EMPTY;
	
	tOBJ t = callobj(cond);
    281a:	29 81       	ldd	r18, Y+1	; 0x01
    281c:	3a 81       	ldd	r19, Y+2	; 0x02
    281e:	4b 81       	ldd	r20, Y+3	; 0x03
    2820:	5c 81       	ldd	r21, Y+4	; 0x04
    2822:	6d 81       	ldd	r22, Y+5	; 0x05
    2824:	7e 81       	ldd	r23, Y+6	; 0x06
    2826:	8f 81       	ldd	r24, Y+7	; 0x07
    2828:	98 85       	ldd	r25, Y+8	; 0x08
    282a:	0e 94 2e 11 	call	0x225c	; 0x225c <callobj>
    282e:	29 a7       	std	Y+41, r18	; 0x29
    2830:	3a a7       	std	Y+42, r19	; 0x2a
    2832:	4b a7       	std	Y+43, r20	; 0x2b
    2834:	5c a7       	std	Y+44, r21	; 0x2c
    2836:	6d a7       	std	Y+45, r22	; 0x2d
    2838:	7e a7       	std	Y+46, r23	; 0x2e
    283a:	8f a7       	std	Y+47, r24	; 0x2f
    283c:	98 ab       	std	Y+48, r25	; 0x30
    283e:	de 01       	movw	r26, r28
    2840:	59 96       	adiw	r26, 0x19	; 25
    2842:	fe 01       	movw	r30, r28
    2844:	b9 96       	adiw	r30, 0x29	; 41
    2846:	88 e0       	ldi	r24, 0x08	; 8
    2848:	01 90       	ld	r0, Z+
    284a:	0d 92       	st	X+, r0
    284c:	81 50       	subi	r24, 0x01	; 1
    284e:	e1 f7       	brne	.-8      	; 0x2848 <whle+0x80>
	
	DEBUG(printstr("cond=");printtype(t);)
    2850:	80 91 62 05 	lds	r24, 0x0562
    2854:	90 91 63 05 	lds	r25, 0x0563
    2858:	89 2b       	or	r24, r25
    285a:	71 f0       	breq	.+28     	; 0x2878 <whle+0xb0>
    285c:	8d ee       	ldi	r24, 0xED	; 237
    285e:	91 e0       	ldi	r25, 0x01	; 1
    2860:	0e 94 f6 0e 	call	0x1dec	; 0x1dec <printstr>
    2864:	29 8d       	ldd	r18, Y+25	; 0x19
    2866:	3a 8d       	ldd	r19, Y+26	; 0x1a
    2868:	4b 8d       	ldd	r20, Y+27	; 0x1b
    286a:	5c 8d       	ldd	r21, Y+28	; 0x1c
    286c:	6d 8d       	ldd	r22, Y+29	; 0x1d
    286e:	7e 8d       	ldd	r23, Y+30	; 0x1e
    2870:	8f 8d       	ldd	r24, Y+31	; 0x1f
    2872:	98 a1       	ldd	r25, Y+32	; 0x20
    2874:	0e 94 22 0f 	call	0x1e44	; 0x1e44 <printtype>
tOBJ whle(tCELLp p)   // i.e. (while true (prn "world"))
{
	// (while (eq -1 (readIR)) (do (prn "loop - IR=" (readIR)) (sleep 500)))
	tOBJ cond = p->head;
	tOBJ fn   = p->tail->head;
	tOBJ r; r.type=EMPTY;
    2878:	88 e0       	ldi	r24, 0x08	; 8
    287a:	90 e0       	ldi	r25, 0x00	; 0
    287c:	9a 8b       	std	Y+18, r25	; 0x12
    287e:	89 8b       	std	Y+17, r24	; 0x11
	
	DEBUG(printstr("cond=");printtype(t);)
	
	while ((t.type == BOOL && t.number==1) || (t.type != EMPTY && t.type != ERROR && t.type != BOOL )) 
	{
		r = callobj(fn);
    2880:	21 e1       	ldi	r18, 0x11	; 17
    2882:	c2 2e       	mov	r12, r18
    2884:	d1 2c       	mov	r13, r1
    2886:	cc 0e       	add	r12, r28
    2888:	dd 1e       	adc	r13, r29
    288a:	8e 01       	movw	r16, r28
    288c:	07 5d       	subi	r16, 0xD7	; 215
    288e:	1f 4f       	sbci	r17, 0xFF	; 255
		DEBUG(printstr("fn : ");printtype(fn);printstr("=");printtype(r);)

		t = callobj(cond);
    2890:	99 e1       	ldi	r25, 0x19	; 25
    2892:	e9 2e       	mov	r14, r25
    2894:	f1 2c       	mov	r15, r1
    2896:	ec 0e       	add	r14, r28
    2898:	fd 1e       	adc	r15, r29
    289a:	76 c0       	rjmp	.+236    	; 0x2988 <whle+0x1c0>
	
	DEBUG(printstr("cond=");printtype(t);)
	
	while ((t.type == BOOL && t.number==1) || (t.type != EMPTY && t.type != ERROR && t.type != BOOL )) 
	{
		r = callobj(fn);
    289c:	29 85       	ldd	r18, Y+9	; 0x09
    289e:	3a 85       	ldd	r19, Y+10	; 0x0a
    28a0:	4b 85       	ldd	r20, Y+11	; 0x0b
    28a2:	5c 85       	ldd	r21, Y+12	; 0x0c
    28a4:	6d 85       	ldd	r22, Y+13	; 0x0d
    28a6:	7e 85       	ldd	r23, Y+14	; 0x0e
    28a8:	8f 85       	ldd	r24, Y+15	; 0x0f
    28aa:	98 89       	ldd	r25, Y+16	; 0x10
    28ac:	0e 94 2e 11 	call	0x225c	; 0x225c <callobj>
    28b0:	29 a7       	std	Y+41, r18	; 0x29
    28b2:	3a a7       	std	Y+42, r19	; 0x2a
    28b4:	4b a7       	std	Y+43, r20	; 0x2b
    28b6:	5c a7       	std	Y+44, r21	; 0x2c
    28b8:	6d a7       	std	Y+45, r22	; 0x2d
    28ba:	7e a7       	std	Y+46, r23	; 0x2e
    28bc:	8f a7       	std	Y+47, r24	; 0x2f
    28be:	98 ab       	std	Y+48, r25	; 0x30
    28c0:	d6 01       	movw	r26, r12
    28c2:	f8 01       	movw	r30, r16
    28c4:	88 e0       	ldi	r24, 0x08	; 8
    28c6:	01 90       	ld	r0, Z+
    28c8:	0d 92       	st	X+, r0
    28ca:	81 50       	subi	r24, 0x01	; 1
    28cc:	e1 f7       	brne	.-8      	; 0x28c6 <whle+0xfe>
		DEBUG(printstr("fn : ");printtype(fn);printstr("=");printtype(r);)
    28ce:	80 91 62 05 	lds	r24, 0x0562
    28d2:	90 91 63 05 	lds	r25, 0x0563
    28d6:	89 2b       	or	r24, r25
    28d8:	e1 f0       	breq	.+56     	; 0x2912 <whle+0x14a>
    28da:	83 ef       	ldi	r24, 0xF3	; 243
    28dc:	91 e0       	ldi	r25, 0x01	; 1
    28de:	0e 94 f6 0e 	call	0x1dec	; 0x1dec <printstr>
    28e2:	29 85       	ldd	r18, Y+9	; 0x09
    28e4:	3a 85       	ldd	r19, Y+10	; 0x0a
    28e6:	4b 85       	ldd	r20, Y+11	; 0x0b
    28e8:	5c 85       	ldd	r21, Y+12	; 0x0c
    28ea:	6d 85       	ldd	r22, Y+13	; 0x0d
    28ec:	7e 85       	ldd	r23, Y+14	; 0x0e
    28ee:	8f 85       	ldd	r24, Y+15	; 0x0f
    28f0:	98 89       	ldd	r25, Y+16	; 0x10
    28f2:	0e 94 22 0f 	call	0x1e44	; 0x1e44 <printtype>
    28f6:	89 ef       	ldi	r24, 0xF9	; 249
    28f8:	91 e0       	ldi	r25, 0x01	; 1
    28fa:	0e 94 f6 0e 	call	0x1dec	; 0x1dec <printstr>
    28fe:	29 89       	ldd	r18, Y+17	; 0x11
    2900:	3a 89       	ldd	r19, Y+18	; 0x12
    2902:	4b 89       	ldd	r20, Y+19	; 0x13
    2904:	5c 89       	ldd	r21, Y+20	; 0x14
    2906:	6d 89       	ldd	r22, Y+21	; 0x15
    2908:	7e 89       	ldd	r23, Y+22	; 0x16
    290a:	8f 89       	ldd	r24, Y+23	; 0x17
    290c:	98 8d       	ldd	r25, Y+24	; 0x18
    290e:	0e 94 22 0f 	call	0x1e44	; 0x1e44 <printtype>

		t = callobj(cond);
    2912:	29 81       	ldd	r18, Y+1	; 0x01
    2914:	3a 81       	ldd	r19, Y+2	; 0x02
    2916:	4b 81       	ldd	r20, Y+3	; 0x03
    2918:	5c 81       	ldd	r21, Y+4	; 0x04
    291a:	6d 81       	ldd	r22, Y+5	; 0x05
    291c:	7e 81       	ldd	r23, Y+6	; 0x06
    291e:	8f 81       	ldd	r24, Y+7	; 0x07
    2920:	98 85       	ldd	r25, Y+8	; 0x08
    2922:	0e 94 2e 11 	call	0x225c	; 0x225c <callobj>
    2926:	29 a7       	std	Y+41, r18	; 0x29
    2928:	3a a7       	std	Y+42, r19	; 0x2a
    292a:	4b a7       	std	Y+43, r20	; 0x2b
    292c:	5c a7       	std	Y+44, r21	; 0x2c
    292e:	6d a7       	std	Y+45, r22	; 0x2d
    2930:	7e a7       	std	Y+46, r23	; 0x2e
    2932:	8f a7       	std	Y+47, r24	; 0x2f
    2934:	98 ab       	std	Y+48, r25	; 0x30
    2936:	d7 01       	movw	r26, r14
    2938:	f8 01       	movw	r30, r16
    293a:	88 e0       	ldi	r24, 0x08	; 8
    293c:	01 90       	ld	r0, Z+
    293e:	0d 92       	st	X+, r0
    2940:	81 50       	subi	r24, 0x01	; 1
    2942:	e1 f7       	brne	.-8      	; 0x293c <whle+0x174>
		DEBUG(printstr("cond : ");printtype(cond);printstr("=");printtype(t);)
    2944:	80 91 62 05 	lds	r24, 0x0562
    2948:	90 91 63 05 	lds	r25, 0x0563
    294c:	89 2b       	or	r24, r25
    294e:	e1 f0       	breq	.+56     	; 0x2988 <whle+0x1c0>
    2950:	8b ef       	ldi	r24, 0xFB	; 251
    2952:	91 e0       	ldi	r25, 0x01	; 1
    2954:	0e 94 f6 0e 	call	0x1dec	; 0x1dec <printstr>
    2958:	29 81       	ldd	r18, Y+1	; 0x01
    295a:	3a 81       	ldd	r19, Y+2	; 0x02
    295c:	4b 81       	ldd	r20, Y+3	; 0x03
    295e:	5c 81       	ldd	r21, Y+4	; 0x04
    2960:	6d 81       	ldd	r22, Y+5	; 0x05
    2962:	7e 81       	ldd	r23, Y+6	; 0x06
    2964:	8f 81       	ldd	r24, Y+7	; 0x07
    2966:	98 85       	ldd	r25, Y+8	; 0x08
    2968:	0e 94 22 0f 	call	0x1e44	; 0x1e44 <printtype>
    296c:	89 ef       	ldi	r24, 0xF9	; 249
    296e:	91 e0       	ldi	r25, 0x01	; 1
    2970:	0e 94 f6 0e 	call	0x1dec	; 0x1dec <printstr>
    2974:	29 8d       	ldd	r18, Y+25	; 0x19
    2976:	3a 8d       	ldd	r19, Y+26	; 0x1a
    2978:	4b 8d       	ldd	r20, Y+27	; 0x1b
    297a:	5c 8d       	ldd	r21, Y+28	; 0x1c
    297c:	6d 8d       	ldd	r22, Y+29	; 0x1d
    297e:	7e 8d       	ldd	r23, Y+30	; 0x1e
    2980:	8f 8d       	ldd	r24, Y+31	; 0x1f
    2982:	98 a1       	ldd	r25, Y+32	; 0x20
    2984:	0e 94 22 0f 	call	0x1e44	; 0x1e44 <printtype>
	
	tOBJ t = callobj(cond);
	
	DEBUG(printstr("cond=");printtype(t);)
	
	while ((t.type == BOOL && t.number==1) || (t.type != EMPTY && t.type != ERROR && t.type != BOOL )) 
    2988:	29 8d       	ldd	r18, Y+25	; 0x19
    298a:	3a 8d       	ldd	r19, Y+26	; 0x1a
    298c:	22 30       	cpi	r18, 0x02	; 2
    298e:	31 05       	cpc	r19, r1
    2990:	29 f4       	brne	.+10     	; 0x299c <whle+0x1d4>
    2992:	8d 8d       	ldd	r24, Y+29	; 0x1d
    2994:	9e 8d       	ldd	r25, Y+30	; 0x1e
    2996:	01 97       	sbiw	r24, 0x01	; 1
    2998:	09 f4       	brne	.+2      	; 0x299c <whle+0x1d4>
    299a:	80 cf       	rjmp	.-256    	; 0x289c <whle+0xd4>
    299c:	c9 01       	movw	r24, r18
    299e:	08 97       	sbiw	r24, 0x08	; 8
    29a0:	02 97       	sbiw	r24, 0x02	; 2
    29a2:	20 f0       	brcs	.+8      	; 0x29ac <whle+0x1e4>
    29a4:	22 30       	cpi	r18, 0x02	; 2
    29a6:	31 05       	cpc	r19, r1
    29a8:	09 f0       	breq	.+2      	; 0x29ac <whle+0x1e4>
    29aa:	78 cf       	rjmp	.-272    	; 0x289c <whle+0xd4>

		t = callobj(cond);
		DEBUG(printstr("cond : ");printtype(cond);printstr("=");printtype(t);)
	}
	
	return r;
    29ac:	de 01       	movw	r26, r28
    29ae:	91 96       	adiw	r26, 0x21	; 33
    29b0:	fe 01       	movw	r30, r28
    29b2:	71 96       	adiw	r30, 0x11	; 17
    29b4:	88 e0       	ldi	r24, 0x08	; 8
    29b6:	01 90       	ld	r0, Z+
    29b8:	0d 92       	st	X+, r0
    29ba:	81 50       	subi	r24, 0x01	; 1
    29bc:	e1 f7       	brne	.-8      	; 0x29b6 <whle+0x1ee>
    29be:	29 a1       	ldd	r18, Y+33	; 0x21
    29c0:	3a a1       	ldd	r19, Y+34	; 0x22
    29c2:	4b a1       	ldd	r20, Y+35	; 0x23
    29c4:	5c a1       	ldd	r21, Y+36	; 0x24
    29c6:	6d a1       	ldd	r22, Y+37	; 0x25
    29c8:	7e a1       	ldd	r23, Y+38	; 0x26
}
    29ca:	8f a1       	ldd	r24, Y+39	; 0x27
    29cc:	98 a5       	ldd	r25, Y+40	; 0x28
    29ce:	e0 96       	adiw	r28, 0x30	; 48
    29d0:	0f b6       	in	r0, 0x3f	; 63
    29d2:	f8 94       	cli
    29d4:	de bf       	out	0x3e, r29	; 62
    29d6:	0f be       	out	0x3f, r0	; 63
    29d8:	cd bf       	out	0x3d, r28	; 61
    29da:	cf 91       	pop	r28
    29dc:	df 91       	pop	r29
    29de:	1f 91       	pop	r17
    29e0:	0f 91       	pop	r16
    29e2:	ff 90       	pop	r15
    29e4:	ef 90       	pop	r14
    29e6:	df 90       	pop	r13
    29e8:	cf 90       	pop	r12
    29ea:	08 95       	ret

000029ec <iff>:
tOBJ call(tCELLp p);
tOBJ callobj(tOBJ h) ;


tOBJ iff(tCELLp p)  // i.e. (if (eq 1 2) (prn "One") true (prn "Two")) => Two
{
    29ec:	ef 92       	push	r14
    29ee:	ff 92       	push	r15
    29f0:	0f 93       	push	r16
    29f2:	1f 93       	push	r17
    29f4:	df 93       	push	r29
    29f6:	cf 93       	push	r28
    29f8:	cd b7       	in	r28, 0x3d	; 61
    29fa:	de b7       	in	r29, 0x3e	; 62
    29fc:	68 97       	sbiw	r28, 0x18	; 24
    29fe:	0f b6       	in	r0, 0x3f	; 63
    2a00:	f8 94       	cli
    2a02:	de bf       	out	0x3e, r29	; 62
    2a04:	0f be       	out	0x3f, r0	; 63
    2a06:	cd bf       	out	0x3d, r28	; 61
    2a08:	8c 01       	movw	r16, r24
    2a0a:	7e 01       	movw	r14, r28
    2a0c:	08 94       	sec
    2a0e:	e1 1c       	adc	r14, r1
    2a10:	f1 1c       	adc	r15, r1
	tOBJ r;
	r.type=EMPTY;
	
	if (p == null) return r;
    2a12:	00 97       	sbiw	r24, 0x00	; 0
    2a14:	69 f4       	brne	.+26     	; 0x2a30 <iff+0x44>
    2a16:	88 e0       	ldi	r24, 0x08	; 8
    2a18:	90 e0       	ldi	r25, 0x00	; 0
    2a1a:	9a 83       	std	Y+2, r25	; 0x02
    2a1c:	89 83       	std	Y+1, r24	; 0x01
    2a1e:	de 01       	movw	r26, r28
    2a20:	19 96       	adiw	r26, 0x09	; 9
    2a22:	f7 01       	movw	r30, r14
    2a24:	88 e0       	ldi	r24, 0x08	; 8
    2a26:	01 90       	ld	r0, Z+
    2a28:	0d 92       	st	X+, r0
    2a2a:	81 50       	subi	r24, 0x01	; 1
    2a2c:	e1 f7       	brne	.-8      	; 0x2a26 <iff+0x3a>
    2a2e:	8e c0       	rjmp	.+284    	; 0x2b4c <iff+0x160>
	
	r = callobj(p->head);
    2a30:	dc 01       	movw	r26, r24
    2a32:	2c 91       	ld	r18, X
    2a34:	11 96       	adiw	r26, 0x01	; 1
    2a36:	3c 91       	ld	r19, X
    2a38:	11 97       	sbiw	r26, 0x01	; 1
    2a3a:	12 96       	adiw	r26, 0x02	; 2
    2a3c:	4c 91       	ld	r20, X
    2a3e:	12 97       	sbiw	r26, 0x02	; 2
    2a40:	13 96       	adiw	r26, 0x03	; 3
    2a42:	5c 91       	ld	r21, X
    2a44:	13 97       	sbiw	r26, 0x03	; 3
    2a46:	14 96       	adiw	r26, 0x04	; 4
    2a48:	6c 91       	ld	r22, X
    2a4a:	14 97       	sbiw	r26, 0x04	; 4
    2a4c:	15 96       	adiw	r26, 0x05	; 5
    2a4e:	7c 91       	ld	r23, X
    2a50:	15 97       	sbiw	r26, 0x05	; 5
    2a52:	16 96       	adiw	r26, 0x06	; 6
    2a54:	8c 91       	ld	r24, X
    2a56:	16 97       	sbiw	r26, 0x06	; 6
    2a58:	17 96       	adiw	r26, 0x07	; 7
    2a5a:	9c 91       	ld	r25, X
    2a5c:	0e 94 2e 11 	call	0x225c	; 0x225c <callobj>
    2a60:	29 8b       	std	Y+17, r18	; 0x11
    2a62:	3a 8b       	std	Y+18, r19	; 0x12
    2a64:	4b 8b       	std	Y+19, r20	; 0x13
    2a66:	5c 8b       	std	Y+20, r21	; 0x14
    2a68:	6d 8b       	std	Y+21, r22	; 0x15
    2a6a:	7e 8b       	std	Y+22, r23	; 0x16
    2a6c:	8f 8b       	std	Y+23, r24	; 0x17
    2a6e:	98 8f       	std	Y+24, r25	; 0x18
    2a70:	d7 01       	movw	r26, r14
    2a72:	fe 01       	movw	r30, r28
    2a74:	71 96       	adiw	r30, 0x11	; 17
    2a76:	88 e0       	ldi	r24, 0x08	; 8
    2a78:	01 90       	ld	r0, Z+
    2a7a:	0d 92       	st	X+, r0
    2a7c:	81 50       	subi	r24, 0x01	; 1
    2a7e:	e1 f7       	brne	.-8      	; 0x2a78 <iff+0x8c>
    2a80:	29 81       	ldd	r18, Y+1	; 0x01
    2a82:	3a 81       	ldd	r19, Y+2	; 0x02
	
	if ((r.type == BOOL && r.number==1) || (r.type != EMPTY && r.type != ERROR && r.type != BOOL )) 
    2a84:	22 30       	cpi	r18, 0x02	; 2
    2a86:	31 05       	cpc	r19, r1
    2a88:	21 f4       	brne	.+8      	; 0x2a92 <iff+0xa6>
    2a8a:	8d 81       	ldd	r24, Y+5	; 0x05
    2a8c:	9e 81       	ldd	r25, Y+6	; 0x06
    2a8e:	01 97       	sbiw	r24, 0x01	; 1
    2a90:	39 f0       	breq	.+14     	; 0x2aa0 <iff+0xb4>
    2a92:	c9 01       	movw	r24, r18
    2a94:	08 97       	sbiw	r24, 0x08	; 8
    2a96:	02 97       	sbiw	r24, 0x02	; 2
    2a98:	b0 f1       	brcs	.+108    	; 0x2b06 <iff+0x11a>
    2a9a:	22 30       	cpi	r18, 0x02	; 2
    2a9c:	31 05       	cpc	r19, r1
    2a9e:	99 f1       	breq	.+102    	; 0x2b06 <iff+0x11a>
	{	
		tCELLp x = p->tail;
    2aa0:	d8 01       	movw	r26, r16
    2aa2:	18 96       	adiw	r26, 0x08	; 8
    2aa4:	ed 91       	ld	r30, X+
    2aa6:	fc 91       	ld	r31, X
    2aa8:	19 97       	sbiw	r26, 0x09	; 9
		if (x != null)
    2aaa:	30 97       	sbiw	r30, 0x00	; 0
    2aac:	19 f4       	brne	.+6      	; 0x2ab4 <iff+0xc8>
    2aae:	92 2f       	mov	r25, r18
    2ab0:	83 2f       	mov	r24, r19
    2ab2:	1d c0       	rjmp	.+58     	; 0x2aee <iff+0x102>
		{
			r = callobj(x->head);
    2ab4:	20 81       	ld	r18, Z
    2ab6:	31 81       	ldd	r19, Z+1	; 0x01
    2ab8:	42 81       	ldd	r20, Z+2	; 0x02
    2aba:	53 81       	ldd	r21, Z+3	; 0x03
    2abc:	64 81       	ldd	r22, Z+4	; 0x04
    2abe:	75 81       	ldd	r23, Z+5	; 0x05
    2ac0:	86 81       	ldd	r24, Z+6	; 0x06
    2ac2:	97 81       	ldd	r25, Z+7	; 0x07
    2ac4:	0e 94 2e 11 	call	0x225c	; 0x225c <callobj>
    2ac8:	29 8b       	std	Y+17, r18	; 0x11
    2aca:	3a 8b       	std	Y+18, r19	; 0x12
    2acc:	4b 8b       	std	Y+19, r20	; 0x13
    2ace:	5c 8b       	std	Y+20, r21	; 0x14
    2ad0:	6d 8b       	std	Y+21, r22	; 0x15
    2ad2:	7e 8b       	std	Y+22, r23	; 0x16
    2ad4:	8f 8b       	std	Y+23, r24	; 0x17
    2ad6:	98 8f       	std	Y+24, r25	; 0x18
    2ad8:	de 01       	movw	r26, r28
    2ada:	11 96       	adiw	r26, 0x01	; 1
    2adc:	fe 01       	movw	r30, r28
    2ade:	71 96       	adiw	r30, 0x11	; 17
    2ae0:	88 e0       	ldi	r24, 0x08	; 8
    2ae2:	01 90       	ld	r0, Z+
    2ae4:	0d 92       	st	X+, r0
    2ae6:	81 50       	subi	r24, 0x01	; 1
    2ae8:	e1 f7       	brne	.-8      	; 0x2ae2 <iff+0xf6>
    2aea:	99 81       	ldd	r25, Y+1	; 0x01
    2aec:	8a 81       	ldd	r24, Y+2	; 0x02
		}
		return r;
    2aee:	99 83       	std	Y+1, r25	; 0x01
    2af0:	8a 83       	std	Y+2, r24	; 0x02
    2af2:	de 01       	movw	r26, r28
    2af4:	19 96       	adiw	r26, 0x09	; 9
    2af6:	fe 01       	movw	r30, r28
    2af8:	31 96       	adiw	r30, 0x01	; 1
    2afa:	88 e0       	ldi	r24, 0x08	; 8
    2afc:	01 90       	ld	r0, Z+
    2afe:	0d 92       	st	X+, r0
    2b00:	81 50       	subi	r24, 0x01	; 1
    2b02:	e1 f7       	brne	.-8      	; 0x2afc <iff+0x110>
    2b04:	23 c0       	rjmp	.+70     	; 0x2b4c <iff+0x160>
	}
	else
	{
		p=p->tail;
		r=iff(p->tail);
    2b06:	d8 01       	movw	r26, r16
    2b08:	18 96       	adiw	r26, 0x08	; 8
    2b0a:	ed 91       	ld	r30, X+
    2b0c:	fc 91       	ld	r31, X
    2b0e:	19 97       	sbiw	r26, 0x09	; 9
    2b10:	80 85       	ldd	r24, Z+8	; 0x08
    2b12:	91 85       	ldd	r25, Z+9	; 0x09
    2b14:	0e 94 f6 14 	call	0x29ec	; 0x29ec <iff>
    2b18:	29 8b       	std	Y+17, r18	; 0x11
    2b1a:	3a 8b       	std	Y+18, r19	; 0x12
    2b1c:	4b 8b       	std	Y+19, r20	; 0x13
    2b1e:	5c 8b       	std	Y+20, r21	; 0x14
    2b20:	6d 8b       	std	Y+21, r22	; 0x15
    2b22:	7e 8b       	std	Y+22, r23	; 0x16
    2b24:	8f 8b       	std	Y+23, r24	; 0x17
    2b26:	98 8f       	std	Y+24, r25	; 0x18
    2b28:	de 01       	movw	r26, r28
    2b2a:	11 96       	adiw	r26, 0x01	; 1
    2b2c:	fe 01       	movw	r30, r28
    2b2e:	71 96       	adiw	r30, 0x11	; 17
    2b30:	88 e0       	ldi	r24, 0x08	; 8
    2b32:	01 90       	ld	r0, Z+
    2b34:	0d 92       	st	X+, r0
    2b36:	81 50       	subi	r24, 0x01	; 1
    2b38:	e1 f7       	brne	.-8      	; 0x2b32 <iff+0x146>
		return r;		
    2b3a:	de 01       	movw	r26, r28
    2b3c:	19 96       	adiw	r26, 0x09	; 9
    2b3e:	fe 01       	movw	r30, r28
    2b40:	31 96       	adiw	r30, 0x01	; 1
    2b42:	88 e0       	ldi	r24, 0x08	; 8
    2b44:	01 90       	ld	r0, Z+
    2b46:	0d 92       	st	X+, r0
    2b48:	81 50       	subi	r24, 0x01	; 1
    2b4a:	e1 f7       	brne	.-8      	; 0x2b44 <iff+0x158>
    2b4c:	29 85       	ldd	r18, Y+9	; 0x09
    2b4e:	3a 85       	ldd	r19, Y+10	; 0x0a
    2b50:	4b 85       	ldd	r20, Y+11	; 0x0b
    2b52:	5c 85       	ldd	r21, Y+12	; 0x0c
    2b54:	6d 85       	ldd	r22, Y+13	; 0x0d
    2b56:	7e 85       	ldd	r23, Y+14	; 0x0e
	}
}
    2b58:	8f 85       	ldd	r24, Y+15	; 0x0f
    2b5a:	98 89       	ldd	r25, Y+16	; 0x10
    2b5c:	68 96       	adiw	r28, 0x18	; 24
    2b5e:	0f b6       	in	r0, 0x3f	; 63
    2b60:	f8 94       	cli
    2b62:	de bf       	out	0x3e, r29	; 62
    2b64:	0f be       	out	0x3f, r0	; 63
    2b66:	cd bf       	out	0x3d, r28	; 61
    2b68:	cf 91       	pop	r28
    2b6a:	df 91       	pop	r29
    2b6c:	1f 91       	pop	r17
    2b6e:	0f 91       	pop	r16
    2b70:	ff 90       	pop	r15
    2b72:	ef 90       	pop	r14
    2b74:	08 95       	ret

00002b76 <setq>:
	}
	return r;
}

tOBJ setq(tCELLp p)   // i.e. (set 'a 123 'b 245 ) => 123 and set a 
{
    2b76:	ef 92       	push	r14
    2b78:	ff 92       	push	r15
    2b7a:	0f 93       	push	r16
    2b7c:	1f 93       	push	r17
    2b7e:	df 93       	push	r29
    2b80:	cf 93       	push	r28
    2b82:	cd b7       	in	r28, 0x3d	; 61
    2b84:	de b7       	in	r29, 0x3e	; 62
    2b86:	e8 97       	sbiw	r28, 0x38	; 56
    2b88:	0f b6       	in	r0, 0x3f	; 63
    2b8a:	f8 94       	cli
    2b8c:	de bf       	out	0x3e, r29	; 62
    2b8e:	0f be       	out	0x3f, r0	; 63
    2b90:	cd bf       	out	0x3d, r28	; 61
    2b92:	7c 01       	movw	r14, r24
	tOBJ r;
	r.type=EMPTY;

	tOBJ h = p->head;
    2b94:	de 01       	movw	r26, r28
    2b96:	19 96       	adiw	r26, 0x09	; 9
    2b98:	fc 01       	movw	r30, r24
    2b9a:	88 e0       	ldi	r24, 0x08	; 8
    2b9c:	01 90       	ld	r0, Z+
    2b9e:	0d 92       	st	X+, r0
    2ba0:	81 50       	subi	r24, 0x01	; 1
    2ba2:	e1 f7       	brne	.-8      	; 0x2b9c <setq+0x26>
    2ba4:	49 85       	ldd	r20, Y+9	; 0x09
    2ba6:	5a 85       	ldd	r21, Y+10	; 0x0a
	
	if (h.type == SYMBOL)
    2ba8:	41 15       	cp	r20, r1
    2baa:	51 05       	cpc	r21, r1
    2bac:	09 f0       	breq	.+2      	; 0x2bb0 <setq+0x3a>
    2bae:	57 c0       	rjmp	.+174    	; 0x2c5e <setq+0xe8>
	{
		add(h.string, callobj((p->tail)->head));
    2bb0:	d7 01       	movw	r26, r14
    2bb2:	18 96       	adiw	r26, 0x08	; 8
    2bb4:	ed 91       	ld	r30, X+
    2bb6:	fc 91       	ld	r31, X
    2bb8:	19 97       	sbiw	r26, 0x09	; 9
    2bba:	20 81       	ld	r18, Z
    2bbc:	31 81       	ldd	r19, Z+1	; 0x01
    2bbe:	42 81       	ldd	r20, Z+2	; 0x02
    2bc0:	53 81       	ldd	r21, Z+3	; 0x03
    2bc2:	64 81       	ldd	r22, Z+4	; 0x04
    2bc4:	75 81       	ldd	r23, Z+5	; 0x05
    2bc6:	86 81       	ldd	r24, Z+6	; 0x06
    2bc8:	97 81       	ldd	r25, Z+7	; 0x07
    2bca:	0e 94 2e 11 	call	0x225c	; 0x225c <callobj>
    2bce:	29 ab       	std	Y+49, r18	; 0x31
    2bd0:	3a ab       	std	Y+50, r19	; 0x32
    2bd2:	4b ab       	std	Y+51, r20	; 0x33
    2bd4:	5c ab       	std	Y+52, r21	; 0x34
    2bd6:	6d ab       	std	Y+53, r22	; 0x35
    2bd8:	7e ab       	std	Y+54, r23	; 0x36
    2bda:	8f ab       	std	Y+55, r24	; 0x37
    2bdc:	98 af       	std	Y+56, r25	; 0x38
    2bde:	de 01       	movw	r26, r28
    2be0:	51 96       	adiw	r26, 0x11	; 17
    2be2:	fe 01       	movw	r30, r28
    2be4:	f1 96       	adiw	r30, 0x31	; 49
    2be6:	88 e0       	ldi	r24, 0x08	; 8
    2be8:	01 90       	ld	r0, Z+
    2bea:	0d 92       	st	X+, r0
    2bec:	81 50       	subi	r24, 0x01	; 1
    2bee:	e1 f7       	brne	.-8      	; 0x2be8 <setq+0x72>
    2bf0:	09 89       	ldd	r16, Y+17	; 0x11
    2bf2:	1a 89       	ldd	r17, Y+18	; 0x12
    2bf4:	2b 89       	ldd	r18, Y+19	; 0x13
    2bf6:	3c 89       	ldd	r19, Y+20	; 0x14
    2bf8:	4d 89       	ldd	r20, Y+21	; 0x15
    2bfa:	5e 89       	ldd	r21, Y+22	; 0x16
    2bfc:	6f 89       	ldd	r22, Y+23	; 0x17
    2bfe:	78 8d       	ldd	r23, Y+24	; 0x18
    2c00:	8d 85       	ldd	r24, Y+13	; 0x0d
    2c02:	9e 85       	ldd	r25, Y+14	; 0x0e
    2c04:	0e 94 01 0d 	call	0x1a02	; 0x1a02 <add>
		r= (p->tail)->head;
    2c08:	f7 01       	movw	r30, r14
    2c0a:	20 85       	ldd	r18, Z+8	; 0x08
    2c0c:	31 85       	ldd	r19, Z+9	; 0x09
    2c0e:	de 01       	movw	r26, r28
    2c10:	11 96       	adiw	r26, 0x01	; 1
    2c12:	f9 01       	movw	r30, r18
    2c14:	88 e0       	ldi	r24, 0x08	; 8
    2c16:	01 90       	ld	r0, Z+
    2c18:	0d 92       	st	X+, r0
    2c1a:	81 50       	subi	r24, 0x01	; 1
    2c1c:	e1 f7       	brne	.-8      	; 0x2c16 <setq+0xa0>
    2c1e:	49 81       	ldd	r20, Y+1	; 0x01
    2c20:	5a 81       	ldd	r21, Y+2	; 0x02
		
		if (p->tail->tail != null)
    2c22:	d9 01       	movw	r26, r18
    2c24:	18 96       	adiw	r26, 0x08	; 8
    2c26:	8d 91       	ld	r24, X+
    2c28:	9c 91       	ld	r25, X
    2c2a:	19 97       	sbiw	r26, 0x09	; 9
    2c2c:	00 97       	sbiw	r24, 0x00	; 0
    2c2e:	19 f4       	brne	.+6      	; 0x2c36 <setq+0xc0>
    2c30:	94 2f       	mov	r25, r20
    2c32:	85 2f       	mov	r24, r21
    2c34:	42 c0       	rjmp	.+132    	; 0x2cba <setq+0x144>
		{
			return setq(p->tail->tail);
    2c36:	0e 94 bb 15 	call	0x2b76	; 0x2b76 <setq>
    2c3a:	29 ab       	std	Y+49, r18	; 0x31
    2c3c:	3a ab       	std	Y+50, r19	; 0x32
    2c3e:	4b ab       	std	Y+51, r20	; 0x33
    2c40:	5c ab       	std	Y+52, r21	; 0x34
    2c42:	6d ab       	std	Y+53, r22	; 0x35
    2c44:	7e ab       	std	Y+54, r23	; 0x36
    2c46:	8f ab       	std	Y+55, r24	; 0x37
    2c48:	98 af       	std	Y+56, r25	; 0x38
    2c4a:	de 01       	movw	r26, r28
    2c4c:	59 96       	adiw	r26, 0x19	; 25
    2c4e:	fe 01       	movw	r30, r28
    2c50:	f1 96       	adiw	r30, 0x31	; 49
    2c52:	88 e0       	ldi	r24, 0x08	; 8
    2c54:	01 90       	ld	r0, Z+
    2c56:	0d 92       	st	X+, r0
    2c58:	81 50       	subi	r24, 0x01	; 1
    2c5a:	e1 f7       	brne	.-8      	; 0x2c54 <setq+0xde>
    2c5c:	39 c0       	rjmp	.+114    	; 0x2cd0 <setq+0x15a>
		}
	}
	else
	{
		DEBUG(printtype(h);)
    2c5e:	80 91 62 05 	lds	r24, 0x0562
    2c62:	90 91 63 05 	lds	r25, 0x0563
    2c66:	89 2b       	or	r24, r25
    2c68:	61 f0       	breq	.+24     	; 0x2c82 <setq+0x10c>
    2c6a:	24 2f       	mov	r18, r20
    2c6c:	5a 87       	std	Y+10, r21	; 0x0a
    2c6e:	49 87       	std	Y+9, r20	; 0x09
    2c70:	3a 85       	ldd	r19, Y+10	; 0x0a
    2c72:	4b 85       	ldd	r20, Y+11	; 0x0b
    2c74:	5c 85       	ldd	r21, Y+12	; 0x0c
    2c76:	6d 85       	ldd	r22, Y+13	; 0x0d
    2c78:	7e 85       	ldd	r23, Y+14	; 0x0e
    2c7a:	8f 85       	ldd	r24, Y+15	; 0x0f
    2c7c:	98 89       	ldd	r25, Y+16	; 0x10
    2c7e:	0e 94 22 0f 	call	0x1e44	; 0x1e44 <printtype>

void showenviron();

tOBJ throw(int n)
{
	tOBJ r; r.type=ERROR; r.number=n;
    2c82:	84 e0       	ldi	r24, 0x04	; 4
    2c84:	90 e0       	ldi	r25, 0x00	; 0
    2c86:	9e a3       	std	Y+38, r25	; 0x26
    2c88:	8d a3       	std	Y+37, r24	; 0x25
	return r;
    2c8a:	89 e0       	ldi	r24, 0x09	; 9
    2c8c:	90 e0       	ldi	r25, 0x00	; 0
    2c8e:	9a a3       	std	Y+34, r25	; 0x22
    2c90:	89 a3       	std	Y+33, r24	; 0x21
    2c92:	de 01       	movw	r26, r28
    2c94:	99 96       	adiw	r26, 0x29	; 41
    2c96:	fe 01       	movw	r30, r28
    2c98:	b1 96       	adiw	r30, 0x21	; 33
    2c9a:	88 e0       	ldi	r24, 0x08	; 8
    2c9c:	01 90       	ld	r0, Z+
    2c9e:	0d 92       	st	X+, r0
    2ca0:	81 50       	subi	r24, 0x01	; 1
    2ca2:	e1 f7       	brne	.-8      	; 0x2c9c <setq+0x126>
    2ca4:	de 01       	movw	r26, r28
    2ca6:	11 96       	adiw	r26, 0x01	; 1
    2ca8:	fe 01       	movw	r30, r28
    2caa:	b9 96       	adiw	r30, 0x29	; 41
    2cac:	88 e0       	ldi	r24, 0x08	; 8
    2cae:	01 90       	ld	r0, Z+
    2cb0:	0d 92       	st	X+, r0
    2cb2:	81 50       	subi	r24, 0x01	; 1
    2cb4:	e1 f7       	brne	.-8      	; 0x2cae <setq+0x138>
    2cb6:	99 81       	ldd	r25, Y+1	; 0x01
    2cb8:	8a 81       	ldd	r24, Y+2	; 0x02
	else
	{
		DEBUG(printtype(h);)
		r=throw(4);
	}
	return r;
    2cba:	99 83       	std	Y+1, r25	; 0x01
    2cbc:	8a 83       	std	Y+2, r24	; 0x02
    2cbe:	de 01       	movw	r26, r28
    2cc0:	59 96       	adiw	r26, 0x19	; 25
    2cc2:	fe 01       	movw	r30, r28
    2cc4:	31 96       	adiw	r30, 0x01	; 1
    2cc6:	88 e0       	ldi	r24, 0x08	; 8
    2cc8:	01 90       	ld	r0, Z+
    2cca:	0d 92       	st	X+, r0
    2ccc:	81 50       	subi	r24, 0x01	; 1
    2cce:	e1 f7       	brne	.-8      	; 0x2cc8 <setq+0x152>
    2cd0:	29 8d       	ldd	r18, Y+25	; 0x19
    2cd2:	3a 8d       	ldd	r19, Y+26	; 0x1a
    2cd4:	4b 8d       	ldd	r20, Y+27	; 0x1b
    2cd6:	5c 8d       	ldd	r21, Y+28	; 0x1c
    2cd8:	6d 8d       	ldd	r22, Y+29	; 0x1d
    2cda:	7e 8d       	ldd	r23, Y+30	; 0x1e
}
    2cdc:	8f 8d       	ldd	r24, Y+31	; 0x1f
    2cde:	98 a1       	ldd	r25, Y+32	; 0x20
    2ce0:	e8 96       	adiw	r28, 0x38	; 56
    2ce2:	0f b6       	in	r0, 0x3f	; 63
    2ce4:	f8 94       	cli
    2ce6:	de bf       	out	0x3e, r29	; 62
    2ce8:	0f be       	out	0x3f, r0	; 63
    2cea:	cd bf       	out	0x3d, r28	; 61
    2cec:	cf 91       	pop	r28
    2cee:	df 91       	pop	r29
    2cf0:	1f 91       	pop	r17
    2cf2:	0f 91       	pop	r16
    2cf4:	ff 90       	pop	r15
    2cf6:	ef 90       	pop	r14
    2cf8:	08 95       	ret

00002cfa <prn>:

	return r;
}

tOBJ prn(tCELLp p)
{
    2cfa:	df 93       	push	r29
    2cfc:	cf 93       	push	r28
    2cfe:	cd b7       	in	r28, 0x3d	; 61
    2d00:	de b7       	in	r29, 0x3e	; 62
    2d02:	68 97       	sbiw	r28, 0x18	; 24
    2d04:	0f b6       	in	r0, 0x3f	; 63
    2d06:	f8 94       	cli
    2d08:	de bf       	out	0x3e, r29	; 62
    2d0a:	0f be       	out	0x3f, r0	; 63
    2d0c:	cd bf       	out	0x3d, r28	; 61
	tOBJ r= pr(p);
    2d0e:	0e 94 da 10 	call	0x21b4	; 0x21b4 <pr>
    2d12:	29 8b       	std	Y+17, r18	; 0x11
    2d14:	3a 8b       	std	Y+18, r19	; 0x12
    2d16:	4b 8b       	std	Y+19, r20	; 0x13
    2d18:	5c 8b       	std	Y+20, r21	; 0x14
    2d1a:	6d 8b       	std	Y+21, r22	; 0x15
    2d1c:	7e 8b       	std	Y+22, r23	; 0x16
    2d1e:	8f 8b       	std	Y+23, r24	; 0x17
    2d20:	98 8f       	std	Y+24, r25	; 0x18
    2d22:	de 01       	movw	r26, r28
    2d24:	11 96       	adiw	r26, 0x01	; 1
    2d26:	fe 01       	movw	r30, r28
    2d28:	71 96       	adiw	r30, 0x11	; 17
    2d2a:	88 e0       	ldi	r24, 0x08	; 8
    2d2c:	01 90       	ld	r0, Z+
    2d2e:	0d 92       	st	X+, r0
    2d30:	81 50       	subi	r24, 0x01	; 1
    2d32:	e1 f7       	brne	.-8      	; 0x2d2c <prn+0x32>
	printline("");
    2d34:	8c ee       	ldi	r24, 0xEC	; 236
    2d36:	91 e0       	ldi	r25, 0x01	; 1
    2d38:	0e 94 19 0f 	call	0x1e32	; 0x1e32 <printline>
	return r;
    2d3c:	de 01       	movw	r26, r28
    2d3e:	19 96       	adiw	r26, 0x09	; 9
    2d40:	fe 01       	movw	r30, r28
    2d42:	31 96       	adiw	r30, 0x01	; 1
    2d44:	88 e0       	ldi	r24, 0x08	; 8
    2d46:	01 90       	ld	r0, Z+
    2d48:	0d 92       	st	X+, r0
    2d4a:	81 50       	subi	r24, 0x01	; 1
    2d4c:	e1 f7       	brne	.-8      	; 0x2d46 <prn+0x4c>
    2d4e:	29 85       	ldd	r18, Y+9	; 0x09
    2d50:	3a 85       	ldd	r19, Y+10	; 0x0a
    2d52:	4b 85       	ldd	r20, Y+11	; 0x0b
    2d54:	5c 85       	ldd	r21, Y+12	; 0x0c
    2d56:	6d 85       	ldd	r22, Y+13	; 0x0d
    2d58:	7e 85       	ldd	r23, Y+14	; 0x0e
}
    2d5a:	8f 85       	ldd	r24, Y+15	; 0x0f
    2d5c:	98 89       	ldd	r25, Y+16	; 0x10
    2d5e:	68 96       	adiw	r28, 0x18	; 24
    2d60:	0f b6       	in	r0, 0x3f	; 63
    2d62:	f8 94       	cli
    2d64:	de bf       	out	0x3e, r29	; 62
    2d66:	0f be       	out	0x3f, r0	; 63
    2d68:	cd bf       	out	0x3d, r28	; 61
    2d6a:	cf 91       	pop	r28
    2d6c:	df 91       	pop	r29
    2d6e:	08 95       	ret

00002d70 <garbageCollect>:
{
	*(p-1) = *(p-1) & 0x7f;  // clear bit7
}

void garbageCollect()
{
    2d70:	cf 92       	push	r12
    2d72:	df 92       	push	r13
    2d74:	ef 92       	push	r14
    2d76:	ff 92       	push	r15
    2d78:	0f 93       	push	r16
    2d7a:	1f 93       	push	r17
    2d7c:	cf 93       	push	r28
    2d7e:	df 93       	push	r29
	//tbd

	// free up string space
	// free up cell space
	printint(stop-stringbuffer); printline(" bytes");
    2d80:	80 91 55 04 	lds	r24, 0x0455
    2d84:	90 91 56 04 	lds	r25, 0x0456
    2d88:	89 5f       	subi	r24, 0xF9	; 249
    2d8a:	99 40       	sbci	r25, 0x09	; 9
    2d8c:	0e 94 f0 0e 	call	0x1de0	; 0x1de0 <printint>
    2d90:	83 e0       	ldi	r24, 0x03	; 3
    2d92:	92 e0       	ldi	r25, 0x02	; 2
    2d94:	0e 94 19 0f 	call	0x1e32	; 0x1e32 <printline>
	
	if (dbg==0) return;
    2d98:	80 91 62 05 	lds	r24, 0x0562
    2d9c:	90 91 63 05 	lds	r25, 0x0563
    2da0:	89 2b       	or	r24, r25
    2da2:	09 f4       	brne	.+2      	; 0x2da6 <garbageCollect+0x36>
    2da4:	82 c0       	rjmp	.+260    	; 0x2eaa <garbageCollect+0x13a>
    2da6:	c9 ef       	ldi	r28, 0xF9	; 249
    2da8:	d9 e0       	ldi	r29, 0x09	; 9
    2daa:	18 c0       	rjmp	.+48     	; 0x2ddc <garbageCollect+0x6c>
	
	BYTE *bot = stringbuffer;
	while (bot<stop)
	{
		printint(bot-stringbuffer); printstr("] <");
    2dac:	ce 01       	movw	r24, r28
    2dae:	89 5f       	subi	r24, 0xF9	; 249
    2db0:	99 40       	sbci	r25, 0x09	; 9
    2db2:	0e 94 f0 0e 	call	0x1de0	; 0x1de0 <printint>
    2db6:	8a e0       	ldi	r24, 0x0A	; 10
    2db8:	92 e0       	ldi	r25, 0x02	; 2
    2dba:	0e 94 f6 0e 	call	0x1dec	; 0x1dec <printstr>
		printstr((char *)(bot+1));printline(">");
    2dbe:	ce 01       	movw	r24, r28
    2dc0:	01 96       	adiw	r24, 0x01	; 1
    2dc2:	0e 94 f6 0e 	call	0x1dec	; 0x1dec <printstr>
    2dc6:	8e e0       	ldi	r24, 0x0E	; 14
    2dc8:	92 e0       	ldi	r25, 0x02	; 2
    2dca:	0e 94 19 0f 	call	0x1e32	; 0x1e32 <printline>
		bot += ((*bot)&0x7f) + 3; // add no. of bytes + 2 +  guard '$'
    2dce:	88 81       	ld	r24, Y
    2dd0:	90 e0       	ldi	r25, 0x00	; 0
    2dd2:	8f 77       	andi	r24, 0x7F	; 127
    2dd4:	90 70       	andi	r25, 0x00	; 0
    2dd6:	03 96       	adiw	r24, 0x03	; 3
    2dd8:	c8 0f       	add	r28, r24
    2dda:	d9 1f       	adc	r29, r25
	printint(stop-stringbuffer); printline(" bytes");
	
	if (dbg==0) return;
	
	BYTE *bot = stringbuffer;
	while (bot<stop)
    2ddc:	80 91 55 04 	lds	r24, 0x0455
    2de0:	90 91 56 04 	lds	r25, 0x0456
    2de4:	c8 17       	cp	r28, r24
    2de6:	d9 07       	cpc	r29, r25
    2de8:	08 f3       	brcs	.-62     	; 0x2dac <garbageCollect+0x3c>
		printint(bot-stringbuffer); printstr("] <");
		printstr((char *)(bot+1));printline(">");
		bot += ((*bot)&0x7f) + 3; // add no. of bytes + 2 +  guard '$'
	}
	
	printint(mem); printline(" cells");
    2dea:	80 91 64 05 	lds	r24, 0x0564
    2dee:	90 91 65 05 	lds	r25, 0x0565
    2df2:	0e 94 f0 0e 	call	0x1de0	; 0x1de0 <printint>
    2df6:	80 e1       	ldi	r24, 0x10	; 16
    2df8:	92 e0       	ldi	r25, 0x02	; 2
    2dfa:	0e 94 19 0f 	call	0x1e32	; 0x1e32 <printline>
    2dfe:	79 e1       	ldi	r23, 0x19	; 25
    2e00:	e7 2e       	mov	r14, r23
    2e02:	76 e0       	ldi	r23, 0x06	; 6
    2e04:	f7 2e       	mov	r15, r23
    2e06:	00 e0       	ldi	r16, 0x00	; 0
    2e08:	10 e0       	ldi	r17, 0x00	; 0
		printint(i); printstr("-"); printtype(memory[i].head); 
		
		if (memory[i].tail != null)
		{
			int n = (memory[i].tail-&memory[0]); ///sizeof(tCELL);
			printstr("->#"); printint(n);
    2e0a:	6d ec       	ldi	r22, 0xCD	; 205
    2e0c:	c6 2e       	mov	r12, r22
    2e0e:	6c ec       	ldi	r22, 0xCC	; 204
    2e10:	d6 2e       	mov	r13, r22
    2e12:	43 c0       	rjmp	.+134    	; 0x2e9a <garbageCollect+0x12a>
	}
	
	printint(mem); printline(" cells");
	for (int i=0; i< mem; i++)
	{
		printint(i); printstr("-"); printtype(memory[i].head); 
    2e14:	c8 01       	movw	r24, r16
    2e16:	0e 94 f0 0e 	call	0x1de0	; 0x1de0 <printint>
    2e1a:	8a ee       	ldi	r24, 0xEA	; 234
    2e1c:	91 e0       	ldi	r25, 0x01	; 1
    2e1e:	0e 94 f6 0e 	call	0x1dec	; 0x1dec <printstr>
    2e22:	f8 01       	movw	r30, r16
    2e24:	ee 0f       	add	r30, r30
    2e26:	ff 1f       	adc	r31, r31
    2e28:	c8 01       	movw	r24, r16
    2e2a:	43 e0       	ldi	r20, 0x03	; 3
    2e2c:	88 0f       	add	r24, r24
    2e2e:	99 1f       	adc	r25, r25
    2e30:	4a 95       	dec	r20
    2e32:	e1 f7       	brne	.-8      	; 0x2e2c <garbageCollect+0xbc>
    2e34:	e8 0f       	add	r30, r24
    2e36:	f9 1f       	adc	r31, r25
    2e38:	ef 5e       	subi	r30, 0xEF	; 239
    2e3a:	f9 4f       	sbci	r31, 0xF9	; 249
    2e3c:	20 81       	ld	r18, Z
    2e3e:	31 81       	ldd	r19, Z+1	; 0x01
    2e40:	42 81       	ldd	r20, Z+2	; 0x02
    2e42:	53 81       	ldd	r21, Z+3	; 0x03
    2e44:	64 81       	ldd	r22, Z+4	; 0x04
    2e46:	75 81       	ldd	r23, Z+5	; 0x05
    2e48:	86 81       	ldd	r24, Z+6	; 0x06
    2e4a:	97 81       	ldd	r25, Z+7	; 0x07
    2e4c:	0e 94 22 0f 	call	0x1e44	; 0x1e44 <printtype>
		
		if (memory[i].tail != null)
    2e50:	f7 01       	movw	r30, r14
    2e52:	c0 81       	ld	r28, Z
    2e54:	d1 81       	ldd	r29, Z+1	; 0x01
    2e56:	20 97       	sbiw	r28, 0x00	; 0
    2e58:	91 f0       	breq	.+36     	; 0x2e7e <garbageCollect+0x10e>
		{
			int n = (memory[i].tail-&memory[0]); ///sizeof(tCELL);
			printstr("->#"); printint(n);
    2e5a:	87 e1       	ldi	r24, 0x17	; 23
    2e5c:	92 e0       	ldi	r25, 0x02	; 2
    2e5e:	0e 94 f6 0e 	call	0x1dec	; 0x1dec <printstr>
    2e62:	c1 51       	subi	r28, 0x11	; 17
    2e64:	d6 40       	sbci	r29, 0x06	; 6
    2e66:	d5 95       	asr	r29
    2e68:	c7 95       	ror	r28
    2e6a:	cc 9d       	mul	r28, r12
    2e6c:	c0 01       	movw	r24, r0
    2e6e:	cd 9d       	mul	r28, r13
    2e70:	90 0d       	add	r25, r0
    2e72:	dc 9d       	mul	r29, r12
    2e74:	90 0d       	add	r25, r0
    2e76:	11 24       	eor	r1, r1
    2e78:	0e 94 f0 0e 	call	0x1de0	; 0x1de0 <printint>
    2e7c:	04 c0       	rjmp	.+8      	; 0x2e86 <garbageCollect+0x116>
		}
		else
		{
			printstr("->null");
    2e7e:	8b e1       	ldi	r24, 0x1B	; 27
    2e80:	92 e0       	ldi	r25, 0x02	; 2
    2e82:	0e 94 f6 0e 	call	0x1dec	; 0x1dec <printstr>
		}
		
		printline("");
    2e86:	8c ee       	ldi	r24, 0xEC	; 236
    2e88:	91 e0       	ldi	r25, 0x01	; 1
    2e8a:	0e 94 19 0f 	call	0x1e32	; 0x1e32 <printline>
		printstr((char *)(bot+1));printline(">");
		bot += ((*bot)&0x7f) + 3; // add no. of bytes + 2 +  guard '$'
	}
	
	printint(mem); printline(" cells");
	for (int i=0; i< mem; i++)
    2e8e:	0f 5f       	subi	r16, 0xFF	; 255
    2e90:	1f 4f       	sbci	r17, 0xFF	; 255
    2e92:	8a e0       	ldi	r24, 0x0A	; 10
    2e94:	90 e0       	ldi	r25, 0x00	; 0
    2e96:	e8 0e       	add	r14, r24
    2e98:	f9 1e       	adc	r15, r25
    2e9a:	80 91 64 05 	lds	r24, 0x0564
    2e9e:	90 91 65 05 	lds	r25, 0x0565
    2ea2:	08 17       	cp	r16, r24
    2ea4:	19 07       	cpc	r17, r25
    2ea6:	0c f4       	brge	.+2      	; 0x2eaa <garbageCollect+0x13a>
    2ea8:	b5 cf       	rjmp	.-150    	; 0x2e14 <garbageCollect+0xa4>
		}
		
		printline("");
	}

}
    2eaa:	df 91       	pop	r29
    2eac:	cf 91       	pop	r28
    2eae:	1f 91       	pop	r17
    2eb0:	0f 91       	pop	r16
    2eb2:	ff 90       	pop	r15
    2eb4:	ef 90       	pop	r14
    2eb6:	df 90       	pop	r13
    2eb8:	cf 90       	pop	r12
    2eba:	08 95       	ret

00002ebc <showenviron>:
{
	printstr (s); printnumber(gMIN,2,'0'); printstr(":"); printnumber(gSEC,2,'0'); 
}

void showenviron()
{
    2ebc:	0f 93       	push	r16
    2ebe:	1f 93       	push	r17
    2ec0:	cf 93       	push	r28
    2ec2:	df 93       	push	r29
	int i;
	printstr("Commands: ");
    2ec4:	82 e2       	ldi	r24, 0x22	; 34
    2ec6:	92 e0       	ldi	r25, 0x02	; 2
    2ec8:	0e 94 f6 0e 	call	0x1dec	; 0x1dec <printstr>
	printstr(prim_tab[0].name);
    2ecc:	80 91 b9 03 	lds	r24, 0x03B9
    2ed0:	90 91 ba 03 	lds	r25, 0x03BA
    2ed4:	0e 94 f6 0e 	call	0x1dec	; 0x1dec <printstr>
    2ed8:	cf eb       	ldi	r28, 0xBF	; 191
    2eda:	d3 e0       	ldi	r29, 0x03	; 3
    2edc:	09 c0       	rjmp	.+18     	; 0x2ef0 <showenviron+0x34>
	for (i=1; i<PRIMSZ; i++)
	{
		printstr(", ");
    2ede:	8d e2       	ldi	r24, 0x2D	; 45
    2ee0:	92 e0       	ldi	r25, 0x02	; 2
    2ee2:	0e 94 f6 0e 	call	0x1dec	; 0x1dec <printstr>
		printstr(prim_tab[i].name);
    2ee6:	88 81       	ld	r24, Y
    2ee8:	99 81       	ldd	r25, Y+1	; 0x01
    2eea:	0e 94 f6 0e 	call	0x1dec	; 0x1dec <printstr>
    2eee:	26 96       	adiw	r28, 0x06	; 6
void showenviron()
{
	int i;
	printstr("Commands: ");
	printstr(prim_tab[0].name);
	for (i=1; i<PRIMSZ; i++)
    2ef0:	84 e0       	ldi	r24, 0x04	; 4
    2ef2:	c5 35       	cpi	r28, 0x55	; 85
    2ef4:	d8 07       	cpc	r29, r24
    2ef6:	99 f7       	brne	.-26     	; 0x2ede <showenviron+0x22>
	{
		printstr(", ");
		printstr(prim_tab[i].name);
	}
	printline("");	
    2ef8:	8c ee       	ldi	r24, 0xEC	; 236
    2efa:	91 e0       	ldi	r25, 0x01	; 1
    2efc:	0e 94 19 0f 	call	0x1e32	; 0x1e32 <printline>
		
	if (symCnt>0) {
    2f00:	80 91 66 05 	lds	r24, 0x0566
    2f04:	90 91 67 05 	lds	r25, 0x0567
    2f08:	18 16       	cp	r1, r24
    2f0a:	19 06       	cpc	r1, r25
    2f0c:	34 f5       	brge	.+76     	; 0x2f5a <showenviron+0x9e>
		printstr("Symbols: ");
    2f0e:	80 e3       	ldi	r24, 0x30	; 48
    2f10:	92 e0       	ldi	r25, 0x02	; 2
    2f12:	0e 94 f6 0e 	call	0x1dec	; 0x1dec <printstr>
		printstr(symb_tab[0].name);
    2f16:	80 91 ad 05 	lds	r24, 0x05AD
    2f1a:	90 91 ae 05 	lds	r25, 0x05AE
    2f1e:	0e 94 f6 0e 	call	0x1dec	; 0x1dec <printstr>
    2f22:	07 eb       	ldi	r16, 0xB7	; 183
    2f24:	15 e0       	ldi	r17, 0x05	; 5
    2f26:	c1 e0       	ldi	r28, 0x01	; 1
    2f28:	d0 e0       	ldi	r29, 0x00	; 0
    2f2a:	0c c0       	rjmp	.+24     	; 0x2f44 <showenviron+0x88>
		for (i=1; i<symCnt; i++)
		{
			printstr(", ");
    2f2c:	8d e2       	ldi	r24, 0x2D	; 45
    2f2e:	92 e0       	ldi	r25, 0x02	; 2
    2f30:	0e 94 f6 0e 	call	0x1dec	; 0x1dec <printstr>
			printstr(symb_tab[i].name);
    2f34:	f8 01       	movw	r30, r16
    2f36:	80 81       	ld	r24, Z
    2f38:	91 81       	ldd	r25, Z+1	; 0x01
    2f3a:	0e 94 f6 0e 	call	0x1dec	; 0x1dec <printstr>
	printline("");	
		
	if (symCnt>0) {
		printstr("Symbols: ");
		printstr(symb_tab[0].name);
		for (i=1; i<symCnt; i++)
    2f3e:	21 96       	adiw	r28, 0x01	; 1
    2f40:	06 5f       	subi	r16, 0xF6	; 246
    2f42:	1f 4f       	sbci	r17, 0xFF	; 255
    2f44:	80 91 66 05 	lds	r24, 0x0566
    2f48:	90 91 67 05 	lds	r25, 0x0567
    2f4c:	c8 17       	cp	r28, r24
    2f4e:	d9 07       	cpc	r29, r25
    2f50:	6c f3       	brlt	.-38     	; 0x2f2c <showenviron+0x70>
		{
			printstr(", ");
			printstr(symb_tab[i].name);
		}
		printline("");	
    2f52:	8c ee       	ldi	r24, 0xEC	; 236
    2f54:	91 e0       	ldi	r25, 0x01	; 1
    2f56:	0e 94 19 0f 	call	0x1e32	; 0x1e32 <printline>
	}
	
	printtime("Time: ");	printline("");	
    2f5a:	8a e3       	ldi	r24, 0x3A	; 58
    2f5c:	92 e0       	ldi	r25, 0x02	; 2
    2f5e:	0e 94 02 0f 	call	0x1e04	; 0x1e04 <printtime>
    2f62:	8c ee       	ldi	r24, 0xEC	; 236
    2f64:	91 e0       	ldi	r25, 0x01	; 1
    2f66:	0e 94 19 0f 	call	0x1e32	; 0x1e32 <printline>
	
	garbageCollect();
    2f6a:	0e 94 b8 16 	call	0x2d70	; 0x2d70 <garbageCollect>
}
    2f6e:	df 91       	pop	r29
    2f70:	cf 91       	pop	r28
    2f72:	1f 91       	pop	r17
    2f74:	0f 91       	pop	r16
    2f76:	08 95       	ret

00002f78 <env>:
	tOBJ r; r.type=ERROR; r.number=n;
	return r;
}

tOBJ env(tCELLp list)
{
    2f78:	df 93       	push	r29
    2f7a:	cf 93       	push	r28
    2f7c:	cd b7       	in	r28, 0x3d	; 61
    2f7e:	de b7       	in	r29, 0x3e	; 62
    2f80:	60 97       	sbiw	r28, 0x10	; 16
    2f82:	0f b6       	in	r0, 0x3f	; 63
    2f84:	f8 94       	cli
    2f86:	de bf       	out	0x3e, r29	; 62
    2f88:	0f be       	out	0x3f, r0	; 63
    2f8a:	cd bf       	out	0x3d, r28	; 61
    2f8c:	fc 01       	movw	r30, r24
	tOBJ r; r.type=EMPTY;
	if (list != null && list->head.type==INT) dbg = list->head.number;
    2f8e:	00 97       	sbiw	r24, 0x00	; 0
    2f90:	51 f0       	breq	.+20     	; 0x2fa6 <env+0x2e>
    2f92:	80 81       	ld	r24, Z
    2f94:	91 81       	ldd	r25, Z+1	; 0x01
    2f96:	01 97       	sbiw	r24, 0x01	; 1
    2f98:	31 f4       	brne	.+12     	; 0x2fa6 <env+0x2e>
    2f9a:	84 81       	ldd	r24, Z+4	; 0x04
    2f9c:	95 81       	ldd	r25, Z+5	; 0x05
    2f9e:	90 93 63 05 	sts	0x0563, r25
    2fa2:	80 93 62 05 	sts	0x0562, r24
	showenviron();
    2fa6:	0e 94 5e 17 	call	0x2ebc	; 0x2ebc <showenviron>
	return r;
    2faa:	88 e0       	ldi	r24, 0x08	; 8
    2fac:	90 e0       	ldi	r25, 0x00	; 0
    2fae:	9a 83       	std	Y+2, r25	; 0x02
    2fb0:	89 83       	std	Y+1, r24	; 0x01
    2fb2:	de 01       	movw	r26, r28
    2fb4:	19 96       	adiw	r26, 0x09	; 9
    2fb6:	fe 01       	movw	r30, r28
    2fb8:	31 96       	adiw	r30, 0x01	; 1
    2fba:	88 e0       	ldi	r24, 0x08	; 8
    2fbc:	01 90       	ld	r0, Z+
    2fbe:	0d 92       	st	X+, r0
    2fc0:	81 50       	subi	r24, 0x01	; 1
    2fc2:	e1 f7       	brne	.-8      	; 0x2fbc <env+0x44>
    2fc4:	29 85       	ldd	r18, Y+9	; 0x09
    2fc6:	3a 85       	ldd	r19, Y+10	; 0x0a
    2fc8:	4b 85       	ldd	r20, Y+11	; 0x0b
    2fca:	5c 85       	ldd	r21, Y+12	; 0x0c
    2fcc:	6d 85       	ldd	r22, Y+13	; 0x0d
    2fce:	7e 85       	ldd	r23, Y+14	; 0x0e
}
    2fd0:	8f 85       	ldd	r24, Y+15	; 0x0f
    2fd2:	98 89       	ldd	r25, Y+16	; 0x10
    2fd4:	60 96       	adiw	r28, 0x10	; 16
    2fd6:	0f b6       	in	r0, 0x3f	; 63
    2fd8:	f8 94       	cli
    2fda:	de bf       	out	0x3e, r29	; 62
    2fdc:	0f be       	out	0x3f, r0	; 63
    2fde:	cd bf       	out	0x3d, r28	; 61
    2fe0:	cf 91       	pop	r28
    2fe2:	df 91       	pop	r29
    2fe4:	08 95       	ret

00002fe6 <newString>:
		*a++ = *b++;
	*a=0; // null terminate
}

char *newString(int n, char *txt)
{
    2fe6:	cf 93       	push	r28
    2fe8:	df 93       	push	r29
    2fea:	9c 01       	movw	r18, r24
    2fec:	eb 01       	movw	r28, r22
	char  *p;
	if ((stop-stringbuffer)+ n+2 >=1024)
    2fee:	e0 91 55 04 	lds	r30, 0x0455
    2ff2:	f0 91 56 04 	lds	r31, 0x0456
    2ff6:	cf 01       	movw	r24, r30
    2ff8:	89 5f       	subi	r24, 0xF9	; 249
    2ffa:	99 40       	sbci	r25, 0x09	; 9
    2ffc:	82 0f       	add	r24, r18
    2ffe:	93 1f       	adc	r25, r19
    3000:	8e 5f       	subi	r24, 0xFE	; 254
    3002:	93 40       	sbci	r25, 0x03	; 3
    3004:	1c f0       	brlt	.+6      	; 0x300c <newString+0x26>
	{
	    printline("alloc failed");
    3006:	81 e4       	ldi	r24, 0x41	; 65
    3008:	92 e0       	ldi	r25, 0x02	; 2
    300a:	05 c0       	rjmp	.+10     	; 0x3016 <newString+0x30>
		return (char *)0;
	}
	if (n>=128)
    300c:	20 38       	cpi	r18, 0x80	; 128
    300e:	31 05       	cpc	r19, r1
    3010:	3c f0       	brlt	.+14     	; 0x3020 <newString+0x3a>
	{
		printline("too big");
    3012:	8e e4       	ldi	r24, 0x4E	; 78
    3014:	92 e0       	ldi	r25, 0x02	; 2
    3016:	0e 94 19 0f 	call	0x1e32	; 0x1e32 <printline>
    301a:	a0 e0       	ldi	r26, 0x00	; 0
    301c:	b0 e0       	ldi	r27, 0x00	; 0
    301e:	2c c0       	rjmp	.+88     	; 0x3078 <newString+0x92>
		return (char *)0;
	}
	p=(char *)stop;
	*p++ = (n%256)|0x80;  // use bit 7 to indicate in use
    3020:	c9 01       	movw	r24, r18
    3022:	60 e0       	ldi	r22, 0x00	; 0
    3024:	71 e0       	ldi	r23, 0x01	; 1
    3026:	0e 94 66 26 	call	0x4ccc	; 0x4ccc <__divmodhi4>
    302a:	80 68       	ori	r24, 0x80	; 128
    302c:	df 01       	movw	r26, r30
    302e:	8d 93       	st	X+, r24
	stop += (n+2);
    3030:	2e 5f       	subi	r18, 0xFE	; 254
    3032:	3f 4f       	sbci	r19, 0xFF	; 255
    3034:	80 91 55 04 	lds	r24, 0x0455
    3038:	90 91 56 04 	lds	r25, 0x0456
    303c:	82 0f       	add	r24, r18
    303e:	93 1f       	adc	r25, r19
    3040:	22 50       	subi	r18, 0x02	; 2
    3042:	30 40       	sbci	r19, 0x00	; 0
    3044:	90 93 56 04 	sts	0x0456, r25
    3048:	80 93 55 04 	sts	0x0455, r24
    304c:	fd 01       	movw	r30, r26
    304e:	02 c0       	rjmp	.+4      	; 0x3054 <newString+0x6e>
BYTE *stop=stringbuffer;

void copyString(char *a, char *b, int n)
{
	while (n-->=0 && *b!=0)
		*a++ = *b++;
    3050:	81 93       	st	Z+, r24
    3052:	21 96       	adiw	r28, 0x01	; 1
BYTE stringbuffer[1024];
BYTE *stop=stringbuffer;

void copyString(char *a, char *b, int n)
{
	while (n-->=0 && *b!=0)
    3054:	37 fd       	sbrc	r19, 7
    3056:	05 c0       	rjmp	.+10     	; 0x3062 <newString+0x7c>
    3058:	88 81       	ld	r24, Y
    305a:	21 50       	subi	r18, 0x01	; 1
    305c:	30 40       	sbci	r19, 0x00	; 0
    305e:	88 23       	and	r24, r24
    3060:	b9 f7       	brne	.-18     	; 0x3050 <newString+0x6a>
		*a++ = *b++;
	*a=0; // null terminate
    3062:	10 82       	st	Z, r1
	}
	p=(char *)stop;
	*p++ = (n%256)|0x80;  // use bit 7 to indicate in use
	stop += (n+2);
	copyString(p, txt, n);
	*stop++ = '$' ; //add a guard
    3064:	e0 91 55 04 	lds	r30, 0x0455
    3068:	f0 91 56 04 	lds	r31, 0x0456
    306c:	84 e2       	ldi	r24, 0x24	; 36
    306e:	81 93       	st	Z+, r24
    3070:	f0 93 56 04 	sts	0x0456, r31
    3074:	e0 93 55 04 	sts	0x0455, r30
	return p;
}
    3078:	cd 01       	movw	r24, r26
    307a:	df 91       	pop	r29
    307c:	cf 91       	pop	r28
    307e:	08 95       	ret

00003080 <readtoken>:
}

tOBJ get(char *n);

tOBJ readtoken()
{
    3080:	8f 92       	push	r8
    3082:	9f 92       	push	r9
    3084:	af 92       	push	r10
    3086:	bf 92       	push	r11
    3088:	cf 92       	push	r12
    308a:	df 92       	push	r13
    308c:	ef 92       	push	r14
    308e:	ff 92       	push	r15
    3090:	0f 93       	push	r16
    3092:	1f 93       	push	r17
    3094:	df 93       	push	r29
    3096:	cf 93       	push	r28
    3098:	cd b7       	in	r28, 0x3d	; 61
    309a:	de b7       	in	r29, 0x3e	; 62
    309c:	a4 97       	sbiw	r28, 0x24	; 36
    309e:	0f b6       	in	r0, 0x3f	; 63
    30a0:	f8 94       	cli
    30a2:	de bf       	out	0x3e, r29	; 62
    30a4:	0f be       	out	0x3f, r0	; 63
    30a6:	cd bf       	out	0x3d, r28	; 61
    30a8:	de 01       	movw	r26, r28
    30aa:	51 96       	adiw	r26, 0x11	; 17
    30ac:	88 24       	eor	r8, r8
    30ae:	99 24       	eor	r9, r9
    30b0:	1d c0       	rjmp	.+58     	; 0x30ec <readtoken+0x6c>
	return (ch == ' ' || ch == '\t' || ch == '\r' || ch == '\n');
}

bool isLetterorDigit(int ch)
{
	return ((ch >= 'A' && ch <= 'Z' ) ||
    30b2:	c9 01       	movw	r24, r18
    30b4:	81 54       	subi	r24, 0x41	; 65
    30b6:	90 40       	sbci	r25, 0x00	; 0
    30b8:	4a 97       	sbiw	r24, 0x1a	; 26
    30ba:	48 f0       	brcs	.+18     	; 0x30ce <readtoken+0x4e>
    30bc:	c9 01       	movw	r24, r18
    30be:	81 56       	subi	r24, 0x61	; 97
    30c0:	90 40       	sbci	r25, 0x00	; 0
    30c2:	4a 97       	sbiw	r24, 0x1a	; 26
    30c4:	20 f0       	brcs	.+8      	; 0x30ce <readtoken+0x4e>
    30c6:	c9 01       	movw	r24, r18
    30c8:	c0 97       	sbiw	r24, 0x30	; 48
    30ca:	0a 97       	sbiw	r24, 0x0a	; 10
    30cc:	28 f4       	brcc	.+10     	; 0x30d8 <readtoken+0x58>
		if (!isLetterorDigit(ch)) 
		{
			ungetch(ch);
			break;
		}
		*p++ =  (char)ch;
    30ce:	2d 93       	st	X+, r18
		n++;
    30d0:	08 94       	sec
    30d2:	81 1c       	adc	r8, r1
    30d4:	91 1c       	adc	r9, r1
    30d6:	0a c0       	rjmp	.+20     	; 0x30ec <readtoken+0x6c>
	inputbuffer[ibcnt]=0;
}

void ungetch(int c)
{
	if (ibptr>inputbuffer)
    30d8:	4b 5f       	subi	r20, 0xFB	; 251
    30da:	5d 40       	sbci	r21, 0x0D	; 13
    30dc:	f1 f0       	breq	.+60     	; 0x311a <readtoken+0x9a>
    30de:	e8 f0       	brcs	.+58     	; 0x311a <readtoken+0x9a>
	{
		--ibptr;
    30e0:	f0 93 60 0e 	sts	0x0E60, r31
    30e4:	e0 93 5f 0e 	sts	0x0E5F, r30
		*ibptr=c;
    30e8:	20 83       	st	Z, r18
    30ea:	17 c0       	rjmp	.+46     	; 0x311a <readtoken+0x9a>
	}
}

int getch()
{
	if (*ibptr!=0)
    30ec:	e0 91 5f 0e 	lds	r30, 0x0E5F
    30f0:	f0 91 60 0e 	lds	r31, 0x0E60
    30f4:	80 81       	ld	r24, Z
    30f6:	88 23       	and	r24, r24
    30f8:	81 f0       	breq	.+32     	; 0x311a <readtoken+0x9a>
		return *ibptr++;
    30fa:	28 2f       	mov	r18, r24
    30fc:	30 e0       	ldi	r19, 0x00	; 0
    30fe:	af 01       	movw	r20, r30
    3100:	4f 5f       	subi	r20, 0xFF	; 255
    3102:	5f 4f       	sbci	r21, 0xFF	; 255
    3104:	50 93 60 0e 	sts	0x0E60, r21
    3108:	40 93 5f 0e 	sts	0x0E5F, r20
{
	char str[20];
	char *p=str;
	int  n=0;	
	int ch = 0;
	while (((ch = getch()) > 0) && n<20)
    310c:	21 15       	cp	r18, r1
    310e:	31 05       	cpc	r19, r1
    3110:	21 f0       	breq	.+8      	; 0x311a <readtoken+0x9a>
    3112:	94 e1       	ldi	r25, 0x14	; 20
    3114:	89 16       	cp	r8, r25
    3116:	91 04       	cpc	r9, r1
    3118:	61 f6       	brne	.-104    	; 0x30b2 <readtoken+0x32>
			break;
		}
		*p++ =  (char)ch;
		n++;
	}
	*p =0;
    311a:	1c 92       	st	X, r1
	// SYMBOL - FUNCTION - BOOL - EMPTY 
	tOBJ r;
	r.q = false;
	r.type=EMPTY;
	
	if (strcmp(str, "true")==0)
    311c:	91 e1       	ldi	r25, 0x11	; 17
    311e:	a9 2e       	mov	r10, r25
    3120:	b1 2c       	mov	r11, r1
    3122:	ac 0e       	add	r10, r28
    3124:	bd 1e       	adc	r11, r29
    3126:	66 e5       	ldi	r22, 0x56	; 86
    3128:	72 e0       	ldi	r23, 0x02	; 2
    312a:	c5 01       	movw	r24, r10
    312c:	0e 94 51 26 	call	0x4ca2	; 0x4ca2 <strcmp>
    3130:	00 97       	sbiw	r24, 0x00	; 0
    3132:	29 f4       	brne	.+10     	; 0x313e <readtoken+0xbe>
	{
		r.type = BOOL;
		r.number = 1;
    3134:	81 e0       	ldi	r24, 0x01	; 1
    3136:	90 e0       	ldi	r25, 0x00	; 0
    3138:	9e 83       	std	Y+6, r25	; 0x06
    313a:	8d 83       	std	Y+5, r24	; 0x05
    313c:	13 c0       	rjmp	.+38     	; 0x3164 <readtoken+0xe4>
	}
	else if (strcmp(str, "false")==0)
    313e:	6b e5       	ldi	r22, 0x5B	; 91
    3140:	72 e0       	ldi	r23, 0x02	; 2
    3142:	c5 01       	movw	r24, r10
    3144:	0e 94 51 26 	call	0x4ca2	; 0x4ca2 <strcmp>
    3148:	00 97       	sbiw	r24, 0x00	; 0
    314a:	51 f0       	breq	.+20     	; 0x3160 <readtoken+0xe0>
    314c:	89 eb       	ldi	r24, 0xB9	; 185
    314e:	c8 2e       	mov	r12, r24
    3150:	83 e0       	ldi	r24, 0x03	; 3
    3152:	d8 2e       	mov	r13, r24
    3154:	ee 24       	eor	r14, r14
    3156:	ea 94       	dec	r14
    3158:	fe 2c       	mov	r15, r14
    315a:	00 e0       	ldi	r16, 0x00	; 0
    315c:	10 e0       	ldi	r17, 0x00	; 0
    315e:	05 c0       	rjmp	.+10     	; 0x316a <readtoken+0xea>
	{
		r.type = BOOL;
		r.number = 0;
    3160:	1e 82       	std	Y+6, r1	; 0x06
    3162:	1d 82       	std	Y+5, r1	; 0x05
    3164:	22 e0       	ldi	r18, 0x02	; 2
    3166:	30 e0       	ldi	r19, 0x00	; 0
    3168:	41 c0       	rjmp	.+130    	; 0x31ec <readtoken+0x16c>
	{
		int fn = -1;
		int fc=0;
		for (fc=0; fc<PRIMSZ; fc++)
		{
			if (strcmp(prim_tab[fc].name, str)==0)
    316a:	b5 01       	movw	r22, r10
    316c:	f6 01       	movw	r30, r12
    316e:	80 81       	ld	r24, Z
    3170:	91 81       	ldd	r25, Z+1	; 0x01
    3172:	0e 94 51 26 	call	0x4ca2	; 0x4ca2 <strcmp>
    3176:	00 97       	sbiw	r24, 0x00	; 0
    3178:	09 f4       	brne	.+2      	; 0x317c <readtoken+0xfc>
    317a:	78 01       	movw	r14, r16
	}
	else
	{
		int fn = -1;
		int fc=0;
		for (fc=0; fc<PRIMSZ; fc++)
    317c:	0f 5f       	subi	r16, 0xFF	; 255
    317e:	1f 4f       	sbci	r17, 0xFF	; 255
    3180:	86 e0       	ldi	r24, 0x06	; 6
    3182:	90 e0       	ldi	r25, 0x00	; 0
    3184:	c8 0e       	add	r12, r24
    3186:	d9 1e       	adc	r13, r25
    3188:	0a 31       	cpi	r16, 0x1A	; 26
    318a:	11 05       	cpc	r17, r1
    318c:	71 f7       	brne	.-36     	; 0x316a <readtoken+0xea>
		{
			if (strcmp(prim_tab[fc].name, str)==0)
				fn=fc;
		}		
		if (fn>=0)
    318e:	9f ef       	ldi	r25, 0xFF	; 255
    3190:	e9 16       	cp	r14, r25
    3192:	9f ef       	ldi	r25, 0xFF	; 255
    3194:	f9 06       	cpc	r15, r25
    3196:	01 f1       	breq	.+64     	; 0x31d8 <readtoken+0x158>
		{
			//  fucntion	
			r.type = prim_tab[fn].sf==0?FUNCTION:SPECIAL;
    3198:	f7 01       	movw	r30, r14
    319a:	ee 0f       	add	r30, r30
    319c:	ff 1f       	adc	r31, r31
    319e:	ee 0d       	add	r30, r14
    31a0:	ff 1d       	adc	r31, r15
    31a2:	ee 0f       	add	r30, r30
    31a4:	ff 1f       	adc	r31, r31
    31a6:	e7 54       	subi	r30, 0x47	; 71
    31a8:	fc 4f       	sbci	r31, 0xFC	; 252
    31aa:	84 81       	ldd	r24, Z+4	; 0x04
    31ac:	95 81       	ldd	r25, Z+5	; 0x05
    31ae:	89 2b       	or	r24, r25
    31b0:	19 f0       	breq	.+6      	; 0x31b8 <readtoken+0x138>
    31b2:	24 e0       	ldi	r18, 0x04	; 4
    31b4:	30 e0       	ldi	r19, 0x00	; 0
    31b6:	02 c0       	rjmp	.+4      	; 0x31bc <readtoken+0x13c>
    31b8:	23 e0       	ldi	r18, 0x03	; 3
    31ba:	30 e0       	ldi	r19, 0x00	; 0
			r.func = prim_tab[fn].func;
    31bc:	f7 01       	movw	r30, r14
    31be:	ee 0f       	add	r30, r30
    31c0:	ff 1f       	adc	r31, r31
    31c2:	ee 0d       	add	r30, r14
    31c4:	ff 1d       	adc	r31, r15
    31c6:	ee 0f       	add	r30, r30
    31c8:	ff 1f       	adc	r31, r31
    31ca:	e5 54       	subi	r30, 0x45	; 69
    31cc:	fc 4f       	sbci	r31, 0xFC	; 252
    31ce:	80 81       	ld	r24, Z
    31d0:	91 81       	ldd	r25, Z+1	; 0x01
    31d2:	9e 83       	std	Y+6, r25	; 0x06
    31d4:	8d 83       	std	Y+5, r24	; 0x05
    31d6:	0a c0       	rjmp	.+20     	; 0x31ec <readtoken+0x16c>
		}
		else
		{
			r.string = newString(n, str);
    31d8:	be 01       	movw	r22, r28
    31da:	6f 5e       	subi	r22, 0xEF	; 239
    31dc:	7f 4f       	sbci	r23, 0xFF	; 255
    31de:	c4 01       	movw	r24, r8
    31e0:	0e 94 f3 17 	call	0x2fe6	; 0x2fe6 <newString>
    31e4:	9e 83       	std	Y+6, r25	; 0x06
    31e6:	8d 83       	std	Y+5, r24	; 0x05
    31e8:	20 e0       	ldi	r18, 0x00	; 0
    31ea:	30 e0       	ldi	r19, 0x00	; 0
			r.type   = SYMBOL;
		}
	}		
	return r;
    31ec:	1c 82       	std	Y+4, r1	; 0x04
    31ee:	1b 82       	std	Y+3, r1	; 0x03
    31f0:	3a 83       	std	Y+2, r19	; 0x02
    31f2:	29 83       	std	Y+1, r18	; 0x01
    31f4:	de 01       	movw	r26, r28
    31f6:	19 96       	adiw	r26, 0x09	; 9
    31f8:	fe 01       	movw	r30, r28
    31fa:	31 96       	adiw	r30, 0x01	; 1
    31fc:	88 e0       	ldi	r24, 0x08	; 8
    31fe:	01 90       	ld	r0, Z+
    3200:	0d 92       	st	X+, r0
    3202:	81 50       	subi	r24, 0x01	; 1
    3204:	e1 f7       	brne	.-8      	; 0x31fe <readtoken+0x17e>
    3206:	29 85       	ldd	r18, Y+9	; 0x09
    3208:	3a 85       	ldd	r19, Y+10	; 0x0a
    320a:	4b 85       	ldd	r20, Y+11	; 0x0b
    320c:	5c 85       	ldd	r21, Y+12	; 0x0c
    320e:	6d 85       	ldd	r22, Y+13	; 0x0d
    3210:	7e 85       	ldd	r23, Y+14	; 0x0e
}
    3212:	8f 85       	ldd	r24, Y+15	; 0x0f
    3214:	98 89       	ldd	r25, Y+16	; 0x10
    3216:	a4 96       	adiw	r28, 0x24	; 36
    3218:	0f b6       	in	r0, 0x3f	; 63
    321a:	f8 94       	cli
    321c:	de bf       	out	0x3e, r29	; 62
    321e:	0f be       	out	0x3f, r0	; 63
    3220:	cd bf       	out	0x3d, r28	; 61
    3222:	cf 91       	pop	r28
    3224:	df 91       	pop	r29
    3226:	1f 91       	pop	r17
    3228:	0f 91       	pop	r16
    322a:	ff 90       	pop	r15
    322c:	ef 90       	pop	r14
    322e:	df 90       	pop	r13
    3230:	cf 90       	pop	r12
    3232:	bf 90       	pop	r11
    3234:	af 90       	pop	r10
    3236:	9f 90       	pop	r9
    3238:	8f 90       	pop	r8
    323a:	08 95       	ret

0000323c <readstring>:
	 (ch >= 'a' && ch <= 'z' ) ||
	 (ch >= '0' && ch <= '9' ) );
}

char *readstring()
{
    323c:	df 93       	push	r29
    323e:	cf 93       	push	r28
    3240:	cd b7       	in	r28, 0x3d	; 61
    3242:	de b7       	in	r29, 0x3e	; 62
    3244:	64 97       	sbiw	r28, 0x14	; 20
    3246:	0f b6       	in	r0, 0x3f	; 63
    3248:	f8 94       	cli
    324a:	de bf       	out	0x3e, r29	; 62
    324c:	0f be       	out	0x3f, r0	; 63
    324e:	cd bf       	out	0x3d, r28	; 61
    3250:	de 01       	movw	r26, r28
    3252:	11 96       	adiw	r26, 0x01	; 1
    3254:	80 e0       	ldi	r24, 0x00	; 0
    3256:	90 e0       	ldi	r25, 0x00	; 0
    3258:	0d c0       	rjmp	.+26     	; 0x3274 <readstring+0x38>
	char *p=str;
	int ch = 0;
	int  n=0;
	while (((ch = getch()) > 0) && n<20)
	{
		if (ch=='"')
    325a:	22 32       	cpi	r18, 0x22	; 34
    325c:	31 05       	cpc	r19, r1
    325e:	41 f4       	brne	.+16     	; 0x3270 <readstring+0x34>
		{
			*p =0;
    3260:	1c 92       	st	X, r1
			return newString(n, str);
    3262:	be 01       	movw	r22, r28
    3264:	6f 5f       	subi	r22, 0xFF	; 255
    3266:	7f 4f       	sbci	r23, 0xFF	; 255
    3268:	0e 94 f3 17 	call	0x2fe6	; 0x2fe6 <newString>
    326c:	9c 01       	movw	r18, r24
    326e:	17 c0       	rjmp	.+46     	; 0x329e <readstring+0x62>
		}
		*p++ = (char)ch;
    3270:	2d 93       	st	X+, r18
		n++;
    3272:	01 96       	adiw	r24, 0x01	; 1
	}
}

int getch()
{
	if (*ibptr!=0)
    3274:	e0 91 5f 0e 	lds	r30, 0x0E5F
    3278:	f0 91 60 0e 	lds	r31, 0x0E60
    327c:	20 81       	ld	r18, Z
    327e:	22 23       	and	r18, r18
    3280:	61 f0       	breq	.+24     	; 0x329a <readstring+0x5e>
		return *ibptr++;
    3282:	30 e0       	ldi	r19, 0x00	; 0
    3284:	31 96       	adiw	r30, 0x01	; 1
    3286:	f0 93 60 0e 	sts	0x0E60, r31
    328a:	e0 93 5f 0e 	sts	0x0E5F, r30
{
	char str[20];
	char *p=str;
	int ch = 0;
	int  n=0;
	while (((ch = getch()) > 0) && n<20)
    328e:	21 15       	cp	r18, r1
    3290:	31 05       	cpc	r19, r1
    3292:	19 f0       	breq	.+6      	; 0x329a <readstring+0x5e>
    3294:	84 31       	cpi	r24, 0x14	; 20
    3296:	91 05       	cpc	r25, r1
    3298:	01 f7       	brne	.-64     	; 0x325a <readstring+0x1e>
    329a:	20 e0       	ldi	r18, 0x00	; 0
    329c:	30 e0       	ldi	r19, 0x00	; 0
		}
		*p++ = (char)ch;
		n++;
	}
	return (char *)0; //error
}
    329e:	c9 01       	movw	r24, r18
    32a0:	64 96       	adiw	r28, 0x14	; 20
    32a2:	0f b6       	in	r0, 0x3f	; 63
    32a4:	f8 94       	cli
    32a6:	de bf       	out	0x3e, r29	; 62
    32a8:	0f be       	out	0x3f, r0	; 63
    32aa:	cd bf       	out	0x3d, r28	; 61
    32ac:	cf 91       	pop	r28
    32ae:	df 91       	pop	r29
    32b0:	08 95       	ret

000032b2 <parse>:
	return top;
}
	

tOBJ parse()
{
    32b2:	0f 93       	push	r16
    32b4:	1f 93       	push	r17
    32b6:	df 93       	push	r29
    32b8:	cf 93       	push	r28
    32ba:	cd b7       	in	r28, 0x3d	; 61
    32bc:	de b7       	in	r29, 0x3e	; 62
    32be:	68 97       	sbiw	r28, 0x18	; 24
    32c0:	0f b6       	in	r0, 0x3f	; 63
    32c2:	f8 94       	cli
    32c4:	de bf       	out	0x3e, r29	; 62
    32c6:	0f be       	out	0x3f, r0	; 63
    32c8:	cd bf       	out	0x3d, r28	; 61
    32ca:	11 c0       	rjmp	.+34     	; 0x32ee <parse+0x3c>
	int ch;
	bool qf=0;
	
	while ((ch = getch()) > 0)
	{
		if (isWhiteSpace((char)ch))
    32cc:	42 2f       	mov	r20, r18
    32ce:	82 2f       	mov	r24, r18
    32d0:	90 e0       	ldi	r25, 0x00	; 0
	return num*s;
}

bool isWhiteSpace(int ch)
{
	return (ch == ' ' || ch == '\t' || ch == '\r' || ch == '\n');
    32d2:	80 32       	cpi	r24, 0x20	; 32
    32d4:	91 05       	cpc	r25, r1
    32d6:	49 f0       	breq	.+18     	; 0x32ea <parse+0x38>
    32d8:	89 30       	cpi	r24, 0x09	; 9
    32da:	91 05       	cpc	r25, r1
    32dc:	31 f0       	breq	.+12     	; 0x32ea <parse+0x38>
    32de:	8d 30       	cpi	r24, 0x0D	; 13
    32e0:	91 05       	cpc	r25, r1
    32e2:	19 f0       	breq	.+6      	; 0x32ea <parse+0x38>
    32e4:	0a 97       	sbiw	r24, 0x0a	; 10
    32e6:	09 f0       	breq	.+2      	; 0x32ea <parse+0x38>
    32e8:	c6 c0       	rjmp	.+396    	; 0x3476 <parse+0x1c4>
	while ((ch = getch()) > 0)
	{
		if (isWhiteSpace((char)ch))
		{
			qf = false;
			readwhitespace();
    32ea:	0e 94 ce 08 	call	0x119c	; 0x119c <readwhitespace>
    32ee:	00 e0       	ldi	r16, 0x00	; 0
    32f0:	10 e0       	ldi	r17, 0x00	; 0
    32f2:	8d c0       	rjmp	.+282    	; 0x340e <parse+0x15c>
			continue;
		}

		if (ch=='+' || ch=='-' || (ch >= '0' && ch <= '9'))
    32f4:	2d 32       	cpi	r18, 0x2D	; 45
    32f6:	31 05       	cpc	r19, r1
    32f8:	21 f0       	breq	.+8      	; 0x3302 <parse+0x50>
    32fa:	c9 01       	movw	r24, r18
    32fc:	c0 97       	sbiw	r24, 0x30	; 48
    32fe:	0a 97       	sbiw	r24, 0x0a	; 10
    3300:	f8 f4       	brcc	.+62     	; 0x3340 <parse+0x8e>
	inputbuffer[ibcnt]=0;
}

void ungetch(int c)
{
	if (ibptr>inputbuffer)
    3302:	8d e0       	ldi	r24, 0x0D	; 13
    3304:	eb 3f       	cpi	r30, 0xFB	; 251
    3306:	f8 07       	cpc	r31, r24
    3308:	39 f0       	breq	.+14     	; 0x3318 <parse+0x66>
    330a:	30 f0       	brcs	.+12     	; 0x3318 <parse+0x66>
	{
		--ibptr;
    330c:	31 97       	sbiw	r30, 0x01	; 1
    330e:	f0 93 60 0e 	sts	0x0E60, r31
    3312:	e0 93 5f 0e 	sts	0x0E5F, r30
		*ibptr=c;
    3316:	40 83       	st	Z, r20

		if (ch=='+' || ch=='-' || (ch >= '0' && ch <= '9'))
		{
			ungetch(ch);
			r.type=INT;
			r.number=readdigit();
    3318:	0e 94 38 08 	call	0x1070	; 0x1070 <readdigit>
    331c:	9e 83       	std	Y+6, r25	; 0x06
    331e:	8d 83       	std	Y+5, r24	; 0x05
			return r;
    3320:	81 e0       	ldi	r24, 0x01	; 1
    3322:	90 e0       	ldi	r25, 0x00	; 0
    3324:	9a 83       	std	Y+2, r25	; 0x02
    3326:	89 83       	std	Y+1, r24	; 0x01
    3328:	1c 82       	std	Y+4, r1	; 0x04
    332a:	1b 82       	std	Y+3, r1	; 0x03
    332c:	de 01       	movw	r26, r28
    332e:	19 96       	adiw	r26, 0x09	; 9
    3330:	fe 01       	movw	r30, r28
    3332:	31 96       	adiw	r30, 0x01	; 1
    3334:	88 e0       	ldi	r24, 0x08	; 8
    3336:	01 90       	ld	r0, Z+
    3338:	0d 92       	st	X+, r0
    333a:	81 50       	subi	r24, 0x01	; 1
    333c:	e1 f7       	brne	.-8      	; 0x3336 <parse+0x84>
    333e:	88 c0       	rjmp	.+272    	; 0x3450 <parse+0x19e>
		}
		if (ch == '"')
    3340:	22 32       	cpi	r18, 0x22	; 34
    3342:	31 05       	cpc	r19, r1
    3344:	a1 f4       	brne	.+40     	; 0x336e <parse+0xbc>
		{
			r.type=STRING;
			r.string=readstring();
    3346:	0e 94 1e 19 	call	0x323c	; 0x323c <readstring>
    334a:	9e 83       	std	Y+6, r25	; 0x06
    334c:	8d 83       	std	Y+5, r24	; 0x05
			return r;
    334e:	86 e0       	ldi	r24, 0x06	; 6
    3350:	90 e0       	ldi	r25, 0x00	; 0
    3352:	9a 83       	std	Y+2, r25	; 0x02
    3354:	89 83       	std	Y+1, r24	; 0x01
    3356:	1c 82       	std	Y+4, r1	; 0x04
    3358:	1b 82       	std	Y+3, r1	; 0x03
    335a:	de 01       	movw	r26, r28
    335c:	19 96       	adiw	r26, 0x09	; 9
    335e:	fe 01       	movw	r30, r28
    3360:	31 96       	adiw	r30, 0x01	; 1
    3362:	88 e0       	ldi	r24, 0x08	; 8
    3364:	01 90       	ld	r0, Z+
    3366:	0d 92       	st	X+, r0
    3368:	81 50       	subi	r24, 0x01	; 1
    336a:	e1 f7       	brne	.-8      	; 0x3364 <parse+0xb2>
    336c:	71 c0       	rjmp	.+226    	; 0x3450 <parse+0x19e>
		}
		if (ch == '\'') //quote shortcut
    336e:	27 32       	cpi	r18, 0x27	; 39
    3370:	31 05       	cpc	r19, r1
    3372:	b9 f0       	breq	.+46     	; 0x33a2 <parse+0xf0>
		{
			qf = true;
		}

		if (ch == '(')
    3374:	28 32       	cpi	r18, 0x28	; 40
    3376:	31 05       	cpc	r19, r1
    3378:	b1 f4       	brne	.+44     	; 0x33a6 <parse+0xf4>
		{
			tCELL *args = parselist();
    337a:	0e 94 df 1a 	call	0x35be	; 0x35be <parselist>
			r.q = qf;
			r.type = CELL;
			r.cell = args;
    337e:	9e 83       	std	Y+6, r25	; 0x06
    3380:	8d 83       	std	Y+5, r24	; 0x05

			return r;
    3382:	87 e0       	ldi	r24, 0x07	; 7
    3384:	90 e0       	ldi	r25, 0x00	; 0
    3386:	9a 83       	std	Y+2, r25	; 0x02
    3388:	89 83       	std	Y+1, r24	; 0x01
    338a:	1c 83       	std	Y+4, r17	; 0x04
    338c:	0b 83       	std	Y+3, r16	; 0x03
    338e:	de 01       	movw	r26, r28
    3390:	19 96       	adiw	r26, 0x09	; 9
    3392:	fe 01       	movw	r30, r28
    3394:	31 96       	adiw	r30, 0x01	; 1
    3396:	88 e0       	ldi	r24, 0x08	; 8
    3398:	01 90       	ld	r0, Z+
    339a:	0d 92       	st	X+, r0
    339c:	81 50       	subi	r24, 0x01	; 1
    339e:	e1 f7       	brne	.-8      	; 0x3398 <parse+0xe6>
    33a0:	57 c0       	rjmp	.+174    	; 0x3450 <parse+0x19e>
    33a2:	01 e0       	ldi	r16, 0x01	; 1
    33a4:	10 e0       	ldi	r17, 0x00	; 0
		}

		if ( (ch>= 'A' && ch<= 'Z' ) || (ch>= 'a' && ch<= 'z' ))
    33a6:	c9 01       	movw	r24, r18
    33a8:	81 54       	subi	r24, 0x41	; 65
    33aa:	90 40       	sbci	r25, 0x00	; 0
    33ac:	4a 97       	sbiw	r24, 0x1a	; 26
    33ae:	28 f0       	brcs	.+10     	; 0x33ba <parse+0x108>
    33b0:	21 56       	subi	r18, 0x61	; 97
    33b2:	30 40       	sbci	r19, 0x00	; 0
    33b4:	2a 31       	cpi	r18, 0x1A	; 26
    33b6:	31 05       	cpc	r19, r1
    33b8:	50 f5       	brcc	.+84     	; 0x340e <parse+0x15c>
	inputbuffer[ibcnt]=0;
}

void ungetch(int c)
{
	if (ibptr>inputbuffer)
    33ba:	8d e0       	ldi	r24, 0x0D	; 13
    33bc:	eb 3f       	cpi	r30, 0xFB	; 251
    33be:	f8 07       	cpc	r31, r24
    33c0:	39 f0       	breq	.+14     	; 0x33d0 <parse+0x11e>
    33c2:	30 f0       	brcs	.+12     	; 0x33d0 <parse+0x11e>
	{
		--ibptr;
    33c4:	31 97       	sbiw	r30, 0x01	; 1
    33c6:	f0 93 60 0e 	sts	0x0E60, r31
    33ca:	e0 93 5f 0e 	sts	0x0E5F, r30
		*ibptr=c;
    33ce:	40 83       	st	Z, r20
		}

		if ( (ch>= 'A' && ch<= 'Z' ) || (ch>= 'a' && ch<= 'z' ))
		{
			ungetch(ch);
			r=readtoken();		
    33d0:	0e 94 40 18 	call	0x3080	; 0x3080 <readtoken>
    33d4:	29 8b       	std	Y+17, r18	; 0x11
    33d6:	3a 8b       	std	Y+18, r19	; 0x12
    33d8:	4b 8b       	std	Y+19, r20	; 0x13
    33da:	5c 8b       	std	Y+20, r21	; 0x14
    33dc:	6d 8b       	std	Y+21, r22	; 0x15
    33de:	7e 8b       	std	Y+22, r23	; 0x16
    33e0:	8f 8b       	std	Y+23, r24	; 0x17
    33e2:	98 8f       	std	Y+24, r25	; 0x18
    33e4:	de 01       	movw	r26, r28
    33e6:	11 96       	adiw	r26, 0x01	; 1
    33e8:	fe 01       	movw	r30, r28
    33ea:	71 96       	adiw	r30, 0x11	; 17
    33ec:	88 e0       	ldi	r24, 0x08	; 8
    33ee:	01 90       	ld	r0, Z+
    33f0:	0d 92       	st	X+, r0
    33f2:	81 50       	subi	r24, 0x01	; 1
    33f4:	e1 f7       	brne	.-8      	; 0x33ee <parse+0x13c>
			r.q = qf;
			return r;
    33f6:	1c 83       	std	Y+4, r17	; 0x04
    33f8:	0b 83       	std	Y+3, r16	; 0x03
    33fa:	de 01       	movw	r26, r28
    33fc:	19 96       	adiw	r26, 0x09	; 9
    33fe:	fe 01       	movw	r30, r28
    3400:	31 96       	adiw	r30, 0x01	; 1
    3402:	88 e0       	ldi	r24, 0x08	; 8
    3404:	01 90       	ld	r0, Z+
    3406:	0d 92       	st	X+, r0
    3408:	81 50       	subi	r24, 0x01	; 1
    340a:	e1 f7       	brne	.-8      	; 0x3404 <parse+0x152>
    340c:	21 c0       	rjmp	.+66     	; 0x3450 <parse+0x19e>
	}
}

int getch()
{
	if (*ibptr!=0)
    340e:	e0 91 5f 0e 	lds	r30, 0x0E5F
    3412:	f0 91 60 0e 	lds	r31, 0x0E60
    3416:	80 81       	ld	r24, Z
    3418:	88 23       	and	r24, r24
    341a:	59 f0       	breq	.+22     	; 0x3432 <parse+0x180>
		return *ibptr++;
    341c:	28 2f       	mov	r18, r24
    341e:	30 e0       	ldi	r19, 0x00	; 0
    3420:	31 96       	adiw	r30, 0x01	; 1
    3422:	f0 93 60 0e 	sts	0x0E60, r31
    3426:	e0 93 5f 0e 	sts	0x0E5F, r30
	r.q = false;
	
	int ch;
	bool qf=0;
	
	while ((ch = getch()) > 0)
    342a:	21 15       	cp	r18, r1
    342c:	31 05       	cpc	r19, r1
    342e:	09 f0       	breq	.+2      	; 0x3432 <parse+0x180>
    3430:	4d cf       	rjmp	.-358    	; 0x32cc <parse+0x1a>
			r=readtoken();		
			r.q = qf;
			return r;
		}
	}
	return r;
    3432:	88 e0       	ldi	r24, 0x08	; 8
    3434:	90 e0       	ldi	r25, 0x00	; 0
    3436:	9a 83       	std	Y+2, r25	; 0x02
    3438:	89 83       	std	Y+1, r24	; 0x01
    343a:	1c 82       	std	Y+4, r1	; 0x04
    343c:	1b 82       	std	Y+3, r1	; 0x03
    343e:	de 01       	movw	r26, r28
    3440:	19 96       	adiw	r26, 0x09	; 9
    3442:	fe 01       	movw	r30, r28
    3444:	31 96       	adiw	r30, 0x01	; 1
    3446:	88 e0       	ldi	r24, 0x08	; 8
    3448:	01 90       	ld	r0, Z+
    344a:	0d 92       	st	X+, r0
    344c:	81 50       	subi	r24, 0x01	; 1
    344e:	e1 f7       	brne	.-8      	; 0x3448 <parse+0x196>
    3450:	29 85       	ldd	r18, Y+9	; 0x09
    3452:	3a 85       	ldd	r19, Y+10	; 0x0a
    3454:	4b 85       	ldd	r20, Y+11	; 0x0b
    3456:	5c 85       	ldd	r21, Y+12	; 0x0c
    3458:	6d 85       	ldd	r22, Y+13	; 0x0d
    345a:	7e 85       	ldd	r23, Y+14	; 0x0e
}
    345c:	8f 85       	ldd	r24, Y+15	; 0x0f
    345e:	98 89       	ldd	r25, Y+16	; 0x10
    3460:	68 96       	adiw	r28, 0x18	; 24
    3462:	0f b6       	in	r0, 0x3f	; 63
    3464:	f8 94       	cli
    3466:	de bf       	out	0x3e, r29	; 62
    3468:	0f be       	out	0x3f, r0	; 63
    346a:	cd bf       	out	0x3d, r28	; 61
    346c:	cf 91       	pop	r28
    346e:	df 91       	pop	r29
    3470:	1f 91       	pop	r17
    3472:	0f 91       	pop	r16
    3474:	08 95       	ret
			qf = false;
			readwhitespace();
			continue;
		}

		if (ch=='+' || ch=='-' || (ch >= '0' && ch <= '9'))
    3476:	2b 32       	cpi	r18, 0x2B	; 43
    3478:	31 05       	cpc	r19, r1
    347a:	09 f0       	breq	.+2      	; 0x347e <parse+0x1cc>
    347c:	3b cf       	rjmp	.-394    	; 0x32f4 <parse+0x42>
    347e:	41 cf       	rjmp	.-382    	; 0x3302 <parse+0x50>

00003480 <eval>:
	
	garbageCollect();
}

tOBJ eval()
{
    3480:	df 93       	push	r29
    3482:	cf 93       	push	r28
    3484:	cd b7       	in	r28, 0x3d	; 61
    3486:	de b7       	in	r29, 0x3e	; 62
    3488:	68 97       	sbiw	r28, 0x18	; 24
    348a:	0f b6       	in	r0, 0x3f	; 63
    348c:	f8 94       	cli
    348e:	de bf       	out	0x3e, r29	; 62
    3490:	0f be       	out	0x3f, r0	; 63
    3492:	cd bf       	out	0x3d, r28	; 61
	tOBJ r = parse();
    3494:	0e 94 59 19 	call	0x32b2	; 0x32b2 <parse>
    3498:	29 8b       	std	Y+17, r18	; 0x11
    349a:	3a 8b       	std	Y+18, r19	; 0x12
    349c:	4b 8b       	std	Y+19, r20	; 0x13
    349e:	5c 8b       	std	Y+20, r21	; 0x14
    34a0:	6d 8b       	std	Y+21, r22	; 0x15
    34a2:	7e 8b       	std	Y+22, r23	; 0x16
    34a4:	8f 8b       	std	Y+23, r24	; 0x17
    34a6:	98 8f       	std	Y+24, r25	; 0x18
    34a8:	de 01       	movw	r26, r28
    34aa:	11 96       	adiw	r26, 0x01	; 1
    34ac:	fe 01       	movw	r30, r28
    34ae:	71 96       	adiw	r30, 0x11	; 17
    34b0:	88 e0       	ldi	r24, 0x08	; 8
    34b2:	01 90       	ld	r0, Z+
    34b4:	0d 92       	st	X+, r0
    34b6:	81 50       	subi	r24, 0x01	; 1
    34b8:	e1 f7       	brne	.-8      	; 0x34b2 <eval+0x32>
	return callobj(r);
    34ba:	29 81       	ldd	r18, Y+1	; 0x01
    34bc:	3a 81       	ldd	r19, Y+2	; 0x02
    34be:	4b 81       	ldd	r20, Y+3	; 0x03
    34c0:	5c 81       	ldd	r21, Y+4	; 0x04
    34c2:	6d 81       	ldd	r22, Y+5	; 0x05
    34c4:	7e 81       	ldd	r23, Y+6	; 0x06
    34c6:	8f 81       	ldd	r24, Y+7	; 0x07
    34c8:	98 85       	ldd	r25, Y+8	; 0x08
    34ca:	0e 94 2e 11 	call	0x225c	; 0x225c <callobj>
    34ce:	29 8b       	std	Y+17, r18	; 0x11
    34d0:	3a 8b       	std	Y+18, r19	; 0x12
    34d2:	4b 8b       	std	Y+19, r20	; 0x13
    34d4:	5c 8b       	std	Y+20, r21	; 0x14
    34d6:	6d 8b       	std	Y+21, r22	; 0x15
    34d8:	7e 8b       	std	Y+22, r23	; 0x16
    34da:	8f 8b       	std	Y+23, r24	; 0x17
    34dc:	98 8f       	std	Y+24, r25	; 0x18
    34de:	de 01       	movw	r26, r28
    34e0:	19 96       	adiw	r26, 0x09	; 9
    34e2:	fe 01       	movw	r30, r28
    34e4:	71 96       	adiw	r30, 0x11	; 17
    34e6:	88 e0       	ldi	r24, 0x08	; 8
    34e8:	01 90       	ld	r0, Z+
    34ea:	0d 92       	st	X+, r0
    34ec:	81 50       	subi	r24, 0x01	; 1
    34ee:	e1 f7       	brne	.-8      	; 0x34e8 <eval+0x68>
    34f0:	29 85       	ldd	r18, Y+9	; 0x09
    34f2:	3a 85       	ldd	r19, Y+10	; 0x0a
    34f4:	4b 85       	ldd	r20, Y+11	; 0x0b
    34f6:	5c 85       	ldd	r21, Y+12	; 0x0c
    34f8:	6d 85       	ldd	r22, Y+13	; 0x0d
    34fa:	7e 85       	ldd	r23, Y+14	; 0x0e
}
    34fc:	8f 85       	ldd	r24, Y+15	; 0x0f
    34fe:	98 89       	ldd	r25, Y+16	; 0x10
    3500:	68 96       	adiw	r28, 0x18	; 24
    3502:	0f b6       	in	r0, 0x3f	; 63
    3504:	f8 94       	cli
    3506:	de bf       	out	0x3e, r29	; 62
    3508:	0f be       	out	0x3f, r0	; 63
    350a:	cd bf       	out	0x3d, r28	; 61
    350c:	cf 91       	pop	r28
    350e:	df 91       	pop	r29
    3510:	08 95       	ret

00003512 <evalstring>:

tOBJ evalstring(char *txt)
{
    3512:	df 93       	push	r29
    3514:	cf 93       	push	r28
    3516:	cd b7       	in	r28, 0x3d	; 61
    3518:	de b7       	in	r29, 0x3e	; 62
    351a:	60 97       	sbiw	r28, 0x10	; 16
    351c:	0f b6       	in	r0, 0x3f	; 63
    351e:	f8 94       	cli
    3520:	de bf       	out	0x3e, r29	; 62
    3522:	0f be       	out	0x3f, r0	; 63
    3524:	cd bf       	out	0x3d, r28	; 61
    3526:	dc 01       	movw	r26, r24
	ibcnt=0;
    3528:	10 92 fa 0d 	sts	0x0DFA, r1
    352c:	10 92 f9 0d 	sts	0x0DF9, r1
	while ((inputbuffer[ibcnt++] = *txt++ ) != 0) ;
    3530:	80 91 f9 0d 	lds	r24, 0x0DF9
    3534:	90 91 fa 0d 	lds	r25, 0x0DFA
    3538:	2d 91       	ld	r18, X+
    353a:	fc 01       	movw	r30, r24
    353c:	e5 50       	subi	r30, 0x05	; 5
    353e:	f2 4f       	sbci	r31, 0xF2	; 242
    3540:	20 83       	st	Z, r18
    3542:	fc 01       	movw	r30, r24
    3544:	31 96       	adiw	r30, 0x01	; 1
    3546:	f0 93 fa 0d 	sts	0x0DFA, r31
    354a:	e0 93 f9 0d 	sts	0x0DF9, r30
    354e:	22 23       	and	r18, r18
    3550:	79 f7       	brne	.-34     	; 0x3530 <evalstring+0x1e>
	inputbuffer[ibcnt] = '\0';
    3552:	e5 50       	subi	r30, 0x05	; 5
    3554:	f2 4f       	sbci	r31, 0xF2	; 242
    3556:	10 82       	st	Z, r1
	ibptr=inputbuffer;
    3558:	8b ef       	ldi	r24, 0xFB	; 251
    355a:	9d e0       	ldi	r25, 0x0D	; 13
    355c:	90 93 60 0e 	sts	0x0E60, r25
    3560:	80 93 5f 0e 	sts	0x0E5F, r24
	return eval();
    3564:	0e 94 40 1a 	call	0x3480	; 0x3480 <eval>
    3568:	29 87       	std	Y+9, r18	; 0x09
    356a:	3a 87       	std	Y+10, r19	; 0x0a
    356c:	4b 87       	std	Y+11, r20	; 0x0b
    356e:	5c 87       	std	Y+12, r21	; 0x0c
    3570:	6d 87       	std	Y+13, r22	; 0x0d
    3572:	7e 87       	std	Y+14, r23	; 0x0e
    3574:	8f 87       	std	Y+15, r24	; 0x0f
    3576:	98 8b       	std	Y+16, r25	; 0x10
    3578:	de 01       	movw	r26, r28
    357a:	11 96       	adiw	r26, 0x01	; 1
    357c:	fe 01       	movw	r30, r28
    357e:	39 96       	adiw	r30, 0x09	; 9
    3580:	88 e0       	ldi	r24, 0x08	; 8
    3582:	01 90       	ld	r0, Z+
    3584:	0d 92       	st	X+, r0
    3586:	81 50       	subi	r24, 0x01	; 1
    3588:	e1 f7       	brne	.-8      	; 0x3582 <evalstring+0x70>
    358a:	29 81       	ldd	r18, Y+1	; 0x01
    358c:	3a 81       	ldd	r19, Y+2	; 0x02
    358e:	4b 81       	ldd	r20, Y+3	; 0x03
    3590:	5c 81       	ldd	r21, Y+4	; 0x04
    3592:	6d 81       	ldd	r22, Y+5	; 0x05
    3594:	7e 81       	ldd	r23, Y+6	; 0x06
}
    3596:	8f 81       	ldd	r24, Y+7	; 0x07
    3598:	98 85       	ldd	r25, Y+8	; 0x08
    359a:	60 96       	adiw	r28, 0x10	; 16
    359c:	0f b6       	in	r0, 0x3f	; 63
    359e:	f8 94       	cli
    35a0:	de bf       	out	0x3e, r29	; 62
    35a2:	0f be       	out	0x3f, r0	; 63
    35a4:	cd bf       	out	0x3d, r28	; 61
    35a6:	cf 91       	pop	r28
    35a8:	df 91       	pop	r29
    35aa:	08 95       	ret

000035ac <testf>:
		}
	}
}

void testf()
{
    35ac:	81 e6       	ldi	r24, 0x61	; 97
    35ae:	92 e0       	ldi	r25, 0x02	; 2
    35b0:	0e 94 89 1a 	call	0x3512	; 0x3512 <evalstring>
   evalstring("(set 'a 1)");
   evalstring("(if (eq a 1) (prn \"one\") true (prn \"hi\")))");
    35b4:	8c e6       	ldi	r24, 0x6C	; 108
    35b6:	92 e0       	ldi	r25, 0x02	; 2
    35b8:	0e 94 89 1a 	call	0x3512	; 0x3512 <evalstring>
}
    35bc:	08 95       	ret

000035be <parselist>:

tOBJ parse();
tOBJ callFunction(struct cell *);

tCELL *parselist()
{
    35be:	0f 93       	push	r16
    35c0:	1f 93       	push	r17
    35c2:	cf 93       	push	r28
    35c4:	df 93       	push	r29
int mem=0;
void printtype(tOBJ);

tCELLp newCell()
{
	if (mem<MEMSZ-1)
    35c6:	20 91 64 05 	lds	r18, 0x0564
    35ca:	30 91 65 05 	lds	r19, 0x0565
    35ce:	23 36       	cpi	r18, 0x63	; 99
    35d0:	31 05       	cpc	r19, r1
    35d2:	1c f0       	brlt	.+6      	; 0x35da <parselist+0x1c>
    35d4:	00 e0       	ldi	r16, 0x00	; 0
    35d6:	10 e0       	ldi	r17, 0x00	; 0
    35d8:	13 c0       	rjmp	.+38     	; 0x3600 <parselist+0x42>
	{
		return &memory[mem++];
    35da:	89 01       	movw	r16, r18
    35dc:	00 0f       	add	r16, r16
    35de:	11 1f       	adc	r17, r17
    35e0:	c9 01       	movw	r24, r18
    35e2:	63 e0       	ldi	r22, 0x03	; 3
    35e4:	88 0f       	add	r24, r24
    35e6:	99 1f       	adc	r25, r25
    35e8:	6a 95       	dec	r22
    35ea:	e1 f7       	brne	.-8      	; 0x35e4 <parselist+0x26>
    35ec:	08 0f       	add	r16, r24
    35ee:	19 1f       	adc	r17, r25
    35f0:	0f 5e       	subi	r16, 0xEF	; 239
    35f2:	19 4f       	sbci	r17, 0xF9	; 249
    35f4:	2f 5f       	subi	r18, 0xFF	; 255
    35f6:	3f 4f       	sbci	r19, 0xFF	; 255
    35f8:	30 93 65 05 	sts	0x0565, r19
    35fc:	20 93 64 05 	sts	0x0564, r18
    3600:	e8 01       	movw	r28, r16
    3602:	a0 e0       	ldi	r26, 0x00	; 0
    3604:	b0 e0       	ldi	r27, 0x00	; 0
    3606:	3c c0       	rjmp	.+120    	; 0x3680 <parselist+0xc2>
	struct cell *top = nxt;
	struct cell *prv = 0;

	while ((ch = getch()) > 0)
	{
		if ((char)ch == ')')
    3608:	89 32       	cpi	r24, 0x29	; 41
    360a:	09 f4       	brne	.+2      	; 0x360e <parselist+0x50>
    360c:	4b c0       	rjmp	.+150    	; 0x36a4 <parselist+0xe6>
	inputbuffer[ibcnt]=0;
}

void ungetch(int c)
{
	if (ibptr>inputbuffer)
    360e:	2b 5f       	subi	r18, 0xFB	; 251
    3610:	3d 40       	sbci	r19, 0x0D	; 13
    3612:	31 f0       	breq	.+12     	; 0x3620 <parselist+0x62>
    3614:	28 f0       	brcs	.+10     	; 0x3620 <parselist+0x62>
	{
		--ibptr;
    3616:	f0 93 60 0e 	sts	0x0E60, r31
    361a:	e0 93 5f 0e 	sts	0x0E5F, r30
		*ibptr=c;
    361e:	80 83       	st	Z, r24
		if ((char)ch == ')')
		{
			return top;
		}
		ungetch(ch);
		if (prv != 0)
    3620:	10 97       	sbiw	r26, 0x00	; 0
    3622:	09 f1       	breq	.+66     	; 0x3666 <parselist+0xa8>
int mem=0;
void printtype(tOBJ);

tCELLp newCell()
{
	if (mem<MEMSZ-1)
    3624:	20 91 64 05 	lds	r18, 0x0564
    3628:	30 91 65 05 	lds	r19, 0x0565
    362c:	23 36       	cpi	r18, 0x63	; 99
    362e:	31 05       	cpc	r19, r1
    3630:	1c f0       	brlt	.+6      	; 0x3638 <parselist+0x7a>
    3632:	c0 e0       	ldi	r28, 0x00	; 0
    3634:	d0 e0       	ldi	r29, 0x00	; 0
    3636:	13 c0       	rjmp	.+38     	; 0x365e <parselist+0xa0>
	{
		return &memory[mem++];
    3638:	e9 01       	movw	r28, r18
    363a:	cc 0f       	add	r28, r28
    363c:	dd 1f       	adc	r29, r29
    363e:	c9 01       	movw	r24, r18
    3640:	43 e0       	ldi	r20, 0x03	; 3
    3642:	88 0f       	add	r24, r24
    3644:	99 1f       	adc	r25, r25
    3646:	4a 95       	dec	r20
    3648:	e1 f7       	brne	.-8      	; 0x3642 <parselist+0x84>
    364a:	c8 0f       	add	r28, r24
    364c:	d9 1f       	adc	r29, r25
    364e:	cf 5e       	subi	r28, 0xEF	; 239
    3650:	d9 4f       	sbci	r29, 0xF9	; 249
    3652:	2f 5f       	subi	r18, 0xFF	; 255
    3654:	3f 4f       	sbci	r19, 0xFF	; 255
    3656:	30 93 65 05 	sts	0x0565, r19
    365a:	20 93 64 05 	sts	0x0564, r18
		}
		ungetch(ch);
		if (prv != 0)
		{
			nxt = newCell();	
			prv->tail = nxt;
    365e:	19 96       	adiw	r26, 0x09	; 9
    3660:	dc 93       	st	X, r29
    3662:	ce 93       	st	-X, r28
    3664:	18 97       	sbiw	r26, 0x08	; 8
		}
		nxt->head = parse();
    3666:	0e 94 59 19 	call	0x32b2	; 0x32b2 <parse>
    366a:	28 83       	st	Y, r18
    366c:	39 83       	std	Y+1, r19	; 0x01
    366e:	4a 83       	std	Y+2, r20	; 0x02
    3670:	5b 83       	std	Y+3, r21	; 0x03
    3672:	6c 83       	std	Y+4, r22	; 0x04
    3674:	7d 83       	std	Y+5, r23	; 0x05
    3676:	8e 83       	std	Y+6, r24	; 0x06
    3678:	9f 83       	std	Y+7, r25	; 0x07
		nxt->tail = null;
    367a:	19 86       	std	Y+9, r1	; 0x09
    367c:	18 86       	std	Y+8, r1	; 0x08
    367e:	de 01       	movw	r26, r28
	}
}

int getch()
{
	if (*ibptr!=0)
    3680:	e0 91 5f 0e 	lds	r30, 0x0E5F
    3684:	f0 91 60 0e 	lds	r31, 0x0E60
    3688:	80 81       	ld	r24, Z
    368a:	88 23       	and	r24, r24
    368c:	59 f0       	breq	.+22     	; 0x36a4 <parselist+0xe6>
		return *ibptr++;
    368e:	90 e0       	ldi	r25, 0x00	; 0
    3690:	9f 01       	movw	r18, r30
    3692:	2f 5f       	subi	r18, 0xFF	; 255
    3694:	3f 4f       	sbci	r19, 0xFF	; 255
    3696:	30 93 60 0e 	sts	0x0E60, r19
    369a:	20 93 5f 0e 	sts	0x0E5F, r18

	struct cell *nxt = newCell();	
	struct cell *top = nxt;
	struct cell *prv = 0;

	while ((ch = getch()) > 0)
    369e:	00 97       	sbiw	r24, 0x00	; 0
    36a0:	09 f0       	breq	.+2      	; 0x36a4 <parselist+0xe6>
    36a2:	b2 cf       	rjmp	.-156    	; 0x3608 <parselist+0x4a>
		nxt->head = parse();
		nxt->tail = null;
		prv=nxt;
	}
	return top;
}
    36a4:	c8 01       	movw	r24, r16
    36a6:	df 91       	pop	r29
    36a8:	cf 91       	pop	r28
    36aa:	1f 91       	pop	r17
    36ac:	0f 91       	pop	r16
    36ae:	08 95       	ret

000036b0 <initialise>:
   evalstring("(set 'a 1)");
   evalstring("(if (eq a 1) (prn \"one\") true (prn \"hi\")))");
}

void initialise()
{
    36b0:	87 e9       	ldi	r24, 0x97	; 151
    36b2:	92 e0       	ldi	r25, 0x02	; 2
    36b4:	0e 94 19 0f 	call	0x1e32	; 0x1e32 <printline>
	printline("Femto $Rev: 152 $");
	RUN_LED1_ON;
    36b8:	dd 98       	cbi	0x1b, 5	; 27
	RUN_LED2_ON;	
    36ba:	de 98       	cbi	0x1b, 6	; 27
	UCSR1B= (1<<RXEN)|(1<<TXEN) ; //enable PC read/write Not interupt;	
    36bc:	88 e1       	ldi	r24, 0x18	; 24
    36be:	80 93 9a 00 	sts	0x009A, r24
	UCSR0B= (1<<RXEN)|(1<<TXEN) ; //enable wck read/write Not interupt;	
    36c2:	8a b9       	out	0x0a, r24	; 10
	
	DEBUG(testf())  //DEBUGING
    36c4:	80 91 62 05 	lds	r24, 0x0562
    36c8:	90 91 63 05 	lds	r25, 0x0563
    36cc:	89 2b       	or	r24, r25
    36ce:	11 f0       	breq	.+4      	; 0x36d4 <initialise+0x24>
    36d0:	0e 94 d6 1a 	call	0x35ac	; 0x35ac <testf>
		
	showenviron();						
    36d4:	0e 94 5e 17 	call	0x2ebc	; 0x2ebc <showenviron>
}
    36d8:	08 95       	ret

000036da <readline>:
char inputbuffer[MAX];
int  ibcnt;
char *ibptr;

void readline()
{
    36da:	1f 93       	push	r17
	int ch=0;
	ibcnt=0;
    36dc:	10 92 fa 0d 	sts	0x0DFA, r1
    36e0:	10 92 f9 0d 	sts	0x0DF9, r1
	ibptr=&inputbuffer[0];
    36e4:	8b ef       	ldi	r24, 0xFB	; 251
    36e6:	9d e0       	ldi	r25, 0x0D	; 13
    36e8:	90 93 60 0e 	sts	0x0E60, r25
    36ec:	80 93 5f 0e 	sts	0x0E5F, r24
    36f0:	34 c0       	rjmp	.+104    	; 0x375a <readline+0x80>
extern void putByte (BYTE b);
extern void putWck  (BYTE b);

int getByte()
{
	while(!(UCSR1A & RX_COMPLETE)) ;
    36f2:	80 91 9b 00 	lds	r24, 0x009B
    36f6:	87 ff       	sbrs	r24, 7
    36f8:	fc cf       	rjmp	.-8      	; 0x36f2 <readline+0x18>
	return UDR1;
    36fa:	10 91 9c 00 	lds	r17, 0x009C
    36fe:	81 2f       	mov	r24, r17
    3700:	90 e0       	ldi	r25, 0x00	; 0
	
	while (ibcnt<MAX-1) 
	{
		ch=getByte();

		if (ch == 13) 
    3702:	8d 30       	cpi	r24, 0x0D	; 13
    3704:	91 05       	cpc	r25, r1
    3706:	39 f4       	brne	.+14     	; 0x3716 <readline+0x3c>
		{
			putByte(13); putByte(10);
    3708:	8d e0       	ldi	r24, 0x0D	; 13
    370a:	0e 94 67 00 	call	0xce	; 0xce <putByte>
    370e:	8a e0       	ldi	r24, 0x0A	; 10
    3710:	0e 94 67 00 	call	0xce	; 0xce <putByte>
    3714:	29 c0       	rjmp	.+82     	; 0x3768 <readline+0x8e>
		    break;
		}
		if (ch==8 || ch==127)   //Bsapce ?
    3716:	88 30       	cpi	r24, 0x08	; 8
    3718:	91 05       	cpc	r25, r1
    371a:	19 f0       	breq	.+6      	; 0x3722 <readline+0x48>
    371c:	8f 37       	cpi	r24, 0x7F	; 127
    371e:	91 05       	cpc	r25, r1
    3720:	61 f4       	brne	.+24     	; 0x373a <readline+0x60>
		{
			if (ibcnt>0) 
    3722:	12 16       	cp	r1, r18
    3724:	13 06       	cpc	r1, r19
    3726:	cc f4       	brge	.+50     	; 0x375a <readline+0x80>
			{
				putByte(ch);
    3728:	81 2f       	mov	r24, r17
    372a:	0e 94 67 00 	call	0xce	; 0xce <putByte>
				ibcnt--;
    372e:	80 91 f9 0d 	lds	r24, 0x0DF9
    3732:	90 91 fa 0d 	lds	r25, 0x0DFA
    3736:	01 97       	sbiw	r24, 0x01	; 1
    3738:	0c c0       	rjmp	.+24     	; 0x3752 <readline+0x78>
			}	
		}
		else
		{
			putByte(ch);            //echo input
    373a:	81 2f       	mov	r24, r17
    373c:	0e 94 67 00 	call	0xce	; 0xce <putByte>
			inputbuffer[ibcnt++] = ch;
    3740:	80 91 f9 0d 	lds	r24, 0x0DF9
    3744:	90 91 fa 0d 	lds	r25, 0x0DFA
    3748:	fc 01       	movw	r30, r24
    374a:	e5 50       	subi	r30, 0x05	; 5
    374c:	f2 4f       	sbci	r31, 0xF2	; 242
    374e:	10 83       	st	Z, r17
    3750:	01 96       	adiw	r24, 0x01	; 1
    3752:	90 93 fa 0d 	sts	0x0DFA, r25
    3756:	80 93 f9 0d 	sts	0x0DF9, r24
{
	int ch=0;
	ibcnt=0;
	ibptr=&inputbuffer[0];
	
	while (ibcnt<MAX-1) 
    375a:	20 91 f9 0d 	lds	r18, 0x0DF9
    375e:	30 91 fa 0d 	lds	r19, 0x0DFA
    3762:	23 36       	cpi	r18, 0x63	; 99
    3764:	31 05       	cpc	r19, r1
    3766:	2c f2       	brlt	.-118    	; 0x36f2 <readline+0x18>
		{
			putByte(ch);            //echo input
			inputbuffer[ibcnt++] = ch;
		}
	}		
	inputbuffer[ibcnt]=0;
    3768:	e0 91 f9 0d 	lds	r30, 0x0DF9
    376c:	f0 91 fa 0d 	lds	r31, 0x0DFA
    3770:	e5 50       	subi	r30, 0x05	; 5
    3772:	f2 4f       	sbci	r31, 0xF2	; 242
    3774:	10 82       	st	Z, r1
}
    3776:	1f 91       	pop	r17
    3778:	08 95       	ret

0000377a <repl>:
	ibptr=inputbuffer;
	return eval();
}

void repl()
{
    377a:	ef 92       	push	r14
    377c:	ff 92       	push	r15
    377e:	0f 93       	push	r16
    3780:	1f 93       	push	r17
    3782:	df 93       	push	r29
    3784:	cf 93       	push	r28
    3786:	cd b7       	in	r28, 0x3d	; 61
    3788:	de b7       	in	r29, 0x3e	; 62
    378a:	60 97       	sbiw	r28, 0x10	; 16
    378c:	0f b6       	in	r0, 0x3f	; 63
    378e:	f8 94       	cli
    3790:	de bf       	out	0x3e, r29	; 62
    3792:	0f be       	out	0x3f, r0	; 63
    3794:	cd bf       	out	0x3d, r28	; 61
	{
		printstr("> ");
		readline();
		while (ibptr-inputbuffer < ibcnt)
		{
			struct object r = eval();
    3796:	7e 01       	movw	r14, r28
    3798:	08 94       	sec
    379a:	e1 1c       	adc	r14, r1
    379c:	f1 1c       	adc	r15, r1
    379e:	8e 01       	movw	r16, r28
    37a0:	07 5f       	subi	r16, 0xF7	; 247
    37a2:	1f 4f       	sbci	r17, 0xFF	; 255

void repl()
{
	while (true)
	{
		printstr("> ");
    37a4:	89 ea       	ldi	r24, 0xA9	; 169
    37a6:	92 e0       	ldi	r25, 0x02	; 2
    37a8:	0e 94 f6 0e 	call	0x1dec	; 0x1dec <printstr>
		readline();
    37ac:	0e 94 6d 1b 	call	0x36da	; 0x36da <readline>
    37b0:	1f c0       	rjmp	.+62     	; 0x37f0 <repl+0x76>
		while (ibptr-inputbuffer < ibcnt)
		{
			struct object r = eval();
    37b2:	0e 94 40 1a 	call	0x3480	; 0x3480 <eval>
    37b6:	29 87       	std	Y+9, r18	; 0x09
    37b8:	3a 87       	std	Y+10, r19	; 0x0a
    37ba:	4b 87       	std	Y+11, r20	; 0x0b
    37bc:	5c 87       	std	Y+12, r21	; 0x0c
    37be:	6d 87       	std	Y+13, r22	; 0x0d
    37c0:	7e 87       	std	Y+14, r23	; 0x0e
    37c2:	8f 87       	std	Y+15, r24	; 0x0f
    37c4:	98 8b       	std	Y+16, r25	; 0x10
    37c6:	d7 01       	movw	r26, r14
    37c8:	f8 01       	movw	r30, r16
    37ca:	88 e0       	ldi	r24, 0x08	; 8
    37cc:	01 90       	ld	r0, Z+
    37ce:	0d 92       	st	X+, r0
    37d0:	81 50       	subi	r24, 0x01	; 1
    37d2:	e1 f7       	brne	.-8      	; 0x37cc <repl+0x52>
			print(r);	
    37d4:	29 81       	ldd	r18, Y+1	; 0x01
    37d6:	3a 81       	ldd	r19, Y+2	; 0x02
    37d8:	4b 81       	ldd	r20, Y+3	; 0x03
    37da:	5c 81       	ldd	r21, Y+4	; 0x04
    37dc:	6d 81       	ldd	r22, Y+5	; 0x05
    37de:	7e 81       	ldd	r23, Y+6	; 0x06
    37e0:	8f 81       	ldd	r24, Y+7	; 0x07
    37e2:	98 85       	ldd	r25, Y+8	; 0x08
    37e4:	0e 94 61 10 	call	0x20c2	; 0x20c2 <print>
			printline("");	
    37e8:	8c ee       	ldi	r24, 0xEC	; 236
    37ea:	91 e0       	ldi	r25, 0x01	; 1
    37ec:	0e 94 19 0f 	call	0x1e32	; 0x1e32 <printline>
{
	while (true)
	{
		printstr("> ");
		readline();
		while (ibptr-inputbuffer < ibcnt)
    37f0:	80 91 5f 0e 	lds	r24, 0x0E5F
    37f4:	90 91 60 0e 	lds	r25, 0x0E60
    37f8:	8b 5f       	subi	r24, 0xFB	; 251
    37fa:	9d 40       	sbci	r25, 0x0D	; 13
    37fc:	20 91 f9 0d 	lds	r18, 0x0DF9
    3800:	30 91 fa 0d 	lds	r19, 0x0DFA
    3804:	82 17       	cp	r24, r18
    3806:	93 07       	cpc	r25, r19
    3808:	6c f6       	brge	.-102    	; 0x37a4 <repl+0x2a>
    380a:	d3 cf       	rjmp	.-90     	; 0x37b2 <repl+0x38>

0000380c <femto>:
	showenviron();						
}


void femto()
{
    380c:	0e 94 58 1b 	call	0x36b0	; 0x36b0 <initialise>
	initialise();
	repl();
    3810:	0e 94 bd 1b 	call	0x377a	; 0x377a <repl>
    3814:	08 95       	ret

00003816 <wckSyncPosSend>:
	putWck(Data4);
	putWck(CheckSum);
}

void wckSyncPosSend(BYTE LastID, BYTE SpeedLevel, BYTE *TargetArray, BYTE Index)
{
    3816:	cf 92       	push	r12
    3818:	df 92       	push	r13
    381a:	ef 92       	push	r14
    381c:	ff 92       	push	r15
    381e:	0f 93       	push	r16
    3820:	1f 93       	push	r17
    3822:	cf 93       	push	r28
    3824:	df 93       	push	r29
    3826:	e8 2e       	mov	r14, r24
    3828:	f6 2e       	mov	r15, r22
    382a:	6a 01       	movw	r12, r20
    382c:	02 2f       	mov	r16, r18
	int i;
	char CheckSum;
	i = 0;
	CheckSum = 0;
	putWck(HEADER);
    382e:	8f ef       	ldi	r24, 0xFF	; 255
    3830:	0e 94 6f 00 	call	0xde	; 0xde <putWck>
	putWck((SpeedLevel<<5)|0x1f);
    3834:	f2 94       	swap	r15
    3836:	ff 0c       	add	r15, r15
    3838:	e0 ee       	ldi	r30, 0xE0	; 224
    383a:	fe 22       	and	r15, r30
    383c:	8f 2d       	mov	r24, r15
    383e:	8f 61       	ori	r24, 0x1F	; 31
    3840:	0e 94 6f 00 	call	0xde	; 0xde <putWck>
	putWck(LastID+1);
    3844:	8e 2d       	mov	r24, r14
    3846:	8f 5f       	subi	r24, 0xFF	; 255
    3848:	0e 94 6f 00 	call	0xde	; 0xde <putWck>
	while(1) 
	{
		if(i>LastID) 
    384c:	ff 24       	eor	r15, r15
    384e:	10 e0       	ldi	r17, 0x00	; 0
    3850:	08 94       	sec
    3852:	e1 1c       	adc	r14, r1
    3854:	f1 1c       	adc	r15, r1
    3856:	0e 9d       	mul	r16, r14
    3858:	c0 01       	movw	r24, r0
    385a:	0f 9d       	mul	r16, r15
    385c:	90 0d       	add	r25, r0
    385e:	1e 9d       	mul	r17, r14
    3860:	90 0d       	add	r25, r0
    3862:	11 24       	eor	r1, r1
    3864:	08 94       	sec
    3866:	e1 08       	sbc	r14, r1
    3868:	f1 08       	sbc	r15, r1
    386a:	c8 0e       	add	r12, r24
    386c:	d9 1e       	adc	r13, r25
    386e:	c0 e0       	ldi	r28, 0x00	; 0
    3870:	d0 e0       	ldi	r29, 0x00	; 0
    3872:	00 e0       	ldi	r16, 0x00	; 0
			break;
		putWck(TargetArray[Index*(LastID+1)+i]);
    3874:	f6 01       	movw	r30, r12
    3876:	80 81       	ld	r24, Z
    3878:	0e 94 6f 00 	call	0xde	; 0xde <putWck>
		CheckSum = CheckSum ^ TargetArray[Index*(LastID+1)+i];
    387c:	f6 01       	movw	r30, r12
    387e:	81 91       	ld	r24, Z+
    3880:	6f 01       	movw	r12, r30
    3882:	08 27       	eor	r16, r24
		i++;
    3884:	21 96       	adiw	r28, 0x01	; 1
	putWck(HEADER);
	putWck((SpeedLevel<<5)|0x1f);
	putWck(LastID+1);
	while(1) 
	{
		if(i>LastID) 
    3886:	ec 16       	cp	r14, r28
    3888:	fd 06       	cpc	r15, r29
    388a:	a4 f7       	brge	.-24     	; 0x3874 <wckSyncPosSend+0x5e>
		putWck(TargetArray[Index*(LastID+1)+i]);
		CheckSum = CheckSum ^ TargetArray[Index*(LastID+1)+i];
		i++;
	}
	CheckSum = CheckSum & 0x7f;
	putWck(CheckSum);
    388c:	80 2f       	mov	r24, r16
    388e:	8f 77       	andi	r24, 0x7F	; 127
    3890:	0e 94 6f 00 	call	0xde	; 0xde <putWck>
}
    3894:	df 91       	pop	r29
    3896:	cf 91       	pop	r28
    3898:	1f 91       	pop	r17
    389a:	0f 91       	pop	r16
    389c:	ff 90       	pop	r15
    389e:	ef 90       	pop	r14
    38a0:	df 90       	pop	r13
    38a2:	cf 90       	pop	r12
    38a4:	08 95       	ret

000038a6 <synchServo>:
	}
	return r;
}

tOBJ synchServo(tCELLp p)   // i.e. (sycnServo lastid torq '(positions))
{
    38a6:	2f 92       	push	r2
    38a8:	3f 92       	push	r3
    38aa:	5f 92       	push	r5
    38ac:	6f 92       	push	r6
    38ae:	7f 92       	push	r7
    38b0:	8f 92       	push	r8
    38b2:	9f 92       	push	r9
    38b4:	af 92       	push	r10
    38b6:	bf 92       	push	r11
    38b8:	cf 92       	push	r12
    38ba:	df 92       	push	r13
    38bc:	ef 92       	push	r14
    38be:	ff 92       	push	r15
    38c0:	0f 93       	push	r16
    38c2:	1f 93       	push	r17
    38c4:	df 93       	push	r29
    38c6:	cf 93       	push	r28
    38c8:	cd b7       	in	r28, 0x3d	; 61
    38ca:	de b7       	in	r29, 0x3e	; 62
    38cc:	c0 54       	subi	r28, 0x40	; 64
    38ce:	d0 40       	sbci	r29, 0x00	; 0
    38d0:	0f b6       	in	r0, 0x3f	; 63
    38d2:	f8 94       	cli
    38d4:	de bf       	out	0x3e, r29	; 62
    38d6:	0f be       	out	0x3f, r0	; 63
    38d8:	cd bf       	out	0x3d, r28	; 61
    38da:	fc 01       	movw	r30, r24
	else
	{
		return throw(2);
	}
	return r;
}
    38dc:	2d b6       	in	r2, 0x3d	; 61
    38de:	3e b6       	in	r3, 0x3e	; 62
}

tOBJ synchServo(tCELLp p)   // i.e. (sycnServo lastid torq '(positions))
{
	tOBJ r;	r.type=EMPTY;
	BYTE lastid = (p->head.number)&0x1F;
    38e0:	24 81       	ldd	r18, Z+4	; 0x04
	p=p->tail;
    38e2:	00 84       	ldd	r0, Z+8	; 0x08
    38e4:	f1 85       	ldd	r31, Z+9	; 0x09
    38e6:	e0 2d       	mov	r30, r0
	BYTE tor    = (p->head.number)&0x03;
    38e8:	c4 80       	ldd	r12, Z+4	; 0x04
	p=p->tail;
    38ea:	00 84       	ldd	r0, Z+8	; 0x08
    38ec:	f1 85       	ldd	r31, Z+9	; 0x09
    38ee:	e0 2d       	mov	r30, r0
	if (p->head.type == CELL)
    38f0:	80 81       	ld	r24, Z
    38f2:	91 81       	ldd	r25, Z+1	; 0x01
    38f4:	07 97       	sbiw	r24, 0x07	; 7
    38f6:	09 f0       	breq	.+2      	; 0x38fa <synchServo+0x54>
    38f8:	9f c0       	rjmp	.+318    	; 0x3a38 <synchServo+0x192>
}

tOBJ synchServo(tCELLp p)   // i.e. (sycnServo lastid torq '(positions))
{
	tOBJ r;	r.type=EMPTY;
	BYTE lastid = (p->head.number)&0x1F;
    38fa:	af e1       	ldi	r26, 0x1F	; 31
    38fc:	7a 2e       	mov	r7, r26
    38fe:	72 22       	and	r7, r18
    3900:	6d b6       	in	r6, 0x3d	; 61
    3902:	5e b6       	in	r5, 0x3e	; 62
	p=p->tail;
	BYTE tor    = (p->head.number)&0x03;
	p=p->tail;
	if (p->head.type == CELL)
	{
		BYTE pos[lastid+2];
    3904:	a7 2c       	mov	r10, r7
    3906:	bb 24       	eor	r11, r11
    3908:	c5 01       	movw	r24, r10
    390a:	02 96       	adiw	r24, 0x02	; 2
    390c:	2d b7       	in	r18, 0x3d	; 61
    390e:	3e b7       	in	r19, 0x3e	; 62
    3910:	28 1b       	sub	r18, r24
    3912:	39 0b       	sbc	r19, r25
    3914:	0f b6       	in	r0, 0x3f	; 63
    3916:	f8 94       	cli
    3918:	3e bf       	out	0x3e, r19	; 62
    391a:	0f be       	out	0x3f, r0	; 63
    391c:	2d bf       	out	0x3d, r18	; 61
    391e:	8d b6       	in	r8, 0x3d	; 61
    3920:	9e b6       	in	r9, 0x3e	; 62
    3922:	08 94       	sec
    3924:	81 1c       	adc	r8, r1
    3926:	91 1c       	adc	r9, r1
		p=(tCELLp)(p->head.cell);
    3928:	24 81       	ldd	r18, Z+4	; 0x04
    392a:	35 81       	ldd	r19, Z+5	; 0x05
    392c:	c9 01       	movw	r24, r18
    392e:	8c 01       	movw	r16, r24
    3930:	ee 24       	eor	r14, r14
    3932:	ff 24       	eor	r15, r15
		
		for (int i=0; i<lastid+1; i++)
		{
			int n;
			if (p == null)
    3934:	01 15       	cp	r16, r1
    3936:	11 05       	cpc	r17, r1
    3938:	c9 f4       	brne	.+50     	; 0x396c <synchServo+0xc6>

void showenviron();

tOBJ throw(int n)
{
	tOBJ r; r.type=ERROR; r.number=n;
    393a:	1e 8a       	std	Y+22, r1	; 0x16
    393c:	1d 8a       	std	Y+21, r1	; 0x15
	return r;
    393e:	89 e0       	ldi	r24, 0x09	; 9
    3940:	90 e0       	ldi	r25, 0x00	; 0
    3942:	9a 8b       	std	Y+18, r25	; 0x12
    3944:	89 8b       	std	Y+17, r24	; 0x11
    3946:	de 01       	movw	r26, r28
    3948:	59 96       	adiw	r26, 0x19	; 25
    394a:	fe 01       	movw	r30, r28
    394c:	71 96       	adiw	r30, 0x11	; 17
    394e:	88 e0       	ldi	r24, 0x08	; 8
    3950:	01 90       	ld	r0, Z+
    3952:	0d 92       	st	X+, r0
    3954:	81 50       	subi	r24, 0x01	; 1
    3956:	e1 f7       	brne	.-8      	; 0x3950 <synchServo+0xaa>
    3958:	de 01       	movw	r26, r28
    395a:	19 96       	adiw	r26, 0x09	; 9
    395c:	fe 01       	movw	r30, r28
    395e:	79 96       	adiw	r30, 0x19	; 25
    3960:	88 e0       	ldi	r24, 0x08	; 8
    3962:	01 90       	ld	r0, Z+
    3964:	0d 92       	st	X+, r0
    3966:	81 50       	subi	r24, 0x01	; 1
    3968:	e1 f7       	brne	.-8      	; 0x3962 <synchServo+0xbc>
    396a:	5d c0       	rjmp	.+186    	; 0x3a26 <synchServo+0x180>
			int n;
			if (p == null)
			{
				return throw(0);
			}
			if (p->head.type==INT)
    396c:	f8 01       	movw	r30, r16
    396e:	80 81       	ld	r24, Z
    3970:	91 81       	ldd	r25, Z+1	; 0x01
    3972:	01 97       	sbiw	r24, 0x01	; 1
    3974:	f9 f4       	brne	.+62     	; 0x39b4 <synchServo+0x10e>
			{
				n=p->head.number;							
    3976:	d4 80       	ldd	r13, Z+4	; 0x04
    3978:	25 81       	ldd	r18, Z+5	; 0x05
				DEBUG(printint(n); printstr("-");)				
    397a:	80 91 62 05 	lds	r24, 0x0562
    397e:	90 91 63 05 	lds	r25, 0x0563
    3982:	89 2b       	or	r24, r25
    3984:	41 f0       	breq	.+16     	; 0x3996 <synchServo+0xf0>
    3986:	8d 2d       	mov	r24, r13
    3988:	92 2f       	mov	r25, r18
    398a:	0e 94 f0 0e 	call	0x1de0	; 0x1de0 <printint>
    398e:	8a ee       	ldi	r24, 0xEA	; 234
    3990:	91 e0       	ldi	r25, 0x01	; 1
    3992:	0e 94 f6 0e 	call	0x1dec	; 0x1dec <printstr>
				pos[i] = n;
    3996:	f4 01       	movw	r30, r8
    3998:	ee 0d       	add	r30, r14
    399a:	ff 1d       	adc	r31, r15
    399c:	d0 82       	st	Z, r13
			else
			{
				return throw(1);
			}

			p=p->tail;
    399e:	f8 01       	movw	r30, r16
    39a0:	00 85       	ldd	r16, Z+8	; 0x08
    39a2:	11 85       	ldd	r17, Z+9	; 0x09
	if (p->head.type == CELL)
	{
		BYTE pos[lastid+2];
		p=(tCELLp)(p->head.cell);
		
		for (int i=0; i<lastid+1; i++)
    39a4:	08 94       	sec
    39a6:	e1 1c       	adc	r14, r1
    39a8:	f1 1c       	adc	r15, r1
    39aa:	ae 14       	cp	r10, r14
    39ac:	bf 04       	cpc	r11, r15
    39ae:	0c f0       	brlt	.+2      	; 0x39b2 <synchServo+0x10c>
    39b0:	c1 cf       	rjmp	.-126    	; 0x3934 <synchServo+0x8e>
    39b2:	1b c0       	rjmp	.+54     	; 0x39ea <synchServo+0x144>

void showenviron();

tOBJ throw(int n)
{
	tOBJ r; r.type=ERROR; r.number=n;
    39b4:	81 e0       	ldi	r24, 0x01	; 1
    39b6:	90 e0       	ldi	r25, 0x00	; 0
    39b8:	9e a3       	std	Y+38, r25	; 0x26
    39ba:	8d a3       	std	Y+37, r24	; 0x25
	return r;
    39bc:	89 e0       	ldi	r24, 0x09	; 9
    39be:	90 e0       	ldi	r25, 0x00	; 0
    39c0:	9a a3       	std	Y+34, r25	; 0x22
    39c2:	89 a3       	std	Y+33, r24	; 0x21
    39c4:	de 01       	movw	r26, r28
    39c6:	99 96       	adiw	r26, 0x29	; 41
    39c8:	fe 01       	movw	r30, r28
    39ca:	b1 96       	adiw	r30, 0x21	; 33
    39cc:	88 e0       	ldi	r24, 0x08	; 8
    39ce:	01 90       	ld	r0, Z+
    39d0:	0d 92       	st	X+, r0
    39d2:	81 50       	subi	r24, 0x01	; 1
    39d4:	e1 f7       	brne	.-8      	; 0x39ce <synchServo+0x128>
    39d6:	de 01       	movw	r26, r28
    39d8:	19 96       	adiw	r26, 0x09	; 9
    39da:	fe 01       	movw	r30, r28
    39dc:	b9 96       	adiw	r30, 0x29	; 41
    39de:	88 e0       	ldi	r24, 0x08	; 8
    39e0:	01 90       	ld	r0, Z+
    39e2:	0d 92       	st	X+, r0
    39e4:	81 50       	subi	r24, 0x01	; 1
    39e6:	e1 f7       	brne	.-8      	; 0x39e0 <synchServo+0x13a>
    39e8:	1e c0       	rjmp	.+60     	; 0x3a26 <synchServo+0x180>
				return throw(1);
			}

			p=p->tail;
		}
		wckSyncPosSend(lastid, tor, pos, 0); // uncomment if works!
    39ea:	f3 e0       	ldi	r31, 0x03	; 3
    39ec:	cf 22       	and	r12, r31
    39ee:	20 e0       	ldi	r18, 0x00	; 0
    39f0:	a4 01       	movw	r20, r8
    39f2:	6c 2d       	mov	r22, r12
    39f4:	87 2d       	mov	r24, r7
    39f6:	0e 94 0b 1c 	call	0x3816	; 0x3816 <wckSyncPosSend>
    39fa:	26 2d       	mov	r18, r6
    39fc:	35 2d       	mov	r19, r5
    39fe:	c9 01       	movw	r24, r18
    3a00:	0f b6       	in	r0, 0x3f	; 63
    3a02:	f8 94       	cli
    3a04:	9e bf       	out	0x3e, r25	; 62
    3a06:	0f be       	out	0x3f, r0	; 63
    3a08:	8d bf       	out	0x3d, r24	; 61
	}
	else
	{
		return throw(2);
	}
	return r;
    3a0a:	88 e0       	ldi	r24, 0x08	; 8
    3a0c:	90 e0       	ldi	r25, 0x00	; 0
    3a0e:	9a 83       	std	Y+2, r25	; 0x02
    3a10:	89 83       	std	Y+1, r24	; 0x01
    3a12:	de 01       	movw	r26, r28
    3a14:	19 96       	adiw	r26, 0x09	; 9
    3a16:	fe 01       	movw	r30, r28
    3a18:	31 96       	adiw	r30, 0x01	; 1
    3a1a:	88 e0       	ldi	r24, 0x08	; 8
    3a1c:	01 90       	ld	r0, Z+
    3a1e:	0d 92       	st	X+, r0
    3a20:	81 50       	subi	r24, 0x01	; 1
    3a22:	e1 f7       	brne	.-8      	; 0x3a1c <synchServo+0x176>
    3a24:	23 c0       	rjmp	.+70     	; 0x3a6c <synchServo+0x1c6>
    3a26:	86 2d       	mov	r24, r6
    3a28:	95 2d       	mov	r25, r5
    3a2a:	9c 01       	movw	r18, r24
    3a2c:	0f b6       	in	r0, 0x3f	; 63
    3a2e:	f8 94       	cli
    3a30:	3e bf       	out	0x3e, r19	; 62
    3a32:	0f be       	out	0x3f, r0	; 63
    3a34:	2d bf       	out	0x3d, r18	; 61
    3a36:	1a c0       	rjmp	.+52     	; 0x3a6c <synchServo+0x1c6>

void showenviron();

tOBJ throw(int n)
{
	tOBJ r; r.type=ERROR; r.number=n;
    3a38:	82 e0       	ldi	r24, 0x02	; 2
    3a3a:	90 e0       	ldi	r25, 0x00	; 0
    3a3c:	9e ab       	std	Y+54, r25	; 0x36
    3a3e:	8d ab       	std	Y+53, r24	; 0x35
	return r;
    3a40:	89 e0       	ldi	r24, 0x09	; 9
    3a42:	90 e0       	ldi	r25, 0x00	; 0
    3a44:	9a ab       	std	Y+50, r25	; 0x32
    3a46:	89 ab       	std	Y+49, r24	; 0x31
    3a48:	de 01       	movw	r26, r28
    3a4a:	d9 96       	adiw	r26, 0x39	; 57
    3a4c:	fe 01       	movw	r30, r28
    3a4e:	f1 96       	adiw	r30, 0x31	; 49
    3a50:	88 e0       	ldi	r24, 0x08	; 8
    3a52:	01 90       	ld	r0, Z+
    3a54:	0d 92       	st	X+, r0
    3a56:	81 50       	subi	r24, 0x01	; 1
    3a58:	e1 f7       	brne	.-8      	; 0x3a52 <synchServo+0x1ac>
    3a5a:	de 01       	movw	r26, r28
    3a5c:	19 96       	adiw	r26, 0x09	; 9
    3a5e:	fe 01       	movw	r30, r28
    3a60:	f9 96       	adiw	r30, 0x39	; 57
    3a62:	88 e0       	ldi	r24, 0x08	; 8
    3a64:	01 90       	ld	r0, Z+
    3a66:	0d 92       	st	X+, r0
    3a68:	81 50       	subi	r24, 0x01	; 1
    3a6a:	e1 f7       	brne	.-8      	; 0x3a64 <synchServo+0x1be>
    3a6c:	29 85       	ldd	r18, Y+9	; 0x09
    3a6e:	3a 85       	ldd	r19, Y+10	; 0x0a
    3a70:	4b 85       	ldd	r20, Y+11	; 0x0b
    3a72:	5c 85       	ldd	r21, Y+12	; 0x0c
    3a74:	6d 85       	ldd	r22, Y+13	; 0x0d
    3a76:	7e 85       	ldd	r23, Y+14	; 0x0e
	else
	{
		return throw(2);
	}
	return r;
}
    3a78:	8f 85       	ldd	r24, Y+15	; 0x0f
    3a7a:	98 89       	ldd	r25, Y+16	; 0x10
    3a7c:	0f b6       	in	r0, 0x3f	; 63
    3a7e:	f8 94       	cli
    3a80:	3e be       	out	0x3e, r3	; 62
    3a82:	0f be       	out	0x3f, r0	; 63
    3a84:	2d be       	out	0x3d, r2	; 61
    3a86:	c0 5c       	subi	r28, 0xC0	; 192
    3a88:	df 4f       	sbci	r29, 0xFF	; 255
    3a8a:	0f b6       	in	r0, 0x3f	; 63
    3a8c:	f8 94       	cli
    3a8e:	de bf       	out	0x3e, r29	; 62
    3a90:	0f be       	out	0x3f, r0	; 63
    3a92:	cd bf       	out	0x3d, r28	; 61
    3a94:	cf 91       	pop	r28
    3a96:	df 91       	pop	r29
    3a98:	1f 91       	pop	r17
    3a9a:	0f 91       	pop	r16
    3a9c:	ff 90       	pop	r15
    3a9e:	ef 90       	pop	r14
    3aa0:	df 90       	pop	r13
    3aa2:	cf 90       	pop	r12
    3aa4:	bf 90       	pop	r11
    3aa6:	af 90       	pop	r10
    3aa8:	9f 90       	pop	r9
    3aaa:	8f 90       	pop	r8
    3aac:	7f 90       	pop	r7
    3aae:	6f 90       	pop	r6
    3ab0:	5f 90       	pop	r5
    3ab2:	3f 90       	pop	r3
    3ab4:	2f 90       	pop	r2
    3ab6:	08 95       	ret

00003ab8 <wckSendSetCommand>:
	putWck(Data2);
	putWck(CheckSum);
}

void wckSendSetCommand(char Data1, char Data2, char Data3, char Data4)
{
    3ab8:	ef 92       	push	r14
    3aba:	ff 92       	push	r15
    3abc:	0f 93       	push	r16
    3abe:	1f 93       	push	r17
    3ac0:	e8 2e       	mov	r14, r24
    3ac2:	16 2f       	mov	r17, r22
    3ac4:	04 2f       	mov	r16, r20
    3ac6:	f2 2e       	mov	r15, r18
	char CheckSum;
	CheckSum = (Data1^Data2^Data3^Data4)&0x7f;
	putWck(HEADER);
    3ac8:	8f ef       	ldi	r24, 0xFF	; 255
    3aca:	0e 94 6f 00 	call	0xde	; 0xde <putWck>
	putWck(Data1);
    3ace:	8e 2d       	mov	r24, r14
    3ad0:	0e 94 6f 00 	call	0xde	; 0xde <putWck>
	putWck(Data2);
    3ad4:	81 2f       	mov	r24, r17
    3ad6:	0e 94 6f 00 	call	0xde	; 0xde <putWck>
	putWck(Data3);
    3ada:	80 2f       	mov	r24, r16
    3adc:	0e 94 6f 00 	call	0xde	; 0xde <putWck>
	putWck(Data4);
    3ae0:	8f 2d       	mov	r24, r15
    3ae2:	0e 94 6f 00 	call	0xde	; 0xde <putWck>
	putWck(CheckSum);
    3ae6:	1e 25       	eor	r17, r14
    3ae8:	10 27       	eor	r17, r16
    3aea:	1f 25       	eor	r17, r15
    3aec:	81 2f       	mov	r24, r17
    3aee:	8f 77       	andi	r24, 0x7F	; 127
    3af0:	0e 94 6f 00 	call	0xde	; 0xde <putWck>
}
    3af4:	1f 91       	pop	r17
    3af6:	0f 91       	pop	r16
    3af8:	ff 90       	pop	r15
    3afa:	ef 90       	pop	r14
    3afc:	08 95       	ret

00003afe <wckwriteIO>:
		r.type=EMPTY;
	return r;
}

tOBJ wckwriteIO(tCELLp p)   // i.e. (wckwriteIO 15 true true)
{
    3afe:	df 93       	push	r29
    3b00:	cf 93       	push	r28
    3b02:	cd b7       	in	r28, 0x3d	; 61
    3b04:	de b7       	in	r29, 0x3e	; 62
    3b06:	c0 54       	subi	r28, 0x40	; 64
    3b08:	d0 40       	sbci	r29, 0x00	; 0
    3b0a:	0f b6       	in	r0, 0x3f	; 63
    3b0c:	f8 94       	cli
    3b0e:	de bf       	out	0x3e, r29	; 62
    3b10:	0f be       	out	0x3f, r0	; 63
    3b12:	cd bf       	out	0x3d, r28	; 61
    3b14:	fc 01       	movw	r30, r24
	tOBJ r; r.type=INT;
	if (p->head.type==INT && p->head.number>=0 && p->head.number<=31)
    3b16:	80 81       	ld	r24, Z
    3b18:	91 81       	ldd	r25, Z+1	; 0x01
    3b1a:	01 97       	sbiw	r24, 0x01	; 1
    3b1c:	09 f0       	breq	.+2      	; 0x3b20 <wckwriteIO+0x22>
    3b1e:	99 c0       	rjmp	.+306    	; 0x3c52 <wckwriteIO+0x154>
    3b20:	24 81       	ldd	r18, Z+4	; 0x04
    3b22:	35 81       	ldd	r19, Z+5	; 0x05
    3b24:	37 fd       	sbrc	r19, 7
    3b26:	95 c0       	rjmp	.+298    	; 0x3c52 <wckwriteIO+0x154>
    3b28:	20 32       	cpi	r18, 0x20	; 32
    3b2a:	31 05       	cpc	r19, r1
    3b2c:	0c f0       	brlt	.+2      	; 0x3b30 <wckwriteIO+0x32>
    3b2e:	91 c0       	rjmp	.+290    	; 0x3c52 <wckwriteIO+0x154>
	{
		int id = p->head.number;
		p=p->tail;
    3b30:	00 84       	ldd	r0, Z+8	; 0x08
    3b32:	f1 85       	ldd	r31, Z+9	; 0x09
    3b34:	e0 2d       	mov	r30, r0
		if (p->head.type != BOOL) return throw(3);
    3b36:	80 81       	ld	r24, Z
    3b38:	91 81       	ldd	r25, Z+1	; 0x01
    3b3a:	02 97       	sbiw	r24, 0x02	; 2
    3b3c:	d9 f0       	breq	.+54     	; 0x3b74 <wckwriteIO+0x76>

void showenviron();

tOBJ throw(int n)
{
	tOBJ r; r.type=ERROR; r.number=n;
    3b3e:	83 e0       	ldi	r24, 0x03	; 3
    3b40:	90 e0       	ldi	r25, 0x00	; 0
    3b42:	9e 8b       	std	Y+22, r25	; 0x16
    3b44:	8d 8b       	std	Y+21, r24	; 0x15
	return r;
    3b46:	89 e0       	ldi	r24, 0x09	; 9
    3b48:	90 e0       	ldi	r25, 0x00	; 0
    3b4a:	9a 8b       	std	Y+18, r25	; 0x12
    3b4c:	89 8b       	std	Y+17, r24	; 0x11
    3b4e:	de 01       	movw	r26, r28
    3b50:	59 96       	adiw	r26, 0x19	; 25
    3b52:	fe 01       	movw	r30, r28
    3b54:	71 96       	adiw	r30, 0x11	; 17
    3b56:	88 e0       	ldi	r24, 0x08	; 8
    3b58:	01 90       	ld	r0, Z+
    3b5a:	0d 92       	st	X+, r0
    3b5c:	81 50       	subi	r24, 0x01	; 1
    3b5e:	e1 f7       	brne	.-8      	; 0x3b58 <wckwriteIO+0x5a>
    3b60:	de 01       	movw	r26, r28
    3b62:	19 96       	adiw	r26, 0x09	; 9
    3b64:	fe 01       	movw	r30, r28
    3b66:	79 96       	adiw	r30, 0x19	; 25
    3b68:	88 e0       	ldi	r24, 0x08	; 8
    3b6a:	01 90       	ld	r0, Z+
    3b6c:	0d 92       	st	X+, r0
    3b6e:	81 50       	subi	r24, 0x01	; 1
    3b70:	e1 f7       	brne	.-8      	; 0x3b6a <wckwriteIO+0x6c>
    3b72:	9a c0       	rjmp	.+308    	; 0x3ca8 <wckwriteIO+0x1aa>
	if (p->head.type==INT && p->head.number>=0 && p->head.number<=31)
	{
		int id = p->head.number;
		p=p->tail;
		if (p->head.type != BOOL) return throw(3);
		int b1 = p->head.number;
    3b74:	64 81       	ldd	r22, Z+4	; 0x04
    3b76:	75 81       	ldd	r23, Z+5	; 0x05
		p=p->tail;
    3b78:	00 84       	ldd	r0, Z+8	; 0x08
    3b7a:	f1 85       	ldd	r31, Z+9	; 0x09
    3b7c:	e0 2d       	mov	r30, r0
		if (p->head.type != BOOL) return throw(3);
    3b7e:	80 81       	ld	r24, Z
    3b80:	91 81       	ldd	r25, Z+1	; 0x01
    3b82:	02 97       	sbiw	r24, 0x02	; 2
    3b84:	d9 f0       	breq	.+54     	; 0x3bbc <wckwriteIO+0xbe>

void showenviron();

tOBJ throw(int n)
{
	tOBJ r; r.type=ERROR; r.number=n;
    3b86:	83 e0       	ldi	r24, 0x03	; 3
    3b88:	90 e0       	ldi	r25, 0x00	; 0
    3b8a:	9e a3       	std	Y+38, r25	; 0x26
    3b8c:	8d a3       	std	Y+37, r24	; 0x25
	return r;
    3b8e:	89 e0       	ldi	r24, 0x09	; 9
    3b90:	90 e0       	ldi	r25, 0x00	; 0
    3b92:	9a a3       	std	Y+34, r25	; 0x22
    3b94:	89 a3       	std	Y+33, r24	; 0x21
    3b96:	de 01       	movw	r26, r28
    3b98:	99 96       	adiw	r26, 0x29	; 41
    3b9a:	fe 01       	movw	r30, r28
    3b9c:	b1 96       	adiw	r30, 0x21	; 33
    3b9e:	88 e0       	ldi	r24, 0x08	; 8
    3ba0:	01 90       	ld	r0, Z+
    3ba2:	0d 92       	st	X+, r0
    3ba4:	81 50       	subi	r24, 0x01	; 1
    3ba6:	e1 f7       	brne	.-8      	; 0x3ba0 <wckwriteIO+0xa2>
    3ba8:	de 01       	movw	r26, r28
    3baa:	19 96       	adiw	r26, 0x09	; 9
    3bac:	fe 01       	movw	r30, r28
    3bae:	b9 96       	adiw	r30, 0x29	; 41
    3bb0:	88 e0       	ldi	r24, 0x08	; 8
    3bb2:	01 90       	ld	r0, Z+
    3bb4:	0d 92       	st	X+, r0
    3bb6:	81 50       	subi	r24, 0x01	; 1
    3bb8:	e1 f7       	brne	.-8      	; 0x3bb2 <wckwriteIO+0xb4>
    3bba:	76 c0       	rjmp	.+236    	; 0x3ca8 <wckwriteIO+0x1aa>
		int b1 = p->head.number;
		p=p->tail;
		if (p->head.type != BOOL) return throw(3);
		int b2 = p->head.number;
		
        wckSendSetCommand((7 << 5) | (id % 31), 0x64, ((b1) ? 1 : 0) | ((b2) ? 2 : 0), 0);
    3bbc:	84 81       	ldd	r24, Z+4	; 0x04
    3bbe:	95 81       	ldd	r25, Z+5	; 0x05
    3bc0:	89 2b       	or	r24, r25
    3bc2:	11 f4       	brne	.+4      	; 0x3bc8 <wckwriteIO+0xca>
    3bc4:	40 e0       	ldi	r20, 0x00	; 0
    3bc6:	01 c0       	rjmp	.+2      	; 0x3bca <wckwriteIO+0xcc>
    3bc8:	42 e0       	ldi	r20, 0x02	; 2
    3bca:	80 e0       	ldi	r24, 0x00	; 0
    3bcc:	67 2b       	or	r22, r23
    3bce:	09 f0       	breq	.+2      	; 0x3bd2 <wckwriteIO+0xd4>
    3bd0:	81 e0       	ldi	r24, 0x01	; 1
    3bd2:	48 2b       	or	r20, r24
    3bd4:	c9 01       	movw	r24, r18
    3bd6:	6f e1       	ldi	r22, 0x1F	; 31
    3bd8:	70 e0       	ldi	r23, 0x00	; 0
    3bda:	0e 94 66 26 	call	0x4ccc	; 0x4ccc <__divmodhi4>
    3bde:	20 e0       	ldi	r18, 0x00	; 0
    3be0:	64 e6       	ldi	r22, 0x64	; 100
    3be2:	80 6e       	ori	r24, 0xE0	; 224
    3be4:	0e 94 5c 1d 	call	0x3ab8	; 0x3ab8 <wckSendSetCommand>
	return UDR1;
}

int wckGetByte(WORD timeout)
{
	g10Mtimer = timeout;
    3be8:	84 e6       	ldi	r24, 0x64	; 100
    3bea:	90 e0       	ldi	r25, 0x00	; 0
    3bec:	90 93 9f 05 	sts	0x059F, r25
    3bf0:	80 93 9e 05 	sts	0x059E, r24
    3bf4:	09 c0       	rjmp	.+18     	; 0x3c08 <wckwriteIO+0x10a>
	
	while(!(UCSR0A&(1<<RXC)) ){ 	// test for received character
		if (g10Mtimer==0) return -1;
    3bf6:	80 91 9e 05 	lds	r24, 0x059E
    3bfa:	90 91 9f 05 	lds	r25, 0x059F
    3bfe:	89 2b       	or	r24, r25
    3c00:	19 f4       	brne	.+6      	; 0x3c08 <wckwriteIO+0x10a>
    3c02:	2f ef       	ldi	r18, 0xFF	; 255
    3c04:	3f ef       	ldi	r19, 0xFF	; 255
    3c06:	05 c0       	rjmp	.+10     	; 0x3c12 <wckwriteIO+0x114>

int wckGetByte(WORD timeout)
{
	g10Mtimer = timeout;
	
	while(!(UCSR0A&(1<<RXC)) ){ 	// test for received character
    3c08:	5f 9b       	sbis	0x0b, 7	; 11
    3c0a:	f5 cf       	rjmp	.-22     	; 0x3bf6 <wckwriteIO+0xf8>
		if (g10Mtimer==0) return -1;
	}
	return UDR0;
    3c0c:	8c b1       	in	r24, 0x0c	; 12
    3c0e:	28 2f       	mov	r18, r24
    3c10:	30 e0       	ldi	r19, 0x00	; 0
	return UDR1;
}

int wckGetByte(WORD timeout)
{
	g10Mtimer = timeout;
    3c12:	84 e6       	ldi	r24, 0x64	; 100
    3c14:	90 e0       	ldi	r25, 0x00	; 0
    3c16:	90 93 9f 05 	sts	0x059F, r25
    3c1a:	80 93 9e 05 	sts	0x059E, r24
    3c1e:	09 c0       	rjmp	.+18     	; 0x3c32 <wckwriteIO+0x134>
	
	while(!(UCSR0A&(1<<RXC)) ){ 	// test for received character
		if (g10Mtimer==0) return -1;
    3c20:	80 91 9e 05 	lds	r24, 0x059E
    3c24:	90 91 9f 05 	lds	r25, 0x059F
    3c28:	89 2b       	or	r24, r25
    3c2a:	19 f4       	brne	.+6      	; 0x3c32 <wckwriteIO+0x134>
    3c2c:	8f ef       	ldi	r24, 0xFF	; 255
    3c2e:	9f ef       	ldi	r25, 0xFF	; 255
    3c30:	04 c0       	rjmp	.+8      	; 0x3c3a <wckwriteIO+0x13c>

int wckGetByte(WORD timeout)
{
	g10Mtimer = timeout;
	
	while(!(UCSR0A&(1<<RXC)) ){ 	// test for received character
    3c32:	5f 9b       	sbis	0x0b, 7	; 11
    3c34:	f5 cf       	rjmp	.-22     	; 0x3c20 <wckwriteIO+0x122>
		if (g10Mtimer==0) return -1;
	}
	return UDR0;
    3c36:	8c b1       	in	r24, 0x0c	; 12
    3c38:	90 e0       	ldi	r25, 0x00	; 0
        wckSendSetCommand((7 << 5) | (id % 31), 0x64, ((b1) ? 1 : 0) | ((b2) ? 2 : 0), 0);
		
		b1 = wckGetByte(TIME_OUT);
		b2 = wckGetByte(TIME_OUT);
		
		if (b1<0 || b2<0)
    3c3a:	2f 5f       	subi	r18, 0xFF	; 255
    3c3c:	3f 4f       	sbci	r19, 0xFF	; 255
    3c3e:	39 f1       	breq	.+78     	; 0x3c8e <wckwriteIO+0x190>
    3c40:	2f ef       	ldi	r18, 0xFF	; 255
    3c42:	8f 3f       	cpi	r24, 0xFF	; 255
    3c44:	92 07       	cpc	r25, r18
    3c46:	19 f1       	breq	.+70     	; 0x3c8e <wckwriteIO+0x190>
			r.type = EMPTY; //timeout
		else
			r.number = b2;		
    3c48:	9e 83       	std	Y+6, r25	; 0x06
    3c4a:	8d 83       	std	Y+5, r24	; 0x05
    3c4c:	21 e0       	ldi	r18, 0x01	; 1
    3c4e:	30 e0       	ldi	r19, 0x00	; 0
    3c50:	20 c0       	rjmp	.+64     	; 0x3c92 <wckwriteIO+0x194>

void showenviron();

tOBJ throw(int n)
{
	tOBJ r; r.type=ERROR; r.number=n;
    3c52:	83 e0       	ldi	r24, 0x03	; 3
    3c54:	90 e0       	ldi	r25, 0x00	; 0
    3c56:	9e ab       	std	Y+54, r25	; 0x36
    3c58:	8d ab       	std	Y+53, r24	; 0x35
	return r;
    3c5a:	89 e0       	ldi	r24, 0x09	; 9
    3c5c:	90 e0       	ldi	r25, 0x00	; 0
    3c5e:	9a ab       	std	Y+50, r25	; 0x32
    3c60:	89 ab       	std	Y+49, r24	; 0x31
    3c62:	de 01       	movw	r26, r28
    3c64:	d9 96       	adiw	r26, 0x39	; 57
    3c66:	fe 01       	movw	r30, r28
    3c68:	f1 96       	adiw	r30, 0x31	; 49
    3c6a:	88 e0       	ldi	r24, 0x08	; 8
    3c6c:	01 90       	ld	r0, Z+
    3c6e:	0d 92       	st	X+, r0
    3c70:	81 50       	subi	r24, 0x01	; 1
    3c72:	e1 f7       	brne	.-8      	; 0x3c6c <wckwriteIO+0x16e>
    3c74:	de 01       	movw	r26, r28
    3c76:	11 96       	adiw	r26, 0x01	; 1
    3c78:	fe 01       	movw	r30, r28
    3c7a:	f9 96       	adiw	r30, 0x39	; 57
    3c7c:	88 e0       	ldi	r24, 0x08	; 8
    3c7e:	01 90       	ld	r0, Z+
    3c80:	0d 92       	st	X+, r0
    3c82:	81 50       	subi	r24, 0x01	; 1
    3c84:	e1 f7       	brne	.-8      	; 0x3c7e <wckwriteIO+0x180>
    3c86:	89 81       	ldd	r24, Y+1	; 0x01
    3c88:	9a 81       	ldd	r25, Y+2	; 0x02
    3c8a:	9c 01       	movw	r18, r24
    3c8c:	02 c0       	rjmp	.+4      	; 0x3c92 <wckwriteIO+0x194>
    3c8e:	28 e0       	ldi	r18, 0x08	; 8
    3c90:	30 e0       	ldi	r19, 0x00	; 0
		else
			r.number = b2;		
	}
	else
		r=throw(3);
	return r;
    3c92:	3a 83       	std	Y+2, r19	; 0x02
    3c94:	29 83       	std	Y+1, r18	; 0x01
    3c96:	de 01       	movw	r26, r28
    3c98:	19 96       	adiw	r26, 0x09	; 9
    3c9a:	fe 01       	movw	r30, r28
    3c9c:	31 96       	adiw	r30, 0x01	; 1
    3c9e:	88 e0       	ldi	r24, 0x08	; 8
    3ca0:	01 90       	ld	r0, Z+
    3ca2:	0d 92       	st	X+, r0
    3ca4:	81 50       	subi	r24, 0x01	; 1
    3ca6:	e1 f7       	brne	.-8      	; 0x3ca0 <wckwriteIO+0x1a2>
    3ca8:	29 85       	ldd	r18, Y+9	; 0x09
    3caa:	3a 85       	ldd	r19, Y+10	; 0x0a
    3cac:	4b 85       	ldd	r20, Y+11	; 0x0b
    3cae:	5c 85       	ldd	r21, Y+12	; 0x0c
    3cb0:	6d 85       	ldd	r22, Y+13	; 0x0d
    3cb2:	7e 85       	ldd	r23, Y+14	; 0x0e
}
    3cb4:	8f 85       	ldd	r24, Y+15	; 0x0f
    3cb6:	98 89       	ldd	r25, Y+16	; 0x10
    3cb8:	c0 5c       	subi	r28, 0xC0	; 192
    3cba:	df 4f       	sbci	r29, 0xFF	; 255
    3cbc:	0f b6       	in	r0, 0x3f	; 63
    3cbe:	f8 94       	cli
    3cc0:	de bf       	out	0x3e, r29	; 62
    3cc2:	0f be       	out	0x3f, r0	; 63
    3cc4:	cd bf       	out	0x3d, r28	; 61
    3cc6:	cf 91       	pop	r28
    3cc8:	df 91       	pop	r29
    3cca:	08 95       	ret

00003ccc <wckSendOperCommand>:
/* Function that sends Operation Command Packet(4 Byte) to wCK module */
/* Input : Data1, Data2 */
/* Output : None */
/******************************************************************************/
void wckSendOperCommand(char Data1, char Data2)
{
    3ccc:	0f 93       	push	r16
    3cce:	1f 93       	push	r17
    3cd0:	08 2f       	mov	r16, r24
    3cd2:	16 2f       	mov	r17, r22
	char CheckSum;
	CheckSum = (Data1^Data2)&0x7f;
	putWck(HEADER);
    3cd4:	8f ef       	ldi	r24, 0xFF	; 255
    3cd6:	0e 94 6f 00 	call	0xde	; 0xde <putWck>
	putWck(Data1);
    3cda:	80 2f       	mov	r24, r16
    3cdc:	0e 94 6f 00 	call	0xde	; 0xde <putWck>
	putWck(Data2);
    3ce0:	81 2f       	mov	r24, r17
    3ce2:	0e 94 6f 00 	call	0xde	; 0xde <putWck>
	putWck(CheckSum);
    3ce6:	10 27       	eor	r17, r16
    3ce8:	81 2f       	mov	r24, r17
    3cea:	8f 77       	andi	r24, 0x7F	; 127
    3cec:	0e 94 6f 00 	call	0xde	; 0xde <putWck>
}
    3cf0:	1f 91       	pop	r17
    3cf2:	0f 91       	pop	r16
    3cf4:	08 95       	ret

00003cf6 <sendServo>:
	else
		r.type=EMPTY;
	return r;
}
tOBJ sendServo(tCELLp p)   // i.e. (sendServo 12 50 4)
{
    3cf6:	df 93       	push	r29
    3cf8:	cf 93       	push	r28
    3cfa:	cd b7       	in	r28, 0x3d	; 61
    3cfc:	de b7       	in	r29, 0x3e	; 62
    3cfe:	a0 97       	sbiw	r28, 0x20	; 32
    3d00:	0f b6       	in	r0, 0x3f	; 63
    3d02:	f8 94       	cli
    3d04:	de bf       	out	0x3e, r29	; 62
    3d06:	0f be       	out	0x3f, r0	; 63
    3d08:	cd bf       	out	0x3d, r28	; 61
    3d0a:	fc 01       	movw	r30, r24
	tOBJ r; r.type=INT;
	int sid = p->head.number;
    3d0c:	24 81       	ldd	r18, Z+4	; 0x04
    3d0e:	35 81       	ldd	r19, Z+5	; 0x05
	p=p->tail;
    3d10:	00 84       	ldd	r0, Z+8	; 0x08
    3d12:	f1 85       	ldd	r31, Z+9	; 0x09
    3d14:	e0 2d       	mov	r30, r0
	int pos = p->head.number;
    3d16:	64 81       	ldd	r22, Z+4	; 0x04
    3d18:	75 81       	ldd	r23, Z+5	; 0x05
	p=p->tail;
	int tor = p->head.number;
    3d1a:	00 84       	ldd	r0, Z+8	; 0x08
    3d1c:	f1 85       	ldd	r31, Z+9	; 0x09
    3d1e:	e0 2d       	mov	r30, r0
    3d20:	84 81       	ldd	r24, Z+4	; 0x04
    3d22:	95 81       	ldd	r25, Z+5	; 0x05
	if (sid<0 || sid>30 || pos<0 || pos>254 ||tor<0 || tor>4) 	
    3d24:	2f 31       	cpi	r18, 0x1F	; 31
    3d26:	31 05       	cpc	r19, r1
    3d28:	50 f4       	brcc	.+20     	; 0x3d3e <sendServo+0x48>
    3d2a:	77 fd       	sbrc	r23, 7
    3d2c:	08 c0       	rjmp	.+16     	; 0x3d3e <sendServo+0x48>
    3d2e:	6f 3f       	cpi	r22, 0xFF	; 255
    3d30:	71 05       	cpc	r23, r1
    3d32:	2c f4       	brge	.+10     	; 0x3d3e <sendServo+0x48>
    3d34:	97 fd       	sbrc	r25, 7
    3d36:	03 c0       	rjmp	.+6      	; 0x3d3e <sendServo+0x48>
    3d38:	85 30       	cpi	r24, 0x05	; 5
    3d3a:	91 05       	cpc	r25, r1
    3d3c:	f4 f0       	brlt	.+60     	; 0x3d7a <sendServo+0x84>

void showenviron();

tOBJ throw(int n)
{
	tOBJ r; r.type=ERROR; r.number=n;
    3d3e:	83 e0       	ldi	r24, 0x03	; 3
    3d40:	90 e0       	ldi	r25, 0x00	; 0
    3d42:	9e 8b       	std	Y+22, r25	; 0x16
    3d44:	8d 8b       	std	Y+21, r24	; 0x15
	return r;
    3d46:	89 e0       	ldi	r24, 0x09	; 9
    3d48:	90 e0       	ldi	r25, 0x00	; 0
    3d4a:	9a 8b       	std	Y+18, r25	; 0x12
    3d4c:	89 8b       	std	Y+17, r24	; 0x11
    3d4e:	de 01       	movw	r26, r28
    3d50:	59 96       	adiw	r26, 0x19	; 25
    3d52:	fe 01       	movw	r30, r28
    3d54:	71 96       	adiw	r30, 0x11	; 17
    3d56:	88 e0       	ldi	r24, 0x08	; 8
    3d58:	01 90       	ld	r0, Z+
    3d5a:	0d 92       	st	X+, r0
    3d5c:	81 50       	subi	r24, 0x01	; 1
    3d5e:	e1 f7       	brne	.-8      	; 0x3d58 <sendServo+0x62>
    3d60:	de 01       	movw	r26, r28
    3d62:	11 96       	adiw	r26, 0x01	; 1
    3d64:	fe 01       	movw	r30, r28
    3d66:	79 96       	adiw	r30, 0x19	; 25
    3d68:	88 e0       	ldi	r24, 0x08	; 8
    3d6a:	01 90       	ld	r0, Z+
    3d6c:	0d 92       	st	X+, r0
    3d6e:	81 50       	subi	r24, 0x01	; 1
    3d70:	e1 f7       	brne	.-8      	; 0x3d6a <sendServo+0x74>
    3d72:	89 81       	ldd	r24, Y+1	; 0x01
    3d74:	9a 81       	ldd	r25, Y+2	; 0x02
    3d76:	9c 01       	movw	r18, r24
    3d78:	45 c0       	rjmp	.+138    	; 0x3e04 <sendServo+0x10e>
	{
		r=throw(3); // incorrect aparams
	}
	else	
	{
		wckSendOperCommand((tor<<5)|sid, pos);
    3d7a:	35 e0       	ldi	r19, 0x05	; 5
    3d7c:	88 0f       	add	r24, r24
    3d7e:	99 1f       	adc	r25, r25
    3d80:	3a 95       	dec	r19
    3d82:	e1 f7       	brne	.-8      	; 0x3d7c <sendServo+0x86>
    3d84:	82 2b       	or	r24, r18
    3d86:	0e 94 66 1e 	call	0x3ccc	; 0x3ccc <wckSendOperCommand>
	return UDR1;
}

int wckGetByte(WORD timeout)
{
	g10Mtimer = timeout;
    3d8a:	84 e6       	ldi	r24, 0x64	; 100
    3d8c:	90 e0       	ldi	r25, 0x00	; 0
    3d8e:	90 93 9f 05 	sts	0x059F, r25
    3d92:	80 93 9e 05 	sts	0x059E, r24
    3d96:	09 c0       	rjmp	.+18     	; 0x3daa <sendServo+0xb4>
	
	while(!(UCSR0A&(1<<RXC)) ){ 	// test for received character
		if (g10Mtimer==0) return -1;
    3d98:	80 91 9e 05 	lds	r24, 0x059E
    3d9c:	90 91 9f 05 	lds	r25, 0x059F
    3da0:	89 2b       	or	r24, r25
    3da2:	19 f4       	brne	.+6      	; 0x3daa <sendServo+0xb4>
    3da4:	4f ef       	ldi	r20, 0xFF	; 255
    3da6:	5f ef       	ldi	r21, 0xFF	; 255
    3da8:	05 c0       	rjmp	.+10     	; 0x3db4 <sendServo+0xbe>

int wckGetByte(WORD timeout)
{
	g10Mtimer = timeout;
	
	while(!(UCSR0A&(1<<RXC)) ){ 	// test for received character
    3daa:	5f 9b       	sbis	0x0b, 7	; 11
    3dac:	f5 cf       	rjmp	.-22     	; 0x3d98 <sendServo+0xa2>
		if (g10Mtimer==0) return -1;
	}
	return UDR0;
    3dae:	8c b1       	in	r24, 0x0c	; 12
    3db0:	48 2f       	mov	r20, r24
    3db2:	50 e0       	ldi	r21, 0x00	; 0
	return UDR1;
}

int wckGetByte(WORD timeout)
{
	g10Mtimer = timeout;
    3db4:	84 e6       	ldi	r24, 0x64	; 100
    3db6:	90 e0       	ldi	r25, 0x00	; 0
    3db8:	90 93 9f 05 	sts	0x059F, r25
    3dbc:	80 93 9e 05 	sts	0x059E, r24
    3dc0:	09 c0       	rjmp	.+18     	; 0x3dd4 <sendServo+0xde>
	
	while(!(UCSR0A&(1<<RXC)) ){ 	// test for received character
		if (g10Mtimer==0) return -1;
    3dc2:	80 91 9e 05 	lds	r24, 0x059E
    3dc6:	90 91 9f 05 	lds	r25, 0x059F
    3dca:	89 2b       	or	r24, r25
    3dcc:	19 f4       	brne	.+6      	; 0x3dd4 <sendServo+0xde>
    3dce:	2f ef       	ldi	r18, 0xFF	; 255
    3dd0:	3f ef       	ldi	r19, 0xFF	; 255
    3dd2:	05 c0       	rjmp	.+10     	; 0x3dde <sendServo+0xe8>

int wckGetByte(WORD timeout)
{
	g10Mtimer = timeout;
	
	while(!(UCSR0A&(1<<RXC)) ){ 	// test for received character
    3dd4:	5f 9b       	sbis	0x0b, 7	; 11
    3dd6:	f5 cf       	rjmp	.-22     	; 0x3dc2 <sendServo+0xcc>
		if (g10Mtimer==0) return -1;
	}
	return UDR0;
    3dd8:	8c b1       	in	r24, 0x0c	; 12
    3dda:	28 2f       	mov	r18, r24
    3ddc:	30 e0       	ldi	r19, 0x00	; 0
		wckSendOperCommand((tor<<5)|sid, pos);

		int b1 = wckGetByte(TIME_OUT);
		int b2 = wckGetByte(TIME_OUT);	

		if (b1<0 || b2<0)
    3dde:	8f ef       	ldi	r24, 0xFF	; 255
    3de0:	4f 3f       	cpi	r20, 0xFF	; 255
    3de2:	58 07       	cpc	r21, r24
    3de4:	69 f0       	breq	.+26     	; 0x3e00 <sendServo+0x10a>
    3de6:	8f ef       	ldi	r24, 0xFF	; 255
    3de8:	2f 3f       	cpi	r18, 0xFF	; 255
    3dea:	38 07       	cpc	r19, r24
    3dec:	49 f0       	breq	.+18     	; 0x3e00 <sendServo+0x10a>
			r.type = EMPTY; //timeout
		else
			r.number = (b1<<8|b2);
    3dee:	94 2f       	mov	r25, r20
    3df0:	88 27       	eor	r24, r24
    3df2:	28 2b       	or	r18, r24
    3df4:	39 2b       	or	r19, r25
    3df6:	3e 83       	std	Y+6, r19	; 0x06
    3df8:	2d 83       	std	Y+5, r18	; 0x05
    3dfa:	21 e0       	ldi	r18, 0x01	; 1
    3dfc:	30 e0       	ldi	r19, 0x00	; 0
    3dfe:	02 c0       	rjmp	.+4      	; 0x3e04 <sendServo+0x10e>
    3e00:	28 e0       	ldi	r18, 0x08	; 8
    3e02:	30 e0       	ldi	r19, 0x00	; 0
	}
	return r;
    3e04:	3a 83       	std	Y+2, r19	; 0x02
    3e06:	29 83       	std	Y+1, r18	; 0x01
    3e08:	de 01       	movw	r26, r28
    3e0a:	19 96       	adiw	r26, 0x09	; 9
    3e0c:	fe 01       	movw	r30, r28
    3e0e:	31 96       	adiw	r30, 0x01	; 1
    3e10:	88 e0       	ldi	r24, 0x08	; 8
    3e12:	01 90       	ld	r0, Z+
    3e14:	0d 92       	st	X+, r0
    3e16:	81 50       	subi	r24, 0x01	; 1
    3e18:	e1 f7       	brne	.-8      	; 0x3e12 <sendServo+0x11c>
    3e1a:	29 85       	ldd	r18, Y+9	; 0x09
    3e1c:	3a 85       	ldd	r19, Y+10	; 0x0a
    3e1e:	4b 85       	ldd	r20, Y+11	; 0x0b
    3e20:	5c 85       	ldd	r21, Y+12	; 0x0c
    3e22:	6d 85       	ldd	r22, Y+13	; 0x0d
    3e24:	7e 85       	ldd	r23, Y+14	; 0x0e
}
    3e26:	8f 85       	ldd	r24, Y+15	; 0x0f
    3e28:	98 89       	ldd	r25, Y+16	; 0x10
    3e2a:	a0 96       	adiw	r28, 0x20	; 32
    3e2c:	0f b6       	in	r0, 0x3f	; 63
    3e2e:	f8 94       	cli
    3e30:	de bf       	out	0x3e, r29	; 62
    3e32:	0f be       	out	0x3f, r0	; 63
    3e34:	cd bf       	out	0x3d, r28	; 61
    3e36:	cf 91       	pop	r28
    3e38:	df 91       	pop	r29
    3e3a:	08 95       	ret

00003e3c <passiveServo>:
		r=throw(3);
	return r;
}

tOBJ passiveServo(tCELLp p)   // i.e. (passiveServo 15)
{
    3e3c:	df 93       	push	r29
    3e3e:	cf 93       	push	r28
    3e40:	cd b7       	in	r28, 0x3d	; 61
    3e42:	de b7       	in	r29, 0x3e	; 62
    3e44:	60 97       	sbiw	r28, 0x10	; 16
    3e46:	0f b6       	in	r0, 0x3f	; 63
    3e48:	f8 94       	cli
    3e4a:	de bf       	out	0x3e, r29	; 62
    3e4c:	0f be       	out	0x3f, r0	; 63
    3e4e:	cd bf       	out	0x3d, r28	; 61
    3e50:	fc 01       	movw	r30, r24
	tOBJ r; r.type=INT;
	if (p->head.type==INT && p->head.number>=0 && p->head.number<=31)
    3e52:	80 81       	ld	r24, Z
    3e54:	91 81       	ldd	r25, Z+1	; 0x01
    3e56:	01 97       	sbiw	r24, 0x01	; 1
    3e58:	09 f0       	breq	.+2      	; 0x3e5c <passiveServo+0x20>
    3e5a:	40 c0       	rjmp	.+128    	; 0x3edc <passiveServo+0xa0>
    3e5c:	84 81       	ldd	r24, Z+4	; 0x04
    3e5e:	95 81       	ldd	r25, Z+5	; 0x05
    3e60:	97 fd       	sbrc	r25, 7
    3e62:	3c c0       	rjmp	.+120    	; 0x3edc <passiveServo+0xa0>
    3e64:	80 32       	cpi	r24, 0x20	; 32
    3e66:	91 05       	cpc	r25, r1
    3e68:	cc f5       	brge	.+114    	; 0x3edc <passiveServo+0xa0>
	{
		wckSendOperCommand(0xc0|(p->head.number), 0x10);
    3e6a:	60 e1       	ldi	r22, 0x10	; 16
    3e6c:	80 6c       	ori	r24, 0xC0	; 192
    3e6e:	0e 94 66 1e 	call	0x3ccc	; 0x3ccc <wckSendOperCommand>
	return UDR1;
}

int wckGetByte(WORD timeout)
{
	g10Mtimer = timeout;
    3e72:	84 e6       	ldi	r24, 0x64	; 100
    3e74:	90 e0       	ldi	r25, 0x00	; 0
    3e76:	90 93 9f 05 	sts	0x059F, r25
    3e7a:	80 93 9e 05 	sts	0x059E, r24
    3e7e:	09 c0       	rjmp	.+18     	; 0x3e92 <passiveServo+0x56>
	
	while(!(UCSR0A&(1<<RXC)) ){ 	// test for received character
		if (g10Mtimer==0) return -1;
    3e80:	80 91 9e 05 	lds	r24, 0x059E
    3e84:	90 91 9f 05 	lds	r25, 0x059F
    3e88:	89 2b       	or	r24, r25
    3e8a:	19 f4       	brne	.+6      	; 0x3e92 <passiveServo+0x56>
    3e8c:	2f ef       	ldi	r18, 0xFF	; 255
    3e8e:	3f ef       	ldi	r19, 0xFF	; 255
    3e90:	05 c0       	rjmp	.+10     	; 0x3e9c <passiveServo+0x60>

int wckGetByte(WORD timeout)
{
	g10Mtimer = timeout;
	
	while(!(UCSR0A&(1<<RXC)) ){ 	// test for received character
    3e92:	5f 9b       	sbis	0x0b, 7	; 11
    3e94:	f5 cf       	rjmp	.-22     	; 0x3e80 <passiveServo+0x44>
		if (g10Mtimer==0) return -1;
	}
	return UDR0;
    3e96:	8c b1       	in	r24, 0x0c	; 12
    3e98:	28 2f       	mov	r18, r24
    3e9a:	30 e0       	ldi	r19, 0x00	; 0
	return UDR1;
}

int wckGetByte(WORD timeout)
{
	g10Mtimer = timeout;
    3e9c:	84 e6       	ldi	r24, 0x64	; 100
    3e9e:	90 e0       	ldi	r25, 0x00	; 0
    3ea0:	90 93 9f 05 	sts	0x059F, r25
    3ea4:	80 93 9e 05 	sts	0x059E, r24
    3ea8:	09 c0       	rjmp	.+18     	; 0x3ebc <passiveServo+0x80>
	
	while(!(UCSR0A&(1<<RXC)) ){ 	// test for received character
		if (g10Mtimer==0) return -1;
    3eaa:	80 91 9e 05 	lds	r24, 0x059E
    3eae:	90 91 9f 05 	lds	r25, 0x059F
    3eb2:	89 2b       	or	r24, r25
    3eb4:	19 f4       	brne	.+6      	; 0x3ebc <passiveServo+0x80>
    3eb6:	8f ef       	ldi	r24, 0xFF	; 255
    3eb8:	9f ef       	ldi	r25, 0xFF	; 255
    3eba:	04 c0       	rjmp	.+8      	; 0x3ec4 <passiveServo+0x88>

int wckGetByte(WORD timeout)
{
	g10Mtimer = timeout;
	
	while(!(UCSR0A&(1<<RXC)) ){ 	// test for received character
    3ebc:	5f 9b       	sbis	0x0b, 7	; 11
    3ebe:	f5 cf       	rjmp	.-22     	; 0x3eaa <passiveServo+0x6e>
		if (g10Mtimer==0) return -1;
	}
	return UDR0;
    3ec0:	8c b1       	in	r24, 0x0c	; 12
    3ec2:	90 e0       	ldi	r25, 0x00	; 0
	{
		wckSendOperCommand(0xc0|(p->head.number), 0x10);
		int b1 = wckGetByte(TIME_OUT);
		int b2 = wckGetByte(TIME_OUT);
		
		if (b1<0 || b2<0)
    3ec4:	2f 5f       	subi	r18, 0xFF	; 255
    3ec6:	3f 4f       	sbci	r19, 0xFF	; 255
    3ec8:	49 f0       	breq	.+18     	; 0x3edc <passiveServo+0xa0>
    3eca:	2f ef       	ldi	r18, 0xFF	; 255
    3ecc:	8f 3f       	cpi	r24, 0xFF	; 255
    3ece:	92 07       	cpc	r25, r18
    3ed0:	29 f0       	breq	.+10     	; 0x3edc <passiveServo+0xa0>
			r.type = EMPTY; //timeout
		else
			r.number = b2;
    3ed2:	9e 83       	std	Y+6, r25	; 0x06
    3ed4:	8d 83       	std	Y+5, r24	; 0x05
    3ed6:	81 e0       	ldi	r24, 0x01	; 1
    3ed8:	90 e0       	ldi	r25, 0x00	; 0
    3eda:	02 c0       	rjmp	.+4      	; 0x3ee0 <passiveServo+0xa4>
    3edc:	88 e0       	ldi	r24, 0x08	; 8
    3ede:	90 e0       	ldi	r25, 0x00	; 0
	}
	else
		r.type=EMPTY;
	return r;
    3ee0:	9a 83       	std	Y+2, r25	; 0x02
    3ee2:	89 83       	std	Y+1, r24	; 0x01
    3ee4:	de 01       	movw	r26, r28
    3ee6:	19 96       	adiw	r26, 0x09	; 9
    3ee8:	fe 01       	movw	r30, r28
    3eea:	31 96       	adiw	r30, 0x01	; 1
    3eec:	88 e0       	ldi	r24, 0x08	; 8
    3eee:	01 90       	ld	r0, Z+
    3ef0:	0d 92       	st	X+, r0
    3ef2:	81 50       	subi	r24, 0x01	; 1
    3ef4:	e1 f7       	brne	.-8      	; 0x3eee <passiveServo+0xb2>
    3ef6:	29 85       	ldd	r18, Y+9	; 0x09
    3ef8:	3a 85       	ldd	r19, Y+10	; 0x0a
    3efa:	4b 85       	ldd	r20, Y+11	; 0x0b
    3efc:	5c 85       	ldd	r21, Y+12	; 0x0c
    3efe:	6d 85       	ldd	r22, Y+13	; 0x0d
    3f00:	7e 85       	ldd	r23, Y+14	; 0x0e
}
    3f02:	8f 85       	ldd	r24, Y+15	; 0x0f
    3f04:	98 89       	ldd	r25, Y+16	; 0x10
    3f06:	60 96       	adiw	r28, 0x10	; 16
    3f08:	0f b6       	in	r0, 0x3f	; 63
    3f0a:	f8 94       	cli
    3f0c:	de bf       	out	0x3e, r29	; 62
    3f0e:	0f be       	out	0x3f, r0	; 63
    3f10:	cd bf       	out	0x3d, r28	; 61
    3f12:	cf 91       	pop	r28
    3f14:	df 91       	pop	r29
    3f16:	08 95       	ret

00003f18 <getServo>:
}

/**************************************************************************************************/

tOBJ getServo(tCELLp p)   // i.e. (getServo 15)
{
    3f18:	df 93       	push	r29
    3f1a:	cf 93       	push	r28
    3f1c:	cd b7       	in	r28, 0x3d	; 61
    3f1e:	de b7       	in	r29, 0x3e	; 62
    3f20:	60 97       	sbiw	r28, 0x10	; 16
    3f22:	0f b6       	in	r0, 0x3f	; 63
    3f24:	f8 94       	cli
    3f26:	de bf       	out	0x3e, r29	; 62
    3f28:	0f be       	out	0x3f, r0	; 63
    3f2a:	cd bf       	out	0x3d, r28	; 61
    3f2c:	fc 01       	movw	r30, r24
	tOBJ r; r.type=INT;
	if (p->head.type==INT && p->head.number>=0 && p->head.number<=31)
    3f2e:	80 81       	ld	r24, Z
    3f30:	91 81       	ldd	r25, Z+1	; 0x01
    3f32:	01 97       	sbiw	r24, 0x01	; 1
    3f34:	09 f0       	breq	.+2      	; 0x3f38 <getServo+0x20>
    3f36:	40 c0       	rjmp	.+128    	; 0x3fb8 <getServo+0xa0>
    3f38:	84 81       	ldd	r24, Z+4	; 0x04
    3f3a:	95 81       	ldd	r25, Z+5	; 0x05
    3f3c:	97 fd       	sbrc	r25, 7
    3f3e:	3c c0       	rjmp	.+120    	; 0x3fb8 <getServo+0xa0>
    3f40:	80 32       	cpi	r24, 0x20	; 32
    3f42:	91 05       	cpc	r25, r1
    3f44:	cc f5       	brge	.+114    	; 0x3fb8 <getServo+0xa0>
	{
		wckSendOperCommand(0xa0|(p->head.number), NULL);
    3f46:	60 e0       	ldi	r22, 0x00	; 0
    3f48:	80 6a       	ori	r24, 0xA0	; 160
    3f4a:	0e 94 66 1e 	call	0x3ccc	; 0x3ccc <wckSendOperCommand>
	return UDR1;
}

int wckGetByte(WORD timeout)
{
	g10Mtimer = timeout;
    3f4e:	84 e6       	ldi	r24, 0x64	; 100
    3f50:	90 e0       	ldi	r25, 0x00	; 0
    3f52:	90 93 9f 05 	sts	0x059F, r25
    3f56:	80 93 9e 05 	sts	0x059E, r24
    3f5a:	09 c0       	rjmp	.+18     	; 0x3f6e <getServo+0x56>
	
	while(!(UCSR0A&(1<<RXC)) ){ 	// test for received character
		if (g10Mtimer==0) return -1;
    3f5c:	80 91 9e 05 	lds	r24, 0x059E
    3f60:	90 91 9f 05 	lds	r25, 0x059F
    3f64:	89 2b       	or	r24, r25
    3f66:	19 f4       	brne	.+6      	; 0x3f6e <getServo+0x56>
    3f68:	2f ef       	ldi	r18, 0xFF	; 255
    3f6a:	3f ef       	ldi	r19, 0xFF	; 255
    3f6c:	05 c0       	rjmp	.+10     	; 0x3f78 <getServo+0x60>

int wckGetByte(WORD timeout)
{
	g10Mtimer = timeout;
	
	while(!(UCSR0A&(1<<RXC)) ){ 	// test for received character
    3f6e:	5f 9b       	sbis	0x0b, 7	; 11
    3f70:	f5 cf       	rjmp	.-22     	; 0x3f5c <getServo+0x44>
		if (g10Mtimer==0) return -1;
	}
	return UDR0;
    3f72:	8c b1       	in	r24, 0x0c	; 12
    3f74:	28 2f       	mov	r18, r24
    3f76:	30 e0       	ldi	r19, 0x00	; 0
	return UDR1;
}

int wckGetByte(WORD timeout)
{
	g10Mtimer = timeout;
    3f78:	84 e6       	ldi	r24, 0x64	; 100
    3f7a:	90 e0       	ldi	r25, 0x00	; 0
    3f7c:	90 93 9f 05 	sts	0x059F, r25
    3f80:	80 93 9e 05 	sts	0x059E, r24
    3f84:	09 c0       	rjmp	.+18     	; 0x3f98 <getServo+0x80>
	
	while(!(UCSR0A&(1<<RXC)) ){ 	// test for received character
		if (g10Mtimer==0) return -1;
    3f86:	80 91 9e 05 	lds	r24, 0x059E
    3f8a:	90 91 9f 05 	lds	r25, 0x059F
    3f8e:	89 2b       	or	r24, r25
    3f90:	19 f4       	brne	.+6      	; 0x3f98 <getServo+0x80>
    3f92:	8f ef       	ldi	r24, 0xFF	; 255
    3f94:	9f ef       	ldi	r25, 0xFF	; 255
    3f96:	04 c0       	rjmp	.+8      	; 0x3fa0 <getServo+0x88>

int wckGetByte(WORD timeout)
{
	g10Mtimer = timeout;
	
	while(!(UCSR0A&(1<<RXC)) ){ 	// test for received character
    3f98:	5f 9b       	sbis	0x0b, 7	; 11
    3f9a:	f5 cf       	rjmp	.-22     	; 0x3f86 <getServo+0x6e>
		if (g10Mtimer==0) return -1;
	}
	return UDR0;
    3f9c:	8c b1       	in	r24, 0x0c	; 12
    3f9e:	90 e0       	ldi	r25, 0x00	; 0
	{
		wckSendOperCommand(0xa0|(p->head.number), NULL);
		int b1 = wckGetByte(TIME_OUT);
		int b2 = wckGetByte(TIME_OUT);
		
		if (b1<0 || b2<0)
    3fa0:	2f 5f       	subi	r18, 0xFF	; 255
    3fa2:	3f 4f       	sbci	r19, 0xFF	; 255
    3fa4:	49 f0       	breq	.+18     	; 0x3fb8 <getServo+0xa0>
    3fa6:	2f ef       	ldi	r18, 0xFF	; 255
    3fa8:	8f 3f       	cpi	r24, 0xFF	; 255
    3faa:	92 07       	cpc	r25, r18
    3fac:	29 f0       	breq	.+10     	; 0x3fb8 <getServo+0xa0>
			r.type = EMPTY; //timeout
		else
			r.number = b2;
    3fae:	9e 83       	std	Y+6, r25	; 0x06
    3fb0:	8d 83       	std	Y+5, r24	; 0x05
    3fb2:	81 e0       	ldi	r24, 0x01	; 1
    3fb4:	90 e0       	ldi	r25, 0x00	; 0
    3fb6:	02 c0       	rjmp	.+4      	; 0x3fbc <getServo+0xa4>
    3fb8:	88 e0       	ldi	r24, 0x08	; 8
    3fba:	90 e0       	ldi	r25, 0x00	; 0
	}
	else
		r.type=EMPTY;
	return r;
    3fbc:	9a 83       	std	Y+2, r25	; 0x02
    3fbe:	89 83       	std	Y+1, r24	; 0x01
    3fc0:	de 01       	movw	r26, r28
    3fc2:	19 96       	adiw	r26, 0x09	; 9
    3fc4:	fe 01       	movw	r30, r28
    3fc6:	31 96       	adiw	r30, 0x01	; 1
    3fc8:	88 e0       	ldi	r24, 0x08	; 8
    3fca:	01 90       	ld	r0, Z+
    3fcc:	0d 92       	st	X+, r0
    3fce:	81 50       	subi	r24, 0x01	; 1
    3fd0:	e1 f7       	brne	.-8      	; 0x3fca <getServo+0xb2>
    3fd2:	29 85       	ldd	r18, Y+9	; 0x09
    3fd4:	3a 85       	ldd	r19, Y+10	; 0x0a
    3fd6:	4b 85       	ldd	r20, Y+11	; 0x0b
    3fd8:	5c 85       	ldd	r21, Y+12	; 0x0c
    3fda:	6d 85       	ldd	r22, Y+13	; 0x0d
    3fdc:	7e 85       	ldd	r23, Y+14	; 0x0e
}
    3fde:	8f 85       	ldd	r24, Y+15	; 0x0f
    3fe0:	98 89       	ldd	r25, Y+16	; 0x10
    3fe2:	60 96       	adiw	r28, 0x10	; 16
    3fe4:	0f b6       	in	r0, 0x3f	; 63
    3fe6:	f8 94       	cli
    3fe8:	de bf       	out	0x3e, r29	; 62
    3fea:	0f be       	out	0x3f, r0	; 63
    3fec:	cd bf       	out	0x3d, r28	; 61
    3fee:	cf 91       	pop	r28
    3ff0:	df 91       	pop	r29
    3ff2:	08 95       	ret

00003ff4 <__vector_10>:

//------------------------------------------------------------------------------
// Timer2 IR Timeout interrupt routine
//------------------------------------------------------------------------------
ISR(TIMER2_OVF_vect) 
{
    3ff4:	1f 92       	push	r1
    3ff6:	0f 92       	push	r0
    3ff8:	0f b6       	in	r0, 0x3f	; 63
    3ffa:	0f 92       	push	r0
    3ffc:	11 24       	eor	r1, r1
    3ffe:	8f 93       	push	r24
	TIMSK &= 0xBF;			// disable timeout interrupt
    4000:	87 b7       	in	r24, 0x37	; 55
    4002:	8f 7b       	andi	r24, 0xBF	; 191
    4004:	87 bf       	out	0x37, r24	; 55
	IRState = IR_IDLE;
    4006:	10 92 66 0e 	sts	0x0E66, r1
}
    400a:	8f 91       	pop	r24
    400c:	0f 90       	pop	r0
    400e:	0f be       	out	0x3f, r0	; 63
    4010:	0f 90       	pop	r0
    4012:	1f 90       	pop	r1
    4014:	18 95       	reti

00004016 <__vector_7>:

//------------------------------------------------------------------------------
// External Interrupt 6 IR Remote
//------------------------------------------------------------------------------
ISR(INT6_vect) 
{
    4016:	1f 92       	push	r1
    4018:	0f 92       	push	r0
    401a:	0f b6       	in	r0, 0x3f	; 63
    401c:	0f 92       	push	r0
    401e:	0b b6       	in	r0, 0x3b	; 59
    4020:	0f 92       	push	r0
    4022:	11 24       	eor	r1, r1
    4024:	8f 93       	push	r24
    4026:	9f 93       	push	r25
    4028:	ef 93       	push	r30
    402a:	ff 93       	push	r31
	switch(IRState) {
    402c:	80 91 66 0e 	lds	r24, 0x0E66
    4030:	81 30       	cpi	r24, 0x01	; 1
    4032:	59 f0       	breq	.+22     	; 0x404a <__vector_7+0x34>
    4034:	81 30       	cpi	r24, 0x01	; 1
    4036:	20 f0       	brcs	.+8      	; 0x4040 <__vector_7+0x2a>
    4038:	82 30       	cpi	r24, 0x02	; 2
    403a:	09 f0       	breq	.+2      	; 0x403e <__vector_7+0x28>
    403c:	61 c0       	rjmp	.+194    	; 0x4100 <__vector_7+0xea>
    403e:	23 c0       	rjmp	.+70     	; 0x4086 <__vector_7+0x70>

	case IR_IDLE: 
		TCNT2 = 0;				// clear timer 2
    4040:	14 bc       	out	0x24, r1	; 36
		IRState = IR_START;
    4042:	81 e0       	ldi	r24, 0x01	; 1
    4044:	80 93 66 0e 	sts	0x0E66, r24
    4048:	55 c0       	rjmp	.+170    	; 0x40f4 <__vector_7+0xde>
		TIFR |= 0x40;			// clear overflow
		TIMSK |= 0x40;			// timeout interrupt
		break;

	case IR_START:
		pulse_width = TCNT2; 	// read timer
    404a:	84 b5       	in	r24, 0x24	; 36
    404c:	80 93 63 0e 	sts	0x0E63, r24
		TCNT2 = 0;				// clear timer 2
    4050:	14 bc       	out	0x24, r1	; 36
		if ((pulse_width < IR_START_SHORT) | (pulse_width > IR_START_LONG))
    4052:	8a 53       	subi	r24, 0x3A	; 58
    4054:	89 31       	cpi	r24, 0x19	; 25
    4056:	08 f0       	brcs	.+2      	; 0x405a <__vector_7+0x44>
    4058:	4a c0       	rjmp	.+148    	; 0x40ee <__vector_7+0xd8>
			IRState = IR_IDLE;
		
		else {
			IRBit = 0;
    405a:	10 92 62 0e 	sts	0x0E62, r1
			IRByte = 0;
    405e:	10 92 65 0e 	sts	0x0E65, r1
			IRState = IR_RECEIVE;
    4062:	82 e0       	ldi	r24, 0x02	; 2
    4064:	80 93 66 0e 	sts	0x0E66, r24
			TIFR |= 0x40;			// clear overflow
    4068:	86 b7       	in	r24, 0x36	; 54
    406a:	80 64       	ori	r24, 0x40	; 64
    406c:	86 bf       	out	0x36, r24	; 54
			TIMSK |= 0x40;			// timeout interrupt
    406e:	87 b7       	in	r24, 0x37	; 55
    4070:	80 64       	ori	r24, 0x40	; 64
    4072:	87 bf       	out	0x37, r24	; 55
			for (BYTE i=0; i < 4; i++) IRTemp[i] = 0;
    4074:	10 92 68 0e 	sts	0x0E68, r1
    4078:	10 92 69 0e 	sts	0x0E69, r1
    407c:	10 92 6a 0e 	sts	0x0E6A, r1
    4080:	10 92 6b 0e 	sts	0x0E6B, r1
    4084:	3d c0       	rjmp	.+122    	; 0x4100 <__vector_7+0xea>
			
		}
		break;

	case IR_RECEIVE:
		pulse_width = TCNT2;    // read time
    4086:	94 b5       	in	r25, 0x24	; 36
    4088:	90 93 63 0e 	sts	0x0E63, r25
		TCNT2 = 0;
    408c:	14 bc       	out	0x24, r1	; 36

		if ((pulse_width < IR_BIT_SHORT) | (pulse_width > IR_BIT_LONG))
    408e:	89 2f       	mov	r24, r25
    4090:	8d 50       	subi	r24, 0x0D	; 13
    4092:	8e 30       	cpi	r24, 0x0E	; 14
    4094:	60 f5       	brcc	.+88     	; 0x40ee <__vector_7+0xd8>
    4096:	e0 91 65 0e 	lds	r30, 0x0E65
			IRState = IR_IDLE;
			
		else {
			if (pulse_width > IR_ZERO_ONE)
    409a:	94 31       	cpi	r25, 0x14	; 20
    409c:	38 f0       	brcs	.+14     	; 0x40ac <__vector_7+0x96>
				IRTemp[IRByte] = (IRTemp[IRByte] >> 1) | 0x80;
    409e:	f0 e0       	ldi	r31, 0x00	; 0
    40a0:	e8 59       	subi	r30, 0x98	; 152
    40a2:	f1 4f       	sbci	r31, 0xF1	; 241
    40a4:	80 81       	ld	r24, Z
    40a6:	86 95       	lsr	r24
    40a8:	80 68       	ori	r24, 0x80	; 128
    40aa:	05 c0       	rjmp	.+10     	; 0x40b6 <__vector_7+0xa0>
			else 
				IRTemp[IRByte] = IRTemp[IRByte] >> 1;
    40ac:	f0 e0       	ldi	r31, 0x00	; 0
    40ae:	e8 59       	subi	r30, 0x98	; 152
    40b0:	f1 4f       	sbci	r31, 0xF1	; 241
    40b2:	80 81       	ld	r24, Z
    40b4:	86 95       	lsr	r24
    40b6:	80 83       	st	Z, r24
			
			if (++IRBit == 8) {
    40b8:	80 91 62 0e 	lds	r24, 0x0E62
    40bc:	8f 5f       	subi	r24, 0xFF	; 255
    40be:	80 93 62 0e 	sts	0x0E62, r24
    40c2:	88 30       	cpi	r24, 0x08	; 8
    40c4:	b9 f4       	brne	.+46     	; 0x40f4 <__vector_7+0xde>
				IRBit = 0;
    40c6:	10 92 62 0e 	sts	0x0E62, r1
				if(++IRByte == 4) {
    40ca:	80 91 65 0e 	lds	r24, 0x0E65
    40ce:	8f 5f       	subi	r24, 0xFF	; 255
    40d0:	80 93 65 0e 	sts	0x0E65, r24
    40d4:	84 30       	cpi	r24, 0x04	; 4
    40d6:	71 f4       	brne	.+28     	; 0x40f4 <__vector_7+0xde>
					gIRAddr = IRTemp[0];
    40d8:	80 91 68 0e 	lds	r24, 0x0E68
    40dc:	80 93 61 0e 	sts	0x0E61, r24
					//if( IRTemp[0] == IR_ADDRESS){     // commented out address checking
						gIRData = IRTemp[3];
    40e0:	80 91 6b 0e 	lds	r24, 0x0E6B
    40e4:	80 93 67 0e 	sts	0x0E67, r24
						gIRReady = TRUE;
    40e8:	8f ef       	ldi	r24, 0xFF	; 255
    40ea:	80 93 64 0e 	sts	0x0E64, r24
					//}
					IRState = IR_IDLE;
    40ee:	10 92 66 0e 	sts	0x0E66, r1
    40f2:	06 c0       	rjmp	.+12     	; 0x4100 <__vector_7+0xea>
					return;
				}

			}
			TIFR |= 0x40;			// clear overflow
    40f4:	86 b7       	in	r24, 0x36	; 54
    40f6:	80 64       	ori	r24, 0x40	; 64
    40f8:	86 bf       	out	0x36, r24	; 54
			TIMSK |= 0x40;			// timeout interrupt
    40fa:	87 b7       	in	r24, 0x37	; 55
    40fc:	80 64       	ori	r24, 0x40	; 64
    40fe:	87 bf       	out	0x37, r24	; 55
				
		}
		break;
	} // end switch
	
} // end int
    4100:	ff 91       	pop	r31
    4102:	ef 91       	pop	r30
    4104:	9f 91       	pop	r25
    4106:	8f 91       	pop	r24
    4108:	0f 90       	pop	r0
    410a:	0b be       	out	0x3b, r0	; 59
    410c:	0f 90       	pop	r0
    410e:	0f be       	out	0x3f, r0	; 63
    4110:	0f 90       	pop	r0
    4112:	1f 90       	pop	r1
    4114:	18 95       	reti

00004116 <irGetByte>:

//------------------------------------------------------------------------------
// get the next char from the IR receiver, or -1 if none (getchar-style)
//------------------------------------------------------------------------------
int irGetByte(void)
{
    4116:	80 91 64 0e 	lds	r24, 0x0E64
    411a:	88 23       	and	r24, r24
    411c:	19 f4       	brne	.+6      	; 0x4124 <irGetByte+0xe>
    411e:	2f ef       	ldi	r18, 0xFF	; 255
    4120:	3f ef       	ldi	r19, 0xFF	; 255
    4122:	06 c0       	rjmp	.+12     	; 0x4130 <irGetByte+0x1a>
	if (!gIRReady) return -1;
	gIRReady = FALSE;
    4124:	10 92 64 0e 	sts	0x0E64, r1
	return gIRData;
    4128:	80 91 67 0e 	lds	r24, 0x0E67
    412c:	28 2f       	mov	r18, r24
    412e:	30 e0       	ldi	r19, 0x00	; 0
}
    4130:	c9 01       	movw	r24, r18
    4132:	08 95       	ret

00004134 <__fixunssfsi>:
    4134:	ef 92       	push	r14
    4136:	ff 92       	push	r15
    4138:	0f 93       	push	r16
    413a:	1f 93       	push	r17
    413c:	7b 01       	movw	r14, r22
    413e:	8c 01       	movw	r16, r24
    4140:	20 e0       	ldi	r18, 0x00	; 0
    4142:	30 e0       	ldi	r19, 0x00	; 0
    4144:	40 e0       	ldi	r20, 0x00	; 0
    4146:	5f e4       	ldi	r21, 0x4F	; 79
    4148:	0e 94 4a 23 	call	0x4694	; 0x4694 <__gesf2>
    414c:	88 23       	and	r24, r24
    414e:	8c f0       	brlt	.+34     	; 0x4172 <__fixunssfsi+0x3e>
    4150:	20 e0       	ldi	r18, 0x00	; 0
    4152:	30 e0       	ldi	r19, 0x00	; 0
    4154:	40 e0       	ldi	r20, 0x00	; 0
    4156:	5f e4       	ldi	r21, 0x4F	; 79
    4158:	c8 01       	movw	r24, r16
    415a:	b7 01       	movw	r22, r14
    415c:	0e 94 12 22 	call	0x4424	; 0x4424 <__subsf3>
    4160:	0e 94 08 24 	call	0x4810	; 0x4810 <__fixsfsi>
    4164:	9b 01       	movw	r18, r22
    4166:	ac 01       	movw	r20, r24
    4168:	20 50       	subi	r18, 0x00	; 0
    416a:	30 40       	sbci	r19, 0x00	; 0
    416c:	40 40       	sbci	r20, 0x00	; 0
    416e:	50 48       	sbci	r21, 0x80	; 128
    4170:	06 c0       	rjmp	.+12     	; 0x417e <__fixunssfsi+0x4a>
    4172:	c8 01       	movw	r24, r16
    4174:	b7 01       	movw	r22, r14
    4176:	0e 94 08 24 	call	0x4810	; 0x4810 <__fixsfsi>
    417a:	9b 01       	movw	r18, r22
    417c:	ac 01       	movw	r20, r24
    417e:	b9 01       	movw	r22, r18
    4180:	ca 01       	movw	r24, r20
    4182:	1f 91       	pop	r17
    4184:	0f 91       	pop	r16
    4186:	ff 90       	pop	r15
    4188:	ef 90       	pop	r14
    418a:	08 95       	ret

0000418c <_fpadd_parts>:
    418c:	a0 e0       	ldi	r26, 0x00	; 0
    418e:	b0 e0       	ldi	r27, 0x00	; 0
    4190:	ec ec       	ldi	r30, 0xCC	; 204
    4192:	f0 e2       	ldi	r31, 0x20	; 32
    4194:	0c 94 8d 26 	jmp	0x4d1a	; 0x4d1a <__prologue_saves__>
    4198:	dc 01       	movw	r26, r24
    419a:	2b 01       	movw	r4, r22
    419c:	fa 01       	movw	r30, r20
    419e:	9c 91       	ld	r25, X
    41a0:	92 30       	cpi	r25, 0x02	; 2
    41a2:	08 f4       	brcc	.+2      	; 0x41a6 <_fpadd_parts+0x1a>
    41a4:	39 c1       	rjmp	.+626    	; 0x4418 <_fpadd_parts+0x28c>
    41a6:	eb 01       	movw	r28, r22
    41a8:	88 81       	ld	r24, Y
    41aa:	82 30       	cpi	r24, 0x02	; 2
    41ac:	08 f4       	brcc	.+2      	; 0x41b0 <_fpadd_parts+0x24>
    41ae:	33 c1       	rjmp	.+614    	; 0x4416 <_fpadd_parts+0x28a>
    41b0:	94 30       	cpi	r25, 0x04	; 4
    41b2:	69 f4       	brne	.+26     	; 0x41ce <_fpadd_parts+0x42>
    41b4:	84 30       	cpi	r24, 0x04	; 4
    41b6:	09 f0       	breq	.+2      	; 0x41ba <_fpadd_parts+0x2e>
    41b8:	2f c1       	rjmp	.+606    	; 0x4418 <_fpadd_parts+0x28c>
    41ba:	11 96       	adiw	r26, 0x01	; 1
    41bc:	9c 91       	ld	r25, X
    41be:	11 97       	sbiw	r26, 0x01	; 1
    41c0:	89 81       	ldd	r24, Y+1	; 0x01
    41c2:	98 17       	cp	r25, r24
    41c4:	09 f4       	brne	.+2      	; 0x41c8 <_fpadd_parts+0x3c>
    41c6:	28 c1       	rjmp	.+592    	; 0x4418 <_fpadd_parts+0x28c>
    41c8:	a7 e5       	ldi	r26, 0x57	; 87
    41ca:	b4 e0       	ldi	r27, 0x04	; 4
    41cc:	25 c1       	rjmp	.+586    	; 0x4418 <_fpadd_parts+0x28c>
    41ce:	84 30       	cpi	r24, 0x04	; 4
    41d0:	09 f4       	brne	.+2      	; 0x41d4 <_fpadd_parts+0x48>
    41d2:	21 c1       	rjmp	.+578    	; 0x4416 <_fpadd_parts+0x28a>
    41d4:	82 30       	cpi	r24, 0x02	; 2
    41d6:	a9 f4       	brne	.+42     	; 0x4202 <_fpadd_parts+0x76>
    41d8:	92 30       	cpi	r25, 0x02	; 2
    41da:	09 f0       	breq	.+2      	; 0x41de <_fpadd_parts+0x52>
    41dc:	1d c1       	rjmp	.+570    	; 0x4418 <_fpadd_parts+0x28c>
    41de:	9a 01       	movw	r18, r20
    41e0:	ad 01       	movw	r20, r26
    41e2:	88 e0       	ldi	r24, 0x08	; 8
    41e4:	ea 01       	movw	r28, r20
    41e6:	09 90       	ld	r0, Y+
    41e8:	ae 01       	movw	r20, r28
    41ea:	e9 01       	movw	r28, r18
    41ec:	09 92       	st	Y+, r0
    41ee:	9e 01       	movw	r18, r28
    41f0:	81 50       	subi	r24, 0x01	; 1
    41f2:	c1 f7       	brne	.-16     	; 0x41e4 <_fpadd_parts+0x58>
    41f4:	e2 01       	movw	r28, r4
    41f6:	89 81       	ldd	r24, Y+1	; 0x01
    41f8:	11 96       	adiw	r26, 0x01	; 1
    41fa:	9c 91       	ld	r25, X
    41fc:	89 23       	and	r24, r25
    41fe:	81 83       	std	Z+1, r24	; 0x01
    4200:	08 c1       	rjmp	.+528    	; 0x4412 <_fpadd_parts+0x286>
    4202:	92 30       	cpi	r25, 0x02	; 2
    4204:	09 f4       	brne	.+2      	; 0x4208 <_fpadd_parts+0x7c>
    4206:	07 c1       	rjmp	.+526    	; 0x4416 <_fpadd_parts+0x28a>
    4208:	12 96       	adiw	r26, 0x02	; 2
    420a:	2d 90       	ld	r2, X+
    420c:	3c 90       	ld	r3, X
    420e:	13 97       	sbiw	r26, 0x03	; 3
    4210:	eb 01       	movw	r28, r22
    4212:	8a 81       	ldd	r24, Y+2	; 0x02
    4214:	9b 81       	ldd	r25, Y+3	; 0x03
    4216:	14 96       	adiw	r26, 0x04	; 4
    4218:	ad 90       	ld	r10, X+
    421a:	bd 90       	ld	r11, X+
    421c:	cd 90       	ld	r12, X+
    421e:	dc 90       	ld	r13, X
    4220:	17 97       	sbiw	r26, 0x07	; 7
    4222:	ec 80       	ldd	r14, Y+4	; 0x04
    4224:	fd 80       	ldd	r15, Y+5	; 0x05
    4226:	0e 81       	ldd	r16, Y+6	; 0x06
    4228:	1f 81       	ldd	r17, Y+7	; 0x07
    422a:	91 01       	movw	r18, r2
    422c:	28 1b       	sub	r18, r24
    422e:	39 0b       	sbc	r19, r25
    4230:	b9 01       	movw	r22, r18
    4232:	37 ff       	sbrs	r19, 7
    4234:	04 c0       	rjmp	.+8      	; 0x423e <_fpadd_parts+0xb2>
    4236:	66 27       	eor	r22, r22
    4238:	77 27       	eor	r23, r23
    423a:	62 1b       	sub	r22, r18
    423c:	73 0b       	sbc	r23, r19
    423e:	60 32       	cpi	r22, 0x20	; 32
    4240:	71 05       	cpc	r23, r1
    4242:	0c f0       	brlt	.+2      	; 0x4246 <_fpadd_parts+0xba>
    4244:	61 c0       	rjmp	.+194    	; 0x4308 <_fpadd_parts+0x17c>
    4246:	12 16       	cp	r1, r18
    4248:	13 06       	cpc	r1, r19
    424a:	6c f5       	brge	.+90     	; 0x42a6 <_fpadd_parts+0x11a>
    424c:	37 01       	movw	r6, r14
    424e:	48 01       	movw	r8, r16
    4250:	06 2e       	mov	r0, r22
    4252:	04 c0       	rjmp	.+8      	; 0x425c <_fpadd_parts+0xd0>
    4254:	96 94       	lsr	r9
    4256:	87 94       	ror	r8
    4258:	77 94       	ror	r7
    425a:	67 94       	ror	r6
    425c:	0a 94       	dec	r0
    425e:	d2 f7       	brpl	.-12     	; 0x4254 <_fpadd_parts+0xc8>
    4260:	21 e0       	ldi	r18, 0x01	; 1
    4262:	30 e0       	ldi	r19, 0x00	; 0
    4264:	40 e0       	ldi	r20, 0x00	; 0
    4266:	50 e0       	ldi	r21, 0x00	; 0
    4268:	04 c0       	rjmp	.+8      	; 0x4272 <_fpadd_parts+0xe6>
    426a:	22 0f       	add	r18, r18
    426c:	33 1f       	adc	r19, r19
    426e:	44 1f       	adc	r20, r20
    4270:	55 1f       	adc	r21, r21
    4272:	6a 95       	dec	r22
    4274:	d2 f7       	brpl	.-12     	; 0x426a <_fpadd_parts+0xde>
    4276:	21 50       	subi	r18, 0x01	; 1
    4278:	30 40       	sbci	r19, 0x00	; 0
    427a:	40 40       	sbci	r20, 0x00	; 0
    427c:	50 40       	sbci	r21, 0x00	; 0
    427e:	2e 21       	and	r18, r14
    4280:	3f 21       	and	r19, r15
    4282:	40 23       	and	r20, r16
    4284:	51 23       	and	r21, r17
    4286:	21 15       	cp	r18, r1
    4288:	31 05       	cpc	r19, r1
    428a:	41 05       	cpc	r20, r1
    428c:	51 05       	cpc	r21, r1
    428e:	21 f0       	breq	.+8      	; 0x4298 <_fpadd_parts+0x10c>
    4290:	21 e0       	ldi	r18, 0x01	; 1
    4292:	30 e0       	ldi	r19, 0x00	; 0
    4294:	40 e0       	ldi	r20, 0x00	; 0
    4296:	50 e0       	ldi	r21, 0x00	; 0
    4298:	79 01       	movw	r14, r18
    429a:	8a 01       	movw	r16, r20
    429c:	e6 28       	or	r14, r6
    429e:	f7 28       	or	r15, r7
    42a0:	08 29       	or	r16, r8
    42a2:	19 29       	or	r17, r9
    42a4:	3c c0       	rjmp	.+120    	; 0x431e <_fpadd_parts+0x192>
    42a6:	23 2b       	or	r18, r19
    42a8:	d1 f1       	breq	.+116    	; 0x431e <_fpadd_parts+0x192>
    42aa:	26 0e       	add	r2, r22
    42ac:	37 1e       	adc	r3, r23
    42ae:	35 01       	movw	r6, r10
    42b0:	46 01       	movw	r8, r12
    42b2:	06 2e       	mov	r0, r22
    42b4:	04 c0       	rjmp	.+8      	; 0x42be <_fpadd_parts+0x132>
    42b6:	96 94       	lsr	r9
    42b8:	87 94       	ror	r8
    42ba:	77 94       	ror	r7
    42bc:	67 94       	ror	r6
    42be:	0a 94       	dec	r0
    42c0:	d2 f7       	brpl	.-12     	; 0x42b6 <_fpadd_parts+0x12a>
    42c2:	21 e0       	ldi	r18, 0x01	; 1
    42c4:	30 e0       	ldi	r19, 0x00	; 0
    42c6:	40 e0       	ldi	r20, 0x00	; 0
    42c8:	50 e0       	ldi	r21, 0x00	; 0
    42ca:	04 c0       	rjmp	.+8      	; 0x42d4 <_fpadd_parts+0x148>
    42cc:	22 0f       	add	r18, r18
    42ce:	33 1f       	adc	r19, r19
    42d0:	44 1f       	adc	r20, r20
    42d2:	55 1f       	adc	r21, r21
    42d4:	6a 95       	dec	r22
    42d6:	d2 f7       	brpl	.-12     	; 0x42cc <_fpadd_parts+0x140>
    42d8:	21 50       	subi	r18, 0x01	; 1
    42da:	30 40       	sbci	r19, 0x00	; 0
    42dc:	40 40       	sbci	r20, 0x00	; 0
    42de:	50 40       	sbci	r21, 0x00	; 0
    42e0:	2a 21       	and	r18, r10
    42e2:	3b 21       	and	r19, r11
    42e4:	4c 21       	and	r20, r12
    42e6:	5d 21       	and	r21, r13
    42e8:	21 15       	cp	r18, r1
    42ea:	31 05       	cpc	r19, r1
    42ec:	41 05       	cpc	r20, r1
    42ee:	51 05       	cpc	r21, r1
    42f0:	21 f0       	breq	.+8      	; 0x42fa <_fpadd_parts+0x16e>
    42f2:	21 e0       	ldi	r18, 0x01	; 1
    42f4:	30 e0       	ldi	r19, 0x00	; 0
    42f6:	40 e0       	ldi	r20, 0x00	; 0
    42f8:	50 e0       	ldi	r21, 0x00	; 0
    42fa:	59 01       	movw	r10, r18
    42fc:	6a 01       	movw	r12, r20
    42fe:	a6 28       	or	r10, r6
    4300:	b7 28       	or	r11, r7
    4302:	c8 28       	or	r12, r8
    4304:	d9 28       	or	r13, r9
    4306:	0b c0       	rjmp	.+22     	; 0x431e <_fpadd_parts+0x192>
    4308:	82 15       	cp	r24, r2
    430a:	93 05       	cpc	r25, r3
    430c:	2c f0       	brlt	.+10     	; 0x4318 <_fpadd_parts+0x18c>
    430e:	1c 01       	movw	r2, r24
    4310:	aa 24       	eor	r10, r10
    4312:	bb 24       	eor	r11, r11
    4314:	65 01       	movw	r12, r10
    4316:	03 c0       	rjmp	.+6      	; 0x431e <_fpadd_parts+0x192>
    4318:	ee 24       	eor	r14, r14
    431a:	ff 24       	eor	r15, r15
    431c:	87 01       	movw	r16, r14
    431e:	11 96       	adiw	r26, 0x01	; 1
    4320:	9c 91       	ld	r25, X
    4322:	d2 01       	movw	r26, r4
    4324:	11 96       	adiw	r26, 0x01	; 1
    4326:	8c 91       	ld	r24, X
    4328:	98 17       	cp	r25, r24
    432a:	09 f4       	brne	.+2      	; 0x432e <_fpadd_parts+0x1a2>
    432c:	45 c0       	rjmp	.+138    	; 0x43b8 <_fpadd_parts+0x22c>
    432e:	99 23       	and	r25, r25
    4330:	39 f0       	breq	.+14     	; 0x4340 <_fpadd_parts+0x1b4>
    4332:	a8 01       	movw	r20, r16
    4334:	97 01       	movw	r18, r14
    4336:	2a 19       	sub	r18, r10
    4338:	3b 09       	sbc	r19, r11
    433a:	4c 09       	sbc	r20, r12
    433c:	5d 09       	sbc	r21, r13
    433e:	06 c0       	rjmp	.+12     	; 0x434c <_fpadd_parts+0x1c0>
    4340:	a6 01       	movw	r20, r12
    4342:	95 01       	movw	r18, r10
    4344:	2e 19       	sub	r18, r14
    4346:	3f 09       	sbc	r19, r15
    4348:	40 0b       	sbc	r20, r16
    434a:	51 0b       	sbc	r21, r17
    434c:	57 fd       	sbrc	r21, 7
    434e:	08 c0       	rjmp	.+16     	; 0x4360 <_fpadd_parts+0x1d4>
    4350:	11 82       	std	Z+1, r1	; 0x01
    4352:	33 82       	std	Z+3, r3	; 0x03
    4354:	22 82       	std	Z+2, r2	; 0x02
    4356:	24 83       	std	Z+4, r18	; 0x04
    4358:	35 83       	std	Z+5, r19	; 0x05
    435a:	46 83       	std	Z+6, r20	; 0x06
    435c:	57 83       	std	Z+7, r21	; 0x07
    435e:	1d c0       	rjmp	.+58     	; 0x439a <_fpadd_parts+0x20e>
    4360:	81 e0       	ldi	r24, 0x01	; 1
    4362:	81 83       	std	Z+1, r24	; 0x01
    4364:	33 82       	std	Z+3, r3	; 0x03
    4366:	22 82       	std	Z+2, r2	; 0x02
    4368:	88 27       	eor	r24, r24
    436a:	99 27       	eor	r25, r25
    436c:	dc 01       	movw	r26, r24
    436e:	82 1b       	sub	r24, r18
    4370:	93 0b       	sbc	r25, r19
    4372:	a4 0b       	sbc	r26, r20
    4374:	b5 0b       	sbc	r27, r21
    4376:	84 83       	std	Z+4, r24	; 0x04
    4378:	95 83       	std	Z+5, r25	; 0x05
    437a:	a6 83       	std	Z+6, r26	; 0x06
    437c:	b7 83       	std	Z+7, r27	; 0x07
    437e:	0d c0       	rjmp	.+26     	; 0x439a <_fpadd_parts+0x20e>
    4380:	22 0f       	add	r18, r18
    4382:	33 1f       	adc	r19, r19
    4384:	44 1f       	adc	r20, r20
    4386:	55 1f       	adc	r21, r21
    4388:	24 83       	std	Z+4, r18	; 0x04
    438a:	35 83       	std	Z+5, r19	; 0x05
    438c:	46 83       	std	Z+6, r20	; 0x06
    438e:	57 83       	std	Z+7, r21	; 0x07
    4390:	82 81       	ldd	r24, Z+2	; 0x02
    4392:	93 81       	ldd	r25, Z+3	; 0x03
    4394:	01 97       	sbiw	r24, 0x01	; 1
    4396:	93 83       	std	Z+3, r25	; 0x03
    4398:	82 83       	std	Z+2, r24	; 0x02
    439a:	24 81       	ldd	r18, Z+4	; 0x04
    439c:	35 81       	ldd	r19, Z+5	; 0x05
    439e:	46 81       	ldd	r20, Z+6	; 0x06
    43a0:	57 81       	ldd	r21, Z+7	; 0x07
    43a2:	da 01       	movw	r26, r20
    43a4:	c9 01       	movw	r24, r18
    43a6:	01 97       	sbiw	r24, 0x01	; 1
    43a8:	a1 09       	sbc	r26, r1
    43aa:	b1 09       	sbc	r27, r1
    43ac:	8f 5f       	subi	r24, 0xFF	; 255
    43ae:	9f 4f       	sbci	r25, 0xFF	; 255
    43b0:	af 4f       	sbci	r26, 0xFF	; 255
    43b2:	bf 43       	sbci	r27, 0x3F	; 63
    43b4:	28 f3       	brcs	.-54     	; 0x4380 <_fpadd_parts+0x1f4>
    43b6:	0b c0       	rjmp	.+22     	; 0x43ce <_fpadd_parts+0x242>
    43b8:	91 83       	std	Z+1, r25	; 0x01
    43ba:	33 82       	std	Z+3, r3	; 0x03
    43bc:	22 82       	std	Z+2, r2	; 0x02
    43be:	ea 0c       	add	r14, r10
    43c0:	fb 1c       	adc	r15, r11
    43c2:	0c 1d       	adc	r16, r12
    43c4:	1d 1d       	adc	r17, r13
    43c6:	e4 82       	std	Z+4, r14	; 0x04
    43c8:	f5 82       	std	Z+5, r15	; 0x05
    43ca:	06 83       	std	Z+6, r16	; 0x06
    43cc:	17 83       	std	Z+7, r17	; 0x07
    43ce:	83 e0       	ldi	r24, 0x03	; 3
    43d0:	80 83       	st	Z, r24
    43d2:	24 81       	ldd	r18, Z+4	; 0x04
    43d4:	35 81       	ldd	r19, Z+5	; 0x05
    43d6:	46 81       	ldd	r20, Z+6	; 0x06
    43d8:	57 81       	ldd	r21, Z+7	; 0x07
    43da:	57 ff       	sbrs	r21, 7
    43dc:	1a c0       	rjmp	.+52     	; 0x4412 <_fpadd_parts+0x286>
    43de:	c9 01       	movw	r24, r18
    43e0:	aa 27       	eor	r26, r26
    43e2:	97 fd       	sbrc	r25, 7
    43e4:	a0 95       	com	r26
    43e6:	ba 2f       	mov	r27, r26
    43e8:	81 70       	andi	r24, 0x01	; 1
    43ea:	90 70       	andi	r25, 0x00	; 0
    43ec:	a0 70       	andi	r26, 0x00	; 0
    43ee:	b0 70       	andi	r27, 0x00	; 0
    43f0:	56 95       	lsr	r21
    43f2:	47 95       	ror	r20
    43f4:	37 95       	ror	r19
    43f6:	27 95       	ror	r18
    43f8:	82 2b       	or	r24, r18
    43fa:	93 2b       	or	r25, r19
    43fc:	a4 2b       	or	r26, r20
    43fe:	b5 2b       	or	r27, r21
    4400:	84 83       	std	Z+4, r24	; 0x04
    4402:	95 83       	std	Z+5, r25	; 0x05
    4404:	a6 83       	std	Z+6, r26	; 0x06
    4406:	b7 83       	std	Z+7, r27	; 0x07
    4408:	82 81       	ldd	r24, Z+2	; 0x02
    440a:	93 81       	ldd	r25, Z+3	; 0x03
    440c:	01 96       	adiw	r24, 0x01	; 1
    440e:	93 83       	std	Z+3, r25	; 0x03
    4410:	82 83       	std	Z+2, r24	; 0x02
    4412:	df 01       	movw	r26, r30
    4414:	01 c0       	rjmp	.+2      	; 0x4418 <_fpadd_parts+0x28c>
    4416:	d2 01       	movw	r26, r4
    4418:	cd 01       	movw	r24, r26
    441a:	cd b7       	in	r28, 0x3d	; 61
    441c:	de b7       	in	r29, 0x3e	; 62
    441e:	e2 e1       	ldi	r30, 0x12	; 18
    4420:	0c 94 a9 26 	jmp	0x4d52	; 0x4d52 <__epilogue_restores__>

00004424 <__subsf3>:
    4424:	a0 e2       	ldi	r26, 0x20	; 32
    4426:	b0 e0       	ldi	r27, 0x00	; 0
    4428:	e8 e1       	ldi	r30, 0x18	; 24
    442a:	f2 e2       	ldi	r31, 0x22	; 34
    442c:	0c 94 99 26 	jmp	0x4d32	; 0x4d32 <__prologue_saves__+0x18>
    4430:	69 83       	std	Y+1, r22	; 0x01
    4432:	7a 83       	std	Y+2, r23	; 0x02
    4434:	8b 83       	std	Y+3, r24	; 0x03
    4436:	9c 83       	std	Y+4, r25	; 0x04
    4438:	2d 83       	std	Y+5, r18	; 0x05
    443a:	3e 83       	std	Y+6, r19	; 0x06
    443c:	4f 83       	std	Y+7, r20	; 0x07
    443e:	58 87       	std	Y+8, r21	; 0x08
    4440:	e9 e0       	ldi	r30, 0x09	; 9
    4442:	ee 2e       	mov	r14, r30
    4444:	f1 2c       	mov	r15, r1
    4446:	ec 0e       	add	r14, r28
    4448:	fd 1e       	adc	r15, r29
    444a:	b7 01       	movw	r22, r14
    444c:	ce 01       	movw	r24, r28
    444e:	01 96       	adiw	r24, 0x01	; 1
    4450:	0e 94 80 25 	call	0x4b00	; 0x4b00 <__unpack_f>
    4454:	8e 01       	movw	r16, r28
    4456:	0f 5e       	subi	r16, 0xEF	; 239
    4458:	1f 4f       	sbci	r17, 0xFF	; 255
    445a:	b8 01       	movw	r22, r16
    445c:	ce 01       	movw	r24, r28
    445e:	05 96       	adiw	r24, 0x05	; 5
    4460:	0e 94 80 25 	call	0x4b00	; 0x4b00 <__unpack_f>
    4464:	8a 89       	ldd	r24, Y+18	; 0x12
    4466:	91 e0       	ldi	r25, 0x01	; 1
    4468:	89 27       	eor	r24, r25
    446a:	8a 8b       	std	Y+18, r24	; 0x12
    446c:	ae 01       	movw	r20, r28
    446e:	47 5e       	subi	r20, 0xE7	; 231
    4470:	5f 4f       	sbci	r21, 0xFF	; 255
    4472:	b8 01       	movw	r22, r16
    4474:	c7 01       	movw	r24, r14
    4476:	0e 94 c6 20 	call	0x418c	; 0x418c <_fpadd_parts>
    447a:	0e 94 ab 24 	call	0x4956	; 0x4956 <__pack_f>
    447e:	a0 96       	adiw	r28, 0x20	; 32
    4480:	e6 e0       	ldi	r30, 0x06	; 6
    4482:	0c 94 b5 26 	jmp	0x4d6a	; 0x4d6a <__epilogue_restores__+0x18>

00004486 <__addsf3>:
    4486:	a0 e2       	ldi	r26, 0x20	; 32
    4488:	b0 e0       	ldi	r27, 0x00	; 0
    448a:	e9 e4       	ldi	r30, 0x49	; 73
    448c:	f2 e2       	ldi	r31, 0x22	; 34
    448e:	0c 94 99 26 	jmp	0x4d32	; 0x4d32 <__prologue_saves__+0x18>
    4492:	69 83       	std	Y+1, r22	; 0x01
    4494:	7a 83       	std	Y+2, r23	; 0x02
    4496:	8b 83       	std	Y+3, r24	; 0x03
    4498:	9c 83       	std	Y+4, r25	; 0x04
    449a:	2d 83       	std	Y+5, r18	; 0x05
    449c:	3e 83       	std	Y+6, r19	; 0x06
    449e:	4f 83       	std	Y+7, r20	; 0x07
    44a0:	58 87       	std	Y+8, r21	; 0x08
    44a2:	f9 e0       	ldi	r31, 0x09	; 9
    44a4:	ef 2e       	mov	r14, r31
    44a6:	f1 2c       	mov	r15, r1
    44a8:	ec 0e       	add	r14, r28
    44aa:	fd 1e       	adc	r15, r29
    44ac:	b7 01       	movw	r22, r14
    44ae:	ce 01       	movw	r24, r28
    44b0:	01 96       	adiw	r24, 0x01	; 1
    44b2:	0e 94 80 25 	call	0x4b00	; 0x4b00 <__unpack_f>
    44b6:	8e 01       	movw	r16, r28
    44b8:	0f 5e       	subi	r16, 0xEF	; 239
    44ba:	1f 4f       	sbci	r17, 0xFF	; 255
    44bc:	b8 01       	movw	r22, r16
    44be:	ce 01       	movw	r24, r28
    44c0:	05 96       	adiw	r24, 0x05	; 5
    44c2:	0e 94 80 25 	call	0x4b00	; 0x4b00 <__unpack_f>
    44c6:	ae 01       	movw	r20, r28
    44c8:	47 5e       	subi	r20, 0xE7	; 231
    44ca:	5f 4f       	sbci	r21, 0xFF	; 255
    44cc:	b8 01       	movw	r22, r16
    44ce:	c7 01       	movw	r24, r14
    44d0:	0e 94 c6 20 	call	0x418c	; 0x418c <_fpadd_parts>
    44d4:	0e 94 ab 24 	call	0x4956	; 0x4956 <__pack_f>
    44d8:	a0 96       	adiw	r28, 0x20	; 32
    44da:	e6 e0       	ldi	r30, 0x06	; 6
    44dc:	0c 94 b5 26 	jmp	0x4d6a	; 0x4d6a <__epilogue_restores__+0x18>

000044e0 <__divsf3>:
    44e0:	a8 e1       	ldi	r26, 0x18	; 24
    44e2:	b0 e0       	ldi	r27, 0x00	; 0
    44e4:	e6 e7       	ldi	r30, 0x76	; 118
    44e6:	f2 e2       	ldi	r31, 0x22	; 34
    44e8:	0c 94 95 26 	jmp	0x4d2a	; 0x4d2a <__prologue_saves__+0x10>
    44ec:	69 83       	std	Y+1, r22	; 0x01
    44ee:	7a 83       	std	Y+2, r23	; 0x02
    44f0:	8b 83       	std	Y+3, r24	; 0x03
    44f2:	9c 83       	std	Y+4, r25	; 0x04
    44f4:	2d 83       	std	Y+5, r18	; 0x05
    44f6:	3e 83       	std	Y+6, r19	; 0x06
    44f8:	4f 83       	std	Y+7, r20	; 0x07
    44fa:	58 87       	std	Y+8, r21	; 0x08
    44fc:	b9 e0       	ldi	r27, 0x09	; 9
    44fe:	eb 2e       	mov	r14, r27
    4500:	f1 2c       	mov	r15, r1
    4502:	ec 0e       	add	r14, r28
    4504:	fd 1e       	adc	r15, r29
    4506:	b7 01       	movw	r22, r14
    4508:	ce 01       	movw	r24, r28
    450a:	01 96       	adiw	r24, 0x01	; 1
    450c:	0e 94 80 25 	call	0x4b00	; 0x4b00 <__unpack_f>
    4510:	8e 01       	movw	r16, r28
    4512:	0f 5e       	subi	r16, 0xEF	; 239
    4514:	1f 4f       	sbci	r17, 0xFF	; 255
    4516:	b8 01       	movw	r22, r16
    4518:	ce 01       	movw	r24, r28
    451a:	05 96       	adiw	r24, 0x05	; 5
    451c:	0e 94 80 25 	call	0x4b00	; 0x4b00 <__unpack_f>
    4520:	29 85       	ldd	r18, Y+9	; 0x09
    4522:	22 30       	cpi	r18, 0x02	; 2
    4524:	08 f4       	brcc	.+2      	; 0x4528 <__divsf3+0x48>
    4526:	7c c0       	rjmp	.+248    	; 0x4620 <__divsf3+0x140>
    4528:	39 89       	ldd	r19, Y+17	; 0x11
    452a:	32 30       	cpi	r19, 0x02	; 2
    452c:	10 f4       	brcc	.+4      	; 0x4532 <__divsf3+0x52>
    452e:	b8 01       	movw	r22, r16
    4530:	7a c0       	rjmp	.+244    	; 0x4626 <__divsf3+0x146>
    4532:	8a 85       	ldd	r24, Y+10	; 0x0a
    4534:	9a 89       	ldd	r25, Y+18	; 0x12
    4536:	89 27       	eor	r24, r25
    4538:	8a 87       	std	Y+10, r24	; 0x0a
    453a:	24 30       	cpi	r18, 0x04	; 4
    453c:	11 f0       	breq	.+4      	; 0x4542 <__divsf3+0x62>
    453e:	22 30       	cpi	r18, 0x02	; 2
    4540:	31 f4       	brne	.+12     	; 0x454e <__divsf3+0x6e>
    4542:	23 17       	cp	r18, r19
    4544:	09 f0       	breq	.+2      	; 0x4548 <__divsf3+0x68>
    4546:	6c c0       	rjmp	.+216    	; 0x4620 <__divsf3+0x140>
    4548:	67 e5       	ldi	r22, 0x57	; 87
    454a:	74 e0       	ldi	r23, 0x04	; 4
    454c:	6c c0       	rjmp	.+216    	; 0x4626 <__divsf3+0x146>
    454e:	34 30       	cpi	r19, 0x04	; 4
    4550:	39 f4       	brne	.+14     	; 0x4560 <__divsf3+0x80>
    4552:	1d 86       	std	Y+13, r1	; 0x0d
    4554:	1e 86       	std	Y+14, r1	; 0x0e
    4556:	1f 86       	std	Y+15, r1	; 0x0f
    4558:	18 8a       	std	Y+16, r1	; 0x10
    455a:	1c 86       	std	Y+12, r1	; 0x0c
    455c:	1b 86       	std	Y+11, r1	; 0x0b
    455e:	04 c0       	rjmp	.+8      	; 0x4568 <__divsf3+0x88>
    4560:	32 30       	cpi	r19, 0x02	; 2
    4562:	21 f4       	brne	.+8      	; 0x456c <__divsf3+0x8c>
    4564:	84 e0       	ldi	r24, 0x04	; 4
    4566:	89 87       	std	Y+9, r24	; 0x09
    4568:	b7 01       	movw	r22, r14
    456a:	5d c0       	rjmp	.+186    	; 0x4626 <__divsf3+0x146>
    456c:	2b 85       	ldd	r18, Y+11	; 0x0b
    456e:	3c 85       	ldd	r19, Y+12	; 0x0c
    4570:	8b 89       	ldd	r24, Y+19	; 0x13
    4572:	9c 89       	ldd	r25, Y+20	; 0x14
    4574:	28 1b       	sub	r18, r24
    4576:	39 0b       	sbc	r19, r25
    4578:	3c 87       	std	Y+12, r19	; 0x0c
    457a:	2b 87       	std	Y+11, r18	; 0x0b
    457c:	ed 84       	ldd	r14, Y+13	; 0x0d
    457e:	fe 84       	ldd	r15, Y+14	; 0x0e
    4580:	0f 85       	ldd	r16, Y+15	; 0x0f
    4582:	18 89       	ldd	r17, Y+16	; 0x10
    4584:	ad 88       	ldd	r10, Y+21	; 0x15
    4586:	be 88       	ldd	r11, Y+22	; 0x16
    4588:	cf 88       	ldd	r12, Y+23	; 0x17
    458a:	d8 8c       	ldd	r13, Y+24	; 0x18
    458c:	ea 14       	cp	r14, r10
    458e:	fb 04       	cpc	r15, r11
    4590:	0c 05       	cpc	r16, r12
    4592:	1d 05       	cpc	r17, r13
    4594:	40 f4       	brcc	.+16     	; 0x45a6 <__divsf3+0xc6>
    4596:	ee 0c       	add	r14, r14
    4598:	ff 1c       	adc	r15, r15
    459a:	00 1f       	adc	r16, r16
    459c:	11 1f       	adc	r17, r17
    459e:	21 50       	subi	r18, 0x01	; 1
    45a0:	30 40       	sbci	r19, 0x00	; 0
    45a2:	3c 87       	std	Y+12, r19	; 0x0c
    45a4:	2b 87       	std	Y+11, r18	; 0x0b
    45a6:	20 e0       	ldi	r18, 0x00	; 0
    45a8:	30 e0       	ldi	r19, 0x00	; 0
    45aa:	40 e0       	ldi	r20, 0x00	; 0
    45ac:	50 e0       	ldi	r21, 0x00	; 0
    45ae:	80 e0       	ldi	r24, 0x00	; 0
    45b0:	90 e0       	ldi	r25, 0x00	; 0
    45b2:	a0 e0       	ldi	r26, 0x00	; 0
    45b4:	b0 e4       	ldi	r27, 0x40	; 64
    45b6:	6f e1       	ldi	r22, 0x1F	; 31
    45b8:	70 e0       	ldi	r23, 0x00	; 0
    45ba:	ea 14       	cp	r14, r10
    45bc:	fb 04       	cpc	r15, r11
    45be:	0c 05       	cpc	r16, r12
    45c0:	1d 05       	cpc	r17, r13
    45c2:	40 f0       	brcs	.+16     	; 0x45d4 <__divsf3+0xf4>
    45c4:	28 2b       	or	r18, r24
    45c6:	39 2b       	or	r19, r25
    45c8:	4a 2b       	or	r20, r26
    45ca:	5b 2b       	or	r21, r27
    45cc:	ea 18       	sub	r14, r10
    45ce:	fb 08       	sbc	r15, r11
    45d0:	0c 09       	sbc	r16, r12
    45d2:	1d 09       	sbc	r17, r13
    45d4:	b6 95       	lsr	r27
    45d6:	a7 95       	ror	r26
    45d8:	97 95       	ror	r25
    45da:	87 95       	ror	r24
    45dc:	ee 0c       	add	r14, r14
    45de:	ff 1c       	adc	r15, r15
    45e0:	00 1f       	adc	r16, r16
    45e2:	11 1f       	adc	r17, r17
    45e4:	61 50       	subi	r22, 0x01	; 1
    45e6:	70 40       	sbci	r23, 0x00	; 0
    45e8:	41 f7       	brne	.-48     	; 0x45ba <__divsf3+0xda>
    45ea:	da 01       	movw	r26, r20
    45ec:	c9 01       	movw	r24, r18
    45ee:	8f 77       	andi	r24, 0x7F	; 127
    45f0:	90 70       	andi	r25, 0x00	; 0
    45f2:	a0 70       	andi	r26, 0x00	; 0
    45f4:	b0 70       	andi	r27, 0x00	; 0
    45f6:	80 34       	cpi	r24, 0x40	; 64
    45f8:	91 05       	cpc	r25, r1
    45fa:	a1 05       	cpc	r26, r1
    45fc:	b1 05       	cpc	r27, r1
    45fe:	61 f4       	brne	.+24     	; 0x4618 <__divsf3+0x138>
    4600:	27 fd       	sbrc	r18, 7
    4602:	0a c0       	rjmp	.+20     	; 0x4618 <__divsf3+0x138>
    4604:	e1 14       	cp	r14, r1
    4606:	f1 04       	cpc	r15, r1
    4608:	01 05       	cpc	r16, r1
    460a:	11 05       	cpc	r17, r1
    460c:	29 f0       	breq	.+10     	; 0x4618 <__divsf3+0x138>
    460e:	20 5c       	subi	r18, 0xC0	; 192
    4610:	3f 4f       	sbci	r19, 0xFF	; 255
    4612:	4f 4f       	sbci	r20, 0xFF	; 255
    4614:	5f 4f       	sbci	r21, 0xFF	; 255
    4616:	20 78       	andi	r18, 0x80	; 128
    4618:	2d 87       	std	Y+13, r18	; 0x0d
    461a:	3e 87       	std	Y+14, r19	; 0x0e
    461c:	4f 87       	std	Y+15, r20	; 0x0f
    461e:	58 8b       	std	Y+16, r21	; 0x10
    4620:	be 01       	movw	r22, r28
    4622:	67 5f       	subi	r22, 0xF7	; 247
    4624:	7f 4f       	sbci	r23, 0xFF	; 255
    4626:	cb 01       	movw	r24, r22
    4628:	0e 94 ab 24 	call	0x4956	; 0x4956 <__pack_f>
    462c:	68 96       	adiw	r28, 0x18	; 24
    462e:	ea e0       	ldi	r30, 0x0A	; 10
    4630:	0c 94 b1 26 	jmp	0x4d62	; 0x4d62 <__epilogue_restores__+0x10>

00004634 <__gtsf2>:
    4634:	a8 e1       	ldi	r26, 0x18	; 24
    4636:	b0 e0       	ldi	r27, 0x00	; 0
    4638:	e0 e2       	ldi	r30, 0x20	; 32
    463a:	f3 e2       	ldi	r31, 0x23	; 35
    463c:	0c 94 99 26 	jmp	0x4d32	; 0x4d32 <__prologue_saves__+0x18>
    4640:	69 83       	std	Y+1, r22	; 0x01
    4642:	7a 83       	std	Y+2, r23	; 0x02
    4644:	8b 83       	std	Y+3, r24	; 0x03
    4646:	9c 83       	std	Y+4, r25	; 0x04
    4648:	2d 83       	std	Y+5, r18	; 0x05
    464a:	3e 83       	std	Y+6, r19	; 0x06
    464c:	4f 83       	std	Y+7, r20	; 0x07
    464e:	58 87       	std	Y+8, r21	; 0x08
    4650:	89 e0       	ldi	r24, 0x09	; 9
    4652:	e8 2e       	mov	r14, r24
    4654:	f1 2c       	mov	r15, r1
    4656:	ec 0e       	add	r14, r28
    4658:	fd 1e       	adc	r15, r29
    465a:	b7 01       	movw	r22, r14
    465c:	ce 01       	movw	r24, r28
    465e:	01 96       	adiw	r24, 0x01	; 1
    4660:	0e 94 80 25 	call	0x4b00	; 0x4b00 <__unpack_f>
    4664:	8e 01       	movw	r16, r28
    4666:	0f 5e       	subi	r16, 0xEF	; 239
    4668:	1f 4f       	sbci	r17, 0xFF	; 255
    466a:	b8 01       	movw	r22, r16
    466c:	ce 01       	movw	r24, r28
    466e:	05 96       	adiw	r24, 0x05	; 5
    4670:	0e 94 80 25 	call	0x4b00	; 0x4b00 <__unpack_f>
    4674:	89 85       	ldd	r24, Y+9	; 0x09
    4676:	82 30       	cpi	r24, 0x02	; 2
    4678:	40 f0       	brcs	.+16     	; 0x468a <__gtsf2+0x56>
    467a:	89 89       	ldd	r24, Y+17	; 0x11
    467c:	82 30       	cpi	r24, 0x02	; 2
    467e:	28 f0       	brcs	.+10     	; 0x468a <__gtsf2+0x56>
    4680:	b8 01       	movw	r22, r16
    4682:	c7 01       	movw	r24, r14
    4684:	0e 94 f8 25 	call	0x4bf0	; 0x4bf0 <__fpcmp_parts_f>
    4688:	01 c0       	rjmp	.+2      	; 0x468c <__gtsf2+0x58>
    468a:	8f ef       	ldi	r24, 0xFF	; 255
    468c:	68 96       	adiw	r28, 0x18	; 24
    468e:	e6 e0       	ldi	r30, 0x06	; 6
    4690:	0c 94 b5 26 	jmp	0x4d6a	; 0x4d6a <__epilogue_restores__+0x18>

00004694 <__gesf2>:
    4694:	a8 e1       	ldi	r26, 0x18	; 24
    4696:	b0 e0       	ldi	r27, 0x00	; 0
    4698:	e0 e5       	ldi	r30, 0x50	; 80
    469a:	f3 e2       	ldi	r31, 0x23	; 35
    469c:	0c 94 99 26 	jmp	0x4d32	; 0x4d32 <__prologue_saves__+0x18>
    46a0:	69 83       	std	Y+1, r22	; 0x01
    46a2:	7a 83       	std	Y+2, r23	; 0x02
    46a4:	8b 83       	std	Y+3, r24	; 0x03
    46a6:	9c 83       	std	Y+4, r25	; 0x04
    46a8:	2d 83       	std	Y+5, r18	; 0x05
    46aa:	3e 83       	std	Y+6, r19	; 0x06
    46ac:	4f 83       	std	Y+7, r20	; 0x07
    46ae:	58 87       	std	Y+8, r21	; 0x08
    46b0:	89 e0       	ldi	r24, 0x09	; 9
    46b2:	e8 2e       	mov	r14, r24
    46b4:	f1 2c       	mov	r15, r1
    46b6:	ec 0e       	add	r14, r28
    46b8:	fd 1e       	adc	r15, r29
    46ba:	b7 01       	movw	r22, r14
    46bc:	ce 01       	movw	r24, r28
    46be:	01 96       	adiw	r24, 0x01	; 1
    46c0:	0e 94 80 25 	call	0x4b00	; 0x4b00 <__unpack_f>
    46c4:	8e 01       	movw	r16, r28
    46c6:	0f 5e       	subi	r16, 0xEF	; 239
    46c8:	1f 4f       	sbci	r17, 0xFF	; 255
    46ca:	b8 01       	movw	r22, r16
    46cc:	ce 01       	movw	r24, r28
    46ce:	05 96       	adiw	r24, 0x05	; 5
    46d0:	0e 94 80 25 	call	0x4b00	; 0x4b00 <__unpack_f>
    46d4:	89 85       	ldd	r24, Y+9	; 0x09
    46d6:	82 30       	cpi	r24, 0x02	; 2
    46d8:	40 f0       	brcs	.+16     	; 0x46ea <__gesf2+0x56>
    46da:	89 89       	ldd	r24, Y+17	; 0x11
    46dc:	82 30       	cpi	r24, 0x02	; 2
    46de:	28 f0       	brcs	.+10     	; 0x46ea <__gesf2+0x56>
    46e0:	b8 01       	movw	r22, r16
    46e2:	c7 01       	movw	r24, r14
    46e4:	0e 94 f8 25 	call	0x4bf0	; 0x4bf0 <__fpcmp_parts_f>
    46e8:	01 c0       	rjmp	.+2      	; 0x46ec <__gesf2+0x58>
    46ea:	8f ef       	ldi	r24, 0xFF	; 255
    46ec:	68 96       	adiw	r28, 0x18	; 24
    46ee:	e6 e0       	ldi	r30, 0x06	; 6
    46f0:	0c 94 b5 26 	jmp	0x4d6a	; 0x4d6a <__epilogue_restores__+0x18>

000046f4 <__ltsf2>:
    46f4:	a8 e1       	ldi	r26, 0x18	; 24
    46f6:	b0 e0       	ldi	r27, 0x00	; 0
    46f8:	e0 e8       	ldi	r30, 0x80	; 128
    46fa:	f3 e2       	ldi	r31, 0x23	; 35
    46fc:	0c 94 99 26 	jmp	0x4d32	; 0x4d32 <__prologue_saves__+0x18>
    4700:	69 83       	std	Y+1, r22	; 0x01
    4702:	7a 83       	std	Y+2, r23	; 0x02
    4704:	8b 83       	std	Y+3, r24	; 0x03
    4706:	9c 83       	std	Y+4, r25	; 0x04
    4708:	2d 83       	std	Y+5, r18	; 0x05
    470a:	3e 83       	std	Y+6, r19	; 0x06
    470c:	4f 83       	std	Y+7, r20	; 0x07
    470e:	58 87       	std	Y+8, r21	; 0x08
    4710:	89 e0       	ldi	r24, 0x09	; 9
    4712:	e8 2e       	mov	r14, r24
    4714:	f1 2c       	mov	r15, r1
    4716:	ec 0e       	add	r14, r28
    4718:	fd 1e       	adc	r15, r29
    471a:	b7 01       	movw	r22, r14
    471c:	ce 01       	movw	r24, r28
    471e:	01 96       	adiw	r24, 0x01	; 1
    4720:	0e 94 80 25 	call	0x4b00	; 0x4b00 <__unpack_f>
    4724:	8e 01       	movw	r16, r28
    4726:	0f 5e       	subi	r16, 0xEF	; 239
    4728:	1f 4f       	sbci	r17, 0xFF	; 255
    472a:	b8 01       	movw	r22, r16
    472c:	ce 01       	movw	r24, r28
    472e:	05 96       	adiw	r24, 0x05	; 5
    4730:	0e 94 80 25 	call	0x4b00	; 0x4b00 <__unpack_f>
    4734:	89 85       	ldd	r24, Y+9	; 0x09
    4736:	82 30       	cpi	r24, 0x02	; 2
    4738:	40 f0       	brcs	.+16     	; 0x474a <__ltsf2+0x56>
    473a:	89 89       	ldd	r24, Y+17	; 0x11
    473c:	82 30       	cpi	r24, 0x02	; 2
    473e:	28 f0       	brcs	.+10     	; 0x474a <__ltsf2+0x56>
    4740:	b8 01       	movw	r22, r16
    4742:	c7 01       	movw	r24, r14
    4744:	0e 94 f8 25 	call	0x4bf0	; 0x4bf0 <__fpcmp_parts_f>
    4748:	01 c0       	rjmp	.+2      	; 0x474c <__ltsf2+0x58>
    474a:	81 e0       	ldi	r24, 0x01	; 1
    474c:	68 96       	adiw	r28, 0x18	; 24
    474e:	e6 e0       	ldi	r30, 0x06	; 6
    4750:	0c 94 b5 26 	jmp	0x4d6a	; 0x4d6a <__epilogue_restores__+0x18>

00004754 <__floatsisf>:
    4754:	a8 e0       	ldi	r26, 0x08	; 8
    4756:	b0 e0       	ldi	r27, 0x00	; 0
    4758:	e0 eb       	ldi	r30, 0xB0	; 176
    475a:	f3 e2       	ldi	r31, 0x23	; 35
    475c:	0c 94 96 26 	jmp	0x4d2c	; 0x4d2c <__prologue_saves__+0x12>
    4760:	9b 01       	movw	r18, r22
    4762:	ac 01       	movw	r20, r24
    4764:	83 e0       	ldi	r24, 0x03	; 3
    4766:	89 83       	std	Y+1, r24	; 0x01
    4768:	da 01       	movw	r26, r20
    476a:	c9 01       	movw	r24, r18
    476c:	88 27       	eor	r24, r24
    476e:	b7 fd       	sbrc	r27, 7
    4770:	83 95       	inc	r24
    4772:	99 27       	eor	r25, r25
    4774:	aa 27       	eor	r26, r26
    4776:	bb 27       	eor	r27, r27
    4778:	b8 2e       	mov	r11, r24
    477a:	21 15       	cp	r18, r1
    477c:	31 05       	cpc	r19, r1
    477e:	41 05       	cpc	r20, r1
    4780:	51 05       	cpc	r21, r1
    4782:	19 f4       	brne	.+6      	; 0x478a <__floatsisf+0x36>
    4784:	82 e0       	ldi	r24, 0x02	; 2
    4786:	89 83       	std	Y+1, r24	; 0x01
    4788:	3a c0       	rjmp	.+116    	; 0x47fe <__floatsisf+0xaa>
    478a:	88 23       	and	r24, r24
    478c:	a9 f0       	breq	.+42     	; 0x47b8 <__floatsisf+0x64>
    478e:	20 30       	cpi	r18, 0x00	; 0
    4790:	80 e0       	ldi	r24, 0x00	; 0
    4792:	38 07       	cpc	r19, r24
    4794:	80 e0       	ldi	r24, 0x00	; 0
    4796:	48 07       	cpc	r20, r24
    4798:	80 e8       	ldi	r24, 0x80	; 128
    479a:	58 07       	cpc	r21, r24
    479c:	29 f4       	brne	.+10     	; 0x47a8 <__floatsisf+0x54>
    479e:	60 e0       	ldi	r22, 0x00	; 0
    47a0:	70 e0       	ldi	r23, 0x00	; 0
    47a2:	80 e0       	ldi	r24, 0x00	; 0
    47a4:	9f ec       	ldi	r25, 0xCF	; 207
    47a6:	30 c0       	rjmp	.+96     	; 0x4808 <__floatsisf+0xb4>
    47a8:	ee 24       	eor	r14, r14
    47aa:	ff 24       	eor	r15, r15
    47ac:	87 01       	movw	r16, r14
    47ae:	e2 1a       	sub	r14, r18
    47b0:	f3 0a       	sbc	r15, r19
    47b2:	04 0b       	sbc	r16, r20
    47b4:	15 0b       	sbc	r17, r21
    47b6:	02 c0       	rjmp	.+4      	; 0x47bc <__floatsisf+0x68>
    47b8:	79 01       	movw	r14, r18
    47ba:	8a 01       	movw	r16, r20
    47bc:	8e e1       	ldi	r24, 0x1E	; 30
    47be:	c8 2e       	mov	r12, r24
    47c0:	d1 2c       	mov	r13, r1
    47c2:	dc 82       	std	Y+4, r13	; 0x04
    47c4:	cb 82       	std	Y+3, r12	; 0x03
    47c6:	ed 82       	std	Y+5, r14	; 0x05
    47c8:	fe 82       	std	Y+6, r15	; 0x06
    47ca:	0f 83       	std	Y+7, r16	; 0x07
    47cc:	18 87       	std	Y+8, r17	; 0x08
    47ce:	c8 01       	movw	r24, r16
    47d0:	b7 01       	movw	r22, r14
    47d2:	0e 94 5c 24 	call	0x48b8	; 0x48b8 <__clzsi2>
    47d6:	01 97       	sbiw	r24, 0x01	; 1
    47d8:	18 16       	cp	r1, r24
    47da:	19 06       	cpc	r1, r25
    47dc:	84 f4       	brge	.+32     	; 0x47fe <__floatsisf+0xaa>
    47de:	08 2e       	mov	r0, r24
    47e0:	04 c0       	rjmp	.+8      	; 0x47ea <__floatsisf+0x96>
    47e2:	ee 0c       	add	r14, r14
    47e4:	ff 1c       	adc	r15, r15
    47e6:	00 1f       	adc	r16, r16
    47e8:	11 1f       	adc	r17, r17
    47ea:	0a 94       	dec	r0
    47ec:	d2 f7       	brpl	.-12     	; 0x47e2 <__floatsisf+0x8e>
    47ee:	ed 82       	std	Y+5, r14	; 0x05
    47f0:	fe 82       	std	Y+6, r15	; 0x06
    47f2:	0f 83       	std	Y+7, r16	; 0x07
    47f4:	18 87       	std	Y+8, r17	; 0x08
    47f6:	c8 1a       	sub	r12, r24
    47f8:	d9 0a       	sbc	r13, r25
    47fa:	dc 82       	std	Y+4, r13	; 0x04
    47fc:	cb 82       	std	Y+3, r12	; 0x03
    47fe:	ba 82       	std	Y+2, r11	; 0x02
    4800:	ce 01       	movw	r24, r28
    4802:	01 96       	adiw	r24, 0x01	; 1
    4804:	0e 94 ab 24 	call	0x4956	; 0x4956 <__pack_f>
    4808:	28 96       	adiw	r28, 0x08	; 8
    480a:	e9 e0       	ldi	r30, 0x09	; 9
    480c:	0c 94 b2 26 	jmp	0x4d64	; 0x4d64 <__epilogue_restores__+0x12>

00004810 <__fixsfsi>:
    4810:	ac e0       	ldi	r26, 0x0C	; 12
    4812:	b0 e0       	ldi	r27, 0x00	; 0
    4814:	ee e0       	ldi	r30, 0x0E	; 14
    4816:	f4 e2       	ldi	r31, 0x24	; 36
    4818:	0c 94 9d 26 	jmp	0x4d3a	; 0x4d3a <__prologue_saves__+0x20>
    481c:	69 83       	std	Y+1, r22	; 0x01
    481e:	7a 83       	std	Y+2, r23	; 0x02
    4820:	8b 83       	std	Y+3, r24	; 0x03
    4822:	9c 83       	std	Y+4, r25	; 0x04
    4824:	be 01       	movw	r22, r28
    4826:	6b 5f       	subi	r22, 0xFB	; 251
    4828:	7f 4f       	sbci	r23, 0xFF	; 255
    482a:	ce 01       	movw	r24, r28
    482c:	01 96       	adiw	r24, 0x01	; 1
    482e:	0e 94 80 25 	call	0x4b00	; 0x4b00 <__unpack_f>
    4832:	8d 81       	ldd	r24, Y+5	; 0x05
    4834:	82 30       	cpi	r24, 0x02	; 2
    4836:	61 f1       	breq	.+88     	; 0x4890 <__fixsfsi+0x80>
    4838:	82 30       	cpi	r24, 0x02	; 2
    483a:	50 f1       	brcs	.+84     	; 0x4890 <__fixsfsi+0x80>
    483c:	84 30       	cpi	r24, 0x04	; 4
    483e:	21 f4       	brne	.+8      	; 0x4848 <__fixsfsi+0x38>
    4840:	8e 81       	ldd	r24, Y+6	; 0x06
    4842:	88 23       	and	r24, r24
    4844:	51 f1       	breq	.+84     	; 0x489a <__fixsfsi+0x8a>
    4846:	2e c0       	rjmp	.+92     	; 0x48a4 <__fixsfsi+0x94>
    4848:	2f 81       	ldd	r18, Y+7	; 0x07
    484a:	38 85       	ldd	r19, Y+8	; 0x08
    484c:	37 fd       	sbrc	r19, 7
    484e:	20 c0       	rjmp	.+64     	; 0x4890 <__fixsfsi+0x80>
    4850:	6e 81       	ldd	r22, Y+6	; 0x06
    4852:	2f 31       	cpi	r18, 0x1F	; 31
    4854:	31 05       	cpc	r19, r1
    4856:	1c f0       	brlt	.+6      	; 0x485e <__fixsfsi+0x4e>
    4858:	66 23       	and	r22, r22
    485a:	f9 f0       	breq	.+62     	; 0x489a <__fixsfsi+0x8a>
    485c:	23 c0       	rjmp	.+70     	; 0x48a4 <__fixsfsi+0x94>
    485e:	8e e1       	ldi	r24, 0x1E	; 30
    4860:	90 e0       	ldi	r25, 0x00	; 0
    4862:	82 1b       	sub	r24, r18
    4864:	93 0b       	sbc	r25, r19
    4866:	29 85       	ldd	r18, Y+9	; 0x09
    4868:	3a 85       	ldd	r19, Y+10	; 0x0a
    486a:	4b 85       	ldd	r20, Y+11	; 0x0b
    486c:	5c 85       	ldd	r21, Y+12	; 0x0c
    486e:	04 c0       	rjmp	.+8      	; 0x4878 <__fixsfsi+0x68>
    4870:	56 95       	lsr	r21
    4872:	47 95       	ror	r20
    4874:	37 95       	ror	r19
    4876:	27 95       	ror	r18
    4878:	8a 95       	dec	r24
    487a:	d2 f7       	brpl	.-12     	; 0x4870 <__fixsfsi+0x60>
    487c:	66 23       	and	r22, r22
    487e:	b1 f0       	breq	.+44     	; 0x48ac <__fixsfsi+0x9c>
    4880:	50 95       	com	r21
    4882:	40 95       	com	r20
    4884:	30 95       	com	r19
    4886:	21 95       	neg	r18
    4888:	3f 4f       	sbci	r19, 0xFF	; 255
    488a:	4f 4f       	sbci	r20, 0xFF	; 255
    488c:	5f 4f       	sbci	r21, 0xFF	; 255
    488e:	0e c0       	rjmp	.+28     	; 0x48ac <__fixsfsi+0x9c>
    4890:	20 e0       	ldi	r18, 0x00	; 0
    4892:	30 e0       	ldi	r19, 0x00	; 0
    4894:	40 e0       	ldi	r20, 0x00	; 0
    4896:	50 e0       	ldi	r21, 0x00	; 0
    4898:	09 c0       	rjmp	.+18     	; 0x48ac <__fixsfsi+0x9c>
    489a:	2f ef       	ldi	r18, 0xFF	; 255
    489c:	3f ef       	ldi	r19, 0xFF	; 255
    489e:	4f ef       	ldi	r20, 0xFF	; 255
    48a0:	5f e7       	ldi	r21, 0x7F	; 127
    48a2:	04 c0       	rjmp	.+8      	; 0x48ac <__fixsfsi+0x9c>
    48a4:	20 e0       	ldi	r18, 0x00	; 0
    48a6:	30 e0       	ldi	r19, 0x00	; 0
    48a8:	40 e0       	ldi	r20, 0x00	; 0
    48aa:	50 e8       	ldi	r21, 0x80	; 128
    48ac:	b9 01       	movw	r22, r18
    48ae:	ca 01       	movw	r24, r20
    48b0:	2c 96       	adiw	r28, 0x0c	; 12
    48b2:	e2 e0       	ldi	r30, 0x02	; 2
    48b4:	0c 94 b9 26 	jmp	0x4d72	; 0x4d72 <__epilogue_restores__+0x20>

000048b8 <__clzsi2>:
    48b8:	ef 92       	push	r14
    48ba:	ff 92       	push	r15
    48bc:	0f 93       	push	r16
    48be:	1f 93       	push	r17
    48c0:	7b 01       	movw	r14, r22
    48c2:	8c 01       	movw	r16, r24
    48c4:	80 e0       	ldi	r24, 0x00	; 0
    48c6:	e8 16       	cp	r14, r24
    48c8:	80 e0       	ldi	r24, 0x00	; 0
    48ca:	f8 06       	cpc	r15, r24
    48cc:	81 e0       	ldi	r24, 0x01	; 1
    48ce:	08 07       	cpc	r16, r24
    48d0:	80 e0       	ldi	r24, 0x00	; 0
    48d2:	18 07       	cpc	r17, r24
    48d4:	88 f4       	brcc	.+34     	; 0x48f8 <__clzsi2+0x40>
    48d6:	8f ef       	ldi	r24, 0xFF	; 255
    48d8:	e8 16       	cp	r14, r24
    48da:	f1 04       	cpc	r15, r1
    48dc:	01 05       	cpc	r16, r1
    48de:	11 05       	cpc	r17, r1
    48e0:	31 f0       	breq	.+12     	; 0x48ee <__clzsi2+0x36>
    48e2:	28 f0       	brcs	.+10     	; 0x48ee <__clzsi2+0x36>
    48e4:	88 e0       	ldi	r24, 0x08	; 8
    48e6:	90 e0       	ldi	r25, 0x00	; 0
    48e8:	a0 e0       	ldi	r26, 0x00	; 0
    48ea:	b0 e0       	ldi	r27, 0x00	; 0
    48ec:	17 c0       	rjmp	.+46     	; 0x491c <__clzsi2+0x64>
    48ee:	80 e0       	ldi	r24, 0x00	; 0
    48f0:	90 e0       	ldi	r25, 0x00	; 0
    48f2:	a0 e0       	ldi	r26, 0x00	; 0
    48f4:	b0 e0       	ldi	r27, 0x00	; 0
    48f6:	12 c0       	rjmp	.+36     	; 0x491c <__clzsi2+0x64>
    48f8:	80 e0       	ldi	r24, 0x00	; 0
    48fa:	e8 16       	cp	r14, r24
    48fc:	80 e0       	ldi	r24, 0x00	; 0
    48fe:	f8 06       	cpc	r15, r24
    4900:	80 e0       	ldi	r24, 0x00	; 0
    4902:	08 07       	cpc	r16, r24
    4904:	81 e0       	ldi	r24, 0x01	; 1
    4906:	18 07       	cpc	r17, r24
    4908:	28 f0       	brcs	.+10     	; 0x4914 <__clzsi2+0x5c>
    490a:	88 e1       	ldi	r24, 0x18	; 24
    490c:	90 e0       	ldi	r25, 0x00	; 0
    490e:	a0 e0       	ldi	r26, 0x00	; 0
    4910:	b0 e0       	ldi	r27, 0x00	; 0
    4912:	04 c0       	rjmp	.+8      	; 0x491c <__clzsi2+0x64>
    4914:	80 e1       	ldi	r24, 0x10	; 16
    4916:	90 e0       	ldi	r25, 0x00	; 0
    4918:	a0 e0       	ldi	r26, 0x00	; 0
    491a:	b0 e0       	ldi	r27, 0x00	; 0
    491c:	20 e2       	ldi	r18, 0x20	; 32
    491e:	30 e0       	ldi	r19, 0x00	; 0
    4920:	40 e0       	ldi	r20, 0x00	; 0
    4922:	50 e0       	ldi	r21, 0x00	; 0
    4924:	28 1b       	sub	r18, r24
    4926:	39 0b       	sbc	r19, r25
    4928:	4a 0b       	sbc	r20, r26
    492a:	5b 0b       	sbc	r21, r27
    492c:	04 c0       	rjmp	.+8      	; 0x4936 <__clzsi2+0x7e>
    492e:	16 95       	lsr	r17
    4930:	07 95       	ror	r16
    4932:	f7 94       	ror	r15
    4934:	e7 94       	ror	r14
    4936:	8a 95       	dec	r24
    4938:	d2 f7       	brpl	.-12     	; 0x492e <__clzsi2+0x76>
    493a:	f7 01       	movw	r30, r14
    493c:	e1 5a       	subi	r30, 0xA1	; 161
    493e:	fb 4f       	sbci	r31, 0xFB	; 251
    4940:	80 81       	ld	r24, Z
    4942:	28 1b       	sub	r18, r24
    4944:	31 09       	sbc	r19, r1
    4946:	41 09       	sbc	r20, r1
    4948:	51 09       	sbc	r21, r1
    494a:	c9 01       	movw	r24, r18
    494c:	1f 91       	pop	r17
    494e:	0f 91       	pop	r16
    4950:	ff 90       	pop	r15
    4952:	ef 90       	pop	r14
    4954:	08 95       	ret

00004956 <__pack_f>:
    4956:	df 92       	push	r13
    4958:	ef 92       	push	r14
    495a:	ff 92       	push	r15
    495c:	0f 93       	push	r16
    495e:	1f 93       	push	r17
    4960:	fc 01       	movw	r30, r24
    4962:	e4 80       	ldd	r14, Z+4	; 0x04
    4964:	f5 80       	ldd	r15, Z+5	; 0x05
    4966:	06 81       	ldd	r16, Z+6	; 0x06
    4968:	17 81       	ldd	r17, Z+7	; 0x07
    496a:	d1 80       	ldd	r13, Z+1	; 0x01
    496c:	80 81       	ld	r24, Z
    496e:	82 30       	cpi	r24, 0x02	; 2
    4970:	48 f4       	brcc	.+18     	; 0x4984 <__pack_f+0x2e>
    4972:	80 e0       	ldi	r24, 0x00	; 0
    4974:	90 e0       	ldi	r25, 0x00	; 0
    4976:	a0 e1       	ldi	r26, 0x10	; 16
    4978:	b0 e0       	ldi	r27, 0x00	; 0
    497a:	e8 2a       	or	r14, r24
    497c:	f9 2a       	or	r15, r25
    497e:	0a 2b       	or	r16, r26
    4980:	1b 2b       	or	r17, r27
    4982:	a5 c0       	rjmp	.+330    	; 0x4ace <__pack_f+0x178>
    4984:	84 30       	cpi	r24, 0x04	; 4
    4986:	09 f4       	brne	.+2      	; 0x498a <__pack_f+0x34>
    4988:	9f c0       	rjmp	.+318    	; 0x4ac8 <__pack_f+0x172>
    498a:	82 30       	cpi	r24, 0x02	; 2
    498c:	21 f4       	brne	.+8      	; 0x4996 <__pack_f+0x40>
    498e:	ee 24       	eor	r14, r14
    4990:	ff 24       	eor	r15, r15
    4992:	87 01       	movw	r16, r14
    4994:	05 c0       	rjmp	.+10     	; 0x49a0 <__pack_f+0x4a>
    4996:	e1 14       	cp	r14, r1
    4998:	f1 04       	cpc	r15, r1
    499a:	01 05       	cpc	r16, r1
    499c:	11 05       	cpc	r17, r1
    499e:	19 f4       	brne	.+6      	; 0x49a6 <__pack_f+0x50>
    49a0:	e0 e0       	ldi	r30, 0x00	; 0
    49a2:	f0 e0       	ldi	r31, 0x00	; 0
    49a4:	96 c0       	rjmp	.+300    	; 0x4ad2 <__pack_f+0x17c>
    49a6:	62 81       	ldd	r22, Z+2	; 0x02
    49a8:	73 81       	ldd	r23, Z+3	; 0x03
    49aa:	9f ef       	ldi	r25, 0xFF	; 255
    49ac:	62 38       	cpi	r22, 0x82	; 130
    49ae:	79 07       	cpc	r23, r25
    49b0:	0c f0       	brlt	.+2      	; 0x49b4 <__pack_f+0x5e>
    49b2:	5b c0       	rjmp	.+182    	; 0x4a6a <__pack_f+0x114>
    49b4:	22 e8       	ldi	r18, 0x82	; 130
    49b6:	3f ef       	ldi	r19, 0xFF	; 255
    49b8:	26 1b       	sub	r18, r22
    49ba:	37 0b       	sbc	r19, r23
    49bc:	2a 31       	cpi	r18, 0x1A	; 26
    49be:	31 05       	cpc	r19, r1
    49c0:	2c f0       	brlt	.+10     	; 0x49cc <__pack_f+0x76>
    49c2:	20 e0       	ldi	r18, 0x00	; 0
    49c4:	30 e0       	ldi	r19, 0x00	; 0
    49c6:	40 e0       	ldi	r20, 0x00	; 0
    49c8:	50 e0       	ldi	r21, 0x00	; 0
    49ca:	2a c0       	rjmp	.+84     	; 0x4a20 <__pack_f+0xca>
    49cc:	b8 01       	movw	r22, r16
    49ce:	a7 01       	movw	r20, r14
    49d0:	02 2e       	mov	r0, r18
    49d2:	04 c0       	rjmp	.+8      	; 0x49dc <__pack_f+0x86>
    49d4:	76 95       	lsr	r23
    49d6:	67 95       	ror	r22
    49d8:	57 95       	ror	r21
    49da:	47 95       	ror	r20
    49dc:	0a 94       	dec	r0
    49de:	d2 f7       	brpl	.-12     	; 0x49d4 <__pack_f+0x7e>
    49e0:	81 e0       	ldi	r24, 0x01	; 1
    49e2:	90 e0       	ldi	r25, 0x00	; 0
    49e4:	a0 e0       	ldi	r26, 0x00	; 0
    49e6:	b0 e0       	ldi	r27, 0x00	; 0
    49e8:	04 c0       	rjmp	.+8      	; 0x49f2 <__pack_f+0x9c>
    49ea:	88 0f       	add	r24, r24
    49ec:	99 1f       	adc	r25, r25
    49ee:	aa 1f       	adc	r26, r26
    49f0:	bb 1f       	adc	r27, r27
    49f2:	2a 95       	dec	r18
    49f4:	d2 f7       	brpl	.-12     	; 0x49ea <__pack_f+0x94>
    49f6:	01 97       	sbiw	r24, 0x01	; 1
    49f8:	a1 09       	sbc	r26, r1
    49fa:	b1 09       	sbc	r27, r1
    49fc:	8e 21       	and	r24, r14
    49fe:	9f 21       	and	r25, r15
    4a00:	a0 23       	and	r26, r16
    4a02:	b1 23       	and	r27, r17
    4a04:	00 97       	sbiw	r24, 0x00	; 0
    4a06:	a1 05       	cpc	r26, r1
    4a08:	b1 05       	cpc	r27, r1
    4a0a:	21 f0       	breq	.+8      	; 0x4a14 <__pack_f+0xbe>
    4a0c:	81 e0       	ldi	r24, 0x01	; 1
    4a0e:	90 e0       	ldi	r25, 0x00	; 0
    4a10:	a0 e0       	ldi	r26, 0x00	; 0
    4a12:	b0 e0       	ldi	r27, 0x00	; 0
    4a14:	9a 01       	movw	r18, r20
    4a16:	ab 01       	movw	r20, r22
    4a18:	28 2b       	or	r18, r24
    4a1a:	39 2b       	or	r19, r25
    4a1c:	4a 2b       	or	r20, r26
    4a1e:	5b 2b       	or	r21, r27
    4a20:	da 01       	movw	r26, r20
    4a22:	c9 01       	movw	r24, r18
    4a24:	8f 77       	andi	r24, 0x7F	; 127
    4a26:	90 70       	andi	r25, 0x00	; 0
    4a28:	a0 70       	andi	r26, 0x00	; 0
    4a2a:	b0 70       	andi	r27, 0x00	; 0
    4a2c:	80 34       	cpi	r24, 0x40	; 64
    4a2e:	91 05       	cpc	r25, r1
    4a30:	a1 05       	cpc	r26, r1
    4a32:	b1 05       	cpc	r27, r1
    4a34:	39 f4       	brne	.+14     	; 0x4a44 <__pack_f+0xee>
    4a36:	27 ff       	sbrs	r18, 7
    4a38:	09 c0       	rjmp	.+18     	; 0x4a4c <__pack_f+0xf6>
    4a3a:	20 5c       	subi	r18, 0xC0	; 192
    4a3c:	3f 4f       	sbci	r19, 0xFF	; 255
    4a3e:	4f 4f       	sbci	r20, 0xFF	; 255
    4a40:	5f 4f       	sbci	r21, 0xFF	; 255
    4a42:	04 c0       	rjmp	.+8      	; 0x4a4c <__pack_f+0xf6>
    4a44:	21 5c       	subi	r18, 0xC1	; 193
    4a46:	3f 4f       	sbci	r19, 0xFF	; 255
    4a48:	4f 4f       	sbci	r20, 0xFF	; 255
    4a4a:	5f 4f       	sbci	r21, 0xFF	; 255
    4a4c:	e0 e0       	ldi	r30, 0x00	; 0
    4a4e:	f0 e0       	ldi	r31, 0x00	; 0
    4a50:	20 30       	cpi	r18, 0x00	; 0
    4a52:	a0 e0       	ldi	r26, 0x00	; 0
    4a54:	3a 07       	cpc	r19, r26
    4a56:	a0 e0       	ldi	r26, 0x00	; 0
    4a58:	4a 07       	cpc	r20, r26
    4a5a:	a0 e4       	ldi	r26, 0x40	; 64
    4a5c:	5a 07       	cpc	r21, r26
    4a5e:	10 f0       	brcs	.+4      	; 0x4a64 <__pack_f+0x10e>
    4a60:	e1 e0       	ldi	r30, 0x01	; 1
    4a62:	f0 e0       	ldi	r31, 0x00	; 0
    4a64:	79 01       	movw	r14, r18
    4a66:	8a 01       	movw	r16, r20
    4a68:	27 c0       	rjmp	.+78     	; 0x4ab8 <__pack_f+0x162>
    4a6a:	60 38       	cpi	r22, 0x80	; 128
    4a6c:	71 05       	cpc	r23, r1
    4a6e:	64 f5       	brge	.+88     	; 0x4ac8 <__pack_f+0x172>
    4a70:	fb 01       	movw	r30, r22
    4a72:	e1 58       	subi	r30, 0x81	; 129
    4a74:	ff 4f       	sbci	r31, 0xFF	; 255
    4a76:	d8 01       	movw	r26, r16
    4a78:	c7 01       	movw	r24, r14
    4a7a:	8f 77       	andi	r24, 0x7F	; 127
    4a7c:	90 70       	andi	r25, 0x00	; 0
    4a7e:	a0 70       	andi	r26, 0x00	; 0
    4a80:	b0 70       	andi	r27, 0x00	; 0
    4a82:	80 34       	cpi	r24, 0x40	; 64
    4a84:	91 05       	cpc	r25, r1
    4a86:	a1 05       	cpc	r26, r1
    4a88:	b1 05       	cpc	r27, r1
    4a8a:	39 f4       	brne	.+14     	; 0x4a9a <__pack_f+0x144>
    4a8c:	e7 fe       	sbrs	r14, 7
    4a8e:	0d c0       	rjmp	.+26     	; 0x4aaa <__pack_f+0x154>
    4a90:	80 e4       	ldi	r24, 0x40	; 64
    4a92:	90 e0       	ldi	r25, 0x00	; 0
    4a94:	a0 e0       	ldi	r26, 0x00	; 0
    4a96:	b0 e0       	ldi	r27, 0x00	; 0
    4a98:	04 c0       	rjmp	.+8      	; 0x4aa2 <__pack_f+0x14c>
    4a9a:	8f e3       	ldi	r24, 0x3F	; 63
    4a9c:	90 e0       	ldi	r25, 0x00	; 0
    4a9e:	a0 e0       	ldi	r26, 0x00	; 0
    4aa0:	b0 e0       	ldi	r27, 0x00	; 0
    4aa2:	e8 0e       	add	r14, r24
    4aa4:	f9 1e       	adc	r15, r25
    4aa6:	0a 1f       	adc	r16, r26
    4aa8:	1b 1f       	adc	r17, r27
    4aaa:	17 ff       	sbrs	r17, 7
    4aac:	05 c0       	rjmp	.+10     	; 0x4ab8 <__pack_f+0x162>
    4aae:	16 95       	lsr	r17
    4ab0:	07 95       	ror	r16
    4ab2:	f7 94       	ror	r15
    4ab4:	e7 94       	ror	r14
    4ab6:	31 96       	adiw	r30, 0x01	; 1
    4ab8:	87 e0       	ldi	r24, 0x07	; 7
    4aba:	16 95       	lsr	r17
    4abc:	07 95       	ror	r16
    4abe:	f7 94       	ror	r15
    4ac0:	e7 94       	ror	r14
    4ac2:	8a 95       	dec	r24
    4ac4:	d1 f7       	brne	.-12     	; 0x4aba <__pack_f+0x164>
    4ac6:	05 c0       	rjmp	.+10     	; 0x4ad2 <__pack_f+0x17c>
    4ac8:	ee 24       	eor	r14, r14
    4aca:	ff 24       	eor	r15, r15
    4acc:	87 01       	movw	r16, r14
    4ace:	ef ef       	ldi	r30, 0xFF	; 255
    4ad0:	f0 e0       	ldi	r31, 0x00	; 0
    4ad2:	6e 2f       	mov	r22, r30
    4ad4:	67 95       	ror	r22
    4ad6:	66 27       	eor	r22, r22
    4ad8:	67 95       	ror	r22
    4ada:	90 2f       	mov	r25, r16
    4adc:	9f 77       	andi	r25, 0x7F	; 127
    4ade:	d7 94       	ror	r13
    4ae0:	dd 24       	eor	r13, r13
    4ae2:	d7 94       	ror	r13
    4ae4:	8e 2f       	mov	r24, r30
    4ae6:	86 95       	lsr	r24
    4ae8:	49 2f       	mov	r20, r25
    4aea:	46 2b       	or	r20, r22
    4aec:	58 2f       	mov	r21, r24
    4aee:	5d 29       	or	r21, r13
    4af0:	b7 01       	movw	r22, r14
    4af2:	ca 01       	movw	r24, r20
    4af4:	1f 91       	pop	r17
    4af6:	0f 91       	pop	r16
    4af8:	ff 90       	pop	r15
    4afa:	ef 90       	pop	r14
    4afc:	df 90       	pop	r13
    4afe:	08 95       	ret

00004b00 <__unpack_f>:
    4b00:	fc 01       	movw	r30, r24
    4b02:	db 01       	movw	r26, r22
    4b04:	40 81       	ld	r20, Z
    4b06:	51 81       	ldd	r21, Z+1	; 0x01
    4b08:	22 81       	ldd	r18, Z+2	; 0x02
    4b0a:	62 2f       	mov	r22, r18
    4b0c:	6f 77       	andi	r22, 0x7F	; 127
    4b0e:	70 e0       	ldi	r23, 0x00	; 0
    4b10:	22 1f       	adc	r18, r18
    4b12:	22 27       	eor	r18, r18
    4b14:	22 1f       	adc	r18, r18
    4b16:	93 81       	ldd	r25, Z+3	; 0x03
    4b18:	89 2f       	mov	r24, r25
    4b1a:	88 0f       	add	r24, r24
    4b1c:	82 2b       	or	r24, r18
    4b1e:	28 2f       	mov	r18, r24
    4b20:	30 e0       	ldi	r19, 0x00	; 0
    4b22:	99 1f       	adc	r25, r25
    4b24:	99 27       	eor	r25, r25
    4b26:	99 1f       	adc	r25, r25
    4b28:	11 96       	adiw	r26, 0x01	; 1
    4b2a:	9c 93       	st	X, r25
    4b2c:	11 97       	sbiw	r26, 0x01	; 1
    4b2e:	21 15       	cp	r18, r1
    4b30:	31 05       	cpc	r19, r1
    4b32:	a9 f5       	brne	.+106    	; 0x4b9e <__unpack_f+0x9e>
    4b34:	41 15       	cp	r20, r1
    4b36:	51 05       	cpc	r21, r1
    4b38:	61 05       	cpc	r22, r1
    4b3a:	71 05       	cpc	r23, r1
    4b3c:	11 f4       	brne	.+4      	; 0x4b42 <__unpack_f+0x42>
    4b3e:	82 e0       	ldi	r24, 0x02	; 2
    4b40:	37 c0       	rjmp	.+110    	; 0x4bb0 <__unpack_f+0xb0>
    4b42:	82 e8       	ldi	r24, 0x82	; 130
    4b44:	9f ef       	ldi	r25, 0xFF	; 255
    4b46:	13 96       	adiw	r26, 0x03	; 3
    4b48:	9c 93       	st	X, r25
    4b4a:	8e 93       	st	-X, r24
    4b4c:	12 97       	sbiw	r26, 0x02	; 2
    4b4e:	9a 01       	movw	r18, r20
    4b50:	ab 01       	movw	r20, r22
    4b52:	67 e0       	ldi	r22, 0x07	; 7
    4b54:	22 0f       	add	r18, r18
    4b56:	33 1f       	adc	r19, r19
    4b58:	44 1f       	adc	r20, r20
    4b5a:	55 1f       	adc	r21, r21
    4b5c:	6a 95       	dec	r22
    4b5e:	d1 f7       	brne	.-12     	; 0x4b54 <__unpack_f+0x54>
    4b60:	83 e0       	ldi	r24, 0x03	; 3
    4b62:	8c 93       	st	X, r24
    4b64:	0d c0       	rjmp	.+26     	; 0x4b80 <__unpack_f+0x80>
    4b66:	22 0f       	add	r18, r18
    4b68:	33 1f       	adc	r19, r19
    4b6a:	44 1f       	adc	r20, r20
    4b6c:	55 1f       	adc	r21, r21
    4b6e:	12 96       	adiw	r26, 0x02	; 2
    4b70:	8d 91       	ld	r24, X+
    4b72:	9c 91       	ld	r25, X
    4b74:	13 97       	sbiw	r26, 0x03	; 3
    4b76:	01 97       	sbiw	r24, 0x01	; 1
    4b78:	13 96       	adiw	r26, 0x03	; 3
    4b7a:	9c 93       	st	X, r25
    4b7c:	8e 93       	st	-X, r24
    4b7e:	12 97       	sbiw	r26, 0x02	; 2
    4b80:	20 30       	cpi	r18, 0x00	; 0
    4b82:	80 e0       	ldi	r24, 0x00	; 0
    4b84:	38 07       	cpc	r19, r24
    4b86:	80 e0       	ldi	r24, 0x00	; 0
    4b88:	48 07       	cpc	r20, r24
    4b8a:	80 e4       	ldi	r24, 0x40	; 64
    4b8c:	58 07       	cpc	r21, r24
    4b8e:	58 f3       	brcs	.-42     	; 0x4b66 <__unpack_f+0x66>
    4b90:	14 96       	adiw	r26, 0x04	; 4
    4b92:	2d 93       	st	X+, r18
    4b94:	3d 93       	st	X+, r19
    4b96:	4d 93       	st	X+, r20
    4b98:	5c 93       	st	X, r21
    4b9a:	17 97       	sbiw	r26, 0x07	; 7
    4b9c:	08 95       	ret
    4b9e:	2f 3f       	cpi	r18, 0xFF	; 255
    4ba0:	31 05       	cpc	r19, r1
    4ba2:	79 f4       	brne	.+30     	; 0x4bc2 <__unpack_f+0xc2>
    4ba4:	41 15       	cp	r20, r1
    4ba6:	51 05       	cpc	r21, r1
    4ba8:	61 05       	cpc	r22, r1
    4baa:	71 05       	cpc	r23, r1
    4bac:	19 f4       	brne	.+6      	; 0x4bb4 <__unpack_f+0xb4>
    4bae:	84 e0       	ldi	r24, 0x04	; 4
    4bb0:	8c 93       	st	X, r24
    4bb2:	08 95       	ret
    4bb4:	64 ff       	sbrs	r22, 4
    4bb6:	03 c0       	rjmp	.+6      	; 0x4bbe <__unpack_f+0xbe>
    4bb8:	81 e0       	ldi	r24, 0x01	; 1
    4bba:	8c 93       	st	X, r24
    4bbc:	12 c0       	rjmp	.+36     	; 0x4be2 <__unpack_f+0xe2>
    4bbe:	1c 92       	st	X, r1
    4bc0:	10 c0       	rjmp	.+32     	; 0x4be2 <__unpack_f+0xe2>
    4bc2:	2f 57       	subi	r18, 0x7F	; 127
    4bc4:	30 40       	sbci	r19, 0x00	; 0
    4bc6:	13 96       	adiw	r26, 0x03	; 3
    4bc8:	3c 93       	st	X, r19
    4bca:	2e 93       	st	-X, r18
    4bcc:	12 97       	sbiw	r26, 0x02	; 2
    4bce:	83 e0       	ldi	r24, 0x03	; 3
    4bd0:	8c 93       	st	X, r24
    4bd2:	87 e0       	ldi	r24, 0x07	; 7
    4bd4:	44 0f       	add	r20, r20
    4bd6:	55 1f       	adc	r21, r21
    4bd8:	66 1f       	adc	r22, r22
    4bda:	77 1f       	adc	r23, r23
    4bdc:	8a 95       	dec	r24
    4bde:	d1 f7       	brne	.-12     	; 0x4bd4 <__unpack_f+0xd4>
    4be0:	70 64       	ori	r23, 0x40	; 64
    4be2:	14 96       	adiw	r26, 0x04	; 4
    4be4:	4d 93       	st	X+, r20
    4be6:	5d 93       	st	X+, r21
    4be8:	6d 93       	st	X+, r22
    4bea:	7c 93       	st	X, r23
    4bec:	17 97       	sbiw	r26, 0x07	; 7
    4bee:	08 95       	ret

00004bf0 <__fpcmp_parts_f>:
    4bf0:	1f 93       	push	r17
    4bf2:	dc 01       	movw	r26, r24
    4bf4:	fb 01       	movw	r30, r22
    4bf6:	9c 91       	ld	r25, X
    4bf8:	92 30       	cpi	r25, 0x02	; 2
    4bfa:	08 f4       	brcc	.+2      	; 0x4bfe <__fpcmp_parts_f+0xe>
    4bfc:	47 c0       	rjmp	.+142    	; 0x4c8c <__fpcmp_parts_f+0x9c>
    4bfe:	80 81       	ld	r24, Z
    4c00:	82 30       	cpi	r24, 0x02	; 2
    4c02:	08 f4       	brcc	.+2      	; 0x4c06 <__fpcmp_parts_f+0x16>
    4c04:	43 c0       	rjmp	.+134    	; 0x4c8c <__fpcmp_parts_f+0x9c>
    4c06:	94 30       	cpi	r25, 0x04	; 4
    4c08:	51 f4       	brne	.+20     	; 0x4c1e <__fpcmp_parts_f+0x2e>
    4c0a:	11 96       	adiw	r26, 0x01	; 1
    4c0c:	1c 91       	ld	r17, X
    4c0e:	84 30       	cpi	r24, 0x04	; 4
    4c10:	99 f5       	brne	.+102    	; 0x4c78 <__fpcmp_parts_f+0x88>
    4c12:	81 81       	ldd	r24, Z+1	; 0x01
    4c14:	68 2f       	mov	r22, r24
    4c16:	70 e0       	ldi	r23, 0x00	; 0
    4c18:	61 1b       	sub	r22, r17
    4c1a:	71 09       	sbc	r23, r1
    4c1c:	3f c0       	rjmp	.+126    	; 0x4c9c <__fpcmp_parts_f+0xac>
    4c1e:	84 30       	cpi	r24, 0x04	; 4
    4c20:	21 f0       	breq	.+8      	; 0x4c2a <__fpcmp_parts_f+0x3a>
    4c22:	92 30       	cpi	r25, 0x02	; 2
    4c24:	31 f4       	brne	.+12     	; 0x4c32 <__fpcmp_parts_f+0x42>
    4c26:	82 30       	cpi	r24, 0x02	; 2
    4c28:	b9 f1       	breq	.+110    	; 0x4c98 <__fpcmp_parts_f+0xa8>
    4c2a:	81 81       	ldd	r24, Z+1	; 0x01
    4c2c:	88 23       	and	r24, r24
    4c2e:	89 f1       	breq	.+98     	; 0x4c92 <__fpcmp_parts_f+0xa2>
    4c30:	2d c0       	rjmp	.+90     	; 0x4c8c <__fpcmp_parts_f+0x9c>
    4c32:	11 96       	adiw	r26, 0x01	; 1
    4c34:	1c 91       	ld	r17, X
    4c36:	11 97       	sbiw	r26, 0x01	; 1
    4c38:	82 30       	cpi	r24, 0x02	; 2
    4c3a:	f1 f0       	breq	.+60     	; 0x4c78 <__fpcmp_parts_f+0x88>
    4c3c:	81 81       	ldd	r24, Z+1	; 0x01
    4c3e:	18 17       	cp	r17, r24
    4c40:	d9 f4       	brne	.+54     	; 0x4c78 <__fpcmp_parts_f+0x88>
    4c42:	12 96       	adiw	r26, 0x02	; 2
    4c44:	2d 91       	ld	r18, X+
    4c46:	3c 91       	ld	r19, X
    4c48:	13 97       	sbiw	r26, 0x03	; 3
    4c4a:	82 81       	ldd	r24, Z+2	; 0x02
    4c4c:	93 81       	ldd	r25, Z+3	; 0x03
    4c4e:	82 17       	cp	r24, r18
    4c50:	93 07       	cpc	r25, r19
    4c52:	94 f0       	brlt	.+36     	; 0x4c78 <__fpcmp_parts_f+0x88>
    4c54:	28 17       	cp	r18, r24
    4c56:	39 07       	cpc	r19, r25
    4c58:	bc f0       	brlt	.+46     	; 0x4c88 <__fpcmp_parts_f+0x98>
    4c5a:	14 96       	adiw	r26, 0x04	; 4
    4c5c:	8d 91       	ld	r24, X+
    4c5e:	9d 91       	ld	r25, X+
    4c60:	0d 90       	ld	r0, X+
    4c62:	bc 91       	ld	r27, X
    4c64:	a0 2d       	mov	r26, r0
    4c66:	24 81       	ldd	r18, Z+4	; 0x04
    4c68:	35 81       	ldd	r19, Z+5	; 0x05
    4c6a:	46 81       	ldd	r20, Z+6	; 0x06
    4c6c:	57 81       	ldd	r21, Z+7	; 0x07
    4c6e:	28 17       	cp	r18, r24
    4c70:	39 07       	cpc	r19, r25
    4c72:	4a 07       	cpc	r20, r26
    4c74:	5b 07       	cpc	r21, r27
    4c76:	18 f4       	brcc	.+6      	; 0x4c7e <__fpcmp_parts_f+0x8e>
    4c78:	11 23       	and	r17, r17
    4c7a:	41 f0       	breq	.+16     	; 0x4c8c <__fpcmp_parts_f+0x9c>
    4c7c:	0a c0       	rjmp	.+20     	; 0x4c92 <__fpcmp_parts_f+0xa2>
    4c7e:	82 17       	cp	r24, r18
    4c80:	93 07       	cpc	r25, r19
    4c82:	a4 07       	cpc	r26, r20
    4c84:	b5 07       	cpc	r27, r21
    4c86:	40 f4       	brcc	.+16     	; 0x4c98 <__fpcmp_parts_f+0xa8>
    4c88:	11 23       	and	r17, r17
    4c8a:	19 f0       	breq	.+6      	; 0x4c92 <__fpcmp_parts_f+0xa2>
    4c8c:	61 e0       	ldi	r22, 0x01	; 1
    4c8e:	70 e0       	ldi	r23, 0x00	; 0
    4c90:	05 c0       	rjmp	.+10     	; 0x4c9c <__fpcmp_parts_f+0xac>
    4c92:	6f ef       	ldi	r22, 0xFF	; 255
    4c94:	7f ef       	ldi	r23, 0xFF	; 255
    4c96:	02 c0       	rjmp	.+4      	; 0x4c9c <__fpcmp_parts_f+0xac>
    4c98:	60 e0       	ldi	r22, 0x00	; 0
    4c9a:	70 e0       	ldi	r23, 0x00	; 0
    4c9c:	cb 01       	movw	r24, r22
    4c9e:	1f 91       	pop	r17
    4ca0:	08 95       	ret

00004ca2 <strcmp>:
    4ca2:	fb 01       	movw	r30, r22
    4ca4:	dc 01       	movw	r26, r24
    4ca6:	8d 91       	ld	r24, X+
    4ca8:	01 90       	ld	r0, Z+
    4caa:	80 19       	sub	r24, r0
    4cac:	01 10       	cpse	r0, r1
    4cae:	d9 f3       	breq	.-10     	; 0x4ca6 <strcmp+0x4>
    4cb0:	99 0b       	sbc	r25, r25
    4cb2:	08 95       	ret

00004cb4 <__udivmodqi4>:
    4cb4:	99 1b       	sub	r25, r25
    4cb6:	79 e0       	ldi	r23, 0x09	; 9
    4cb8:	04 c0       	rjmp	.+8      	; 0x4cc2 <__udivmodqi4_ep>

00004cba <__udivmodqi4_loop>:
    4cba:	99 1f       	adc	r25, r25
    4cbc:	96 17       	cp	r25, r22
    4cbe:	08 f0       	brcs	.+2      	; 0x4cc2 <__udivmodqi4_ep>
    4cc0:	96 1b       	sub	r25, r22

00004cc2 <__udivmodqi4_ep>:
    4cc2:	88 1f       	adc	r24, r24
    4cc4:	7a 95       	dec	r23
    4cc6:	c9 f7       	brne	.-14     	; 0x4cba <__udivmodqi4_loop>
    4cc8:	80 95       	com	r24
    4cca:	08 95       	ret

00004ccc <__divmodhi4>:
    4ccc:	97 fb       	bst	r25, 7
    4cce:	09 2e       	mov	r0, r25
    4cd0:	07 26       	eor	r0, r23
    4cd2:	0a d0       	rcall	.+20     	; 0x4ce8 <__divmodhi4_neg1>
    4cd4:	77 fd       	sbrc	r23, 7
    4cd6:	04 d0       	rcall	.+8      	; 0x4ce0 <__divmodhi4_neg2>
    4cd8:	0c d0       	rcall	.+24     	; 0x4cf2 <__udivmodhi4>
    4cda:	06 d0       	rcall	.+12     	; 0x4ce8 <__divmodhi4_neg1>
    4cdc:	00 20       	and	r0, r0
    4cde:	1a f4       	brpl	.+6      	; 0x4ce6 <__divmodhi4_exit>

00004ce0 <__divmodhi4_neg2>:
    4ce0:	70 95       	com	r23
    4ce2:	61 95       	neg	r22
    4ce4:	7f 4f       	sbci	r23, 0xFF	; 255

00004ce6 <__divmodhi4_exit>:
    4ce6:	08 95       	ret

00004ce8 <__divmodhi4_neg1>:
    4ce8:	f6 f7       	brtc	.-4      	; 0x4ce6 <__divmodhi4_exit>
    4cea:	90 95       	com	r25
    4cec:	81 95       	neg	r24
    4cee:	9f 4f       	sbci	r25, 0xFF	; 255
    4cf0:	08 95       	ret

00004cf2 <__udivmodhi4>:
    4cf2:	aa 1b       	sub	r26, r26
    4cf4:	bb 1b       	sub	r27, r27
    4cf6:	51 e1       	ldi	r21, 0x11	; 17
    4cf8:	07 c0       	rjmp	.+14     	; 0x4d08 <__udivmodhi4_ep>

00004cfa <__udivmodhi4_loop>:
    4cfa:	aa 1f       	adc	r26, r26
    4cfc:	bb 1f       	adc	r27, r27
    4cfe:	a6 17       	cp	r26, r22
    4d00:	b7 07       	cpc	r27, r23
    4d02:	10 f0       	brcs	.+4      	; 0x4d08 <__udivmodhi4_ep>
    4d04:	a6 1b       	sub	r26, r22
    4d06:	b7 0b       	sbc	r27, r23

00004d08 <__udivmodhi4_ep>:
    4d08:	88 1f       	adc	r24, r24
    4d0a:	99 1f       	adc	r25, r25
    4d0c:	5a 95       	dec	r21
    4d0e:	a9 f7       	brne	.-22     	; 0x4cfa <__udivmodhi4_loop>
    4d10:	80 95       	com	r24
    4d12:	90 95       	com	r25
    4d14:	bc 01       	movw	r22, r24
    4d16:	cd 01       	movw	r24, r26
    4d18:	08 95       	ret

00004d1a <__prologue_saves__>:
    4d1a:	2f 92       	push	r2
    4d1c:	3f 92       	push	r3
    4d1e:	4f 92       	push	r4
    4d20:	5f 92       	push	r5
    4d22:	6f 92       	push	r6
    4d24:	7f 92       	push	r7
    4d26:	8f 92       	push	r8
    4d28:	9f 92       	push	r9
    4d2a:	af 92       	push	r10
    4d2c:	bf 92       	push	r11
    4d2e:	cf 92       	push	r12
    4d30:	df 92       	push	r13
    4d32:	ef 92       	push	r14
    4d34:	ff 92       	push	r15
    4d36:	0f 93       	push	r16
    4d38:	1f 93       	push	r17
    4d3a:	cf 93       	push	r28
    4d3c:	df 93       	push	r29
    4d3e:	cd b7       	in	r28, 0x3d	; 61
    4d40:	de b7       	in	r29, 0x3e	; 62
    4d42:	ca 1b       	sub	r28, r26
    4d44:	db 0b       	sbc	r29, r27
    4d46:	0f b6       	in	r0, 0x3f	; 63
    4d48:	f8 94       	cli
    4d4a:	de bf       	out	0x3e, r29	; 62
    4d4c:	0f be       	out	0x3f, r0	; 63
    4d4e:	cd bf       	out	0x3d, r28	; 61
    4d50:	09 94       	ijmp

00004d52 <__epilogue_restores__>:
    4d52:	2a 88       	ldd	r2, Y+18	; 0x12
    4d54:	39 88       	ldd	r3, Y+17	; 0x11
    4d56:	48 88       	ldd	r4, Y+16	; 0x10
    4d58:	5f 84       	ldd	r5, Y+15	; 0x0f
    4d5a:	6e 84       	ldd	r6, Y+14	; 0x0e
    4d5c:	7d 84       	ldd	r7, Y+13	; 0x0d
    4d5e:	8c 84       	ldd	r8, Y+12	; 0x0c
    4d60:	9b 84       	ldd	r9, Y+11	; 0x0b
    4d62:	aa 84       	ldd	r10, Y+10	; 0x0a
    4d64:	b9 84       	ldd	r11, Y+9	; 0x09
    4d66:	c8 84       	ldd	r12, Y+8	; 0x08
    4d68:	df 80       	ldd	r13, Y+7	; 0x07
    4d6a:	ee 80       	ldd	r14, Y+6	; 0x06
    4d6c:	fd 80       	ldd	r15, Y+5	; 0x05
    4d6e:	0c 81       	ldd	r16, Y+4	; 0x04
    4d70:	1b 81       	ldd	r17, Y+3	; 0x03
    4d72:	aa 81       	ldd	r26, Y+2	; 0x02
    4d74:	b9 81       	ldd	r27, Y+1	; 0x01
    4d76:	ce 0f       	add	r28, r30
    4d78:	d1 1d       	adc	r29, r1
    4d7a:	0f b6       	in	r0, 0x3f	; 63
    4d7c:	f8 94       	cli
    4d7e:	de bf       	out	0x3e, r29	; 62
    4d80:	0f be       	out	0x3f, r0	; 63
    4d82:	cd bf       	out	0x3d, r28	; 61
    4d84:	ed 01       	movw	r28, r26
    4d86:	08 95       	ret

00004d88 <_exit>:
    4d88:	f8 94       	cli

00004d8a <__stop_program>:
    4d8a:	ff cf       	rjmp	.-2      	; 0x4d8a <__stop_program>
